

Microchip Technology PIC LITE Macro Assembler V2.00 build -1524193055 
                                                                                               Tue Jan 14 20:56:36 2020

Microchip Technology Omniscient Code Generator v2.00 (Free mode) build 20180527130849
     1  0000                     
      + 0000                     
     2                           ; Version 2.00
     3                           ; Generated 27/05/2018 GMT
     4                           
     5                           ; 
     6                           ; Copyright © 2018, Microchip Technology Inc. and its subsidiaries ("Microchip")
     7                           ; All rights reserved.
     8                           ; 
     9                           ; This software is developed by Microchip Technology Inc. and its subsidiaries ("Microch
                                 ip").
    10                           ; 
    11                           ; Redistribution and use in source and binary forms, with or without modification, are
    12                           ; permitted provided that the following conditions are met:
    13                           ; 
    14                           ;     1. Redistributions of source code must retain the above copyright notice, this lis
                                 t of
    15                           ;        conditions and the following disclaimer.
    16                           ; 
    17                           ;     2. Redistributions in binary form must reproduce the above copyright notice, this 
                                 list
    18                           ;        of conditions and the following disclaimer in the documentation and/or other
    19                           ;        materials provided with the distribution.
    20                           ; 
    21                           ;     3. Microchip's name may not be used to endorse or promote products derived from th
                                 is
    22                           ;        software without specific prior written permission.
    23                           ; 
    24                           ; THIS SOFTWARE IS PROVIDED BY MICROCHIP "AS IS" AND ANY EXPRESS OR IMPLIED WARRANTIES,

    25                           ; INCLUDING, BUT NOT LIMITED TO, THE IMPLIED WARRANTIES OF MERCHANTABILITY AND FITNESS F
                                 OR
    26                           ; PURPOSE ARE DISCLAIMED.  IN NO EVENT SHALL MICROCHIP BE LIABLE FOR ANY DIRECT, INDIREC
                                 T,
    27                           ; INCIDENTAL, SPECIAL, EXEMPLARY, OR CONSEQUENTIAL DAMAGES (INCLUDING BUT NOT LIMITED TO
                                 
    28                           ; PROCUREMENT OF SUBSTITUTE GOODS OR SERVICES; LOSS OF USE, DATA OR PROFITS; OR BUSINESS
                                 
    29                           ; INTERRUPTION) HOWSOEVER CAUSED AND ON ANY THEORY OF LIABILITY, WHETHER IN CONTRACT, ST
                                 RICT
    30                           ; LIABILITY, OR TORT (INCLUDING NEGLIGENCE OR OTHERWISE) ARISING IN ANY WAY OUT OF THE U
                                 SE OF
    31                           ; THIS SOFTWARE, EVEN IF ADVISED OF THE POSSIBILITY OF SUCH DAMAGE.
    32                           ; 
    33                           
    34                           
    35                           ; 
    36                           ; Code-generator required, PIC16F15325 Definitions
    37                           ; 
    38  0008                     fsr0h equ 05h
    39  0005                     fsr0l equ 04h
    40  0004                     fsr1h equ 07h
    41  0007                     fsr1l equ 06h
    42  0006                     indf equ 00h
    43  0000                     indf0 equ 00h
    44  0000                     indf1 equ 01h
    45  0001                     intcon equ 0Bh
    46  000B                     pc equ 02h
    47  0002                     pcl equ 02h
    48  0002                     pclath equ 0Ah
    49  000A                     status equ 03h
    50  0003                     wreg equ 09h
    51  0009                     
     2                           opt pagewidth 120
     3  0000                     byte0	macro	val
     4                           	(getbyte(val,0))
     5                           endm
     6  0000                     byte1	macro	val
     7                           	(getbyte(val,1))
     8                           endm
     9  0000                     byte2	macro	val
    10                           	(getbyte(val,2))
    11                           endm
    12  0000                     byte3	macro	val
    13                           	(getbyte(val,3))
    14                           endm
    15  0000                     byte4	macro	val
    16                           	(getbyte(val,4))
    17                           endm
    18  0000                     byte5	macro	val
    19                           	(getbyte(val,5))
    20                           endm
    21  0000                     byte6	macro	val
    22                           	(getbyte(val,6))
    23                           endm
    24  0000                     byte7	macro	val
    25                           	(getbyte(val,7))
    26                           endm
    27  0000                     getword	macro	val,pos
    28                           	(((val) >> (8 * pos)) and 0xffff)
    29                           endm
    30  0000                     word0	macro	val
    31                           	(getword(val,0))
    32                           endm
    33  0000                     word1	macro	val
    34                           	(getword(val,2))
    35                           endm
    36  0000                     word2	macro	val
    37                           	(getword(val,4))
    38                           endm
    39  0000                     word3	macro	val
    40                           	(getword(val,6))
    41                           endm
    42  0000                     gettword	macro	val,pos
    43                           	(((val) >> (8 * pos)) and 0xffffff)
    44                           endm
    45  0000                     tword0	macro	val
    46                           	(gettword(val,0))
    47                           endm
    48  0000                     tword1	macro	val
    49                           	(gettword(val,3))
    50                           endm
    51  0000                     tword2	macro	val
    52                           	(gettword(val,6))
    53                           endm
    54  0000                     getdword	macro	val,pos
    55                           	(((val) >> (8 * pos)) and 0xffffffff)
    56                           endm
    57  0000                     dword0	macro	val
    58                           	(getdword(val,0))
    59                           endm
    60  0000                     dword1	macro	val
    61                           	(getdword(val,4))
    62                           endm
    63  0000                     clrc	macro
    64                           	bcf	3,0
    65                           	endm
    66  0000                     clrz	macro
    67                           	bcf	3,2
    68                           	endm
    69  0000                     setc	macro
    70                           	bsf	3,0
    71                           	endm
    72  0000                     setz	macro
    73                           	bsf	3,2
    74                           	endm
    75  0000                     skipc	macro
    76                           	btfss	3,0
    77                           	endm
    78  0000                     skipz	macro
    79                           	btfss	3,2
    80                           	endm
    81  0000                     skipnc	macro
    82                           	btfsc	3,0
    83                           	endm
    84  0000                     skipnz	macro
    85                           	btfsc	3,2
    86                           	endm
    87  0000                     pushw	macro
    88                           	movwi fsr1++
    89                           	endm
    90  0000                     popw	macro
    91                           	moviw --fsr1
    92                           	endm
    93  0000                     # 110 "C:\Program Files (x86)\Microchip\xc8\v2.00\pic\include\pic16f15325.h"
    94                           INDF0 equ 00h ;# 
    95  0000                     # 130 "C:\Program Files (x86)\Microchip\xc8\v2.00\pic\include\pic16f15325.h"
    96                           INDF1 equ 01h ;# 
    97  0001                     # 150 "C:\Program Files (x86)\Microchip\xc8\v2.00\pic\include\pic16f15325.h"
    98                           PCL equ 02h ;# 
    99  0002                     # 170 "C:\Program Files (x86)\Microchip\xc8\v2.00\pic\include\pic16f15325.h"
   100                           STATUS equ 03h ;# 
   101  0003                     # 233 "C:\Program Files (x86)\Microchip\xc8\v2.00\pic\include\pic16f15325.h"
   102                           FSR0L equ 04h ;# 
   103  0004                     # 253 "C:\Program Files (x86)\Microchip\xc8\v2.00\pic\include\pic16f15325.h"
   104                           FSR0H equ 05h ;# 
   105  0005                     # 277 "C:\Program Files (x86)\Microchip\xc8\v2.00\pic\include\pic16f15325.h"
   106                           FSR1L equ 06h ;# 
   107  0006                     # 297 "C:\Program Files (x86)\Microchip\xc8\v2.00\pic\include\pic16f15325.h"
   108                           FSR1H equ 07h ;# 
   109  0007                     # 317 "C:\Program Files (x86)\Microchip\xc8\v2.00\pic\include\pic16f15325.h"
   110                           BSR equ 08h ;# 
   111  0008                     # 375 "C:\Program Files (x86)\Microchip\xc8\v2.00\pic\include\pic16f15325.h"
   112                           WREG equ 09h ;# 
   113  0009                     # 395 "C:\Program Files (x86)\Microchip\xc8\v2.00\pic\include\pic16f15325.h"
   114                           PCLATH equ 0Ah ;# 
   115  000A                     # 415 "C:\Program Files (x86)\Microchip\xc8\v2.00\pic\include\pic16f15325.h"
   116                           INTCON equ 0Bh ;# 
   117  000B                     # 448 "C:\Program Files (x86)\Microchip\xc8\v2.00\pic\include\pic16f15325.h"
   118                           PORTA equ 0Ch ;# 
   119  000C                     # 498 "C:\Program Files (x86)\Microchip\xc8\v2.00\pic\include\pic16f15325.h"
   120                           PORTC equ 0Eh ;# 
   121  000E                     # 548 "C:\Program Files (x86)\Microchip\xc8\v2.00\pic\include\pic16f15325.h"
   122                           TRISA equ 012h ;# 
   123  0012                     # 593 "C:\Program Files (x86)\Microchip\xc8\v2.00\pic\include\pic16f15325.h"
   124                           TRISC equ 014h ;# 
   125  0014                     # 643 "C:\Program Files (x86)\Microchip\xc8\v2.00\pic\include\pic16f15325.h"
   126                           LATA equ 018h ;# 
   127  0018                     # 688 "C:\Program Files (x86)\Microchip\xc8\v2.00\pic\include\pic16f15325.h"
   128                           LATC equ 01Ah ;# 
   129  001A                     # 738 "C:\Program Files (x86)\Microchip\xc8\v2.00\pic\include\pic16f15325.h"
   130                           ADRES equ 09Bh ;# 
   131  009B                     # 745 "C:\Program Files (x86)\Microchip\xc8\v2.00\pic\include\pic16f15325.h"
   132                           ADRESL equ 09Bh ;# 
   133  009B                     # 815 "C:\Program Files (x86)\Microchip\xc8\v2.00\pic\include\pic16f15325.h"
   134                           ADRESH equ 09Ch ;# 
   135  009C                     # 885 "C:\Program Files (x86)\Microchip\xc8\v2.00\pic\include\pic16f15325.h"
   136                           ADCON0 equ 09Dh ;# 
   137  009D                     # 956 "C:\Program Files (x86)\Microchip\xc8\v2.00\pic\include\pic16f15325.h"
   138                           ADCON1 equ 09Eh ;# 
   139  009E                     # 1022 "C:\Program Files (x86)\Microchip\xc8\v2.00\pic\include\pic16f15325.h"
   140                           ADACT equ 09Fh ;# 
   141  009F                     # 1074 "C:\Program Files (x86)\Microchip\xc8\v2.00\pic\include\pic16f15325.h"
   142                           RC1REG equ 0119h ;# 
   143  0119                     # 1079 "C:\Program Files (x86)\Microchip\xc8\v2.00\pic\include\pic16f15325.h"
   144                           RCREG equ 0119h ;# 
   145  0119                     # 1083 "C:\Program Files (x86)\Microchip\xc8\v2.00\pic\include\pic16f15325.h"
   146                           RCREG1 equ 0119h ;# 
   147  0119                     # 1128 "C:\Program Files (x86)\Microchip\xc8\v2.00\pic\include\pic16f15325.h"
   148                           TX1REG equ 011Ah ;# 
   149  011A                     # 1133 "C:\Program Files (x86)\Microchip\xc8\v2.00\pic\include\pic16f15325.h"
   150                           TXREG1 equ 011Ah ;# 
   151  011A                     # 1137 "C:\Program Files (x86)\Microchip\xc8\v2.00\pic\include\pic16f15325.h"
   152                           TXREG equ 011Ah ;# 
   153  011A                     # 1182 "C:\Program Files (x86)\Microchip\xc8\v2.00\pic\include\pic16f15325.h"
   154                           SP1BRG equ 011Bh ;# 
   155  011B                     # 1189 "C:\Program Files (x86)\Microchip\xc8\v2.00\pic\include\pic16f15325.h"
   156                           SP1BRGL equ 011Bh ;# 
   157  011B                     # 1194 "C:\Program Files (x86)\Microchip\xc8\v2.00\pic\include\pic16f15325.h"
   158                           SPBRG equ 011Bh ;# 
   159  011B                     # 1198 "C:\Program Files (x86)\Microchip\xc8\v2.00\pic\include\pic16f15325.h"
   160                           SPBRG1 equ 011Bh ;# 
   161  011B                     # 1202 "C:\Program Files (x86)\Microchip\xc8\v2.00\pic\include\pic16f15325.h"
   162                           SPBRGL equ 011Bh ;# 
   163  011B                     # 1259 "C:\Program Files (x86)\Microchip\xc8\v2.00\pic\include\pic16f15325.h"
   164                           SP1BRGH equ 011Ch ;# 
   165  011C                     # 1264 "C:\Program Files (x86)\Microchip\xc8\v2.00\pic\include\pic16f15325.h"
   166                           SPBRGH equ 011Ch ;# 
   167  011C                     # 1268 "C:\Program Files (x86)\Microchip\xc8\v2.00\pic\include\pic16f15325.h"
   168                           SPBRGH1 equ 011Ch ;# 
   169  011C                     # 1313 "C:\Program Files (x86)\Microchip\xc8\v2.00\pic\include\pic16f15325.h"
   170                           RC1STA equ 011Dh ;# 
   171  011D                     # 1318 "C:\Program Files (x86)\Microchip\xc8\v2.00\pic\include\pic16f15325.h"
   172                           RCSTA1 equ 011Dh ;# 
   173  011D                     # 1322 "C:\Program Files (x86)\Microchip\xc8\v2.00\pic\include\pic16f15325.h"
   174                           RCSTA equ 011Dh ;# 
   175  011D                     # 1493 "C:\Program Files (x86)\Microchip\xc8\v2.00\pic\include\pic16f15325.h"
   176                           TX1STA equ 011Eh ;# 
   177  011E                     # 1498 "C:\Program Files (x86)\Microchip\xc8\v2.00\pic\include\pic16f15325.h"
   178                           TXSTA1 equ 011Eh ;# 
   179  011E                     # 1502 "C:\Program Files (x86)\Microchip\xc8\v2.00\pic\include\pic16f15325.h"
   180                           TXSTA equ 011Eh ;# 
   181  011E                     # 1673 "C:\Program Files (x86)\Microchip\xc8\v2.00\pic\include\pic16f15325.h"
   182                           BAUD1CON equ 011Fh ;# 
   183  011F                     # 1678 "C:\Program Files (x86)\Microchip\xc8\v2.00\pic\include\pic16f15325.h"
   184                           BAUDCON1 equ 011Fh ;# 
   185  011F                     # 1682 "C:\Program Files (x86)\Microchip\xc8\v2.00\pic\include\pic16f15325.h"
   186                           BAUDCTL1 equ 011Fh ;# 
   187  011F                     # 1686 "C:\Program Files (x86)\Microchip\xc8\v2.00\pic\include\pic16f15325.h"
   188                           BAUDCON equ 011Fh ;# 
   189  011F                     # 1690 "C:\Program Files (x86)\Microchip\xc8\v2.00\pic\include\pic16f15325.h"
   190                           BAUDCTL equ 011Fh ;# 
   191  011F                     # 1919 "C:\Program Files (x86)\Microchip\xc8\v2.00\pic\include\pic16f15325.h"
   192                           SSP1BUF equ 018Ch ;# 
   193  018C                     # 1939 "C:\Program Files (x86)\Microchip\xc8\v2.00\pic\include\pic16f15325.h"
   194                           SSP1ADD equ 018Dh ;# 
   195  018D                     # 2059 "C:\Program Files (x86)\Microchip\xc8\v2.00\pic\include\pic16f15325.h"
   196                           SSP1MSK equ 018Eh ;# 
   197  018E                     # 2129 "C:\Program Files (x86)\Microchip\xc8\v2.00\pic\include\pic16f15325.h"
   198                           SSP1STAT equ 018Fh ;# 
   199  018F                     # 2493 "C:\Program Files (x86)\Microchip\xc8\v2.00\pic\include\pic16f15325.h"
   200                           SSP1CON1 equ 0190h ;# 
   201  0190                     # 2613 "C:\Program Files (x86)\Microchip\xc8\v2.00\pic\include\pic16f15325.h"
   202                           SSP1CON2 equ 0191h ;# 
   203  0191                     # 2800 "C:\Program Files (x86)\Microchip\xc8\v2.00\pic\include\pic16f15325.h"
   204                           SSP1CON3 equ 0192h ;# 
   205  0192                     # 2862 "C:\Program Files (x86)\Microchip\xc8\v2.00\pic\include\pic16f15325.h"
   206                           TMR1 equ 020Ch ;# 
   207  020C                     # 2869 "C:\Program Files (x86)\Microchip\xc8\v2.00\pic\include\pic16f15325.h"
   208                           TMR1L equ 020Ch ;# 
   209  020C                     # 3039 "C:\Program Files (x86)\Microchip\xc8\v2.00\pic\include\pic16f15325.h"
   210                           TMR1H equ 020Dh ;# 
   211  020D                     # 3159 "C:\Program Files (x86)\Microchip\xc8\v2.00\pic\include\pic16f15325.h"
   212                           T1CON equ 020Eh ;# 
   213  020E                     # 3255 "C:\Program Files (x86)\Microchip\xc8\v2.00\pic\include\pic16f15325.h"
   214                           T1GCON equ 020Fh ;# 
   215  020F                     # 3260 "C:\Program Files (x86)\Microchip\xc8\v2.00\pic\include\pic16f15325.h"
   216                           PR1 equ 020Fh ;# 
   217  020F                     # 3451 "C:\Program Files (x86)\Microchip\xc8\v2.00\pic\include\pic16f15325.h"
   218                           T1GATE equ 0210h ;# 
   219  0210                     # 3456 "C:\Program Files (x86)\Microchip\xc8\v2.00\pic\include\pic16f15325.h"
   220                           TMR1GATE equ 0210h ;# 
   221  0210                     # 3617 "C:\Program Files (x86)\Microchip\xc8\v2.00\pic\include\pic16f15325.h"
   222                           T1CLK equ 0211h ;# 
   223  0211                     # 3622 "C:\Program Files (x86)\Microchip\xc8\v2.00\pic\include\pic16f15325.h"
   224                           TMR1CLK equ 0211h ;# 
   225  0211                     # 3759 "C:\Program Files (x86)\Microchip\xc8\v2.00\pic\include\pic16f15325.h"
   226                           T2TMR equ 028Ch ;# 
   227  028C                     # 3764 "C:\Program Files (x86)\Microchip\xc8\v2.00\pic\include\pic16f15325.h"
   228                           TMR2 equ 028Ch ;# 
   229  028C                     # 3813 "C:\Program Files (x86)\Microchip\xc8\v2.00\pic\include\pic16f15325.h"
   230                           T2PR equ 028Dh ;# 
   231  028D                     # 3818 "C:\Program Files (x86)\Microchip\xc8\v2.00\pic\include\pic16f15325.h"
   232                           PR2 equ 028Dh ;# 
   233  028D                     # 3867 "C:\Program Files (x86)\Microchip\xc8\v2.00\pic\include\pic16f15325.h"
   234                           T2CON equ 028Eh ;# 
   235  028E                     # 4013 "C:\Program Files (x86)\Microchip\xc8\v2.00\pic\include\pic16f15325.h"
   236                           T2HLT equ 028Fh ;# 
   237  028F                     # 4141 "C:\Program Files (x86)\Microchip\xc8\v2.00\pic\include\pic16f15325.h"
   238                           T2CLKCON equ 0290h ;# 
   239  0290                     # 4221 "C:\Program Files (x86)\Microchip\xc8\v2.00\pic\include\pic16f15325.h"
   240                           T2RST equ 0291h ;# 
   241  0291                     # 4301 "C:\Program Files (x86)\Microchip\xc8\v2.00\pic\include\pic16f15325.h"
   242                           CCPR1 equ 030Ch ;# 
   243  030C                     # 4308 "C:\Program Files (x86)\Microchip\xc8\v2.00\pic\include\pic16f15325.h"
   244                           CCPR1L equ 030Ch ;# 
   245  030C                     # 4328 "C:\Program Files (x86)\Microchip\xc8\v2.00\pic\include\pic16f15325.h"
   246                           CCPR1H equ 030Dh ;# 
   247  030D                     # 4348 "C:\Program Files (x86)\Microchip\xc8\v2.00\pic\include\pic16f15325.h"
   248                           CCP1CON equ 030Eh ;# 
   249  030E                     # 4475 "C:\Program Files (x86)\Microchip\xc8\v2.00\pic\include\pic16f15325.h"
   250                           CCP1CAP equ 030Fh ;# 
   251  030F                     # 4543 "C:\Program Files (x86)\Microchip\xc8\v2.00\pic\include\pic16f15325.h"
   252                           CCPR2 equ 0310h ;# 
   253  0310                     # 4550 "C:\Program Files (x86)\Microchip\xc8\v2.00\pic\include\pic16f15325.h"
   254                           CCPR2L equ 0310h ;# 
   255  0310                     # 4570 "C:\Program Files (x86)\Microchip\xc8\v2.00\pic\include\pic16f15325.h"
   256                           CCPR2H equ 0311h ;# 
   257  0311                     # 4590 "C:\Program Files (x86)\Microchip\xc8\v2.00\pic\include\pic16f15325.h"
   258                           CCP2CON equ 0312h ;# 
   259  0312                     # 4717 "C:\Program Files (x86)\Microchip\xc8\v2.00\pic\include\pic16f15325.h"
   260                           CCP2CAP equ 0313h ;# 
   261  0313                     # 4785 "C:\Program Files (x86)\Microchip\xc8\v2.00\pic\include\pic16f15325.h"
   262                           PWM3DC equ 0314h ;# 
   263  0314                     # 4792 "C:\Program Files (x86)\Microchip\xc8\v2.00\pic\include\pic16f15325.h"
   264                           PWM3DCL equ 0314h ;# 
   265  0314                     # 4858 "C:\Program Files (x86)\Microchip\xc8\v2.00\pic\include\pic16f15325.h"
   266                           PWM3DCH equ 0315h ;# 
   267  0315                     # 5028 "C:\Program Files (x86)\Microchip\xc8\v2.00\pic\include\pic16f15325.h"
   268                           PWM3CON equ 0316h ;# 
   269  0316                     # 5084 "C:\Program Files (x86)\Microchip\xc8\v2.00\pic\include\pic16f15325.h"
   270                           PWM4DC equ 0318h ;# 
   271  0318                     # 5091 "C:\Program Files (x86)\Microchip\xc8\v2.00\pic\include\pic16f15325.h"
   272                           PWM4DCL equ 0318h ;# 
   273  0318                     # 5157 "C:\Program Files (x86)\Microchip\xc8\v2.00\pic\include\pic16f15325.h"
   274                           PWM4DCH equ 0319h ;# 
   275  0319                     # 5327 "C:\Program Files (x86)\Microchip\xc8\v2.00\pic\include\pic16f15325.h"
   276                           PWM4CON equ 031Ah ;# 
   277  031A                     # 5383 "C:\Program Files (x86)\Microchip\xc8\v2.00\pic\include\pic16f15325.h"
   278                           PWM5DC equ 031Ch ;# 
   279  031C                     # 5390 "C:\Program Files (x86)\Microchip\xc8\v2.00\pic\include\pic16f15325.h"
   280                           PWM5DCL equ 031Ch ;# 
   281  031C                     # 5456 "C:\Program Files (x86)\Microchip\xc8\v2.00\pic\include\pic16f15325.h"
   282                           PWM5DCH equ 031Dh ;# 
   283  031D                     # 5626 "C:\Program Files (x86)\Microchip\xc8\v2.00\pic\include\pic16f15325.h"
   284                           PWM5CON equ 031Eh ;# 
   285  031E                     # 5682 "C:\Program Files (x86)\Microchip\xc8\v2.00\pic\include\pic16f15325.h"
   286                           PWM6DC equ 038Ch ;# 
   287  038C                     # 5689 "C:\Program Files (x86)\Microchip\xc8\v2.00\pic\include\pic16f15325.h"
   288                           PWM6DCL equ 038Ch ;# 
   289  038C                     # 5755 "C:\Program Files (x86)\Microchip\xc8\v2.00\pic\include\pic16f15325.h"
   290                           PWM6DCH equ 038Dh ;# 
   291  038D                     # 5925 "C:\Program Files (x86)\Microchip\xc8\v2.00\pic\include\pic16f15325.h"
   292                           PWM6CON equ 038Eh ;# 
   293  038E                     # 5983 "C:\Program Files (x86)\Microchip\xc8\v2.00\pic\include\pic16f15325.h"
   294                           NCO1ACC equ 058Ch ;# 
   295  058C                     # 5990 "C:\Program Files (x86)\Microchip\xc8\v2.00\pic\include\pic16f15325.h"
   296                           NCO1ACCL equ 058Ch ;# 
   297  058C                     # 6060 "C:\Program Files (x86)\Microchip\xc8\v2.00\pic\include\pic16f15325.h"
   298                           NCO1ACCH equ 058Dh ;# 
   299  058D                     # 6130 "C:\Program Files (x86)\Microchip\xc8\v2.00\pic\include\pic16f15325.h"
   300                           NCO1ACCU equ 058Eh ;# 
   301  058E                     # 6178 "C:\Program Files (x86)\Microchip\xc8\v2.00\pic\include\pic16f15325.h"
   302                           NCO1INC equ 058Fh ;# 
   303  058F                     # 6185 "C:\Program Files (x86)\Microchip\xc8\v2.00\pic\include\pic16f15325.h"
   304                           NCO1INCL equ 058Fh ;# 
   305  058F                     # 6255 "C:\Program Files (x86)\Microchip\xc8\v2.00\pic\include\pic16f15325.h"
   306                           NCO1INCH equ 0590h ;# 
   307  0590                     # 6325 "C:\Program Files (x86)\Microchip\xc8\v2.00\pic\include\pic16f15325.h"
   308                           NCO1INCU equ 0591h ;# 
   309  0591                     # 6371 "C:\Program Files (x86)\Microchip\xc8\v2.00\pic\include\pic16f15325.h"
   310                           NCO1CON equ 0592h ;# 
   311  0592                     # 6411 "C:\Program Files (x86)\Microchip\xc8\v2.00\pic\include\pic16f15325.h"
   312                           NCO1CLK equ 0593h ;# 
   313  0593                     # 6483 "C:\Program Files (x86)\Microchip\xc8\v2.00\pic\include\pic16f15325.h"
   314                           TMR0L equ 059Ch ;# 
   315  059C                     # 6488 "C:\Program Files (x86)\Microchip\xc8\v2.00\pic\include\pic16f15325.h"
   316                           TMR0 equ 059Ch ;# 
   317  059C                     # 6621 "C:\Program Files (x86)\Microchip\xc8\v2.00\pic\include\pic16f15325.h"
   318                           TMR0H equ 059Dh ;# 
   319  059D                     # 6626 "C:\Program Files (x86)\Microchip\xc8\v2.00\pic\include\pic16f15325.h"
   320                           PR0 equ 059Dh ;# 
   321  059D                     # 6875 "C:\Program Files (x86)\Microchip\xc8\v2.00\pic\include\pic16f15325.h"
   322                           T0CON0 equ 059Eh ;# 
   323  059E                     # 6940 "C:\Program Files (x86)\Microchip\xc8\v2.00\pic\include\pic16f15325.h"
   324                           T0CON1 equ 059Fh ;# 
   325  059F                     # 7051 "C:\Program Files (x86)\Microchip\xc8\v2.00\pic\include\pic16f15325.h"
   326                           CWG1CLKCON equ 060Ch ;# 
   327  060C                     # 7079 "C:\Program Files (x86)\Microchip\xc8\v2.00\pic\include\pic16f15325.h"
   328                           CWG1DAT equ 060Dh ;# 
   329  060D                     # 7125 "C:\Program Files (x86)\Microchip\xc8\v2.00\pic\include\pic16f15325.h"
   330                           CWG1DBR equ 060Eh ;# 
   331  060E                     # 7229 "C:\Program Files (x86)\Microchip\xc8\v2.00\pic\include\pic16f15325.h"
   332                           CWG1DBF equ 060Fh ;# 
   333  060F                     # 7333 "C:\Program Files (x86)\Microchip\xc8\v2.00\pic\include\pic16f15325.h"
   334                           CWG1CON0 equ 0610h ;# 
   335  0610                     # 7434 "C:\Program Files (x86)\Microchip\xc8\v2.00\pic\include\pic16f15325.h"
   336                           CWG1CON1 equ 0611h ;# 
   337  0611                     # 7512 "C:\Program Files (x86)\Microchip\xc8\v2.00\pic\include\pic16f15325.h"
   338                           CWG1AS0 equ 0612h ;# 
   339  0612                     # 7632 "C:\Program Files (x86)\Microchip\xc8\v2.00\pic\include\pic16f15325.h"
   340                           CWG1AS1 equ 0613h ;# 
   341  0613                     # 7676 "C:\Program Files (x86)\Microchip\xc8\v2.00\pic\include\pic16f15325.h"
   342                           CWG1STR equ 0614h ;# 
   343  0614                     # 7788 "C:\Program Files (x86)\Microchip\xc8\v2.00\pic\include\pic16f15325.h"
   344                           PIR0 equ 070Ch ;# 
   345  070C                     # 7821 "C:\Program Files (x86)\Microchip\xc8\v2.00\pic\include\pic16f15325.h"
   346                           PIR1 equ 070Dh ;# 
   347  070D                     # 7860 "C:\Program Files (x86)\Microchip\xc8\v2.00\pic\include\pic16f15325.h"
   348                           PIR2 equ 070Eh ;# 
   349  070E                     # 7893 "C:\Program Files (x86)\Microchip\xc8\v2.00\pic\include\pic16f15325.h"
   350                           PIR3 equ 070Fh ;# 
   351  070F                     # 7944 "C:\Program Files (x86)\Microchip\xc8\v2.00\pic\include\pic16f15325.h"
   352                           PIR4 equ 0710h ;# 
   353  0710                     # 7970 "C:\Program Files (x86)\Microchip\xc8\v2.00\pic\include\pic16f15325.h"
   354                           PIR5 equ 0711h ;# 
   355  0711                     # 8015 "C:\Program Files (x86)\Microchip\xc8\v2.00\pic\include\pic16f15325.h"
   356                           PIR6 equ 0712h ;# 
   357  0712                     # 8041 "C:\Program Files (x86)\Microchip\xc8\v2.00\pic\include\pic16f15325.h"
   358                           PIR7 equ 0713h ;# 
   359  0713                     # 8083 "C:\Program Files (x86)\Microchip\xc8\v2.00\pic\include\pic16f15325.h"
   360                           PIE0 equ 0716h ;# 
   361  0716                     # 8116 "C:\Program Files (x86)\Microchip\xc8\v2.00\pic\include\pic16f15325.h"
   362                           PIE1 equ 0717h ;# 
   363  0717                     # 8149 "C:\Program Files (x86)\Microchip\xc8\v2.00\pic\include\pic16f15325.h"
   364                           PIE2 equ 0718h ;# 
   365  0718                     # 8182 "C:\Program Files (x86)\Microchip\xc8\v2.00\pic\include\pic16f15325.h"
   366                           PIE3 equ 0719h ;# 
   367  0719                     # 8233 "C:\Program Files (x86)\Microchip\xc8\v2.00\pic\include\pic16f15325.h"
   368                           PIE4 equ 071Ah ;# 
   369  071A                     # 8259 "C:\Program Files (x86)\Microchip\xc8\v2.00\pic\include\pic16f15325.h"
   370                           PIE5 equ 071Bh ;# 
   371  071B                     # 8304 "C:\Program Files (x86)\Microchip\xc8\v2.00\pic\include\pic16f15325.h"
   372                           PIE6 equ 071Ch ;# 
   373  071C                     # 8330 "C:\Program Files (x86)\Microchip\xc8\v2.00\pic\include\pic16f15325.h"
   374                           PIE7 equ 071Dh ;# 
   375  071D                     # 8372 "C:\Program Files (x86)\Microchip\xc8\v2.00\pic\include\pic16f15325.h"
   376                           PMD0 equ 0796h ;# 
   377  0796                     # 8417 "C:\Program Files (x86)\Microchip\xc8\v2.00\pic\include\pic16f15325.h"
   378                           PMD1 equ 0797h ;# 
   379  0797                     # 8465 "C:\Program Files (x86)\Microchip\xc8\v2.00\pic\include\pic16f15325.h"
   380                           PMD2 equ 0798h ;# 
   381  0798                     # 8510 "C:\Program Files (x86)\Microchip\xc8\v2.00\pic\include\pic16f15325.h"
   382                           PMD3 equ 0799h ;# 
   383  0799                     # 8560 "C:\Program Files (x86)\Microchip\xc8\v2.00\pic\include\pic16f15325.h"
   384                           PMD4 equ 079Ah ;# 
   385  079A                     # 8600 "C:\Program Files (x86)\Microchip\xc8\v2.00\pic\include\pic16f15325.h"
   386                           PMD5 equ 079Bh ;# 
   387  079B                     # 8639 "C:\Program Files (x86)\Microchip\xc8\v2.00\pic\include\pic16f15325.h"
   388                           WDTCON0 equ 080Ch ;# 
   389  080C                     # 8714 "C:\Program Files (x86)\Microchip\xc8\v2.00\pic\include\pic16f15325.h"
   390                           WDTCON1 equ 080Dh ;# 
   391  080D                     # 8808 "C:\Program Files (x86)\Microchip\xc8\v2.00\pic\include\pic16f15325.h"
   392                           WDTPSL equ 080Eh ;# 
   393  080E                     # 8936 "C:\Program Files (x86)\Microchip\xc8\v2.00\pic\include\pic16f15325.h"
   394                           WDTPSH equ 080Fh ;# 
   395  080F                     # 9064 "C:\Program Files (x86)\Microchip\xc8\v2.00\pic\include\pic16f15325.h"
   396                           WDTTMR equ 0810h ;# 
   397  0810                     # 9152 "C:\Program Files (x86)\Microchip\xc8\v2.00\pic\include\pic16f15325.h"
   398                           BORCON equ 0811h ;# 
   399  0811                     # 9179 "C:\Program Files (x86)\Microchip\xc8\v2.00\pic\include\pic16f15325.h"
   400                           VREGCON equ 0812h ;# 
   401  0812                     # 9200 "C:\Program Files (x86)\Microchip\xc8\v2.00\pic\include\pic16f15325.h"
   402                           PCON0 equ 0813h ;# 
   403  0813                     # 9262 "C:\Program Files (x86)\Microchip\xc8\v2.00\pic\include\pic16f15325.h"
   404                           PCON1 equ 0814h ;# 
   405  0814                     # 9283 "C:\Program Files (x86)\Microchip\xc8\v2.00\pic\include\pic16f15325.h"
   406                           NVMADR equ 081Ah ;# 
   407  081A                     # 9290 "C:\Program Files (x86)\Microchip\xc8\v2.00\pic\include\pic16f15325.h"
   408                           NVMADRL equ 081Ah ;# 
   409  081A                     # 9352 "C:\Program Files (x86)\Microchip\xc8\v2.00\pic\include\pic16f15325.h"
   410                           NVMADRH equ 081Bh ;# 
   411  081B                     # 9408 "C:\Program Files (x86)\Microchip\xc8\v2.00\pic\include\pic16f15325.h"
   412                           NVMDAT equ 081Ch ;# 
   413  081C                     # 9415 "C:\Program Files (x86)\Microchip\xc8\v2.00\pic\include\pic16f15325.h"
   414                           NVMDATL equ 081Ch ;# 
   415  081C                     # 9477 "C:\Program Files (x86)\Microchip\xc8\v2.00\pic\include\pic16f15325.h"
   416                           NVMDATH equ 081Dh ;# 
   417  081D                     # 9527 "C:\Program Files (x86)\Microchip\xc8\v2.00\pic\include\pic16f15325.h"
   418                           NVMCON1 equ 081Eh ;# 
   419  081E                     # 9583 "C:\Program Files (x86)\Microchip\xc8\v2.00\pic\include\pic16f15325.h"
   420                           NVMCON2 equ 081Fh ;# 
   421  081F                     # 9603 "C:\Program Files (x86)\Microchip\xc8\v2.00\pic\include\pic16f15325.h"
   422                           CPUDOZE equ 088Ch ;# 
   423  088C                     # 9668 "C:\Program Files (x86)\Microchip\xc8\v2.00\pic\include\pic16f15325.h"
   424                           OSCCON1 equ 088Dh ;# 
   425  088D                     # 9738 "C:\Program Files (x86)\Microchip\xc8\v2.00\pic\include\pic16f15325.h"
   426                           OSCCON2 equ 088Eh ;# 
   427  088E                     # 9808 "C:\Program Files (x86)\Microchip\xc8\v2.00\pic\include\pic16f15325.h"
   428                           OSCCON3 equ 088Fh ;# 
   429  088F                     # 9848 "C:\Program Files (x86)\Microchip\xc8\v2.00\pic\include\pic16f15325.h"
   430                           OSCSTAT equ 0890h ;# 
   431  0890                     # 9905 "C:\Program Files (x86)\Microchip\xc8\v2.00\pic\include\pic16f15325.h"
   432                           OSCEN equ 0891h ;# 
   433  0891                     # 9956 "C:\Program Files (x86)\Microchip\xc8\v2.00\pic\include\pic16f15325.h"
   434                           OSCTUNE equ 0892h ;# 
   435  0892                     # 10014 "C:\Program Files (x86)\Microchip\xc8\v2.00\pic\include\pic16f15325.h"
   436                           OSCFRQ equ 0893h ;# 
   437  0893                     # 10054 "C:\Program Files (x86)\Microchip\xc8\v2.00\pic\include\pic16f15325.h"
   438                           CLKRCON equ 0895h ;# 
   439  0895                     # 10119 "C:\Program Files (x86)\Microchip\xc8\v2.00\pic\include\pic16f15325.h"
   440                           CLKRCLK equ 0896h ;# 
   441  0896                     # 10165 "C:\Program Files (x86)\Microchip\xc8\v2.00\pic\include\pic16f15325.h"
   442                           FVRCON equ 090Ch ;# 
   443  090C                     # 10241 "C:\Program Files (x86)\Microchip\xc8\v2.00\pic\include\pic16f15325.h"
   444                           DAC1CON0 equ 090Eh ;# 
   445  090E                     # 10342 "C:\Program Files (x86)\Microchip\xc8\v2.00\pic\include\pic16f15325.h"
   446                           DAC1CON1 equ 090Fh ;# 
   447  090F                     # 10394 "C:\Program Files (x86)\Microchip\xc8\v2.00\pic\include\pic16f15325.h"
   448                           ZCDCON equ 091Fh ;# 
   449  091F                     # 10440 "C:\Program Files (x86)\Microchip\xc8\v2.00\pic\include\pic16f15325.h"
   450                           CMOUT equ 098Fh ;# 
   451  098F                     # 10445 "C:\Program Files (x86)\Microchip\xc8\v2.00\pic\include\pic16f15325.h"
   452                           CMSTAT equ 098Fh ;# 
   453  098F                     # 10518 "C:\Program Files (x86)\Microchip\xc8\v2.00\pic\include\pic16f15325.h"
   454                           CM1CON0 equ 0990h ;# 
   455  0990                     # 10598 "C:\Program Files (x86)\Microchip\xc8\v2.00\pic\include\pic16f15325.h"
   456                           CM1CON1 equ 0991h ;# 
   457  0991                     # 10638 "C:\Program Files (x86)\Microchip\xc8\v2.00\pic\include\pic16f15325.h"
   458                           CM1NCH equ 0992h ;# 
   459  0992                     # 10698 "C:\Program Files (x86)\Microchip\xc8\v2.00\pic\include\pic16f15325.h"
   460                           CM1PCH equ 0993h ;# 
   461  0993                     # 10758 "C:\Program Files (x86)\Microchip\xc8\v2.00\pic\include\pic16f15325.h"
   462                           CM2CON0 equ 0994h ;# 
   463  0994                     # 10838 "C:\Program Files (x86)\Microchip\xc8\v2.00\pic\include\pic16f15325.h"
   464                           CM2CON1 equ 0995h ;# 
   465  0995                     # 10878 "C:\Program Files (x86)\Microchip\xc8\v2.00\pic\include\pic16f15325.h"
   466                           CM2NCH equ 0996h ;# 
   467  0996                     # 10938 "C:\Program Files (x86)\Microchip\xc8\v2.00\pic\include\pic16f15325.h"
   468                           CM2PCH equ 0997h ;# 
   469  0997                     # 10998 "C:\Program Files (x86)\Microchip\xc8\v2.00\pic\include\pic16f15325.h"
   470                           RC2REG equ 0A19h ;# 
   471  0A19                     # 11003 "C:\Program Files (x86)\Microchip\xc8\v2.00\pic\include\pic16f15325.h"
   472                           RCREG2 equ 0A19h ;# 
   473  0A19                     # 11036 "C:\Program Files (x86)\Microchip\xc8\v2.00\pic\include\pic16f15325.h"
   474                           TX2REG equ 0A1Ah ;# 
   475  0A1A                     # 11041 "C:\Program Files (x86)\Microchip\xc8\v2.00\pic\include\pic16f15325.h"
   476                           TXREG2 equ 0A1Ah ;# 
   477  0A1A                     # 11074 "C:\Program Files (x86)\Microchip\xc8\v2.00\pic\include\pic16f15325.h"
   478                           SP2BRG equ 0A1Bh ;# 
   479  0A1B                     # 11081 "C:\Program Files (x86)\Microchip\xc8\v2.00\pic\include\pic16f15325.h"
   480                           SP2BRGL equ 0A1Bh ;# 
   481  0A1B                     # 11086 "C:\Program Files (x86)\Microchip\xc8\v2.00\pic\include\pic16f15325.h"
   482                           SPBRG2 equ 0A1Bh ;# 
   483  0A1B                     # 11119 "C:\Program Files (x86)\Microchip\xc8\v2.00\pic\include\pic16f15325.h"
   484                           SP2BRGH equ 0A1Ch ;# 
   485  0A1C                     # 11124 "C:\Program Files (x86)\Microchip\xc8\v2.00\pic\include\pic16f15325.h"
   486                           SPBRGH2 equ 0A1Ch ;# 
   487  0A1C                     # 11157 "C:\Program Files (x86)\Microchip\xc8\v2.00\pic\include\pic16f15325.h"
   488                           RC2STA equ 0A1Dh ;# 
   489  0A1D                     # 11162 "C:\Program Files (x86)\Microchip\xc8\v2.00\pic\include\pic16f15325.h"
   490                           RCSTA2 equ 0A1Dh ;# 
   491  0A1D                     # 11279 "C:\Program Files (x86)\Microchip\xc8\v2.00\pic\include\pic16f15325.h"
   492                           TX2STA equ 0A1Eh ;# 
   493  0A1E                     # 11284 "C:\Program Files (x86)\Microchip\xc8\v2.00\pic\include\pic16f15325.h"
   494                           TXSTA2 equ 0A1Eh ;# 
   495  0A1E                     # 11401 "C:\Program Files (x86)\Microchip\xc8\v2.00\pic\include\pic16f15325.h"
   496                           BAUD2CON equ 0A1Fh ;# 
   497  0A1F                     # 11406 "C:\Program Files (x86)\Microchip\xc8\v2.00\pic\include\pic16f15325.h"
   498                           BAUDCON2 equ 0A1Fh ;# 
   499  0A1F                     # 11410 "C:\Program Files (x86)\Microchip\xc8\v2.00\pic\include\pic16f15325.h"
   500                           BAUDCTL2 equ 0A1Fh ;# 
   501  0A1F                     # 11551 "C:\Program Files (x86)\Microchip\xc8\v2.00\pic\include\pic16f15325.h"
   502                           CLCDATA equ 01E0Fh ;# 
   503  1E0F                     # 11589 "C:\Program Files (x86)\Microchip\xc8\v2.00\pic\include\pic16f15325.h"
   504                           CLC1CON equ 01E10h ;# 
   505  1E10                     # 11707 "C:\Program Files (x86)\Microchip\xc8\v2.00\pic\include\pic16f15325.h"
   506                           CLC1POL equ 01E11h ;# 
   507  1E11                     # 11785 "C:\Program Files (x86)\Microchip\xc8\v2.00\pic\include\pic16f15325.h"
   508                           CLC1SEL0 equ 01E12h ;# 
   509  1E12                     # 11889 "C:\Program Files (x86)\Microchip\xc8\v2.00\pic\include\pic16f15325.h"
   510                           CLC1SEL1 equ 01E13h ;# 
   511  1E13                     # 11993 "C:\Program Files (x86)\Microchip\xc8\v2.00\pic\include\pic16f15325.h"
   512                           CLC1SEL2 equ 01E14h ;# 
   513  1E14                     # 12097 "C:\Program Files (x86)\Microchip\xc8\v2.00\pic\include\pic16f15325.h"
   514                           CLC1SEL3 equ 01E15h ;# 
   515  1E15                     # 12201 "C:\Program Files (x86)\Microchip\xc8\v2.00\pic\include\pic16f15325.h"
   516                           CLC1GLS0 equ 01E16h ;# 
   517  1E16                     # 12313 "C:\Program Files (x86)\Microchip\xc8\v2.00\pic\include\pic16f15325.h"
   518                           CLC1GLS1 equ 01E17h ;# 
   519  1E17                     # 12425 "C:\Program Files (x86)\Microchip\xc8\v2.00\pic\include\pic16f15325.h"
   520                           CLC1GLS2 equ 01E18h ;# 
   521  1E18                     # 12537 "C:\Program Files (x86)\Microchip\xc8\v2.00\pic\include\pic16f15325.h"
   522                           CLC1GLS3 equ 01E19h ;# 
   523  1E19                     # 12649 "C:\Program Files (x86)\Microchip\xc8\v2.00\pic\include\pic16f15325.h"
   524                           CLC2CON equ 01E1Ah ;# 
   525  1E1A                     # 12767 "C:\Program Files (x86)\Microchip\xc8\v2.00\pic\include\pic16f15325.h"
   526                           CLC2POL equ 01E1Bh ;# 
   527  1E1B                     # 12845 "C:\Program Files (x86)\Microchip\xc8\v2.00\pic\include\pic16f15325.h"
   528                           CLC2SEL0 equ 01E1Ch ;# 
   529  1E1C                     # 12949 "C:\Program Files (x86)\Microchip\xc8\v2.00\pic\include\pic16f15325.h"
   530                           CLC2SEL1 equ 01E1Dh ;# 
   531  1E1D                     # 13053 "C:\Program Files (x86)\Microchip\xc8\v2.00\pic\include\pic16f15325.h"
   532                           CLC2SEL2 equ 01E1Eh ;# 
   533  1E1E                     # 13157 "C:\Program Files (x86)\Microchip\xc8\v2.00\pic\include\pic16f15325.h"
   534                           CLC2SEL3 equ 01E1Fh ;# 
   535  1E1F                     # 13261 "C:\Program Files (x86)\Microchip\xc8\v2.00\pic\include\pic16f15325.h"
   536                           CLC2GLS0 equ 01E20h ;# 
   537  1E20                     # 13373 "C:\Program Files (x86)\Microchip\xc8\v2.00\pic\include\pic16f15325.h"
   538                           CLC2GLS1 equ 01E21h ;# 
   539  1E21                     # 13485 "C:\Program Files (x86)\Microchip\xc8\v2.00\pic\include\pic16f15325.h"
   540                           CLC2GLS2 equ 01E22h ;# 
   541  1E22                     # 13597 "C:\Program Files (x86)\Microchip\xc8\v2.00\pic\include\pic16f15325.h"
   542                           CLC2GLS3 equ 01E23h ;# 
   543  1E23                     # 13709 "C:\Program Files (x86)\Microchip\xc8\v2.00\pic\include\pic16f15325.h"
   544                           CLC3CON equ 01E24h ;# 
   545  1E24                     # 13827 "C:\Program Files (x86)\Microchip\xc8\v2.00\pic\include\pic16f15325.h"
   546                           CLC3POL equ 01E25h ;# 
   547  1E25                     # 13905 "C:\Program Files (x86)\Microchip\xc8\v2.00\pic\include\pic16f15325.h"
   548                           CLC3SEL0 equ 01E26h ;# 
   549  1E26                     # 14009 "C:\Program Files (x86)\Microchip\xc8\v2.00\pic\include\pic16f15325.h"
   550                           CLC3SEL1 equ 01E27h ;# 
   551  1E27                     # 14113 "C:\Program Files (x86)\Microchip\xc8\v2.00\pic\include\pic16f15325.h"
   552                           CLC3SEL2 equ 01E28h ;# 
   553  1E28                     # 14217 "C:\Program Files (x86)\Microchip\xc8\v2.00\pic\include\pic16f15325.h"
   554                           CLC3SEL3 equ 01E29h ;# 
   555  1E29                     # 14321 "C:\Program Files (x86)\Microchip\xc8\v2.00\pic\include\pic16f15325.h"
   556                           CLC3GLS0 equ 01E2Ah ;# 
   557  1E2A                     # 14433 "C:\Program Files (x86)\Microchip\xc8\v2.00\pic\include\pic16f15325.h"
   558                           CLC3GLS1 equ 01E2Bh ;# 
   559  1E2B                     # 14545 "C:\Program Files (x86)\Microchip\xc8\v2.00\pic\include\pic16f15325.h"
   560                           CLC3GLS2 equ 01E2Ch ;# 
   561  1E2C                     # 14657 "C:\Program Files (x86)\Microchip\xc8\v2.00\pic\include\pic16f15325.h"
   562                           CLC3GLS3 equ 01E2Dh ;# 
   563  1E2D                     # 14769 "C:\Program Files (x86)\Microchip\xc8\v2.00\pic\include\pic16f15325.h"
   564                           CLC4CON equ 01E2Eh ;# 
   565  1E2E                     # 14887 "C:\Program Files (x86)\Microchip\xc8\v2.00\pic\include\pic16f15325.h"
   566                           CLC4POL equ 01E2Fh ;# 
   567  1E2F                     # 14965 "C:\Program Files (x86)\Microchip\xc8\v2.00\pic\include\pic16f15325.h"
   568                           CLC4SEL0 equ 01E30h ;# 
   569  1E30                     # 15069 "C:\Program Files (x86)\Microchip\xc8\v2.00\pic\include\pic16f15325.h"
   570                           CLC4SEL1 equ 01E31h ;# 
   571  1E31                     # 15173 "C:\Program Files (x86)\Microchip\xc8\v2.00\pic\include\pic16f15325.h"
   572                           CLC4SEL2 equ 01E32h ;# 
   573  1E32                     # 15277 "C:\Program Files (x86)\Microchip\xc8\v2.00\pic\include\pic16f15325.h"
   574                           CLC4SEL3 equ 01E33h ;# 
   575  1E33                     # 15381 "C:\Program Files (x86)\Microchip\xc8\v2.00\pic\include\pic16f15325.h"
   576                           CLC4GLS0 equ 01E34h ;# 
   577  1E34                     # 15493 "C:\Program Files (x86)\Microchip\xc8\v2.00\pic\include\pic16f15325.h"
   578                           CLC4GLS1 equ 01E35h ;# 
   579  1E35                     # 15605 "C:\Program Files (x86)\Microchip\xc8\v2.00\pic\include\pic16f15325.h"
   580                           CLC4GLS2 equ 01E36h ;# 
   581  1E36                     # 15717 "C:\Program Files (x86)\Microchip\xc8\v2.00\pic\include\pic16f15325.h"
   582                           CLC4GLS3 equ 01E37h ;# 
   583  1E37                     # 15829 "C:\Program Files (x86)\Microchip\xc8\v2.00\pic\include\pic16f15325.h"
   584                           PPSLOCK equ 01E8Fh ;# 
   585  1E8F                     # 15849 "C:\Program Files (x86)\Microchip\xc8\v2.00\pic\include\pic16f15325.h"
   586                           INTPPS equ 01E90h ;# 
   587  1E90                     # 15907 "C:\Program Files (x86)\Microchip\xc8\v2.00\pic\include\pic16f15325.h"
   588                           T0CKIPPS equ 01E91h ;# 
   589  1E91                     # 15965 "C:\Program Files (x86)\Microchip\xc8\v2.00\pic\include\pic16f15325.h"
   590                           T1CKIPPS equ 01E92h ;# 
   591  1E92                     # 16023 "C:\Program Files (x86)\Microchip\xc8\v2.00\pic\include\pic16f15325.h"
   592                           T1GPPS equ 01E93h ;# 
   593  1E93                     # 16081 "C:\Program Files (x86)\Microchip\xc8\v2.00\pic\include\pic16f15325.h"
   594                           T2INPPS equ 01E9Ch ;# 
   595  1E9C                     # 16139 "C:\Program Files (x86)\Microchip\xc8\v2.00\pic\include\pic16f15325.h"
   596                           CCP1PPS equ 01EA1h ;# 
   597  1EA1                     # 16197 "C:\Program Files (x86)\Microchip\xc8\v2.00\pic\include\pic16f15325.h"
   598                           CCP2PPS equ 01EA2h ;# 
   599  1EA2                     # 16255 "C:\Program Files (x86)\Microchip\xc8\v2.00\pic\include\pic16f15325.h"
   600                           CWG1PPS equ 01EB1h ;# 
   601  1EB1                     # 16313 "C:\Program Files (x86)\Microchip\xc8\v2.00\pic\include\pic16f15325.h"
   602                           CLCIN0PPS equ 01EBBh ;# 
   603  1EBB                     # 16371 "C:\Program Files (x86)\Microchip\xc8\v2.00\pic\include\pic16f15325.h"
   604                           CLCIN1PPS equ 01EBCh ;# 
   605  1EBC                     # 16429 "C:\Program Files (x86)\Microchip\xc8\v2.00\pic\include\pic16f15325.h"
   606                           CLCIN2PPS equ 01EBDh ;# 
   607  1EBD                     # 16487 "C:\Program Files (x86)\Microchip\xc8\v2.00\pic\include\pic16f15325.h"
   608                           CLCIN3PPS equ 01EBEh ;# 
   609  1EBE                     # 16545 "C:\Program Files (x86)\Microchip\xc8\v2.00\pic\include\pic16f15325.h"
   610                           ADACTPPS equ 01EC3h ;# 
   611  1EC3                     # 16603 "C:\Program Files (x86)\Microchip\xc8\v2.00\pic\include\pic16f15325.h"
   612                           SSP1CLKPPS equ 01EC5h ;# 
   613  1EC5                     # 16661 "C:\Program Files (x86)\Microchip\xc8\v2.00\pic\include\pic16f15325.h"
   614                           SSP1DATPPS equ 01EC6h ;# 
   615  1EC6                     # 16719 "C:\Program Files (x86)\Microchip\xc8\v2.00\pic\include\pic16f15325.h"
   616                           SSP1SSPPS equ 01EC7h ;# 
   617  1EC7                     # 16777 "C:\Program Files (x86)\Microchip\xc8\v2.00\pic\include\pic16f15325.h"
   618                           RX1DTPPS equ 01ECBh ;# 
   619  1ECB                     # 16835 "C:\Program Files (x86)\Microchip\xc8\v2.00\pic\include\pic16f15325.h"
   620                           TX1CKPPS equ 01ECCh ;# 
   621  1ECC                     # 16893 "C:\Program Files (x86)\Microchip\xc8\v2.00\pic\include\pic16f15325.h"
   622                           RX2DTPPS equ 01ECDh ;# 
   623  1ECD                     # 16951 "C:\Program Files (x86)\Microchip\xc8\v2.00\pic\include\pic16f15325.h"
   624                           TX2CKPPS equ 01ECEh ;# 
   625  1ECE                     # 17009 "C:\Program Files (x86)\Microchip\xc8\v2.00\pic\include\pic16f15325.h"
   626                           RA0PPS equ 01F10h ;# 
   627  1F10                     # 17053 "C:\Program Files (x86)\Microchip\xc8\v2.00\pic\include\pic16f15325.h"
   628                           RA1PPS equ 01F11h ;# 
   629  1F11                     # 17097 "C:\Program Files (x86)\Microchip\xc8\v2.00\pic\include\pic16f15325.h"
   630                           RA2PPS equ 01F12h ;# 
   631  1F12                     # 17141 "C:\Program Files (x86)\Microchip\xc8\v2.00\pic\include\pic16f15325.h"
   632                           RA3PPS equ 01F13h ;# 
   633  1F13                     # 17185 "C:\Program Files (x86)\Microchip\xc8\v2.00\pic\include\pic16f15325.h"
   634                           RA4PPS equ 01F14h ;# 
   635  1F14                     # 17229 "C:\Program Files (x86)\Microchip\xc8\v2.00\pic\include\pic16f15325.h"
   636                           RA5PPS equ 01F15h ;# 
   637  1F15                     # 17273 "C:\Program Files (x86)\Microchip\xc8\v2.00\pic\include\pic16f15325.h"
   638                           RC0PPS equ 01F20h ;# 
   639  1F20                     # 17317 "C:\Program Files (x86)\Microchip\xc8\v2.00\pic\include\pic16f15325.h"
   640                           RC1PPS equ 01F21h ;# 
   641  1F21                     # 17361 "C:\Program Files (x86)\Microchip\xc8\v2.00\pic\include\pic16f15325.h"
   642                           RC2PPS equ 01F22h ;# 
   643  1F22                     # 17405 "C:\Program Files (x86)\Microchip\xc8\v2.00\pic\include\pic16f15325.h"
   644                           RC3PPS equ 01F23h ;# 
   645  1F23                     # 17449 "C:\Program Files (x86)\Microchip\xc8\v2.00\pic\include\pic16f15325.h"
   646                           RC4PPS equ 01F24h ;# 
   647  1F24                     # 17493 "C:\Program Files (x86)\Microchip\xc8\v2.00\pic\include\pic16f15325.h"
   648                           RC5PPS equ 01F25h ;# 
   649  1F25                     # 17537 "C:\Program Files (x86)\Microchip\xc8\v2.00\pic\include\pic16f15325.h"
   650                           ANSELA equ 01F38h ;# 
   651  1F38                     # 17582 "C:\Program Files (x86)\Microchip\xc8\v2.00\pic\include\pic16f15325.h"
   652                           WPUA equ 01F39h ;# 
   653  1F39                     # 17632 "C:\Program Files (x86)\Microchip\xc8\v2.00\pic\include\pic16f15325.h"
   654                           ODCONA equ 01F3Ah ;# 
   655  1F3A                     # 17677 "C:\Program Files (x86)\Microchip\xc8\v2.00\pic\include\pic16f15325.h"
   656                           SLRCONA equ 01F3Bh ;# 
   657  1F3B                     # 17722 "C:\Program Files (x86)\Microchip\xc8\v2.00\pic\include\pic16f15325.h"
   658                           INLVLA equ 01F3Ch ;# 
   659  1F3C                     # 17772 "C:\Program Files (x86)\Microchip\xc8\v2.00\pic\include\pic16f15325.h"
   660                           IOCAP equ 01F3Dh ;# 
   661  1F3D                     # 17822 "C:\Program Files (x86)\Microchip\xc8\v2.00\pic\include\pic16f15325.h"
   662                           IOCAN equ 01F3Eh ;# 
   663  1F3E                     # 17872 "C:\Program Files (x86)\Microchip\xc8\v2.00\pic\include\pic16f15325.h"
   664                           IOCAF equ 01F3Fh ;# 
   665  1F3F                     # 17922 "C:\Program Files (x86)\Microchip\xc8\v2.00\pic\include\pic16f15325.h"
   666                           ANSELC equ 01F4Eh ;# 
   667  1F4E                     # 17972 "C:\Program Files (x86)\Microchip\xc8\v2.00\pic\include\pic16f15325.h"
   668                           WPUC equ 01F4Fh ;# 
   669  1F4F                     # 18022 "C:\Program Files (x86)\Microchip\xc8\v2.00\pic\include\pic16f15325.h"
   670                           ODCONC equ 01F50h ;# 
   671  1F50                     # 18072 "C:\Program Files (x86)\Microchip\xc8\v2.00\pic\include\pic16f15325.h"
   672                           SLRCONC equ 01F51h ;# 
   673  1F51                     # 18122 "C:\Program Files (x86)\Microchip\xc8\v2.00\pic\include\pic16f15325.h"
   674                           INLVLC equ 01F52h ;# 
   675  1F52                     # 18172 "C:\Program Files (x86)\Microchip\xc8\v2.00\pic\include\pic16f15325.h"
   676                           IOCCP equ 01F53h ;# 
   677  1F53                     # 18222 "C:\Program Files (x86)\Microchip\xc8\v2.00\pic\include\pic16f15325.h"
   678                           IOCCN equ 01F54h ;# 
   679  1F54                     # 18272 "C:\Program Files (x86)\Microchip\xc8\v2.00\pic\include\pic16f15325.h"
   680                           IOCCF equ 01F55h ;# 
   681  1F55                     # 18322 "C:\Program Files (x86)\Microchip\xc8\v2.00\pic\include\pic16f15325.h"
   682                           STATUS_SHAD equ 01FE4h ;# 
   683  1FE4                     # 18362 "C:\Program Files (x86)\Microchip\xc8\v2.00\pic\include\pic16f15325.h"
   684                           WREG_SHAD equ 01FE5h ;# 
   685  1FE5                     # 18382 "C:\Program Files (x86)\Microchip\xc8\v2.00\pic\include\pic16f15325.h"
   686                           BSR_SHAD equ 01FE6h ;# 
   687  1FE6                     # 18402 "C:\Program Files (x86)\Microchip\xc8\v2.00\pic\include\pic16f15325.h"
   688                           PCLATH_SHAD equ 01FE7h ;# 
   689  1FE7                     # 18422 "C:\Program Files (x86)\Microchip\xc8\v2.00\pic\include\pic16f15325.h"
   690                           FSR0_SHAD equ 01FE8h ;# 
   691  1FE8                     # 18429 "C:\Program Files (x86)\Microchip\xc8\v2.00\pic\include\pic16f15325.h"
   692                           FSR0L_SHAD equ 01FE8h ;# 
   693  1FE8                     # 18449 "C:\Program Files (x86)\Microchip\xc8\v2.00\pic\include\pic16f15325.h"
   694                           FSR0H_SHAD equ 01FE9h ;# 
   695  1FE9                     # 18469 "C:\Program Files (x86)\Microchip\xc8\v2.00\pic\include\pic16f15325.h"
   696                           FSR1_SHAD equ 01FEAh ;# 
   697  1FEA                     # 18476 "C:\Program Files (x86)\Microchip\xc8\v2.00\pic\include\pic16f15325.h"
   698                           FSR1L_SHAD equ 01FEAh ;# 
   699  1FEA                     # 18496 "C:\Program Files (x86)\Microchip\xc8\v2.00\pic\include\pic16f15325.h"
   700                           FSR1H_SHAD equ 01FEBh ;# 
   701  1FEB                     # 18516 "C:\Program Files (x86)\Microchip\xc8\v2.00\pic\include\pic16f15325.h"
   702                           STKPTR equ 01FEDh ;# 
   703  1FED                     # 18560 "C:\Program Files (x86)\Microchip\xc8\v2.00\pic\include\pic16f15325.h"
   704                           TOSL equ 01FEEh ;# 
   705  1FEE                     # 18630 "C:\Program Files (x86)\Microchip\xc8\v2.00\pic\include\pic16f15325.h"
   706                           TOSH equ 01FEFh ;# 
   707  1FEF                     	FNCALL	_main,_eusartTransmit
   708                           	FNCALL	_main,_initialize
   709                           	FNCALL	_main,_sprintf
   710                           	FNCALL	_sprintf,_vfprintf
   711                           	FNCALL	_vfprintf,_vfpfcnvrt
   712                           	FNCALL	_vfpfcnvrt,_atoi
   713                           	FNCALL	_vfpfcnvrt,_efgtoa
   714                           	FNCALL	_vfpfcnvrt,_fputc
   715                           	FNCALL	_vfpfcnvrt,_isdigit
   716                           	FNCALL	_vfpfcnvrt,_isupper
   717                           	FNCALL	_vfpfcnvrt,_strncmp
   718                           	FNCALL	_vfpfcnvrt,_tolower
   719                           	FNCALL	_efgtoa,___awdiv
   720                           	FNCALL	_efgtoa,___awmod
   721                           	FNCALL	_efgtoa,___fladd
   722                           	FNCALL	_efgtoa,___fldiv
   723                           	FNCALL	_efgtoa,___fleq
   724                           	FNCALL	_efgtoa,___flge
   725                           	FNCALL	_efgtoa,___flmul
   726                           	FNCALL	_efgtoa,___flneg
   727                           	FNCALL	_efgtoa,___flsub
   728                           	FNCALL	_efgtoa,___fltol
   729                           	FNCALL	_efgtoa,___fpclassifyf
   730                           	FNCALL	_efgtoa,_floorf
   731                           	FNCALL	_efgtoa,_isupper
   732                           	FNCALL	_efgtoa,_pad
   733                           	FNCALL	_efgtoa,_strcpy
   734                           	FNCALL	_efgtoa,_tolower
   735                           	FNCALL	_tolower,_isupper
   736                           	FNCALL	_pad,_fputc
   737                           	FNCALL	_pad,_fputs
   738                           	FNCALL	_pad,_strlen
   739                           	FNCALL	_fputs,_fputc
   740                           	FNCALL	_fputc,_putch
   741                           	FNCALL	___flsub,___fladd
   742                           	FNCALL	___flmul,__Umul8_16
   743                           	FNCALL	_atoi,___wmul
   744                           	FNCALL	_atoi,_isdigit
   745                           	FNCALL	_atoi,_isspace
   746                           	FNROOT	_main
   747                           	FNCALL	intlevel1,_ISR
   748                           	global	intlevel1
   749                           	FNROOT	intlevel1
   750                           	global	floorf@F514
   751                           	global	___fpclassifyf@F453
   752                           	global	_nout
   753                           	global	_width
   754                           	global	_prec
   755                           	global	_flags
   756                           	global	_dbuf
   757                           	global	_TRISC
   758                           _TRISC	set	0x14
   759  0014                     	global	_TRISA
   760                           _TRISA	set	0x12
   761  0012                     	global	_TX1STA
   762                           _TX1STA	set	0x11E
   763  011E                     	global	_RC1STA
   764                           _RC1STA	set	0x11D
   765  011D                     	global	_SPBRGL
   766                           _SPBRGL	set	0x11B
   767  011B                     	global	_BAUD1CON
   768                           _BAUD1CON	set	0x11F
   769  011F                     	global	_TX1REG
   770                           _TX1REG	set	0x11A
   771  011A                     	global	_TMR1
   772                           _TMR1	set	0x20C
   773  020C                     	global	_T1CLK
   774                           _T1CLK	set	0x211
   775  0211                     	global	_T1CON
   776                           _T1CON	set	0x20E
   777  020E                     	global	_TMR0
   778                           _TMR0	set	0x59C
   779  059C                     	global	_T0CON1
   780                           _T0CON1	set	0x59F
   781  059F                     	global	_T0CON0
   782                           _T0CON0	set	0x59E
   783  059E                     	global	_PIE4
   784                           _PIE4	set	0x71A
   785  071A                     	global	_PIE3
   786                           _PIE3	set	0x719
   787  0719                     	global	_PIE0
   788                           _PIE0	set	0x716
   789  0716                     	global	_PIR3bits
   790                           _PIR3bits	set	0x70F
   791  070F                     	global	_OSCCON3bits
   792                           _OSCCON3bits	set	0x88F
   793  088F                     	global	_OSCCON1
   794                           _OSCCON1	set	0x88D
   795  088D                     	global	_OSCFRQ
   796                           _OSCFRQ	set	0x893
   797  0893                     	global	_ANSELC
   798                           _ANSELC	set	0x1F4E
   799  1F4E                     	global	_ANSELA
   800                           _ANSELA	set	0x1F38
   801  1F38                     	global	_RC4PPS
   802                           _RC4PPS	set	0x1F24
   803  1F24                     psect	stringtext1,class=STRCODE,delta=2,noexec
   804                           global __pstringtext1
   805                           __pstringtext1:
   806  1800                     	
   807                           STR_1:	
   808  1800                     	retlw	37	;'%'
   809  1800  3425               	retlw	48	;'0'
   810  1801  3430               	retlw	54	;'6'
   811  1802  3436               	retlw	46	;'.'
   812  1803  342E               	retlw	50	;'2'
   813  1804  3432               	retlw	102	;'f'
   814  1805  3466               	retlw	44	;','
   815  1806  342C               	retlw	37	;'%'
   816  1807  3425               	retlw	48	;'0'
   817  1808  3430               	retlw	54	;'6'
   818  1809  3436               	retlw	46	;'.'
   819  180A  342E               	retlw	50	;'2'
   820  180B  3432               	retlw	102	;'f'
   821  180C  3466               	retlw	44	;','
   822  180D  342C               	retlw	37	;'%'
   823  180E  3425               	retlw	48	;'0'
   824  180F  3430               	retlw	54	;'6'
   825  1810  3436               	retlw	46	;'.'
   826  1811  342E               	retlw	50	;'2'
   827  1812  3432               	retlw	102	;'f'
   828  1813  3466               	retlw	10
   829  1814  340A               	retlw	0
   830  1815  3400               psect	stringtext2,class=STRCODE,delta=2,noexec
   831                           global __pstringtext2
   832                           __pstringtext2:
   833  1816                     	
   834                           STR_2:	
   835  1816                     	retlw	73	;'I'
   836  1816  3449               	retlw	78	;'N'
   837  1817  344E               	retlw	70	;'F'
   838  1818  3446               	retlw	0
   839  1819  3400               psect	stringtext3,class=STRCODE,delta=2,noexec
   840                           global __pstringtext3
   841                           __pstringtext3:
   842  181A                     	
   843                           STR_6:	
   844  181A                     	retlw	78	;'N'
   845  181A  344E               	retlw	65	;'A'
   846  181B  3441               	retlw	78	;'N'
   847  181C  344E               	retlw	0
   848  181D  3400               psect	stringtext4,class=STRCODE,delta=2,noexec
   849                           global __pstringtext4
   850                           __pstringtext4:
   851  181E                     	
   852                           STR_3:	
   853  181E                     	retlw	105	;'i'
   854  181E  3469               	retlw	110	;'n'
   855  181F  346E               	retlw	102	;'f'
   856  1820  3466               	retlw	0
   857  1821  3400               psect	stringtext5,class=STRCODE,delta=2,noexec
   858                           global __pstringtext5
   859                           __pstringtext5:
   860  1822                     	
   861                           STR_7:	
   862  1822                     	retlw	110	;'n'
   863  1822  346E               	retlw	97	;'a'
   864  1823  3461               	retlw	110	;'n'
   865  1824  346E               	retlw	0
   866  1825  3400               psect	stringtext6,class=STRCODE,delta=2,noexec
   867                           global __pstringtext6
   868                           __pstringtext6:
   869  1826                     	
   870                           STR_10:	
   871  1826                     	retlw	108	;'l'
   872  1826  346C               	retlw	102	;'f'
   873  1827  3466               	retlw	0
   874  1828  3400               psect	stringtext7,class=STRCODE,delta=2,noexec
   875                           global __pstringtext7
   876                           __pstringtext7:
   877  0000                     STR_4	equ	STR_3+0
   878  181E                     STR_5	equ	STR_3+0
   879  181E                     STR_8	equ	STR_3+0
   880  181E                     STR_9	equ	STR_3+0
   881  181E                     STR_11	equ	STR_10+0
   882  1826                     STR_12	equ	STR_10+0
   883  1826                     STR_13	equ	STR_10+0
   884  1826                     STR_14	equ	STR_10+0
   885  1826                     ; #config settings
   886                           	file	"C:\Users\Ondre\AppData\Local\Temp\sems."
   887                           	line	#
   888                           psect cinit,class=CODE,delta=2
   889                           global start_initialization
   890                           start_initialization:
   891  000A                     
   892                           global __initialization
   893                           __initialization:
   894  000A                     psect	bssBANK2,class=BANK2,space=1,noexec
   895                           global __pbssBANK2
   896                           __pbssBANK2:
   897  0120                     _g_sensorData:
   898  0120                            ds      12
   899  0120                     
   900                           floorf@F514:
   901  012C                            ds      4
   902  012C                     
   903                           ___fpclassifyf@F453:
   904  0130                            ds      4
   905  0130                     
   906                           _g_sensorVersion:
   907  0134                            ds      4
   908  0134                     
   909                           _nout:
   910  0138                            ds      2
   911  0138                     
   912                           _width:
   913  013A                            ds      2
   914  013A                     
   915                           _prec:
   916  013C                            ds      2
   917  013C                     
   918                           _flags:
   919  013E                            ds      2
   920  013E                     
   921                           _g_rxOErrCount:
   922  0140                            ds      1
   923  0140                     
   924                           _g_rxFErrCount:
   925  0141                            ds      1
   926  0141                     
   927                           psect	bssBANK3,class=BANK3,space=1,noexec
   928                           global __pbssBANK3
   929                           __pbssBANK3:
   930  01A0                     _dbuf:
   931  01A0                            ds      80
   932  01A0                     
   933                           	file	"C:\Users\Ondre\AppData\Local\Temp\sems."
   934                           	line	#
   935                           psect clrtext,class=CODE,delta=2
   936                           global clear_ram0
   937                           ;	Called with FSR0 containing the base address, and
   938                           ;	WREG with the size to clear
   939                           clear_ram0:
   940  07F5                     	clrwdt			;clear the watchdog before getting into this loop
   941  07F5  0064               clrloop0:
   942  07F6                     	clrf	indf0		;clear RAM location pointed to by FSR
   943  07F6  0180               	addfsr	0,1
   944  07F7  3101               	decfsz wreg		;Have we reached the end of clearing yet?
   945  07F8  0B89               	goto clrloop0	;have we reached the end yet?
   946  07F9  2FF6               	retlw	0		;all done for this memory range, return
   947  07FA  3400               ; Clear objects allocated to BANK2
   948                           psect cinit,class=CODE,delta=2,merge=1
   949                           	global __pbssBANK2
   950                           	movlw	low(__pbssBANK2)
   951  000A  3020               	movwf	fsr0l
   952  000B  0084               	movlw	high(__pbssBANK2)
   953  000C  3001               	movwf	fsr0h
   954  000D  0085               	movlw	022h
   955  000E  3022               	fcall	clear_ram0
   956  000F  3187  27F5  3180   ; Clear objects allocated to BANK3
   957                           psect cinit,class=CODE,delta=2,merge=1
   958                           	global __pbssBANK3
   959                           	movlw	low(__pbssBANK3)
   960  0012  30A0               	movwf	fsr0l
   961  0013  0084               	movlw	high(__pbssBANK3)
   962  0014  3001               	movwf	fsr0h
   963  0015  0085               	movlw	050h
   964  0016  3050               	fcall	clear_ram0
   965  0017  3187  27F5  3180   psect cinit,class=CODE,delta=2,merge=1
   966                           global end_of_initialization,__end_of__initialization
   967                           
   968                           ;End of C runtime variable initialization code
   969                           
   970                           end_of_initialization:
   971  001A                     __end_of__initialization:
   972  001A                     	bcf int$flags,0 ;clear compiler interrupt flag (level 1)
   973  001A  107E               movlb 0
   974  001B  0140               ljmp _main	;jump to C main() function
   975  001C  3190  2822         psect	cstackBANK2,class=BANK2,space=1,noexec
   976                           global __pcstackBANK2
   977                           __pcstackBANK2:
   978  0142                     ??_main:	; 1 bytes @ 0x0
   979  0142                     	ds	2
   980  0142                     	global	main@s
   981                           main@s:	; 20 bytes @ 0x2
   982  0144                     	ds	20
   983  0144                     psect	cstackBANK1,class=BANK1,space=1,noexec
   984                           global __pcstackBANK1
   985                           __pcstackBANK1:
   986  00A0                     	global	efgtoa@ou
   987                           efgtoa@ou:	; 4 bytes @ 0x0
   988  00A0                     	ds	4
   989  00A0                     	global	_efgtoa$252
   990                           _efgtoa$252:	; 2 bytes @ 0x4
   991  00A4                     	ds	2
   992  00A4                     	global	_efgtoa$253
   993                           _efgtoa$253:	; 2 bytes @ 0x6
   994  00A6                     	ds	2
   995  00A6                     	global	_efgtoa$258
   996                           _efgtoa$258:	; 2 bytes @ 0x8
   997  00A8                     	ds	2
   998  00A8                     	global	_efgtoa$262
   999                           _efgtoa$262:	; 2 bytes @ 0xA
  1000  00AA                     	ds	2
  1001  00AA                     	global	_efgtoa$263
  1002                           _efgtoa$263:	; 2 bytes @ 0xC
  1003  00AC                     	ds	2
  1004  00AC                     	global	_efgtoa$264
  1005                           _efgtoa$264:	; 2 bytes @ 0xE
  1006  00AE                     	ds	2
  1007  00AE                     	global	efgtoa@t
  1008                           efgtoa@t:	; 2 bytes @ 0x10
  1009  00B0                     	ds	2
  1010  00B0                     	global	efgtoa@pp
  1011                           efgtoa@pp:	; 2 bytes @ 0x12
  1012  00B2                     	ds	2
  1013  00B2                     	global	efgtoa@m
  1014                           efgtoa@m:	; 2 bytes @ 0x14
  1015  00B4                     	ds	2
  1016  00B4                     	global	efgtoa@ne
  1017                           efgtoa@ne:	; 2 bytes @ 0x16
  1018  00B6                     	ds	2
  1019  00B6                     	global	efgtoa@d
  1020                           efgtoa@d:	; 2 bytes @ 0x18
  1021  00B8                     	ds	2
  1022  00B8                     	global	efgtoa@sign
  1023                           efgtoa@sign:	; 2 bytes @ 0x1A
  1024  00BA                     	ds	2
  1025  00BA                     	global	efgtoa@fp
  1026                           efgtoa@fp:	; 1 bytes @ 0x1C
  1027  00BC                     	ds	1
  1028  00BC                     	global	efgtoa@p
  1029                           efgtoa@p:	; 2 bytes @ 0x1D
  1030  00BD                     	ds	2
  1031  00BD                     	global	efgtoa@nmode
  1032                           efgtoa@nmode:	; 1 bytes @ 0x1F
  1033  00BF                     	ds	1
  1034  00BF                     	global	efgtoa@w
  1035                           efgtoa@w:	; 2 bytes @ 0x20
  1036  00C0                     	ds	2
  1037  00C0                     	global	efgtoa@mode
  1038                           efgtoa@mode:	; 1 bytes @ 0x22
  1039  00C2                     	ds	1
  1040  00C2                     	global	efgtoa@h
  1041                           efgtoa@h:	; 4 bytes @ 0x23
  1042  00C3                     	ds	4
  1043  00C3                     	global	efgtoa@l
  1044                           efgtoa@l:	; 4 bytes @ 0x27
  1045  00C7                     	ds	4
  1046  00C7                     	global	efgtoa@i
  1047                           efgtoa@i:	; 2 bytes @ 0x2B
  1048  00CB                     	ds	2
  1049  00CB                     	global	efgtoa@g
  1050                           efgtoa@g:	; 4 bytes @ 0x2D
  1051  00CD                     	ds	4
  1052  00CD                     	global	efgtoa@e
  1053                           efgtoa@e:	; 2 bytes @ 0x31
  1054  00D1                     	ds	2
  1055  00D1                     	global	efgtoa@n
  1056                           efgtoa@n:	; 2 bytes @ 0x33
  1057  00D3                     	ds	2
  1058  00D3                     	global	efgtoa@u
  1059                           efgtoa@u:	; 4 bytes @ 0x35
  1060  00D5                     	ds	4
  1061  00D5                     	global	?_sprintf
  1062                           ?_sprintf:	; 2 bytes @ 0x39
  1063  00D9                     	global	sprintf@fmt
  1064                           sprintf@fmt:	; 2 bytes @ 0x39
  1065  00D9                     	ds	14
  1066  00D9                     	global	sprintf@ret
  1067                           sprintf@ret:	; 2 bytes @ 0x47
  1068  00E7                     	ds	2
  1069  00E7                     	global	sprintf@s
  1070                           sprintf@s:	; 1 bytes @ 0x49
  1071  00E9                     	ds	1
  1072  00E9                     	global	sprintf@ap
  1073                           sprintf@ap:	; 1 bytes @ 0x4A
  1074  00EA                     	ds	1
  1075  00EA                     	global	sprintf@f
  1076                           sprintf@f:	; 5 bytes @ 0x4B
  1077  00EB                     	ds	5
  1078  00EB                     psect	cstackCOMMON,class=COMMON,space=1,noexec
  1079                           global __pcstackCOMMON
  1080                           __pcstackCOMMON:
  1081  0070                     ?___fleq:	; 1 bit 
  1082  0070                     ?_initialize:	; 1 bytes @ 0x0
  1083  0070                     ??_initialize:	; 1 bytes @ 0x0
  1084  0070                     ?_eusartTransmit:	; 1 bytes @ 0x0
  1085  0070                     ??_eusartTransmit:	; 1 bytes @ 0x0
  1086  0070                     ?_strcpy:	; 1 bytes @ 0x0
  1087  0070                     ?_putch:	; 1 bytes @ 0x0
  1088  0070                     ??_putch:	; 1 bytes @ 0x0
  1089  0070                     ?_main:	; 1 bytes @ 0x0
  1090  0070                     ?_ISR:	; 1 bytes @ 0x0
  1091  0070                     ??_ISR:	; 1 bytes @ 0x0
  1092  0070                     ?_fputc:	; 2 bytes @ 0x0
  1093  0070                     	global	?_strlen
  1094                           ?_strlen:	; 2 bytes @ 0x0
  1095  0070                     	global	?___fpclassifyf
  1096                           ?___fpclassifyf:	; 2 bytes @ 0x0
  1097  0070                     	global	?_isupper
  1098                           ?_isupper:	; 2 bytes @ 0x0
  1099  0070                     	global	?_isdigit
  1100                           ?_isdigit:	; 2 bytes @ 0x0
  1101  0070                     	global	?_strncmp
  1102                           ?_strncmp:	; 2 bytes @ 0x0
  1103  0070                     	global	?__Umul8_16
  1104                           ?__Umul8_16:	; 2 bytes @ 0x0
  1105  0070                     	global	?_isspace
  1106                           ?_isspace:	; 2 bytes @ 0x0
  1107  0070                     	global	?___wmul
  1108                           ?___wmul:	; 2 bytes @ 0x0
  1109  0070                     	global	?___awdiv
  1110                           ?___awdiv:	; 2 bytes @ 0x0
  1111  0070                     	global	?___awmod
  1112                           ?___awmod:	; 2 bytes @ 0x0
  1113  0070                     	global	?___flneg
  1114                           ?___flneg:	; 4 bytes @ 0x0
  1115  0070                     	global	?___fltol
  1116                           ?___fltol:	; 4 bytes @ 0x0
  1117  0070                     	global	?___fladd
  1118                           ?___fladd:	; 4 bytes @ 0x0
  1119  0070                     	global	?___fldiv
  1120                           ?___fldiv:	; 4 bytes @ 0x0
  1121  0070                     putch@c:	; 1 bytes @ 0x0
  1122  0070                     	global	__Umul8_16@multiplicand
  1123                           __Umul8_16@multiplicand:	; 1 bytes @ 0x0
  1124  0070                     	global	___wmul@multiplier
  1125                           ___wmul@multiplier:	; 2 bytes @ 0x0
  1126  0070                     	global	___awdiv@divisor
  1127                           ___awdiv@divisor:	; 2 bytes @ 0x0
  1128  0070                     	global	___awmod@divisor
  1129                           ___awmod@divisor:	; 2 bytes @ 0x0
  1130  0070                     	global	isdigit@c
  1131                           isdigit@c:	; 2 bytes @ 0x0
  1132  0070                     	global	isspace@c
  1133                           isspace@c:	; 2 bytes @ 0x0
  1134  0070                     	global	isupper@c
  1135                           isupper@c:	; 2 bytes @ 0x0
  1136  0070                     	global	fputc@c
  1137                           fputc@c:	; 2 bytes @ 0x0
  1138  0070                     	global	strcpy@src
  1139                           strcpy@src:	; 2 bytes @ 0x0
  1140  0070                     	global	strncmp@_r
  1141                           strncmp@_r:	; 2 bytes @ 0x0
  1142  0070                     	global	___fleq@ff1
  1143                           ___fleq@ff1:	; 4 bytes @ 0x0
  1144  0070                     	global	___flneg@f1
  1145                           ___flneg@f1:	; 4 bytes @ 0x0
  1146  0070                     	global	___fltol@f1
  1147                           ___fltol@f1:	; 4 bytes @ 0x0
  1148  0070                     	global	___fladd@b
  1149                           ___fladd@b:	; 4 bytes @ 0x0
  1150  0070                     	global	___fldiv@a
  1151                           ___fldiv@a:	; 4 bytes @ 0x0
  1152  0070                     	global	___fpclassifyf@x
  1153                           ___fpclassifyf@x:	; 4 bytes @ 0x0
  1154  0070                     	ds	1
  1155  0070                     	global	eusartTransmit@s
  1156                           eusartTransmit@s:	; 1 bytes @ 0x1
  1157  0071                     	ds	1
  1158  0071                     ??_strlen:	; 1 bytes @ 0x2
  1159  0072                     ??_isupper:	; 1 bytes @ 0x2
  1160  0072                     ??_strcpy:	; 1 bytes @ 0x2
  1161  0072                     ??_isdigit:	; 1 bytes @ 0x2
  1162  0072                     ??__Umul8_16:	; 1 bytes @ 0x2
  1163  0072                     ??_isspace:	; 1 bytes @ 0x2
  1164  0072                     	global	fputc@fp
  1165                           fputc@fp:	; 1 bytes @ 0x2
  1166  0072                     	global	___wmul@multiplicand
  1167                           ___wmul@multiplicand:	; 2 bytes @ 0x2
  1168  0072                     	global	___awdiv@dividend
  1169                           ___awdiv@dividend:	; 2 bytes @ 0x2
  1170  0072                     	global	___awmod@dividend
  1171                           ___awmod@dividend:	; 2 bytes @ 0x2
  1172  0072                     	global	strncmp@n
  1173                           strncmp@n:	; 2 bytes @ 0x2
  1174  0072                     	ds	1
  1175  0072                     ??_fputc:	; 1 bytes @ 0x3
  1176  0073                     	ds	1
  1177  0073                     ??___fpclassifyf:	; 1 bytes @ 0x4
  1178  0074                     ??_strncmp:	; 1 bytes @ 0x4
  1179  0074                     ??___wmul:	; 1 bytes @ 0x4
  1180  0074                     ??___awdiv:	; 1 bytes @ 0x4
  1181  0074                     ??___awmod:	; 1 bytes @ 0x4
  1182  0074                     ??___flneg:	; 1 bytes @ 0x4
  1183  0074                     ??___fltol:	; 1 bytes @ 0x4
  1184  0074                     	global	_isspace$618
  1185                           _isspace$618:	; 1 bytes @ 0x4
  1186  0074                     	global	___wmul@product
  1187                           ___wmul@product:	; 2 bytes @ 0x4
  1188  0074                     	global	strcpy@s
  1189                           strcpy@s:	; 2 bytes @ 0x4
  1190  0074                     	global	__Umul8_16@product
  1191                           __Umul8_16@product:	; 2 bytes @ 0x4
  1192  0074                     	global	___fleq@ff2
  1193                           ___fleq@ff2:	; 4 bytes @ 0x4
  1194  0074                     	global	___fladd@a
  1195                           ___fladd@a:	; 4 bytes @ 0x4
  1196  0074                     	global	___fldiv@b
  1197                           ___fldiv@b:	; 4 bytes @ 0x4
  1198  0074                     	ds	1
  1199  0074                     	global	___awdiv@counter
  1200                           ___awdiv@counter:	; 1 bytes @ 0x5
  1201  0075                     	global	___awmod@counter
  1202                           ___awmod@counter:	; 1 bytes @ 0x5
  1203  0075                     	ds	1
  1204  0075                     	global	?_tolower
  1205                           ?_tolower:	; 2 bytes @ 0x6
  1206  0076                     	global	?_atoi
  1207                           ?_atoi:	; 2 bytes @ 0x6
  1208  0076                     	global	___awdiv@sign
  1209                           ___awdiv@sign:	; 1 bytes @ 0x6
  1210  0076                     	global	___awmod@sign
  1211                           ___awmod@sign:	; 1 bytes @ 0x6
  1212  0076                     	global	strcpy@d
  1213                           strcpy@d:	; 1 bytes @ 0x6
  1214  0076                     	global	strlen@a
  1215                           strlen@a:	; 1 bytes @ 0x6
  1216  0076                     	global	strncmp@_l
  1217                           strncmp@_l:	; 1 bytes @ 0x6
  1218  0076                     	global	atoi@s
  1219                           atoi@s:	; 2 bytes @ 0x6
  1220  0076                     	global	tolower@c
  1221                           tolower@c:	; 2 bytes @ 0x6
  1222  0076                     	global	__Umul8_16@word_mpld
  1223                           __Umul8_16@word_mpld:	; 2 bytes @ 0x6
  1224  0076                     	ds	1
  1225  0076                     	global	strcpy@dest
  1226                           strcpy@dest:	; 1 bytes @ 0x7
  1227  0077                     	global	strlen@s
  1228                           strlen@s:	; 1 bytes @ 0x7
  1229  0077                     	global	___awdiv@quotient
  1230                           ___awdiv@quotient:	; 2 bytes @ 0x7
  1231  0077                     	global	strncmp@r
  1232                           strncmp@r:	; 2 bytes @ 0x7
  1233  0077                     	ds	1
  1234  0077                     ??_tolower:	; 1 bytes @ 0x8
  1235  0078                     ??_atoi:	; 1 bytes @ 0x8
  1236  0078                     ??___fleq:	; 1 bytes @ 0x8
  1237  0078                     ??___fldiv:	; 1 bytes @ 0x8
  1238  0078                     ?_fputs:	; 2 bytes @ 0x8
  1239  0078                     	global	___fladd@signs
  1240                           ___fladd@signs:	; 1 bytes @ 0x8
  1241  0078                     	global	fputs@fp
  1242                           fputs@fp:	; 1 bytes @ 0x8
  1243  0078                     	global	__Umul8_16@multiplier
  1244                           __Umul8_16@multiplier:	; 1 bytes @ 0x8
  1245  0078                     	ds	1
  1246  0078                     ??_fputs:	; 1 bytes @ 0x9
  1247  0079                     ??___flmul:	; 1 bytes @ 0x9
  1248  0079                     	global	___fltol@sign1
  1249                           ___fltol@sign1:	; 1 bytes @ 0x9
  1250  0079                     	global	___fladd@aexp
  1251                           ___fladd@aexp:	; 1 bytes @ 0x9
  1252  0079                     	global	strncmp@l
  1253                           strncmp@l:	; 1 bytes @ 0x9
  1254  0079                     	ds	1
  1255  0079                     	global	___fltol@exp1
  1256                           ___fltol@exp1:	; 1 bytes @ 0xA
  1257  007A                     	global	___fladd@bexp
  1258                           ___fladd@bexp:	; 1 bytes @ 0xA
  1259  007A                     	ds	1
  1260  007A                     	global	___fladd@grs
  1261                           ___fladd@grs:	; 1 bytes @ 0xB
  1262  007B                     	ds	1
  1263  007B                     ??_pad:	; 1 bytes @ 0xC
  1264  007C                     	global	_tolower$702
  1265                           _tolower$702:	; 2 bytes @ 0xC
  1266  007C                     	ds	2
  1267  007C                     ??___flsub:	; 1 bytes @ 0xE
  1268  007E                     psect	cstackBANK0,class=BANK0,space=1,noexec
  1269                           global __pcstackBANK0
  1270                           __pcstackBANK0:
  1271  0020                     ??___fladd:	; 1 bytes @ 0x0
  1272  0020                     	global	?___flmul
  1273                           ?___flmul:	; 4 bytes @ 0x0
  1274  0020                     	global	fputs@c
  1275                           fputs@c:	; 1 bytes @ 0x0
  1276  0020                     	global	___fpclassifyf@e
  1277                           ___fpclassifyf@e:	; 2 bytes @ 0x0
  1278  0020                     	global	atoi@neg
  1279                           atoi@neg:	; 2 bytes @ 0x0
  1280  0020                     	global	___fldiv@rem
  1281                           ___fldiv@rem:	; 4 bytes @ 0x0
  1282  0020                     	global	___flmul@b
  1283                           ___flmul@b:	; 4 bytes @ 0x0
  1284  0020                     	ds	1
  1285  0020                     	global	fputs@i
  1286                           fputs@i:	; 2 bytes @ 0x1
  1287  0021                     	ds	1
  1288  0021                     	global	_atoi$587
  1289                           _atoi$587:	; 2 bytes @ 0x2
  1290  0022                     	global	___fpclassifyf@u
  1291                           ___fpclassifyf@u:	; 4 bytes @ 0x2
  1292  0022                     	ds	1
  1293  0022                     	global	fputs@s
  1294                           fputs@s:	; 1 bytes @ 0x3
  1295  0023                     	ds	1
  1296  0023                     	global	?_pad
  1297                           ?_pad:	; 2 bytes @ 0x4
  1298  0024                     	global	pad@buf
  1299                           pad@buf:	; 1 bytes @ 0x4
  1300  0024                     	global	___fldiv@sign
  1301                           ___fldiv@sign:	; 1 bytes @ 0x4
  1302  0024                     	global	_atoi$589
  1303                           _atoi$589:	; 2 bytes @ 0x4
  1304  0024                     	global	___flmul@a
  1305                           ___flmul@a:	; 4 bytes @ 0x4
  1306  0024                     	ds	1
  1307  0024                     	global	pad@p
  1308                           pad@p:	; 2 bytes @ 0x5
  1309  0025                     	global	___fldiv@new_exp
  1310                           ___fldiv@new_exp:	; 2 bytes @ 0x5
  1311  0025                     	ds	1
  1312  0025                     	global	_atoi$588
  1313                           _atoi$588:	; 1 bytes @ 0x6
  1314  0026                     	ds	1
  1315  0026                     	global	pad@i
  1316                           pad@i:	; 2 bytes @ 0x7
  1317  0027                     	global	atoi@n
  1318                           atoi@n:	; 2 bytes @ 0x7
  1319  0027                     	global	___fldiv@grs
  1320                           ___fldiv@grs:	; 4 bytes @ 0x7
  1321  0027                     	ds	1
  1322  0027                     	global	___flmul@sign
  1323                           ___flmul@sign:	; 1 bytes @ 0x8
  1324  0028                     	ds	1
  1325  0028                     	global	pad@w
  1326                           pad@w:	; 2 bytes @ 0x9
  1327  0029                     	global	___flmul@grs
  1328                           ___flmul@grs:	; 4 bytes @ 0x9
  1329  0029                     	ds	2
  1330  0029                     	global	pad@fp
  1331                           pad@fp:	; 1 bytes @ 0xB
  1332  002B                     	global	___fldiv@bexp
  1333                           ___fldiv@bexp:	; 1 bytes @ 0xB
  1334  002B                     	ds	1
  1335  002B                     	global	___fldiv@aexp
  1336                           ___fldiv@aexp:	; 1 bytes @ 0xC
  1337  002C                     	ds	1
  1338  002C                     	global	?_floorf
  1339                           ?_floorf:	; 4 bytes @ 0xD
  1340  002D                     	global	___flmul@aexp
  1341                           ___flmul@aexp:	; 1 bytes @ 0xD
  1342  002D                     	global	floorf@x
  1343                           floorf@x:	; 4 bytes @ 0xD
  1344  002D                     	ds	1
  1345  002D                     	global	___flmul@bexp
  1346                           ___flmul@bexp:	; 1 bytes @ 0xE
  1347  002E                     	ds	1
  1348  002E                     	global	___flmul@prod
  1349                           ___flmul@prod:	; 4 bytes @ 0xF
  1350  002F                     	ds	2
  1351  002F                     ??_floorf:	; 1 bytes @ 0x11
  1352  0031                     	ds	2
  1353  0031                     	global	___flmul@temp
  1354                           ___flmul@temp:	; 2 bytes @ 0x13
  1355  0033                     	ds	2
  1356  0033                     ?___flge:	; 1 bit 
  1357  0035                     	global	?___flsub
  1358                           ?___flsub:	; 4 bytes @ 0x15
  1359  0035                     	global	___flge@ff1
  1360                           ___flge@ff1:	; 4 bytes @ 0x15
  1361  0035                     	global	___flsub@a
  1362                           ___flsub@a:	; 4 bytes @ 0x15
  1363  0035                     	ds	2
  1364  0035                     	global	floorf@m
  1365                           floorf@m:	; 4 bytes @ 0x17
  1366  0037                     	ds	2
  1367  0037                     	global	___flge@ff2
  1368                           ___flge@ff2:	; 4 bytes @ 0x19
  1369  0039                     	global	___flsub@b
  1370                           ___flsub@b:	; 4 bytes @ 0x19
  1371  0039                     	ds	2
  1372  0039                     	global	floorf@e
  1373                           floorf@e:	; 2 bytes @ 0x1B
  1374  003B                     	ds	2
  1375  003B                     ??___flge:	; 1 bytes @ 0x1D
  1376  003D                     	global	floorf@u
  1377                           floorf@u:	; 4 bytes @ 0x1D
  1378  003D                     	ds	8
  1379  003D                     	global	?_efgtoa
  1380                           ?_efgtoa:	; 2 bytes @ 0x25
  1381  0045                     	global	efgtoa@f
  1382                           efgtoa@f:	; 4 bytes @ 0x25
  1383  0045                     	ds	4
  1384  0045                     	global	efgtoa@c
  1385                           efgtoa@c:	; 1 bytes @ 0x29
  1386  0049                     	ds	1
  1387  0049                     ??_efgtoa:	; 1 bytes @ 0x2A
  1388  004A                     	ds	4
  1389  004A                     	global	?_vfpfcnvrt
  1390                           ?_vfpfcnvrt:	; 2 bytes @ 0x2E
  1391  004E                     	global	vfpfcnvrt@fmt
  1392                           vfpfcnvrt@fmt:	; 1 bytes @ 0x2E
  1393  004E                     	ds	1
  1394  004E                     	global	vfpfcnvrt@ap
  1395                           vfpfcnvrt@ap:	; 1 bytes @ 0x2F
  1396  004F                     	ds	1
  1397  004F                     ??_vfpfcnvrt:	; 1 bytes @ 0x30
  1398  0050                     	ds	6
  1399  0050                     	global	vfpfcnvrt@done
  1400                           vfpfcnvrt@done:	; 2 bytes @ 0x36
  1401  0056                     	ds	2
  1402  0056                     	global	_vfpfcnvrt$278
  1403                           _vfpfcnvrt$278:	; 2 bytes @ 0x38
  1404  0058                     	ds	2
  1405  0058                     	global	_vfpfcnvrt$279
  1406                           _vfpfcnvrt$279:	; 2 bytes @ 0x3A
  1407  005A                     	ds	2
  1408  005A                     	global	_vfpfcnvrt$283
  1409                           _vfpfcnvrt$283:	; 2 bytes @ 0x3C
  1410  005C                     	ds	2
  1411  005C                     	global	vfpfcnvrt@f
  1412                           vfpfcnvrt@f:	; 4 bytes @ 0x3E
  1413  005E                     	ds	4
  1414  005E                     	global	vfpfcnvrt@ct
  1415                           vfpfcnvrt@ct:	; 3 bytes @ 0x42
  1416  0062                     	ds	3
  1417  0062                     	global	vfpfcnvrt@c
  1418                           vfpfcnvrt@c:	; 1 bytes @ 0x45
  1419  0065                     	ds	1
  1420  0065                     	global	vfpfcnvrt@fp
  1421                           vfpfcnvrt@fp:	; 1 bytes @ 0x46
  1422  0066                     	ds	1
  1423  0066                     	global	?_vfprintf
  1424                           ?_vfprintf:	; 2 bytes @ 0x47
  1425  0067                     	global	vfprintf@fmt
  1426                           vfprintf@fmt:	; 2 bytes @ 0x47
  1427  0067                     	ds	2
  1428  0067                     	global	vfprintf@ap
  1429                           vfprintf@ap:	; 1 bytes @ 0x49
  1430  0069                     	ds	1
  1431  0069                     ??_vfprintf:	; 1 bytes @ 0x4A
  1432  006A                     	ds	2
  1433  006A                     	global	vfprintf@fp
  1434                           vfprintf@fp:	; 1 bytes @ 0x4C
  1435  006C                     	ds	1
  1436  006C                     	global	vfprintf@cfmt
  1437                           vfprintf@cfmt:	; 2 bytes @ 0x4D
  1438  006D                     	ds	2
  1439  006D                     ??_sprintf:	; 1 bytes @ 0x4F
  1440  006F                     	ds	1
  1441  006F                     ;!
  1442                           ;!Data Sizes:
  1443                           ;!    Strings     41
  1444                           ;!    Constant    0
  1445                           ;!    Data        0
  1446                           ;!    BSS         114
  1447                           ;!    Persistent  0
  1448                           ;!    Stack       0
  1449                           ;!
  1450                           ;!Auto Spaces:
  1451                           ;!    Space          Size  Autos    Used
  1452                           ;!    COMMON           14     14      14
  1453                           ;!    BANK0            80     80      80
  1454                           ;!    BANK1            80     80      80
  1455                           ;!    BANK2            80     22      56
  1456                           ;!    BANK3            80      0      80
  1457                           ;!    BANK4            80      0       0
  1458                           ;!    BANK5            80      0       0
  1459                           ;!    BANK6            80      0       0
  1460                           ;!    BANK7            80      0       0
  1461                           ;!    BANK8            80      0       0
  1462                           ;!    BANK9            80      0       0
  1463                           ;!    BANK10           80      0       0
  1464                           ;!    BANK11           80      0       0
  1465                           ;!    BANK12           48      0       0
  1466                           
  1467                           ;!
  1468                           ;!Pointer List with Targets:
  1469                           ;!
  1470                           ;!    strncmp@_r	PTR const unsigned char  size(2) Largest target is 3
  1471                           ;!		 -> STR_12(CODE[3]), 
  1472                           ;!
  1473                           ;!    strncmp@r	PTR const unsigned char  size(2) Largest target is 3
  1474                           ;!		 -> STR_12(CODE[3]), 
  1475                           ;!
  1476                           ;!    strncmp@_l	PTR const unsigned char  size(1) Largest target is 3
  1477                           ;!		 -> vfpfcnvrt@ct(BANK0[3]), 
  1478                           ;!
  1479                           ;!    strncmp@l	PTR const unsigned char  size(1) Largest target is 3
  1480                           ;!		 -> vfpfcnvrt@ct(BANK0[3]), 
  1481                           ;!
  1482                           ;!    strlen@s	PTR const unsigned char  size(1) Largest target is 80
  1483                           ;!		 -> dbuf(BANK3[80]), 
  1484                           ;!
  1485                           ;!    strlen@a	PTR const unsigned char  size(1) Largest target is 80
  1486                           ;!		 -> dbuf(BANK3[80]), 
  1487                           ;!
  1488                           ;!    strcpy@dest	PTR unsigned char  size(1) Largest target is 80
  1489                           ;!		 -> dbuf(BANK3[80]), 
  1490                           ;!
  1491                           ;!    strcpy@d	PTR unsigned char  size(1) Largest target is 80
  1492                           ;!		 -> dbuf(BANK3[80]), 
  1493                           ;!
  1494                           ;!    strcpy@src	PTR const unsigned char  size(2) Largest target is 80
  1495                           ;!		 -> STR_7(CODE[4]), STR_6(CODE[4]), STR_3(CODE[4]), STR_2(CODE[4]), 
  1496                           ;!		 -> dbuf(BANK3[80]), 
  1497                           ;!
  1498                           ;!    strcpy@s	PTR const unsigned char  size(2) Largest target is 80
  1499                           ;!		 -> STR_7(CODE[4]), STR_6(CODE[4]), STR_3(CODE[4]), STR_2(CODE[4]), 
  1500                           ;!		 -> dbuf(BANK3[80]), 
  1501                           ;!
  1502                           ;!    sprintf@fmt	PTR const unsigned char  size(2) Largest target is 22
  1503                           ;!		 -> STR_1(CODE[22]), 
  1504                           ;!
  1505                           ;!    sprintf@s	PTR unsigned char  size(1) Largest target is 20
  1506                           ;!		 -> main@s(BANK2[20]), 
  1507                           ;!
  1508                           ;!    sprintf@ap	PTR void [1] size(1) Largest target is 2
  1509                           ;!		 -> ?_sprintf(BANK1[2]), 
  1510                           ;!
  1511                           ;!    f.buffer	PTR unsigned char  size(1) Largest target is 20
  1512                           ;!		 -> main@s(BANK2[20]), 
  1513                           ;!
  1514                           ;!    fputs@s	PTR const unsigned char  size(1) Largest target is 80
  1515                           ;!		 -> dbuf(BANK3[80]), 
  1516                           ;!
  1517                           ;!    fputs@fp	PTR struct _IO_FILE size(1) Largest target is 6
  1518                           ;!		 -> sprintf@f(BANK1[5]), 
  1519                           ;!
  1520                           ;!    S631_IO_FILE$buffer	PTR unsigned char  size(1) Largest target is 20
  1521                           ;!		 -> main@s(BANK2[20]), 
  1522                           ;!
  1523                           ;!    fputc@fp.buffer	PTR unsigned char  size(1) Largest target is 20
  1524                           ;!		 -> main@s(BANK2[20]), 
  1525                           ;!
  1526                           ;!    fputc@fp	PTR struct _IO_FILE size(1) Largest target is 6
  1527                           ;!		 -> sprintf@f(BANK1[5]), 
  1528                           ;!
  1529                           ;!    atoi@s	PTR const unsigned char  size(2) Largest target is 22
  1530                           ;!		 -> STR_1(CODE[22]), 
  1531                           ;!
  1532                           ;!    vfprintf@ap	PTR PTR void  size(1) Largest target is 1
  1533                           ;!		 -> sprintf@ap(BANK1[1]), 
  1534                           ;!
  1535                           ;!    vfprintf@fp	PTR struct _IO_FILE size(1) Largest target is 6
  1536                           ;!		 -> sprintf@f(BANK1[5]), 
  1537                           ;!
  1538                           ;!    vfprintf@fmt	PTR const unsigned char  size(2) Largest target is 22
  1539                           ;!		 -> STR_1(CODE[22]), 
  1540                           ;!
  1541                           ;!    vfprintf@cfmt	PTR unsigned char  size(2) Largest target is 22
  1542                           ;!		 -> STR_1(CODE[22]), 
  1543                           ;!
  1544                           ;!    vfpfcnvrt@fp	PTR struct _IO_FILE size(1) Largest target is 6
  1545                           ;!		 -> sprintf@f(BANK1[5]), 
  1546                           ;!
  1547                           ;!    vfpfcnvrt@ap	PTR PTR void  size(1) Largest target is 1
  1548                           ;!		 -> sprintf@ap(BANK1[1]), 
  1549                           ;!
  1550                           ;!    vfpfcnvrt@fmt	PTR PTR unsigned char  size(1) Largest target is 2
  1551                           ;!		 -> vfprintf@cfmt(BANK0[2]), 
  1552                           ;!
  1553                           ;!    efgtoa@fp	PTR struct _IO_FILE size(1) Largest target is 6
  1554                           ;!		 -> sprintf@f(BANK1[5]), 
  1555                           ;!
  1556                           ;!    sp__strcpy	PTR unsigned char  size(1) Largest target is 80
  1557                           ;!		 -> dbuf(BANK3[80]), 
  1558                           ;!
  1559                           ;!    pad@fp	PTR struct _IO_FILE size(1) Largest target is 6
  1560                           ;!		 -> sprintf@f(BANK1[5]), 
  1561                           ;!
  1562                           ;!    pad@buf	PTR unsigned char  size(1) Largest target is 80
  1563                           ;!		 -> dbuf(BANK3[80]), 
  1564                           ;!
  1565                           ;!    eusartTransmit@s	PTR unsigned char  size(1) Largest target is 20
  1566                           ;!		 -> main@s(BANK2[20]), 
  1567                           ;!
  1568                           
  1569                           
  1570                           ;!
  1571                           ;!Critical Paths under _main in COMMON
  1572                           ;!
  1573                           ;!    _vfpfcnvrt->_tolower
  1574                           ;!    _efgtoa->___flmul
  1575                           ;!    _efgtoa->_tolower
  1576                           ;!    _tolower->_isupper
  1577                           ;!    _pad->_fputs
  1578                           ;!    _fputs->_fputc
  1579                           ;!    _floorf->___fldiv
  1580                           ;!    ___flsub->___flmul
  1581                           ;!    ___flmul->__Umul8_16
  1582                           ;!    ___flge->___flmul
  1583                           ;!    _atoi->___wmul
  1584                           ;!    _atoi->_isdigit
  1585                           ;!
  1586                           ;!Critical Paths under _ISR in COMMON
  1587                           ;!
  1588                           ;!    None.
  1589                           ;!
  1590                           ;!Critical Paths under _main in BANK0
  1591                           ;!
  1592                           ;!    _main->_sprintf
  1593                           ;!    _sprintf->_vfprintf
  1594                           ;!    _vfprintf->_vfpfcnvrt
  1595                           ;!    _vfpfcnvrt->_efgtoa
  1596                           ;!    _efgtoa->___flge
  1597                           ;!    _pad->_fputs
  1598                           ;!    _floorf->___fldiv
  1599                           ;!    ___flsub->___flmul
  1600                           ;!    ___flge->___flmul
  1601                           ;!
  1602                           ;!Critical Paths under _ISR in BANK0
  1603                           ;!
  1604                           ;!    None.
  1605                           ;!
  1606                           ;!Critical Paths under _main in BANK1
  1607                           ;!
  1608                           ;!    _main->_sprintf
  1609                           ;!    _vfpfcnvrt->_efgtoa
  1610                           ;!
  1611                           ;!Critical Paths under _ISR in BANK1
  1612                           ;!
  1613                           ;!    None.
  1614                           ;!
  1615                           ;!Critical Paths under _main in BANK2
  1616                           ;!
  1617                           ;!    None.
  1618                           ;!
  1619                           ;!Critical Paths under _ISR in BANK2
  1620                           ;!
  1621                           ;!    None.
  1622                           ;!
  1623                           ;!Critical Paths under _main in BANK3
  1624                           ;!
  1625                           ;!    None.
  1626                           ;!
  1627                           ;!Critical Paths under _ISR in BANK3
  1628                           ;!
  1629                           ;!    None.
  1630                           ;!
  1631                           ;!Critical Paths under _main in BANK4
  1632                           ;!
  1633                           ;!    None.
  1634                           ;!
  1635                           ;!Critical Paths under _ISR in BANK4
  1636                           ;!
  1637                           ;!    None.
  1638                           ;!
  1639                           ;!Critical Paths under _main in BANK5
  1640                           ;!
  1641                           ;!    None.
  1642                           ;!
  1643                           ;!Critical Paths under _ISR in BANK5
  1644                           ;!
  1645                           ;!    None.
  1646                           ;!
  1647                           ;!Critical Paths under _main in BANK6
  1648                           ;!
  1649                           ;!    None.
  1650                           ;!
  1651                           ;!Critical Paths under _ISR in BANK6
  1652                           ;!
  1653                           ;!    None.
  1654                           ;!
  1655                           ;!Critical Paths under _main in BANK7
  1656                           ;!
  1657                           ;!    None.
  1658                           ;!
  1659                           ;!Critical Paths under _ISR in BANK7
  1660                           ;!
  1661                           ;!    None.
  1662                           ;!
  1663                           ;!Critical Paths under _main in BANK8
  1664                           ;!
  1665                           ;!    None.
  1666                           ;!
  1667                           ;!Critical Paths under _ISR in BANK8
  1668                           ;!
  1669                           ;!    None.
  1670                           ;!
  1671                           ;!Critical Paths under _main in BANK9
  1672                           ;!
  1673                           ;!    None.
  1674                           ;!
  1675                           ;!Critical Paths under _ISR in BANK9
  1676                           ;!
  1677                           ;!    None.
  1678                           ;!
  1679                           ;!Critical Paths under _main in BANK10
  1680                           ;!
  1681                           ;!    None.
  1682                           ;!
  1683                           ;!Critical Paths under _ISR in BANK10
  1684                           ;!
  1685                           ;!    None.
  1686                           ;!
  1687                           ;!Critical Paths under _main in BANK11
  1688                           ;!
  1689                           ;!    None.
  1690                           ;!
  1691                           ;!Critical Paths under _ISR in BANK11
  1692                           ;!
  1693                           ;!    None.
  1694                           ;!
  1695                           ;!Critical Paths under _main in BANK12
  1696                           ;!
  1697                           ;!    None.
  1698                           ;!
  1699                           ;!Critical Paths under _ISR in BANK12
  1700                           ;!
  1701                           ;!    None.
  1702                           
  1703 ;;
  1704 ;;Main: autosize = 0, tempsize = 2, incstack = 0, save=0
  1705 ;;
  1706                           
  1707                           ;!
  1708                           ;!Call Graph Tables:
  1709                           ;!
  1710                           ;! ---------------------------------------------------------------------------------
  1711                           ;! (Depth) Function   	        Calls       Base Space   Used Autos Params    Refs
  1712                           ;! ---------------------------------------------------------------------------------
  1713                           ;! (0) _main                                                22    22      0   27551
  1714                           ;!                                              0 BANK2     22    22      0
  1715                           ;!                     _eusartTransmit
  1716                           ;!                         _initialize
  1717                           ;!                            _sprintf
  1718                           ;! ---------------------------------------------------------------------------------
  1719                           ;! (1) _sprintf                                             24    10     14   27423
  1720                           ;!                                             79 BANK0      1     1      0
  1721                           ;!                                             57 BANK1     23     9     14
  1722                           ;!                           _vfprintf
  1723                           ;! ---------------------------------------------------------------------------------
  1724                           ;! (2) _vfprintf                                             8     5      3   27107
  1725                           ;!                                             71 BANK0      8     5      3
  1726                           ;!                          _vfpfcnvrt
  1727                           ;! ---------------------------------------------------------------------------------
  1728                           ;! (3) _vfpfcnvrt                                           39    37      2   26759
  1729                           ;!                                             46 BANK0     25    23      2
  1730                           ;!                               _atoi
  1731                           ;!                             _efgtoa
  1732                           ;!                              _fputc
  1733                           ;!                            _isdigit
  1734                           ;!                            _isupper
  1735                           ;!                            _strncmp
  1736                           ;!                            _tolower
  1737                           ;! ---------------------------------------------------------------------------------
  1738                           ;! (4) _strncmp                                             10     6      4     410
  1739                           ;!                                              0 COMMON    10     6      4
  1740                           ;! ---------------------------------------------------------------------------------
  1741                           ;! (4) _efgtoa                                              66    61      5   21051
  1742                           ;!                                             37 BANK0      9     4      5
  1743                           ;!                                              0 BANK1     57    57      0
  1744                           ;!                            ___awdiv
  1745                           ;!                            ___awmod
  1746                           ;!                            ___fladd
  1747                           ;!                            ___fldiv
  1748                           ;!                             ___fleq
  1749                           ;!                             ___flge
  1750                           ;!                            ___flmul
  1751                           ;!                            ___flneg
  1752                           ;!                            ___flsub
  1753                           ;!                            ___fltol
  1754                           ;!                      ___fpclassifyf
  1755                           ;!                             _floorf
  1756                           ;!                            _isupper
  1757                           ;!                                _pad
  1758                           ;!                             _strcpy
  1759                           ;!                            _tolower
  1760                           ;! ---------------------------------------------------------------------------------
  1761                           ;! (4) _tolower                                              8     6      2     944
  1762                           ;!                                              6 COMMON     8     6      2
  1763                           ;!                            _isupper
  1764                           ;! ---------------------------------------------------------------------------------
  1765                           ;! (5) _isupper                                              6     4      2     465
  1766                           ;!                                              0 COMMON     6     4      2
  1767                           ;! ---------------------------------------------------------------------------------
  1768                           ;! (5) _strcpy                                               8     6      2     641
  1769                           ;!                                              0 COMMON     8     6      2
  1770                           ;! ---------------------------------------------------------------------------------
  1771                           ;! (5) _pad                                                  9     6      3    2907
  1772                           ;!                                             12 COMMON     1     1      0
  1773                           ;!                                              4 BANK0      8     5      3
  1774                           ;!                              _fputc
  1775                           ;!                              _fputs
  1776                           ;!                             _strlen
  1777                           ;! ---------------------------------------------------------------------------------
  1778                           ;! (6) _strlen                                               8     6      2     123
  1779                           ;!                                              0 COMMON     8     6      2
  1780                           ;! ---------------------------------------------------------------------------------
  1781                           ;! (6) _fputs                                                8     7      1    1149
  1782                           ;!                                              8 COMMON     4     3      1
  1783                           ;!                                              0 BANK0      4     4      0
  1784                           ;!                              _fputc
  1785                           ;! ---------------------------------------------------------------------------------
  1786                           ;! (4) _fputc                                                8     5      3     834
  1787                           ;!                                              0 COMMON     8     5      3
  1788                           ;!                              _putch
  1789                           ;! ---------------------------------------------------------------------------------
  1790                           ;! (5) _putch                                                1     1      0       0
  1791                           ;! ---------------------------------------------------------------------------------
  1792                           ;! (5) _floorf                                              20    16      4     490
  1793                           ;!                                             13 BANK0     20    16      4
  1794                           ;!                            ___fldiv (ARG)
  1795                           ;! ---------------------------------------------------------------------------------
  1796                           ;! (5) ___fpclassifyf                                       16    12      4     287
  1797                           ;!                                              0 COMMON    10     6      4
  1798                           ;!                                              0 BANK0      6     6      0
  1799                           ;! ---------------------------------------------------------------------------------
  1800                           ;! (5) ___fltol                                             11     7      4     381
  1801                           ;!                                              0 COMMON    11     7      4
  1802                           ;! ---------------------------------------------------------------------------------
  1803                           ;! (5) ___flsub                                              8     0      8    2637
  1804                           ;!                                             21 BANK0      8     0      8
  1805                           ;!                            ___fladd
  1806                           ;!                            ___flmul (ARG)
  1807                           ;! ---------------------------------------------------------------------------------
  1808                           ;! (6) ___fladd                                             24    16      8    2288
  1809                           ;!                                              0 COMMON    12     4      8
  1810                           ;!                                              0 BANK0     12    12      0
  1811                           ;! ---------------------------------------------------------------------------------
  1812                           ;! (5) ___flneg                                              4     0      4     121
  1813                           ;!                                              0 COMMON     4     0      4
  1814                           ;! ---------------------------------------------------------------------------------
  1815                           ;! (5) ___flmul                                             26    18      8    3025
  1816                           ;!                                              9 COMMON     5     5      0
  1817                           ;!                                              0 BANK0     21    13      8
  1818                           ;!                          __Umul8_16
  1819                           ;! ---------------------------------------------------------------------------------
  1820                           ;! (6) __Umul8_16                                            9     7      2     799
  1821                           ;!                                              0 COMMON     9     7      2
  1822                           ;! ---------------------------------------------------------------------------------
  1823                           ;! (5) ___flge                                              16     8      8     790
  1824                           ;!                                             21 BANK0     16     8      8
  1825                           ;!                            ___flmul (ARG)
  1826                           ;! ---------------------------------------------------------------------------------
  1827                           ;! (5) ___fleq                                              12     4      8     394
  1828                           ;!                                              0 COMMON    12     4      8
  1829                           ;! ---------------------------------------------------------------------------------
  1830                           ;! (5) ___fldiv                                             26    18      8    1881
  1831                           ;!                                              0 COMMON    13     5      8
  1832                           ;!                                              0 BANK0     13    13      0
  1833                           ;! ---------------------------------------------------------------------------------
  1834                           ;! (5) ___awmod                                              7     3      4     448
  1835                           ;!                                              0 COMMON     7     3      4
  1836                           ;! ---------------------------------------------------------------------------------
  1837                           ;! (5) ___awdiv                                              9     5      4     452
  1838                           ;!                                              0 COMMON     9     5      4
  1839                           ;! ---------------------------------------------------------------------------------
  1840                           ;! (4) _atoi                                                15    13      2    1237
  1841                           ;!                                              6 COMMON     6     4      2
  1842                           ;!                                              0 BANK0      9     9      0
  1843                           ;!                             ___wmul
  1844                           ;!                            _isdigit
  1845                           ;!                            _isspace
  1846                           ;! ---------------------------------------------------------------------------------
  1847                           ;! (5) _isspace                                              5     3      2     207
  1848                           ;!                                              0 COMMON     5     3      2
  1849                           ;! ---------------------------------------------------------------------------------
  1850                           ;! (4) _isdigit                                              6     4      2     313
  1851                           ;!                                              0 COMMON     6     4      2
  1852                           ;! ---------------------------------------------------------------------------------
  1853                           ;! (5) ___wmul                                               6     2      4     244
  1854                           ;!                                              0 COMMON     6     2      4
  1855                           ;! ---------------------------------------------------------------------------------
  1856                           ;! (1) _initialize                                           0     0      0       0
  1857                           ;! ---------------------------------------------------------------------------------
  1858                           ;! (1) _eusartTransmit                                       2     2      0      78
  1859                           ;!                                              0 COMMON     2     2      0
  1860                           ;! ---------------------------------------------------------------------------------
  1861                           ;! Estimated maximum stack depth 6
  1862                           ;! ---------------------------------------------------------------------------------
  1863                           ;! (Depth) Function   	        Calls       Base Space   Used Autos Params    Refs
  1864                           ;! ---------------------------------------------------------------------------------
  1865                           ;! (9) _ISR                                                  0     0      0       0
  1866                           ;! ---------------------------------------------------------------------------------
  1867                           ;! Estimated maximum stack depth 9
  1868                           ;! ---------------------------------------------------------------------------------
  1869                           ;!
  1870                           ;! Call Graph Graphs:
  1871                           ;!
  1872                           ;! _main (ROOT)
  1873                           ;!   _eusartTransmit
  1874                           ;!   _initialize
  1875                           ;!   _sprintf
  1876                           ;!     _vfprintf
  1877                           ;!       _vfpfcnvrt
  1878                           ;!         _atoi
  1879                           ;!           ___wmul
  1880                           ;!           _isdigit
  1881                           ;!           _isspace
  1882                           ;!         _efgtoa
  1883                           ;!           ___awdiv
  1884                           ;!           ___awmod
  1885                           ;!           ___fladd
  1886                           ;!           ___fldiv
  1887                           ;!           ___fleq
  1888                           ;!           ___flge
  1889                           ;!             ___flmul (ARG)
  1890                           ;!               __Umul8_16
  1891                           ;!           ___flmul
  1892                           ;!             __Umul8_16
  1893                           ;!           ___flneg
  1894                           ;!           ___flsub
  1895                           ;!             ___fladd
  1896                           ;!             ___flmul (ARG)
  1897                           ;!               __Umul8_16
  1898                           ;!           ___fltol
  1899                           ;!           ___fpclassifyf
  1900                           ;!           _floorf
  1901                           ;!             ___fldiv (ARG)
  1902                           ;!           _isupper
  1903                           ;!           _pad
  1904                           ;!             _fputc
  1905                           ;!               _putch
  1906                           ;!             _fputs
  1907                           ;!               _fputc
  1908                           ;!                 _putch
  1909                           ;!             _strlen
  1910                           ;!           _strcpy
  1911                           ;!           _tolower
  1912                           ;!             _isupper
  1913                           ;!         _fputc
  1914                           ;!           _putch
  1915                           ;!         _isdigit
  1916                           ;!         _isupper
  1917                           ;!         _strncmp
  1918                           ;!         _tolower
  1919                           ;!           _isupper
  1920                           ;!
  1921                           ;! _ISR (ROOT)
  1922                           ;!
  1923                           
  1924                           ;! Address spaces:
  1925                           
  1926                           ;!Name               Size   Autos  Total    Cost      Usage
  1927                           ;!BIGRAM             3F0      0       0       0        0.0%
  1928                           ;!NULL                 0      0       0       0        0.0%
  1929                           ;!CODE                 0      0       0       0        0.0%
  1930                           ;!BITCOMMON            E      0       0       1        0.0%
  1931                           ;!BITSFR0              0      0       0       1        0.0%
  1932                           ;!SFR0                 0      0       0       1        0.0%
  1933                           ;!COMMON               E      E       E       2      100.0%
  1934                           ;!BITSFR1              0      0       0       2        0.0%
  1935                           ;!SFR1                 0      0       0       2        0.0%
  1936                           ;!BITSFR2              0      0       0       3        0.0%
  1937                           ;!SFR2                 0      0       0       3        0.0%
  1938                           ;!STACK                0      0       0       3        0.0%
  1939                           ;!BITSFR3              0      0       0       4        0.0%
  1940                           ;!SFR3                 0      0       0       4        0.0%
  1941                           ;!ABS                  0      0     136       4        0.0%
  1942                           ;!BITBANK0            50      0       0       5        0.0%
  1943                           ;!BITSFR4              0      0       0       5        0.0%
  1944                           ;!SFR4                 0      0       0       5        0.0%
  1945                           ;!BANK0               50     50      50       6      100.0%
  1946                           ;!BITSFR5              0      0       0       6        0.0%
  1947                           ;!SFR5                 0      0       0       6        0.0%
  1948                           ;!BITBANK1            50      0       0       7        0.0%
  1949                           ;!BITSFR6              0      0       0       7        0.0%
  1950                           ;!SFR6                 0      0       0       7        0.0%
  1951                           ;!BANK1               50     50      50       8      100.0%
  1952                           ;!BITSFR7              0      0       0       8        0.0%
  1953                           ;!SFR7                 0      0       0       8        0.0%
  1954                           ;!BITBANK2            50      0       0       9        0.0%
  1955                           ;!BITSFR8              0      0       0       9        0.0%
  1956                           ;!SFR8                 0      0       0       9        0.0%
  1957                           ;!BANK2               50     16      38      10       70.0%
  1958                           ;!BITSFR9              0      0       0      10        0.0%
  1959                           ;!SFR9                 0      0       0      10        0.0%
  1960                           ;!BITBANK3            50      0       0      11        0.0%
  1961                           ;!BITSFR10             0      0       0      11        0.0%
  1962                           ;!SFR10                0      0       0      11        0.0%
  1963                           ;!BANK3               50      0      50      12      100.0%
  1964                           ;!BITSFR11             0      0       0      12        0.0%
  1965                           ;!SFR11                0      0       0      12        0.0%
  1966                           ;!BITBANK4            50      0       0      13        0.0%
  1967                           ;!BITSFR12             0      0       0      13        0.0%
  1968                           ;!SFR12                0      0       0      13        0.0%
  1969                           ;!BANK4               50      0       0      14        0.0%
  1970                           ;!BITSFR13             0      0       0      14        0.0%
  1971                           ;!SFR13                0      0       0      14        0.0%
  1972                           ;!BITBANK5            50      0       0      15        0.0%
  1973                           ;!BITSFR14             0      0       0      15        0.0%
  1974                           ;!SFR14                0      0       0      15        0.0%
  1975                           ;!BANK5               50      0       0      16        0.0%
  1976                           ;!BITSFR15             0      0       0      16        0.0%
  1977                           ;!SFR15                0      0       0      16        0.0%
  1978                           ;!BITBANK6            50      0       0      17        0.0%
  1979                           ;!BITSFR16             0      0       0      17        0.0%
  1980                           ;!SFR16                0      0       0      17        0.0%
  1981                           ;!BANK6               50      0       0      18        0.0%
  1982                           ;!BITSFR17             0      0       0      18        0.0%
  1983                           ;!SFR17                0      0       0      18        0.0%
  1984                           ;!BITBANK7            50      0       0      19        0.0%
  1985                           ;!BITSFR18             0      0       0      19        0.0%
  1986                           ;!SFR18                0      0       0      19        0.0%
  1987                           ;!BANK7               50      0       0      20        0.0%
  1988                           ;!BITSFR19             0      0       0      20        0.0%
  1989                           ;!SFR19                0      0       0      20        0.0%
  1990                           ;!BITBANK8            50      0       0      21        0.0%
  1991                           ;!BITSFR20             0      0       0      21        0.0%
  1992                           ;!SFR20                0      0       0      21        0.0%
  1993                           ;!BANK8               50      0       0      22        0.0%
  1994                           ;!BITSFR21             0      0       0      22        0.0%
  1995                           ;!SFR21                0      0       0      22        0.0%
  1996                           ;!BITBANK9            50      0       0      23        0.0%
  1997                           ;!BITSFR22             0      0       0      23        0.0%
  1998                           ;!SFR22                0      0       0      23        0.0%
  1999                           ;!BANK9               50      0       0      24        0.0%
  2000                           ;!BITSFR23             0      0       0      24        0.0%
  2001                           ;!SFR23                0      0       0      24        0.0%
  2002                           ;!BITBANK10           50      0       0      25        0.0%
  2003                           ;!BITSFR24             0      0       0      25        0.0%
  2004                           ;!SFR24                0      0       0      25        0.0%
  2005                           ;!BANK10              50      0       0      26        0.0%
  2006                           ;!BITSFR25             0      0       0      26        0.0%
  2007                           ;!SFR25                0      0       0      26        0.0%
  2008                           ;!BITBANK11           50      0       0      27        0.0%
  2009                           ;!BITSFR26             0      0       0      27        0.0%
  2010                           ;!SFR26                0      0       0      27        0.0%
  2011                           ;!BANK11              50      0       0      28        0.0%
  2012                           ;!BITSFR27             0      0       0      28        0.0%
  2013                           ;!SFR27                0      0       0      28        0.0%
  2014                           ;!BITBANK12           30      0       0      29        0.0%
  2015                           ;!BITSFR28             0      0       0      29        0.0%
  2016                           ;!SFR28                0      0       0      29        0.0%
  2017                           ;!BANK12              30      0       0      30        0.0%
  2018                           ;!BITSFR29             0      0       0      30        0.0%
  2019                           ;!SFR29                0      0       0      30        0.0%
  2020                           ;!BITSFR30             0      0       0      31        0.0%
  2021                           ;!SFR30                0      0       0      31        0.0%
  2022                           ;!DATA                 0      0     136      31        0.0%
  2023                           ;!BITSFR31             0      0       0      32        0.0%
  2024                           ;!SFR31                0      0       0      32        0.0%
  2025                           ;!BITSFR32             0      0       0      33        0.0%
  2026                           ;!SFR32                0      0       0      33        0.0%
  2027                           ;!BITSFR33             0      0       0      34        0.0%
  2028                           ;!SFR33                0      0       0      34        0.0%
  2029                           ;!BITSFR34             0      0       0      35        0.0%
  2030                           ;!SFR34                0      0       0      35        0.0%
  2031                           ;!BITSFR35             0      0       0      36        0.0%
  2032                           ;!SFR35                0      0       0      36        0.0%
  2033                           ;!BITSFR36             0      0       0      37        0.0%
  2034                           ;!SFR36                0      0       0      37        0.0%
  2035                           ;!BITSFR37             0      0       0      38        0.0%
  2036                           ;!SFR37                0      0       0      38        0.0%
  2037                           ;!BITSFR38             0      0       0      39        0.0%
  2038                           ;!SFR38                0      0       0      39        0.0%
  2039                           ;!BITSFR39             0      0       0      40        0.0%
  2040                           ;!SFR39                0      0       0      40        0.0%
  2041                           ;!BITSFR40             0      0       0      41        0.0%
  2042                           ;!SFR40                0      0       0      41        0.0%
  2043                           ;!BITSFR41             0      0       0      42        0.0%
  2044                           ;!SFR41                0      0       0      42        0.0%
  2045                           ;!BITSFR42             0      0       0      43        0.0%
  2046                           ;!SFR42                0      0       0      43        0.0%
  2047                           ;!BITSFR43             0      0       0      44        0.0%
  2048                           ;!SFR43                0      0       0      44        0.0%
  2049                           ;!BITSFR44             0      0       0      45        0.0%
  2050                           ;!SFR44                0      0       0      45        0.0%
  2051                           ;!BITSFR45             0      0       0      46        0.0%
  2052                           ;!SFR45                0      0       0      46        0.0%
  2053                           ;!BITSFR46             0      0       0      47        0.0%
  2054                           ;!SFR46                0      0       0      47        0.0%
  2055                           ;!BITSFR47             0      0       0      48        0.0%
  2056                           ;!SFR47                0      0       0      48        0.0%
  2057                           ;!BITSFR48             0      0       0      49        0.0%
  2058                           ;!SFR48                0      0       0      49        0.0%
  2059                           ;!BITSFR49             0      0       0      50        0.0%
  2060                           ;!SFR49                0      0       0      50        0.0%
  2061                           ;!BITSFR50             0      0       0      51        0.0%
  2062                           ;!SFR50                0      0       0      51        0.0%
  2063                           ;!BITSFR51             0      0       0      52        0.0%
  2064                           ;!SFR51                0      0       0      52        0.0%
  2065                           ;!BITSFR52             0      0       0      53        0.0%
  2066                           ;!SFR52                0      0       0      53        0.0%
  2067                           ;!BITSFR53             0      0       0      54        0.0%
  2068                           ;!SFR53                0      0       0      54        0.0%
  2069                           ;!BITSFR54             0      0       0      55        0.0%
  2070                           ;!SFR54                0      0       0      55        0.0%
  2071                           ;!BITSFR55             0      0       0      56        0.0%
  2072                           ;!SFR55                0      0       0      56        0.0%
  2073                           ;!BITSFR56             0      0       0      57        0.0%
  2074                           ;!SFR56                0      0       0      57        0.0%
  2075                           ;!BITSFR57             0      0       0      58        0.0%
  2076                           ;!SFR57                0      0       0      58        0.0%
  2077                           ;!BITSFR58             0      0       0      59        0.0%
  2078                           ;!SFR58                0      0       0      59        0.0%
  2079                           ;!BITSFR59             0      0       0      60        0.0%
  2080                           ;!SFR59                0      0       0      60        0.0%
  2081                           ;!BITSFR60             0      0       0      61        0.0%
  2082                           ;!SFR60                0      0       0      61        0.0%
  2083                           ;!BITSFR61             0      0       0      62        0.0%
  2084                           ;!SFR61                0      0       0      62        0.0%
  2085                           ;!BITSFR62             0      0       0      63        0.0%
  2086                           ;!SFR62                0      0       0      63        0.0%
  2087                           ;!BITSFR63             0      0       0      64        0.0%
  2088                           ;!SFR63                0      0       0      64        0.0%
  2089                           
  2090                           	global	_main
  2091                           
  2092 ;; *************** function _main *****************
  2093 ;; Defined at:
  2094 ;;		line 58 in file "main.c"
  2095 ;; Parameters:    Size  Location     Type
  2096 ;;		None
  2097 ;; Auto vars:     Size  Location     Type
  2098 ;;  s              20    2[BANK2 ] unsigned char [20]
  2099 ;; Return value:  Size  Location     Type
  2100 ;;                  1    wreg      void 
  2101 ;; Registers used:
  2102 ;;		wreg, fsr0l, fsr0h, fsr1l, fsr1h, status,2, status,0, pclath, cstack
  2103 ;; Tracked objects:
  2104 ;;		On entry : B3F/0
  2105 ;;		On exit  : 0/0
  2106 ;;		Unchanged: 0/0
  2107 ;; Data sizes:     COMMON   BANK0   BANK1   BANK2   BANK3   BANK4   BANK5   BANK6   BANK7   BANK8   BANK9  BANK10  BANK1
       1  BANK12
  2108 ;;      Params:         0       0       0       0       0       0       0       0       0       0       0       0       
       0       0
  2109 ;;      Locals:         0       0       0      20       0       0       0       0       0       0       0       0       
       0       0
  2110 ;;      Temps:          0       0       0       2       0       0       0       0       0       0       0       0       
       0       0
  2111 ;;      Totals:         0       0       0      22       0       0       0       0       0       0       0       0       
       0       0
  2112 ;;Total ram usage:       22 bytes
  2113 ;; Hardware stack levels required when called:    9
  2114 ;; This function calls:
  2115 ;;		_eusartTransmit
  2116 ;;		_initialize
  2117 ;;		_sprintf
  2118 ;; This function is called by:
  2119 ;;		Startup code after reset
  2120 ;; This function uses a non-reentrant model
  2121 ;;
  2122                           psect	maintext,global,class=CODE,delta=2,merge=1,split=1,group=0
  2123                           	file	"main.c"
  2124                           	line	58
  2125                           global __pmaintext
  2126                           __pmaintext:	;psect for function _main
  2127  1022                     psect	maintext
  2128                           	file	"main.c"
  2129                           	line	58
  2130                           	global	__size_of_main
  2131                           	__size_of_main	equ	__end_of_main-_main
  2132  003A                     	
  2133                           _main:	
  2134  1022                     ;incstack = 0
  2135                           	opt	stack 7
  2136                           ; Regs used in _main: [wreg-fsr1h+status,2+status,0+pclath+cstack]
  2137                           	line	62
  2138                           	
  2139                           l3705:	
  2140  1022                     ;main.c: 60:     char s[20];;main.c: 62:     initialize();
  2141                           	fcall	_initialize
  2142  1022  319F  2796  3190   	line	64
  2143                           	
  2144                           l3707:	
  2145  1025                     ;main.c: 64:     sprintf(s, "%06.2f,%06.2f,%06.2f\n", 23.5, 44.3, -3.2);
  2146                           	movlw	low(((STR_1)|8000h))
  2147  1025  3000               	movlb 1	; select bank1
  2148  1026  0141               	movwf	(sprintf@fmt)^080h
  2149  1027  00D9               	movlw	high(((STR_1)|8000h))
  2150  1028  3098               	movwf	((sprintf@fmt)^080h)+1
  2151  1029  00DA               	movlw	0x41
  2152  102A  3041               	movwf	3+(?_sprintf)^080h+02h
  2153  102B  00DE               	movlw	0xbc
  2154  102C  30BC               	movwf	2+(?_sprintf)^080h+02h
  2155  102D  00DD               	movlw	0x0
  2156  102E  3000               	movwf	1+(?_sprintf)^080h+02h
  2157  102F  00DC               	movlw	0x0
  2158  1030  3000               	movwf	0+(?_sprintf)^080h+02h
  2159  1031  00DB               
  2160                           	movlw	0x42
  2161  1032  3042               	movwf	3+(?_sprintf)^080h+06h
  2162  1033  00E2               	movlw	0x31
  2163  1034  3031               	movwf	2+(?_sprintf)^080h+06h
  2164  1035  00E1               	movlw	0x33
  2165  1036  3033               	movwf	1+(?_sprintf)^080h+06h
  2166  1037  00E0               	movlw	0x33
  2167  1038  3033               	movwf	0+(?_sprintf)^080h+06h
  2168  1039  00DF               
  2169                           	movlw	0xc0
  2170  103A  30C0               	movwf	3+(?_sprintf)^080h+0Ah
  2171  103B  00E6               	movlw	0x4c
  2172  103C  304C               	movwf	2+(?_sprintf)^080h+0Ah
  2173  103D  00E5               	movlw	0xcc
  2174  103E  30CC               	movwf	1+(?_sprintf)^080h+0Ah
  2175  103F  00E4               	movlw	0xcd
  2176  1040  30CD               	movwf	0+(?_sprintf)^080h+0Ah
  2177  1041  00E3               
  2178                           	movlw	(low(main@s|((0x1)<<8)))&0ffh
  2179  1042  3044               	fcall	_sprintf
  2180  1043  319F  2762  3190   	line	66
  2181                           ;main.c: 66:     while (1)
  2182                           	
  2183                           l69:	
  2184  1046                     	line	68
  2185                           # 68 "main.c"
  2186                           clrwdt ;# 
  2187  1046  0064               psect	maintext
  2188                           	line	69
  2189                           	
  2190                           l3709:	
  2191  1047                     ;main.c: 69:         eusartTransmit(s);
  2192                           	movlw	(low(main@s|((0x1)<<8)))&0ffh
  2193  1047  3044               	fcall	_eusartTransmit
  2194  1048  319E  262D  3190   	line	70
  2195                           	
  2196                           l3711:	
  2197  104B                     ;main.c: 70:         _delay((unsigned long)((500)*(4000000UL/4000.0)));
  2198                           	opt asmopt_push
  2199                           opt asmopt_off
  2200                           movlw  3
  2201  104B  3003               	movlb 2	; select bank2
  2202  104C  0142               movwf	((??_main+0)^0100h+0+1),f
  2203  104D  00C3               movlw	138
  2204  104E  308A               movwf	((??_main+0)^0100h+0),f
  2205  104F  00C2               	movlw	85
  2206  1050  3055               u5437:
  2207  1051                     decfsz	wreg
  2208  1051  0B89               	goto	u5437
  2209  1052  2851               	decfsz	((??_main+0)^0100h+0),f
  2210  1053  0BC2               	goto	u5437
  2211  1054  2851               	decfsz	((??_main+0)^0100h+0+1),f
  2212  1055  0BC3               	goto	u5437
  2213  1056  2851               	nop2
  2214  1057  3200               opt asmopt_pop
  2215                           
  2216                           	goto	l69
  2217  1058  2846               	line	71
  2218                           ;main.c: 71:     }
  2219                           	
  2220                           l70:	
  2221  1059                     	goto	l69
  2222  1059  2846               	
  2223                           l71:	
  2224  105A                     	line	72
  2225                           	
  2226                           l72:	
  2227  105A                     	global	start
  2228                           	ljmp	start
  2229  105A  3180  2808         	opt stack 0
  2230                           GLOBAL	__end_of_main
  2231                           	__end_of_main:
  2232  105C                     	signat	_main,89
  2233                           	global	_sprintf
  2234                           
  2235 ;; *************** function _sprintf *****************
  2236 ;; Defined at:
  2237 ;;		line 9 in file "C:\Program Files (x86)\Microchip\xc8\v2.00\pic\sources\c99\common\nf_sprintf.c"
  2238 ;; Parameters:    Size  Location     Type
  2239 ;;  s               1    wreg     PTR unsigned char 
  2240 ;;		 -> main@s(20), 
  2241 ;;  fmt             2   57[BANK1 ] PTR const unsigned char 
  2242 ;;		 -> STR_1(22), 
  2243 ;; Auto vars:     Size  Location     Type
  2244 ;;  s               1   73[BANK1 ] PTR unsigned char 
  2245 ;;		 -> main@s(20), 
  2246 ;;  f               5   75[BANK1 ] struct _IO_FILE
  2247 ;;  ret             2   71[BANK1 ] int 
  2248 ;;  ap              1   74[BANK1 ] PTR void [1]
  2249 ;;		 -> ?_sprintf(2), 
  2250 ;; Return value:  Size  Location     Type
  2251 ;;                  2   57[BANK1 ] int 
  2252 ;; Registers used:
  2253 ;;		wreg, fsr0l, fsr0h, fsr1l, fsr1h, status,2, status,0, pclath, cstack
  2254 ;; Tracked objects:
  2255 ;;		On entry : 0/0
  2256 ;;		On exit  : 0/0
  2257 ;;		Unchanged: 0/0
  2258 ;; Data sizes:     COMMON   BANK0   BANK1   BANK2   BANK3   BANK4   BANK5   BANK6   BANK7   BANK8   BANK9  BANK10  BANK1
       1  BANK12
  2259 ;;      Params:         0       0      14       0       0       0       0       0       0       0       0       0       
       0       0
  2260 ;;      Locals:         0       0       9       0       0       0       0       0       0       0       0       0       
       0       0
  2261 ;;      Temps:          0       1       0       0       0       0       0       0       0       0       0       0       
       0       0
  2262 ;;      Totals:         0       1      23       0       0       0       0       0       0       0       0       0       
       0       0
  2263 ;;Total ram usage:       24 bytes
  2264 ;; Hardware stack levels used:    1
  2265 ;; Hardware stack levels required when called:    8
  2266 ;; This function calls:
  2267 ;;		_vfprintf
  2268 ;; This function is called by:
  2269 ;;		_main
  2270 ;; This function uses a non-reentrant model
  2271 ;;
  2272                           psect	text1,local,class=CODE,delta=2,merge=1,group=2
  2273                           	file	"C:\Program Files (x86)\Microchip\xc8\v2.00\pic\sources\c99\common\nf_sprintf.c"
  2274                           	line	9
  2275                           global __ptext1
  2276                           __ptext1:	;psect for function _sprintf
  2277  1F62                     psect	text1
  2278                           	file	"C:\Program Files (x86)\Microchip\xc8\v2.00\pic\sources\c99\common\nf_sprintf.c"
  2279                           	line	9
  2280                           	global	__size_of_sprintf
  2281                           	__size_of_sprintf	equ	__end_of_sprintf-_sprintf
  2282  0034                     	
  2283                           _sprintf:	
  2284  1F62                     ;incstack = 0
  2285                           	opt	stack 7
  2286                           ; Regs used in _sprintf: [wreg-fsr1h+status,2+status,0+pclath+cstack]
  2287                           ;sprintf@s stored from wreg
  2288                           	movlb 1	; select bank1
  2289  1F62  0141               	movwf	(sprintf@s)^080h
  2290  1F63  00E9               	line	15
  2291                           	
  2292                           l3685:	
  2293  1F64                     	movlw	(low(?_sprintf|((0x0)<<8)+02h))&0ffh
  2294  1F64  30DB               	movlb 0	; select bank0
  2295  1F65  0140               	movwf	(??_sprintf+0)+0
  2296  1F66  00EF               	movf	(??_sprintf+0)+0,w
  2297  1F67  086F               	movlb 1	; select bank1
  2298  1F68  0141               	movwf	(sprintf@ap)^080h
  2299  1F69  00EA               	line	16
  2300                           	movf	(sprintf@s)^080h,w
  2301  1F6A  0869               	movlb 0	; select bank0
  2302  1F6B  0140               	movwf	(??_sprintf+0)+0
  2303  1F6C  00EF               	movf	(??_sprintf+0)+0,w
  2304  1F6D  086F               	movlb 1	; select bank1
  2305  1F6E  0141               	movwf	(sprintf@f)^080h
  2306  1F6F  00EB               	line	17
  2307                           	
  2308                           l3687:	
  2309  1F70                     	clrf	0+(sprintf@f)^080h+01h
  2310  1F70  01EC               	clrf	1+(sprintf@f)^080h+01h
  2311  1F71  01ED               	line	18
  2312                           	
  2313                           l3689:	
  2314  1F72                     	clrf	0+(sprintf@f)^080h+03h
  2315  1F72  01EE               	clrf	1+(sprintf@f)^080h+03h
  2316  1F73  01EF               	line	19
  2317                           	
  2318                           l3691:	
  2319  1F74                     	movf	(sprintf@fmt+1)^080h,w
  2320  1F74  085A               	movlb 0	; select bank0
  2321  1F75  0140               	movwf	(vfprintf@fmt+1)
  2322  1F76  00E8               	movlb 1	; select bank1
  2323  1F77  0141               	movf	(sprintf@fmt)^080h,w
  2324  1F78  0859               	movlb 0	; select bank0
  2325  1F79  0140               	movwf	(vfprintf@fmt)
  2326  1F7A  00E7               	movlw	(low(sprintf@ap|((0x0)<<8)))&0ffh
  2327  1F7B  30EA               	movwf	(??_sprintf+0)+0
  2328  1F7C  00EF               	movf	(??_sprintf+0)+0,w
  2329  1F7D  086F               	movwf	(vfprintf@ap)
  2330  1F7E  00E9               	movlw	(low(sprintf@f|((0x0)<<8)))&0ffh
  2331  1F7F  30EB               	fcall	_vfprintf
  2332  1F80  319F  27CB  319F   	movlb 0	; select bank0
  2333  1F83  0140               	movf	(1+(?_vfprintf)),w
  2334  1F84  0868               	movlb 1	; select bank1
  2335  1F85  0141               	movwf	(sprintf@ret+1)^080h
  2336  1F86  00E8               	movlb 0	; select bank0
  2337  1F87  0140               	movf	(0+(?_vfprintf)),w
  2338  1F88  0867               	movlb 1	; select bank1
  2339  1F89  0141               	movwf	(sprintf@ret)^080h
  2340  1F8A  00E7               	line	20
  2341                           	
  2342                           l3693:	
  2343  1F8B                     	movf	0+(sprintf@f)^080h+01h,w
  2344  1F8B  086C               	addwf	(sprintf@s)^080h,w
  2345  1F8C  0769               	movlb 0	; select bank0
  2346  1F8D  0140               	movwf	(??_sprintf+0)+0
  2347  1F8E  00EF               	movf	0+(??_sprintf+0)+0,w
  2348  1F8F  086F               	movwf	fsr1l
  2349  1F90  0086               	movlw 1	; select bank2/3
  2350  1F91  3001               	movwf fsr1h	
  2351  1F92  0087               	
  2352                           	clrf	indf1
  2353  1F93  0181               	goto	l818
  2354  1F94  2F95               	line	22
  2355                           	
  2356                           l3695:	
  2357  1F95                     	line	23
  2358                           ;	Return value of _sprintf is never used
  2359                           	
  2360                           l818:	
  2361  1F95                     	return
  2362  1F95  0008               	opt stack 0
  2363                           GLOBAL	__end_of_sprintf
  2364                           	__end_of_sprintf:
  2365  1F96                     	signat	_sprintf,4698
  2366                           	global	_vfprintf
  2367                           
  2368 ;; *************** function _vfprintf *****************
  2369 ;; Defined at:
  2370 ;;		line 1368 in file "C:\Program Files (x86)\Microchip\xc8\v2.00\pic\sources\c99\common\doprnt.c"
  2371 ;; Parameters:    Size  Location     Type
  2372 ;;  fp              1    wreg     PTR struct _IO_FILE
  2373 ;;		 -> sprintf@f(5), 
  2374 ;;  fmt             2   71[BANK0 ] PTR const unsigned char 
  2375 ;;		 -> STR_1(22), 
  2376 ;;  ap              1   73[BANK0 ] PTR PTR void 
  2377 ;;		 -> sprintf@ap(1), 
  2378 ;; Auto vars:     Size  Location     Type
  2379 ;;  fp              1   76[BANK0 ] PTR struct _IO_FILE
  2380 ;;		 -> sprintf@f(5), 
  2381 ;;  cfmt            2   77[BANK0 ] PTR unsigned char 
  2382 ;;		 -> STR_1(22), 
  2383 ;; Return value:  Size  Location     Type
  2384 ;;                  2   71[BANK0 ] int 
  2385 ;; Registers used:
  2386 ;;		wreg, fsr0l, fsr0h, fsr1l, fsr1h, status,2, status,0, pclath, cstack
  2387 ;; Tracked objects:
  2388 ;;		On entry : 0/0
  2389 ;;		On exit  : 0/0
  2390 ;;		Unchanged: 0/0
  2391 ;; Data sizes:     COMMON   BANK0   BANK1   BANK2   BANK3   BANK4   BANK5   BANK6   BANK7   BANK8   BANK9  BANK10  BANK1
       1  BANK12
  2392 ;;      Params:         0       3       0       0       0       0       0       0       0       0       0       0       
       0       0
  2393 ;;      Locals:         0       3       0       0       0       0       0       0       0       0       0       0       
       0       0
  2394 ;;      Temps:          0       2       0       0       0       0       0       0       0       0       0       0       
       0       0
  2395 ;;      Totals:         0       8       0       0       0       0       0       0       0       0       0       0       
       0       0
  2396 ;;Total ram usage:        8 bytes
  2397 ;; Hardware stack levels used:    1
  2398 ;; Hardware stack levels required when called:    7
  2399 ;; This function calls:
  2400 ;;		_vfpfcnvrt
  2401 ;; This function is called by:
  2402 ;;		_sprintf
  2403 ;; This function uses a non-reentrant model
  2404 ;;
  2405                           psect	text2,local,class=CODE,delta=2,merge=1,group=0
  2406                           	file	"C:\Program Files (x86)\Microchip\xc8\v2.00\pic\sources\c99\common\doprnt.c"
  2407                           	line	1368
  2408                           global __ptext2
  2409                           __ptext2:	;psect for function _vfprintf
  2410  1FCB                     psect	text2
  2411                           	file	"C:\Program Files (x86)\Microchip\xc8\v2.00\pic\sources\c99\common\doprnt.c"
  2412                           	line	1368
  2413                           	global	__size_of_vfprintf
  2414                           	__size_of_vfprintf	equ	__end_of_vfprintf-_vfprintf
  2415  0035                     	
  2416                           _vfprintf:	
  2417  1FCB                     ;incstack = 0
  2418                           	opt	stack 7
  2419                           ; Regs used in _vfprintf: [wreg-fsr1h+status,2+status,0+pclath+cstack]
  2420                           ;vfprintf@fp stored from wreg
  2421                           	movlb 0	; select bank0
  2422  1FCB  0140               	movwf	(vfprintf@fp)
  2423  1FCC  00EC               	line	1373
  2424                           	
  2425                           l3635:	
  2426  1FCD                     ;C:\Program Files (x86)\Microchip\xc8\v2.00\pic\sources\c99\common\doprnt.c: 1368: int v
                                 fprintf(FILE *fp, const char *fmt, va_list ap);C:\Program Files (x86)\Microchip\xc8\v2.0
                                 0\pic\sources\c99\common\doprnt.c: 1369: {;C:\Program Files (x86)\Microchip\xc8\v2.00\pi
                                 c\sources\c99\common\doprnt.c: 1371:     char *cfmt;;C:\Program Files (x86)\Microchip\xc
                                 8\v2.00\pic\sources\c99\common\doprnt.c: 1373:     cfmt = (char *)fmt;
  2427                           	movf	(vfprintf@fmt+1),w
  2428  1FCD  0868               	movwf	(vfprintf@cfmt+1)
  2429  1FCE  00EE               	movf	(vfprintf@fmt),w
  2430  1FCF  0867               	movwf	(vfprintf@cfmt)
  2431  1FD0  00ED               	line	1374
  2432                           	
  2433                           l3637:	
  2434  1FD1                     ;C:\Program Files (x86)\Microchip\xc8\v2.00\pic\sources\c99\common\doprnt.c: 1374:     n
                                 out = 0;
  2435                           	movlb 2	; select bank2
  2436  1FD1  0142               	clrf	(_nout)^0100h
  2437  1FD2  01B8               	clrf	(_nout+1)^0100h
  2438  1FD3  01B9               	line	1375
  2439                           ;C:\Program Files (x86)\Microchip\xc8\v2.00\pic\sources\c99\common\doprnt.c: 1375:     w
                                 hile (*cfmt) {
  2440                           	goto	l3641
  2441  1FD4  2FEB               	
  2442                           l279:	
  2443  1FD5                     	line	1376
  2444                           	
  2445                           l3639:	
  2446  1FD5                     ;C:\Program Files (x86)\Microchip\xc8\v2.00\pic\sources\c99\common\doprnt.c: 1376:      
                                    nout += vfpfcnvrt(fp, &cfmt, ap);
  2447                           	movlw	(low(vfprintf@cfmt|((0x0)<<8)))&0ffh
  2448  1FD5  306D               	movlb 0	; select bank0
  2449  1FD6  0140               	movwf	(??_vfprintf+0)+0
  2450  1FD7  00EA               	movf	(??_vfprintf+0)+0,w
  2451  1FD8  086A               	movwf	(vfpfcnvrt@fmt)
  2452  1FD9  00CE               	movf	(vfprintf@ap),w
  2453  1FDA  0869               	movwf	(??_vfprintf+1)+0
  2454  1FDB  00EB               	movf	(??_vfprintf+1)+0,w
  2455  1FDC  086B               	movwf	(vfpfcnvrt@ap)
  2456  1FDD  00CF               	movf	(vfprintf@fp),w
  2457  1FDE  086C               	fcall	_vfpfcnvrt
  2458  1FDF  318C  2471  319F   	movlb 0	; select bank0
  2459  1FE2  0140               	movf	(0+(?_vfpfcnvrt)),w
  2460  1FE3  084E               	movlb 2	; select bank2
  2461  1FE4  0142               	addwf	(_nout)^0100h,f
  2462  1FE5  07B8               	movlb 0	; select bank0
  2463  1FE6  0140               	movf	(1+(?_vfpfcnvrt)),w
  2464  1FE7  084F               	movlb 2	; select bank2
  2465  1FE8  0142               	addwfc	(_nout+1)^0100h,f
  2466  1FE9  3DB9               	goto	l3641
  2467  1FEA  2FEB               	line	1377
  2468                           ;C:\Program Files (x86)\Microchip\xc8\v2.00\pic\sources\c99\common\doprnt.c: 1377:     }
                                 
  2469                           	
  2470                           l278:	
  2471  1FEB                     	line	1375
  2472                           	
  2473                           l3641:	
  2474  1FEB                     ;C:\Program Files (x86)\Microchip\xc8\v2.00\pic\sources\c99\common\doprnt.c: 1375:     w
                                 hile (*cfmt) {
  2475                           	movlb 0	; select bank0
  2476  1FEB  0140               	movf	(vfprintf@cfmt),w
  2477  1FEC  086D               	movwf	fsr0l
  2478  1FED  0084               	movf	((vfprintf@cfmt+1)),w
  2479  1FEE  086E               	movwf	fsr0h
  2480  1FEF  0085               	moviw	fsr0++
  2481  1FF0  0012               	btfss	status,2
  2482  1FF1  1D03               	goto	u5391
  2483  1FF2  2FF4               	goto	u5390
  2484  1FF3  2FF5               u5391:
  2485  1FF4                     	goto	l3639
  2486  1FF4  2FD5               u5390:
  2487  1FF5                     	goto	l3643
  2488  1FF5  2FF6               	
  2489                           l280:	
  2490  1FF6                     	line	1378
  2491                           	
  2492                           l3643:	
  2493  1FF6                     ;C:\Program Files (x86)\Microchip\xc8\v2.00\pic\sources\c99\common\doprnt.c: 1378:     r
                                 eturn nout;
  2494                           	movlb 2	; select bank2
  2495  1FF6  0142               	movf	(_nout+1)^0100h,w
  2496  1FF7  0839               	movlb 0	; select bank0
  2497  1FF8  0140               	movwf	(?_vfprintf+1)
  2498  1FF9  00E8               	movlb 2	; select bank2
  2499  1FFA  0142               	movf	(_nout)^0100h,w
  2500  1FFB  0838               	movlb 0	; select bank0
  2501  1FFC  0140               	movwf	(?_vfprintf)
  2502  1FFD  00E7               	goto	l281
  2503  1FFE  2FFF               	
  2504                           l3645:	
  2505  1FFF                     	line	1382
  2506                           	
  2507                           l281:	
  2508  1FFF                     	return
  2509  1FFF  0008               	opt stack 0
  2510                           GLOBAL	__end_of_vfprintf
  2511                           	__end_of_vfprintf:
  2512  2000                     	signat	_vfprintf,12410
  2513                           	global	_vfpfcnvrt
  2514                           
  2515 ;; *************** function _vfpfcnvrt *****************
  2516 ;; Defined at:
  2517 ;;		line 670 in file "C:\Program Files (x86)\Microchip\xc8\v2.00\pic\sources\c99\common\doprnt.c"
  2518 ;; Parameters:    Size  Location     Type
  2519 ;;  fp              1    wreg     PTR struct _IO_FILE
  2520 ;;		 -> sprintf@f(5), 
  2521 ;;  fmt             1   46[BANK0 ] PTR PTR unsigned char 
  2522 ;;		 -> vfprintf@cfmt(2), 
  2523 ;;  ap              1   47[BANK0 ] PTR PTR void 
  2524 ;;		 -> sprintf@ap(1), 
  2525 ;; Auto vars:     Size  Location     Type
  2526 ;;  fp              1   70[BANK0 ] PTR struct _IO_FILE
  2527 ;;		 -> sprintf@f(5), 
  2528 ;;  f               4   62[BANK0 ] PTR struct _IO_FILE
  2529 ;;  llu             4    0        unsigned long 
  2530 ;;  ll              4    0        long 
  2531 ;;  ct              3   66[BANK0 ] unsigned char [3]
  2532 ;;  done            2   54[BANK0 ] int 
  2533 ;;  vp              2    0        PTR void 
  2534 ;;  i               2    0        int 
  2535 ;;  cp              2    0        PTR unsigned char 
  2536 ;;  c               1   69[BANK0 ] unsigned char 
  2537 ;; Return value:  Size  Location     Type
  2538 ;;                  2   46[BANK0 ] int 
  2539 ;; Registers used:
  2540 ;;		wreg, fsr0l, fsr0h, fsr1l, fsr1h, status,2, status,0, pclath, cstack
  2541 ;; Tracked objects:
  2542 ;;		On entry : 0/0
  2543 ;;		On exit  : 0/0
  2544 ;;		Unchanged: 0/0
  2545 ;; Data sizes:     COMMON   BANK0   BANK1   BANK2   BANK3   BANK4   BANK5   BANK6   BANK7   BANK8   BANK9  BANK10  BANK1
       1  BANK12
  2546 ;;      Params:         0       2       0       0       0       0       0       0       0       0       0       0       
       0       0
  2547 ;;      Locals:         0      17       0       0       0       0       0       0       0       0       0       0       
       0       0
  2548 ;;      Temps:          0       6       0       0       0       0       0       0       0       0       0       0       
       0       0
  2549 ;;      Totals:         0      25       0       0       0       0       0       0       0       0       0       0       
       0       0
  2550 ;;Total ram usage:       25 bytes
  2551 ;; Hardware stack levels used:    1
  2552 ;; Hardware stack levels required when called:    6
  2553 ;; This function calls:
  2554 ;;		_atoi
  2555 ;;		_efgtoa
  2556 ;;		_fputc
  2557 ;;		_isdigit
  2558 ;;		_isupper
  2559 ;;		_strncmp
  2560 ;;		_tolower
  2561 ;; This function is called by:
  2562 ;;		_vfprintf
  2563 ;; This function uses a non-reentrant model
  2564 ;;
  2565                           psect	text3,local,class=CODE,delta=2,merge=1,group=0
  2566                           	line	670
  2567                           global __ptext3
  2568                           __ptext3:	;psect for function _vfpfcnvrt
  2569  0C71                     psect	text3
  2570                           	file	"C:\Program Files (x86)\Microchip\xc8\v2.00\pic\sources\c99\common\doprnt.c"
  2571                           	line	670
  2572                           	global	__size_of_vfpfcnvrt
  2573                           	__size_of_vfpfcnvrt	equ	__end_of_vfpfcnvrt-_vfpfcnvrt
  2574  038F                     	
  2575                           _vfpfcnvrt:	
  2576  0C71                     ;incstack = 0
  2577                           	opt	stack 7
  2578                           ; Regs used in _vfpfcnvrt: [wreg-fsr1h+status,2+status,0+pclath+cstack]
  2579                           ;vfpfcnvrt@fp stored from wreg
  2580                           	movlb 0	; select bank0
  2581  0C71  0140               	movwf	(vfpfcnvrt@fp)
  2582  0C72  00E6               	line	680
  2583                           	
  2584                           l3493:	
  2585  0C73                     ;C:\Program Files (x86)\Microchip\xc8\v2.00\pic\sources\c99\common\doprnt.c: 670: static
                                  int vfpfcnvrt(FILE *fp, char *fmt[], va_list ap);C:\Program Files (x86)\Microchip\xc8\v
                                 2.00\pic\sources\c99\common\doprnt.c: 671: {;C:\Program Files (x86)\Microchip\xc8\v2.00\
                                 pic\sources\c99\common\doprnt.c: 672:     char c, *cp, ct[3];;C:\Program Files (x86)\Mic
                                 rochip\xc8\v2.00\pic\sources\c99\common\doprnt.c: 673:     int done, i;;C:\Program Files
                                  (x86)\Microchip\xc8\v2.00\pic\sources\c99\common\doprnt.c: 674:     long long ll;
  2586                           	movf	(vfpfcnvrt@fmt),w
  2587  0C73  084E               	movwf	fsr1l
  2588  0C74  0086               	clrf fsr1h	
  2589  0C75  0187               	
  2590                           	moviw	[0]fsr1
  2591  0C76  3F40               	movwf	(??_vfpfcnvrt+0)+0
  2592  0C77  00D0               	moviw	[1]fsr1
  2593  0C78  3F41               	movwf	(??_vfpfcnvrt+0)+0+1
  2594  0C79  00D1               	movf	0+(??_vfpfcnvrt+0)+0,w
  2595  0C7A  0850               	movwf	fsr0l
  2596  0C7B  0084               	movf	(1+(??_vfpfcnvrt+0)+0),w
  2597  0C7C  0851               	movwf	fsr0h
  2598  0C7D  0085               	moviw	fsr0++
  2599  0C7E  0012               xorlw	37
  2600  0C7F  3A25               	btfss	status,2
  2601  0C80  1D03               	goto	u5181
  2602  0C81  2C83               	goto	u5180
  2603  0C82  2C84               u5181:
  2604  0C83                     	goto	l3623
  2605  0C83  2FD8               u5180:
  2606  0C84                     	line	681
  2607                           	
  2608                           l3495:	
  2609  0C84                     ;C:\Program Files (x86)\Microchip\xc8\v2.00\pic\sources\c99\common\doprnt.c: 681:       
                                   ++*fmt;
  2610                           	movf	(vfpfcnvrt@fmt),w
  2611  0C84  084E               	movwf	fsr1l
  2612  0C85  0086               	clrf fsr1h	
  2613  0C86  0187               	
  2614                           	movlw	01h
  2615  0C87  3001               	addwf	indf1,f
  2616  0C88  0781               	addfsr	fsr1,1
  2617  0C89  3141               	skipnc
  2618  0C8A  1803               	incf	indf1,f
  2619  0C8B  0A81               	line	683
  2620                           	
  2621                           l3497:	
  2622  0C8C                     ;C:\Program Files (x86)\Microchip\xc8\v2.00\pic\sources\c99\common\doprnt.c: 683:       
                                   flags = width = 0;
  2623                           	movlb 2	; select bank2
  2624  0C8C  0142               	clrf	(_width)^0100h
  2625  0C8D  01BA               	clrf	(_width+1)^0100h
  2626  0C8E  01BB               	clrf	(_flags)^0100h
  2627  0C8F  01BE               	clrf	(_flags+1)^0100h
  2628  0C90  01BF               	line	684
  2629                           	
  2630                           l3499:	
  2631  0C91                     ;C:\Program Files (x86)\Microchip\xc8\v2.00\pic\sources\c99\common\doprnt.c: 684:       
                                   prec = -1;
  2632                           	movlw	0FFh
  2633  0C91  30FF               	movwf	(_prec)^0100h
  2634  0C92  00BC               	movlw	0FFh
  2635  0C93  30FF               	movwf	((_prec)^0100h)+1
  2636  0C94  00BD               	line	688
  2637                           	
  2638                           l3501:	
  2639  0C95                     ;C:\Program Files (x86)\Microchip\xc8\v2.00\pic\sources\c99\common\doprnt.c: 688:       
                                   done = 0;
  2640                           	movlb 0	; select bank0
  2641  0C95  0140               	clrf	(vfpfcnvrt@done)
  2642  0C96  01D6               	clrf	(vfpfcnvrt@done+1)
  2643  0C97  01D7               	line	689
  2644                           ;C:\Program Files (x86)\Microchip\xc8\v2.00\pic\sources\c99\common\doprnt.c: 689:       
                                   while (!done) {
  2645                           	goto	l3519
  2646  0C98  2D01               	
  2647                           l233:	
  2648  0C99                     	line	690
  2649                           ;C:\Program Files (x86)\Microchip\xc8\v2.00\pic\sources\c99\common\doprnt.c: 690:       
                                       switch ((*fmt)[0]) {
  2650                           	goto	l3517
  2651  0C99  2CDC               	line	691
  2652                           ;C:\Program Files (x86)\Microchip\xc8\v2.00\pic\sources\c99\common\doprnt.c: 691:       
                                           case '-' :
  2653                           	
  2654                           l235:	
  2655  0C9A                     	line	692
  2656                           ;C:\Program Files (x86)\Microchip\xc8\v2.00\pic\sources\c99\common\doprnt.c: 692:       
                                               flags |= (1 << 0);
  2657                           	movlb 2	; select bank2
  2658  0C9A  0142               	bsf	(_flags)^0100h+(0/8),(0)&7
  2659  0C9B  143E               	line	693
  2660                           	
  2661                           l3503:	
  2662  0C9C                     ;C:\Program Files (x86)\Microchip\xc8\v2.00\pic\sources\c99\common\doprnt.c: 693:       
                                               ++*fmt;
  2663                           	movlb 0	; select bank0
  2664  0C9C  0140               	movf	(vfpfcnvrt@fmt),w
  2665  0C9D  084E               	movwf	fsr1l
  2666  0C9E  0086               	clrf fsr1h	
  2667  0C9F  0187               	
  2668                           	movlw	01h
  2669  0CA0  3001               	addwf	indf1,f
  2670  0CA1  0781               	addfsr	fsr1,1
  2671  0CA2  3141               	skipnc
  2672  0CA3  1803               	incf	indf1,f
  2673  0CA4  0A81               	line	694
  2674                           ;C:\Program Files (x86)\Microchip\xc8\v2.00\pic\sources\c99\common\doprnt.c: 694:       
                                               break;
  2675                           	goto	l3519
  2676  0CA5  2D01               	line	695
  2677                           ;C:\Program Files (x86)\Microchip\xc8\v2.00\pic\sources\c99\common\doprnt.c: 695:       
                                           case '0' :
  2678                           	
  2679                           l237:	
  2680  0CA6                     	line	696
  2681                           ;C:\Program Files (x86)\Microchip\xc8\v2.00\pic\sources\c99\common\doprnt.c: 696:       
                                               flags |= (1 << 1);
  2682                           	movlb 2	; select bank2
  2683  0CA6  0142               	bsf	(_flags)^0100h+(1/8),(1)&7
  2684  0CA7  14BE               	line	697
  2685                           	
  2686                           l3505:	
  2687  0CA8                     ;C:\Program Files (x86)\Microchip\xc8\v2.00\pic\sources\c99\common\doprnt.c: 697:       
                                               ++*fmt;
  2688                           	movlb 0	; select bank0
  2689  0CA8  0140               	movf	(vfpfcnvrt@fmt),w
  2690  0CA9  084E               	movwf	fsr1l
  2691  0CAA  0086               	clrf fsr1h	
  2692  0CAB  0187               	
  2693                           	movlw	01h
  2694  0CAC  3001               	addwf	indf1,f
  2695  0CAD  0781               	addfsr	fsr1,1
  2696  0CAE  3141               	skipnc
  2697  0CAF  1803               	incf	indf1,f
  2698  0CB0  0A81               	line	698
  2699                           ;C:\Program Files (x86)\Microchip\xc8\v2.00\pic\sources\c99\common\doprnt.c: 698:       
                                               break;
  2700                           	goto	l3519
  2701  0CB1  2D01               	line	699
  2702                           ;C:\Program Files (x86)\Microchip\xc8\v2.00\pic\sources\c99\common\doprnt.c: 699:       
                                           case '+' :
  2703                           	
  2704                           l238:	
  2705  0CB2                     	line	700
  2706                           ;C:\Program Files (x86)\Microchip\xc8\v2.00\pic\sources\c99\common\doprnt.c: 700:       
                                               flags |= (1 << 2);
  2707                           	movlb 2	; select bank2
  2708  0CB2  0142               	bsf	(_flags)^0100h+(2/8),(2)&7
  2709  0CB3  153E               	line	701
  2710                           	
  2711                           l3507:	
  2712  0CB4                     ;C:\Program Files (x86)\Microchip\xc8\v2.00\pic\sources\c99\common\doprnt.c: 701:       
                                               ++*fmt;
  2713                           	movlb 0	; select bank0
  2714  0CB4  0140               	movf	(vfpfcnvrt@fmt),w
  2715  0CB5  084E               	movwf	fsr1l
  2716  0CB6  0086               	clrf fsr1h	
  2717  0CB7  0187               	
  2718                           	movlw	01h
  2719  0CB8  3001               	addwf	indf1,f
  2720  0CB9  0781               	addfsr	fsr1,1
  2721  0CBA  3141               	skipnc
  2722  0CBB  1803               	incf	indf1,f
  2723  0CBC  0A81               	line	702
  2724                           ;C:\Program Files (x86)\Microchip\xc8\v2.00\pic\sources\c99\common\doprnt.c: 702:       
                                               break;
  2725                           	goto	l3519
  2726  0CBD  2D01               	line	703
  2727                           ;C:\Program Files (x86)\Microchip\xc8\v2.00\pic\sources\c99\common\doprnt.c: 703:       
                                           case ' ' :
  2728                           	
  2729                           l239:	
  2730  0CBE                     	line	704
  2731                           ;C:\Program Files (x86)\Microchip\xc8\v2.00\pic\sources\c99\common\doprnt.c: 704:       
                                               flags |= (1 << 3);
  2732                           	movlb 2	; select bank2
  2733  0CBE  0142               	bsf	(_flags)^0100h+(3/8),(3)&7
  2734  0CBF  15BE               	line	705
  2735                           	
  2736                           l3509:	
  2737  0CC0                     ;C:\Program Files (x86)\Microchip\xc8\v2.00\pic\sources\c99\common\doprnt.c: 705:       
                                               ++*fmt;
  2738                           	movlb 0	; select bank0
  2739  0CC0  0140               	movf	(vfpfcnvrt@fmt),w
  2740  0CC1  084E               	movwf	fsr1l
  2741  0CC2  0086               	clrf fsr1h	
  2742  0CC3  0187               	
  2743                           	movlw	01h
  2744  0CC4  3001               	addwf	indf1,f
  2745  0CC5  0781               	addfsr	fsr1,1
  2746  0CC6  3141               	skipnc
  2747  0CC7  1803               	incf	indf1,f
  2748  0CC8  0A81               	line	706
  2749                           ;C:\Program Files (x86)\Microchip\xc8\v2.00\pic\sources\c99\common\doprnt.c: 706:       
                                               break;
  2750                           	goto	l3519
  2751  0CC9  2D01               	line	707
  2752                           ;C:\Program Files (x86)\Microchip\xc8\v2.00\pic\sources\c99\common\doprnt.c: 707:       
                                           case '#' :
  2753                           	
  2754                           l240:	
  2755  0CCA                     	line	708
  2756                           ;C:\Program Files (x86)\Microchip\xc8\v2.00\pic\sources\c99\common\doprnt.c: 708:       
                                               flags |= (1 << 4);
  2757                           	movlb 2	; select bank2
  2758  0CCA  0142               	bsf	(_flags)^0100h+(4/8),(4)&7
  2759  0CCB  163E               	line	709
  2760                           	
  2761                           l3511:	
  2762  0CCC                     ;C:\Program Files (x86)\Microchip\xc8\v2.00\pic\sources\c99\common\doprnt.c: 709:       
                                               ++*fmt;
  2763                           	movlb 0	; select bank0
  2764  0CCC  0140               	movf	(vfpfcnvrt@fmt),w
  2765  0CCD  084E               	movwf	fsr1l
  2766  0CCE  0086               	clrf fsr1h	
  2767  0CCF  0187               	
  2768                           	movlw	01h
  2769  0CD0  3001               	addwf	indf1,f
  2770  0CD1  0781               	addfsr	fsr1,1
  2771  0CD2  3141               	skipnc
  2772  0CD3  1803               	incf	indf1,f
  2773  0CD4  0A81               	line	710
  2774                           ;C:\Program Files (x86)\Microchip\xc8\v2.00\pic\sources\c99\common\doprnt.c: 710:       
                                               break;
  2775                           	goto	l3519
  2776  0CD5  2D01               	line	711
  2777                           ;C:\Program Files (x86)\Microchip\xc8\v2.00\pic\sources\c99\common\doprnt.c: 711:       
                                           default:
  2778                           	
  2779                           l241:	
  2780  0CD6                     	line	712
  2781                           	
  2782                           l3513:	
  2783  0CD6                     ;C:\Program Files (x86)\Microchip\xc8\v2.00\pic\sources\c99\common\doprnt.c: 712:       
                                               done = 1;
  2784                           	movlw	01h
  2785  0CD6  3001               	movwf	(vfpfcnvrt@done)
  2786  0CD7  00D6               	movlw	0
  2787  0CD8  3000               	movwf	((vfpfcnvrt@done))+1
  2788  0CD9  00D7               	line	713
  2789                           ;C:\Program Files (x86)\Microchip\xc8\v2.00\pic\sources\c99\common\doprnt.c: 713:       
                                               break;
  2790                           	goto	l3519
  2791  0CDA  2D01               	line	714
  2792                           	
  2793                           l3515:	
  2794  0CDB                     ;C:\Program Files (x86)\Microchip\xc8\v2.00\pic\sources\c99\common\doprnt.c: 714:       
                                       }
  2795                           	goto	l3519
  2796  0CDB  2D01               	
  2797                           l234:	
  2798  0CDC                     	
  2799                           l3517:	
  2800  0CDC                     	movf	(vfpfcnvrt@fmt),w
  2801  0CDC  084E               	movwf	fsr1l
  2802  0CDD  0086               	clrf fsr1h	
  2803  0CDE  0187               	
  2804                           	moviw	[0]fsr1
  2805  0CDF  3F40               	movwf	(??_vfpfcnvrt+0)+0
  2806  0CE0  00D0               	moviw	[1]fsr1
  2807  0CE1  3F41               	movwf	(??_vfpfcnvrt+0)+0+1
  2808  0CE2  00D1               	movf	0+(??_vfpfcnvrt+0)+0,w
  2809  0CE3  0850               	movwf	fsr0l
  2810  0CE4  0084               	movf	(1+(??_vfpfcnvrt+0)+0),w
  2811  0CE5  0851               	movwf	fsr0h
  2812  0CE6  0085               	movf	indf0,w ;code access
  2813  0CE7  0800               	movwf	(??_vfpfcnvrt+2)+0
  2814  0CE8  00D2               	clrf	(??_vfpfcnvrt+2)+0+1
  2815  0CE9  01D3               	; Switch on 2 bytes has been partitioned into a top level switch of size 1, and 1 sub-s
                                 witches
  2816                           ; Switch size 1, requested type "space"
  2817                           ; Number of cases is 1, Range of values is 0 to 0
  2818                           ; switch strategies available:
  2819                           ; Name         Instructions Cycles
  2820                           ; simple_byte            4     3 (average)
  2821                           ; direct_byte            8     6 (fixed)
  2822                           ; jumptable            260     6 (fixed)
  2823                           ;	Chosen strategy is simple_byte
  2824                           
  2825                           	movf 1+(??_vfpfcnvrt+2)+0,w
  2826  0CEA  0853               	opt asmopt_push
  2827                           	opt asmopt_off
  2828                           	xorlw	0^0	; case 0
  2829  0CEB  3A00               	skipnz
  2830  0CEC  1903               	goto	l3763
  2831  0CED  2CEF               	goto	l3513
  2832  0CEE  2CD6               	opt asmopt_pop
  2833                           	
  2834                           l3763:	
  2835  0CEF                     ; Switch size 1, requested type "space"
  2836                           ; Number of cases is 5, Range of values is 32 to 48
  2837                           ; switch strategies available:
  2838                           ; Name         Instructions Cycles
  2839                           ; simple_byte           16     9 (average)
  2840                           ; direct_byte           43     9 (fixed)
  2841                           ; jumptable            263     9 (fixed)
  2842                           ;	Chosen strategy is simple_byte
  2843                           
  2844                           	movf 0+(??_vfpfcnvrt+2)+0,w
  2845  0CEF  0852               	opt asmopt_push
  2846                           	opt asmopt_off
  2847                           	xorlw	32^0	; case 32
  2848  0CF0  3A20               	skipnz
  2849  0CF1  1903               	goto	l239
  2850  0CF2  2CBE               	xorlw	35^32	; case 35
  2851  0CF3  3A03               	skipnz
  2852  0CF4  1903               	goto	l240
  2853  0CF5  2CCA               	xorlw	43^35	; case 43
  2854  0CF6  3A08               	skipnz
  2855  0CF7  1903               	goto	l238
  2856  0CF8  2CB2               	xorlw	45^43	; case 45
  2857  0CF9  3A06               	skipnz
  2858  0CFA  1903               	goto	l235
  2859  0CFB  2C9A               	xorlw	48^45	; case 48
  2860  0CFC  3A1D               	skipnz
  2861  0CFD  1903               	goto	l237
  2862  0CFE  2CA6               	goto	l3513
  2863  0CFF  2CD6               	opt asmopt_pop
  2864                           
  2865                           	
  2866                           l236:	
  2867  0D00                     	goto	l3519
  2868  0D00  2D01               	line	715
  2869                           ;C:\Program Files (x86)\Microchip\xc8\v2.00\pic\sources\c99\common\doprnt.c: 715:       
                                   }
  2870                           	
  2871                           l232:	
  2872  0D01                     	line	689
  2873                           	
  2874                           l3519:	
  2875  0D01                     ;C:\Program Files (x86)\Microchip\xc8\v2.00\pic\sources\c99\common\doprnt.c: 689:       
                                   while (!done) {
  2876                           	movf	((vfpfcnvrt@done)),w
  2877  0D01  0856               iorwf	((vfpfcnvrt@done+1)),w
  2878  0D02  0457               	btfsc	status,2
  2879  0D03  1903               	goto	u5191
  2880  0D04  2D06               	goto	u5190
  2881  0D05  2D07               u5191:
  2882  0D06                     	goto	l3517
  2883  0D06  2CDC               u5190:
  2884  0D07                     	
  2885                           l242:	
  2886  0D07                     	line	716
  2887                           ;C:\Program Files (x86)\Microchip\xc8\v2.00\pic\sources\c99\common\doprnt.c: 716:       
                                   if (flags & (1 << 0)) {
  2888                           	movlb 2	; select bank2
  2889  0D07  0142               	btfss	(_flags)^0100h,(0)&7
  2890  0D08  1C3E               	goto	u5201
  2891  0D09  2D0B               	goto	u5200
  2892  0D0A  2D0C               u5201:
  2893  0D0B                     	goto	l3523
  2894  0D0B  2D11               u5200:
  2895  0D0C                     	line	717
  2896                           	
  2897                           l3521:	
  2898  0D0C                     ;C:\Program Files (x86)\Microchip\xc8\v2.00\pic\sources\c99\common\doprnt.c: 717:       
                                       flags &= ~(1 << 1);
  2899                           	movlw	0FDh
  2900  0D0C  30FD               	andwf	(_flags)^0100h,f
  2901  0D0D  05BE               	movlw	0FFh
  2902  0D0E  30FF               	andwf	(_flags+1)^0100h,f
  2903  0D0F  05BF               	goto	l3523
  2904  0D10  2D11               	line	718
  2905                           ;C:\Program Files (x86)\Microchip\xc8\v2.00\pic\sources\c99\common\doprnt.c: 718:       
                                   }
  2906                           	
  2907                           l243:	
  2908  0D11                     	line	723
  2909                           	
  2910                           l3523:	
  2911  0D11                     ;C:\Program Files (x86)\Microchip\xc8\v2.00\pic\sources\c99\common\doprnt.c: 723:       
                                   if ((*fmt)[0] == '*') {
  2912                           	movlb 0	; select bank0
  2913  0D11  0140               	movf	(vfpfcnvrt@fmt),w
  2914  0D12  084E               	movwf	fsr1l
  2915  0D13  0086               	clrf fsr1h	
  2916  0D14  0187               	
  2917                           	moviw	[0]fsr1
  2918  0D15  3F40               	movwf	(??_vfpfcnvrt+0)+0
  2919  0D16  00D0               	moviw	[1]fsr1
  2920  0D17  3F41               	movwf	(??_vfpfcnvrt+0)+0+1
  2921  0D18  00D1               	movf	0+(??_vfpfcnvrt+0)+0,w
  2922  0D19  0850               	movwf	fsr0l
  2923  0D1A  0084               	movf	(1+(??_vfpfcnvrt+0)+0),w
  2924  0D1B  0851               	movwf	fsr0h
  2925  0D1C  0085               	moviw	fsr0++
  2926  0D1D  0012               xorlw	42
  2927  0D1E  3A2A               	btfss	status,2
  2928  0D1F  1D03               	goto	u5211
  2929  0D20  2D22               	goto	u5210
  2930  0D21  2D23               u5211:
  2931  0D22                     	goto	l3535
  2932  0D22  2D44               u5210:
  2933  0D23                     	line	724
  2934                           	
  2935                           l3525:	
  2936  0D23                     ;C:\Program Files (x86)\Microchip\xc8\v2.00\pic\sources\c99\common\doprnt.c: 724:       
                                       ++*fmt;
  2937                           	movf	(vfpfcnvrt@fmt),w
  2938  0D23  084E               	movwf	fsr1l
  2939  0D24  0086               	clrf fsr1h	
  2940  0D25  0187               	
  2941                           	movlw	01h
  2942  0D26  3001               	addwf	indf1,f
  2943  0D27  0781               	addfsr	fsr1,1
  2944  0D28  3141               	skipnc
  2945  0D29  1803               	incf	indf1,f
  2946  0D2A  0A81               	line	725
  2947                           	
  2948                           l3527:	
  2949  0D2B                     ;C:\Program Files (x86)\Microchip\xc8\v2.00\pic\sources\c99\common\doprnt.c: 725:       
                                       width = (*(int *)__va_arg(*(int **)ap, (int)0));
  2950                           	movf	(vfpfcnvrt@ap),w
  2951  0D2B  084F               	movwf	fsr1l
  2952  0D2C  0086               	clrf fsr1h	
  2953  0D2D  0187               	
  2954                           	movf	indf1,w
  2955  0D2E  0801               	movwf	fsr0l
  2956  0D2F  0084               	clrf fsr0h	
  2957  0D30  0185               	
  2958                           	movlw	02h
  2959  0D31  3002               	addwf	indf1,f
  2960  0D32  0781               	moviw	[0]fsr0
  2961  0D33  3F00               	movlb 2	; select bank2
  2962  0D34  0142               	movwf	(_width)^0100h
  2963  0D35  00BA               	moviw	[1]fsr0
  2964  0D36  3F01               	movwf	(_width+1)^0100h
  2965  0D37  00BB               	line	726
  2966                           	
  2967                           l3529:	
  2968  0D38                     ;C:\Program Files (x86)\Microchip\xc8\v2.00\pic\sources\c99\common\doprnt.c: 726:       
                                       if (width < 0) {
  2969                           	btfss	(_width+1)^0100h,7
  2970  0D38  1FBB               	goto	u5221
  2971  0D39  2D3B               	goto	u5220
  2972  0D3A  2D3C               u5221:
  2973  0D3B                     	goto	l3545
  2974  0D3B  2DA7               u5220:
  2975  0D3C                     	line	727
  2976                           	
  2977                           l3531:	
  2978  0D3C                     ;C:\Program Files (x86)\Microchip\xc8\v2.00\pic\sources\c99\common\doprnt.c: 727:       
                                           flags |= (1 << 0);
  2979                           	bsf	(_flags)^0100h+(0/8),(0)&7
  2980  0D3C  143E               	line	728
  2981                           	
  2982                           l3533:	
  2983  0D3D                     ;C:\Program Files (x86)\Microchip\xc8\v2.00\pic\sources\c99\common\doprnt.c: 728:       
                                           width = -width;
  2984                           	comf	(_width)^0100h,f
  2985  0D3D  09BA               	comf	(_width+1)^0100h,f
  2986  0D3E  09BB               	incf	(_width)^0100h,f
  2987  0D3F  0ABA               	skipnz
  2988  0D40  1903               	incf	(_width+1)^0100h,f
  2989  0D41  0ABB               	goto	l3545
  2990  0D42  2DA7               	line	729
  2991                           ;C:\Program Files (x86)\Microchip\xc8\v2.00\pic\sources\c99\common\doprnt.c: 729:       
                                       }
  2992                           	
  2993                           l245:	
  2994  0D43                     	line	730
  2995                           ;C:\Program Files (x86)\Microchip\xc8\v2.00\pic\sources\c99\common\doprnt.c: 730:       
                                   } else {
  2996                           	goto	l3545
  2997  0D43  2DA7               	
  2998                           l244:	
  2999  0D44                     	line	731
  3000                           	
  3001                           l3535:	
  3002  0D44                     ;C:\Program Files (x86)\Microchip\xc8\v2.00\pic\sources\c99\common\doprnt.c: 731:       
                                       width = atoi(*fmt);
  3003                           	movlb 0	; select bank0
  3004  0D44  0140               	movf	(vfpfcnvrt@fmt),w
  3005  0D45  084E               	movwf	fsr1l
  3006  0D46  0086               	clrf fsr1h	
  3007  0D47  0187               	
  3008                           	moviw	[0]fsr1
  3009  0D48  3F40               	movwf	(atoi@s)
  3010  0D49  00F6               	moviw	[1]fsr1
  3011  0D4A  3F41               	movwf	(atoi@s+1)
  3012  0D4B  00F7               	fcall	_atoi
  3013  0D4C  3193  23BC  318C   	movf	(1+(?_atoi)),w
  3014  0D4F  0877               	movlb 2	; select bank2
  3015  0D50  0142               	movwf	(_width+1)^0100h
  3016  0D51  00BB               	movf	(0+(?_atoi)),w
  3017  0D52  0876               	movwf	(_width)^0100h
  3018  0D53  00BA               	line	732
  3019                           ;C:\Program Files (x86)\Microchip\xc8\v2.00\pic\sources\c99\common\doprnt.c: 732:       
                                       while ((0 ? isdigit((*fmt)[0]) : ((unsigned)((*fmt)[0])-'0') < 10)) {
  3020                           	goto	l3539
  3021  0D54  2D5F               	
  3022                           l248:	
  3023  0D55                     	line	733
  3024                           	
  3025                           l3537:	
  3026  0D55                     ;C:\Program Files (x86)\Microchip\xc8\v2.00\pic\sources\c99\common\doprnt.c: 733:       
                                           ++*fmt;
  3027                           	movlb 0	; select bank0
  3028  0D55  0140               	movf	(vfpfcnvrt@fmt),w
  3029  0D56  084E               	movwf	fsr1l
  3030  0D57  0086               	clrf fsr1h	
  3031  0D58  0187               	
  3032                           	movlw	01h
  3033  0D59  3001               	addwf	indf1,f
  3034  0D5A  0781               	addfsr	fsr1,1
  3035  0D5B  3141               	skipnc
  3036  0D5C  1803               	incf	indf1,f
  3037  0D5D  0A81               	goto	l3539
  3038  0D5E  2D5F               	line	734
  3039                           ;C:\Program Files (x86)\Microchip\xc8\v2.00\pic\sources\c99\common\doprnt.c: 732:       
                                       while ((0 ? isdigit((*fmt)[0]) : ((unsigned)((*fmt)[0])-'0') < 10)) {
  3040                           	
  3041                           l247:	
  3042  0D5F                     	line	732
  3043                           	
  3044                           l3539:	
  3045  0D5F                     	movlb 0	; select bank0
  3046  0D5F  0140               	movf	(vfpfcnvrt@fmt),w
  3047  0D60  084E               	movwf	fsr1l
  3048  0D61  0086               	clrf fsr1h	
  3049  0D62  0187               	
  3050                           	moviw	[0]fsr1
  3051  0D63  3F40               	movwf	(??_vfpfcnvrt+0)+0
  3052  0D64  00D0               	moviw	[1]fsr1
  3053  0D65  3F41               	movwf	(??_vfpfcnvrt+0)+0+1
  3054  0D66  00D1               	movf	0+(??_vfpfcnvrt+0)+0,w
  3055  0D67  0850               	movwf	fsr0l
  3056  0D68  0084               	movf	(1+(??_vfpfcnvrt+0)+0),w
  3057  0D69  0851               	movwf	fsr0h
  3058  0D6A  0085               	movf	indf0,w ;code access
  3059  0D6B  0800               	addlw	low(0FFD0h)
  3060  0D6C  3ED0               	movwf	(??_vfpfcnvrt+2)+0
  3061  0D6D  00D2               	movlw	high(0FFD0h)
  3062  0D6E  30FF               	skipnc
  3063  0D6F  1803               	movlw	(high(0FFD0h)+1)&0ffh
  3064  0D70  3000               	movwf	((??_vfpfcnvrt+2)+0)+1
  3065  0D71  00D3               	movlw	0
  3066  0D72  3000               	subwf	1+(??_vfpfcnvrt+2)+0,w
  3067  0D73  0253               	movlw	0Ah
  3068  0D74  300A               	skipnz
  3069  0D75  1903               	subwf	0+(??_vfpfcnvrt+2)+0,w
  3070  0D76  0252               	skipc
  3071  0D77  1C03               	goto	u5231
  3072  0D78  2D7A               	goto	u5230
  3073  0D79  2D7C               u5231:
  3074  0D7A                     	movlw	1
  3075  0D7A  3001               	goto	u5240
  3076  0D7B  2D7D               u5230:
  3077  0D7C                     	movlw	0
  3078  0D7C  3000               u5240:
  3079  0D7D                     	movwf	(??_vfpfcnvrt+4)+0
  3080  0D7D  00D4               	clrf	(??_vfpfcnvrt+4)+0+1
  3081  0D7E  01D5               	movf	0+(??_vfpfcnvrt+4)+0,w
  3082  0D7F  0854               	movwf	(_vfpfcnvrt$278)
  3083  0D80  00D8               	movf	1+(??_vfpfcnvrt+4)+0,w
  3084  0D81  0855               	movwf	(_vfpfcnvrt$278+1)
  3085  0D82  00D9               	goto	l3543
  3086  0D83  2D9F               	
  3087                           l250:	
  3088  0D84                     	
  3089                           l3541:	
  3090  0D84                     	movf	(vfpfcnvrt@fmt),w
  3091  0D84  084E               	movwf	fsr1l
  3092  0D85  0086               	clrf fsr1h	
  3093  0D86  0187               	
  3094                           	moviw	[0]fsr1
  3095  0D87  3F40               	movwf	(??_vfpfcnvrt+0)+0
  3096  0D88  00D0               	moviw	[1]fsr1
  3097  0D89  3F41               	movwf	(??_vfpfcnvrt+0)+0+1
  3098  0D8A  00D1               	movf	0+(??_vfpfcnvrt+0)+0,w
  3099  0D8B  0850               	movwf	fsr0l
  3100  0D8C  0084               	movf	(1+(??_vfpfcnvrt+0)+0),w
  3101  0D8D  0851               	movwf	fsr0h
  3102  0D8E  0085               	movf	indf0,w ;code access
  3103  0D8F  0800               	movwf	(??_vfpfcnvrt+2)+0
  3104  0D90  00D2               	clrf	(??_vfpfcnvrt+2)+0+1
  3105  0D91  01D3               	movf	0+(??_vfpfcnvrt+2)+0,w
  3106  0D92  0852               	movwf	(isdigit@c)
  3107  0D93  00F0               	movf	1+(??_vfpfcnvrt+2)+0,w
  3108  0D94  0853               	movwf	(isdigit@c+1)
  3109  0D95  00F1               	fcall	_isdigit
  3110  0D96  319E  2614  318C   	movf	(1+(?_isdigit)),w
  3111  0D99  0871               	movlb 0	; select bank0
  3112  0D9A  0140               	movwf	(_vfpfcnvrt$278+1)
  3113  0D9B  00D9               	movf	(0+(?_isdigit)),w
  3114  0D9C  0870               	movwf	(_vfpfcnvrt$278)
  3115  0D9D  00D8               	goto	l3543
  3116  0D9E  2D9F               	
  3117                           l252:	
  3118  0D9F                     	
  3119                           l3543:	
  3120  0D9F                     	movf	((_vfpfcnvrt$278)),w
  3121  0D9F  0858               iorwf	((_vfpfcnvrt$278+1)),w
  3122  0DA0  0459               	btfss	status,2
  3123  0DA1  1D03               	goto	u5251
  3124  0DA2  2DA4               	goto	u5250
  3125  0DA3  2DA5               u5251:
  3126  0DA4                     	goto	l3537
  3127  0DA4  2D55               u5250:
  3128  0DA5                     	goto	l3545
  3129  0DA5  2DA7               	
  3130                           l253:	
  3131  0DA6                     	goto	l3545
  3132  0DA6  2DA7               	line	735
  3133                           ;C:\Program Files (x86)\Microchip\xc8\v2.00\pic\sources\c99\common\doprnt.c: 735:       
                                   }
  3134                           	
  3135                           l246:	
  3136  0DA7                     	line	740
  3137                           	
  3138                           l3545:	
  3139  0DA7                     ;C:\Program Files (x86)\Microchip\xc8\v2.00\pic\sources\c99\common\doprnt.c: 740:       
                                   if ((*fmt)[0] == '.') {
  3140                           	movlb 0	; select bank0
  3141  0DA7  0140               	movf	(vfpfcnvrt@fmt),w
  3142  0DA8  084E               	movwf	fsr1l
  3143  0DA9  0086               	clrf fsr1h	
  3144  0DAA  0187               	
  3145                           	moviw	[0]fsr1
  3146  0DAB  3F40               	movwf	(??_vfpfcnvrt+0)+0
  3147  0DAC  00D0               	moviw	[1]fsr1
  3148  0DAD  3F41               	movwf	(??_vfpfcnvrt+0)+0+1
  3149  0DAE  00D1               	movf	0+(??_vfpfcnvrt+0)+0,w
  3150  0DAF  0850               	movwf	fsr0l
  3151  0DB0  0084               	movf	(1+(??_vfpfcnvrt+0)+0),w
  3152  0DB1  0851               	movwf	fsr0h
  3153  0DB2  0085               	moviw	fsr0++
  3154  0DB3  0012               xorlw	46
  3155  0DB4  3A2E               	btfss	status,2
  3156  0DB5  1D03               	goto	u5261
  3157  0DB6  2DB8               	goto	u5260
  3158  0DB7  2DB9               u5261:
  3159  0DB8                     	goto	l3567
  3160  0DB8  2E50               u5260:
  3161  0DB9                     	line	741
  3162                           	
  3163                           l3547:	
  3164  0DB9                     ;C:\Program Files (x86)\Microchip\xc8\v2.00\pic\sources\c99\common\doprnt.c: 741:       
                                       prec = 0;
  3165                           	movlb 2	; select bank2
  3166  0DB9  0142               	clrf	(_prec)^0100h
  3167  0DBA  01BC               	clrf	(_prec+1)^0100h
  3168  0DBB  01BD               	line	742
  3169                           	
  3170                           l3549:	
  3171  0DBC                     ;C:\Program Files (x86)\Microchip\xc8\v2.00\pic\sources\c99\common\doprnt.c: 742:       
                                       ++*fmt;
  3172                           	movlb 0	; select bank0
  3173  0DBC  0140               	movf	(vfpfcnvrt@fmt),w
  3174  0DBD  084E               	movwf	fsr1l
  3175  0DBE  0086               	clrf fsr1h	
  3176  0DBF  0187               	
  3177                           	movlw	01h
  3178  0DC0  3001               	addwf	indf1,f
  3179  0DC1  0781               	addfsr	fsr1,1
  3180  0DC2  3141               	skipnc
  3181  0DC3  1803               	incf	indf1,f
  3182  0DC4  0A81               	line	743
  3183                           	
  3184                           l3551:	
  3185  0DC5                     ;C:\Program Files (x86)\Microchip\xc8\v2.00\pic\sources\c99\common\doprnt.c: 743:       
                                       if ((*fmt)[0] == '*') {
  3186                           	movf	(vfpfcnvrt@fmt),w
  3187  0DC5  084E               	movwf	fsr1l
  3188  0DC6  0086               	clrf fsr1h	
  3189  0DC7  0187               	
  3190                           	moviw	[0]fsr1
  3191  0DC8  3F40               	movwf	(??_vfpfcnvrt+0)+0
  3192  0DC9  00D0               	moviw	[1]fsr1
  3193  0DCA  3F41               	movwf	(??_vfpfcnvrt+0)+0+1
  3194  0DCB  00D1               	movf	0+(??_vfpfcnvrt+0)+0,w
  3195  0DCC  0850               	movwf	fsr0l
  3196  0DCD  0084               	movf	(1+(??_vfpfcnvrt+0)+0),w
  3197  0DCE  0851               	movwf	fsr0h
  3198  0DCF  0085               	moviw	fsr0++
  3199  0DD0  0012               xorlw	42
  3200  0DD1  3A2A               	btfss	status,2
  3201  0DD2  1D03               	goto	u5271
  3202  0DD3  2DD5               	goto	u5270
  3203  0DD4  2DD6               u5271:
  3204  0DD5                     	goto	l3557
  3205  0DD5  2DEC               u5270:
  3206  0DD6                     	line	744
  3207                           	
  3208                           l3553:	
  3209  0DD6                     ;C:\Program Files (x86)\Microchip\xc8\v2.00\pic\sources\c99\common\doprnt.c: 744:       
                                           ++*fmt;
  3210                           	movf	(vfpfcnvrt@fmt),w
  3211  0DD6  084E               	movwf	fsr1l
  3212  0DD7  0086               	clrf fsr1h	
  3213  0DD8  0187               	
  3214                           	movlw	01h
  3215  0DD9  3001               	addwf	indf1,f
  3216  0DDA  0781               	addfsr	fsr1,1
  3217  0DDB  3141               	skipnc
  3218  0DDC  1803               	incf	indf1,f
  3219  0DDD  0A81               	line	745
  3220                           	
  3221                           l3555:	
  3222  0DDE                     ;C:\Program Files (x86)\Microchip\xc8\v2.00\pic\sources\c99\common\doprnt.c: 745:       
                                           prec = (*(int *)__va_arg(*(int **)ap, (int)0));
  3223                           	movf	(vfpfcnvrt@ap),w
  3224  0DDE  084F               	movwf	fsr1l
  3225  0DDF  0086               	clrf fsr1h	
  3226  0DE0  0187               	
  3227                           	movf	indf1,w
  3228  0DE1  0801               	movwf	fsr0l
  3229  0DE2  0084               	clrf fsr0h	
  3230  0DE3  0185               	
  3231                           	movlw	02h
  3232  0DE4  3002               	addwf	indf1,f
  3233  0DE5  0781               	moviw	[0]fsr0
  3234  0DE6  3F00               	movlb 2	; select bank2
  3235  0DE7  0142               	movwf	(_prec)^0100h
  3236  0DE8  00BC               	moviw	[1]fsr0
  3237  0DE9  3F01               	movwf	(_prec+1)^0100h
  3238  0DEA  00BD               	line	746
  3239                           ;C:\Program Files (x86)\Microchip\xc8\v2.00\pic\sources\c99\common\doprnt.c: 746:       
                                       } else {
  3240                           	goto	l3567
  3241  0DEB  2E50               	
  3242                           l255:	
  3243  0DEC                     	line	747
  3244                           	
  3245                           l3557:	
  3246  0DEC                     ;C:\Program Files (x86)\Microchip\xc8\v2.00\pic\sources\c99\common\doprnt.c: 747:       
                                           prec = atoi(*fmt);
  3247                           	movlb 0	; select bank0
  3248  0DEC  0140               	movf	(vfpfcnvrt@fmt),w
  3249  0DED  084E               	movwf	fsr1l
  3250  0DEE  0086               	clrf fsr1h	
  3251  0DEF  0187               	
  3252                           	moviw	[0]fsr1
  3253  0DF0  3F40               	movwf	(atoi@s)
  3254  0DF1  00F6               	moviw	[1]fsr1
  3255  0DF2  3F41               	movwf	(atoi@s+1)
  3256  0DF3  00F7               	fcall	_atoi
  3257  0DF4  3193  23BC  318C   	movf	(1+(?_atoi)),w
  3258  0DF7  0877               	movlb 2	; select bank2
  3259  0DF8  0142               	movwf	(_prec+1)^0100h
  3260  0DF9  00BD               	movf	(0+(?_atoi)),w
  3261  0DFA  0876               	movwf	(_prec)^0100h
  3262  0DFB  00BC               	line	748
  3263                           ;C:\Program Files (x86)\Microchip\xc8\v2.00\pic\sources\c99\common\doprnt.c: 748:       
                                           while ((0 ? isdigit((*fmt)[0]) : ((unsigned)((*fmt)[0])-'0') < 10)) {
  3264                           	goto	l3561
  3265  0DFC  2E07               	
  3266                           l258:	
  3267  0DFD                     	line	749
  3268                           	
  3269                           l3559:	
  3270  0DFD                     ;C:\Program Files (x86)\Microchip\xc8\v2.00\pic\sources\c99\common\doprnt.c: 749:       
                                               ++*fmt;
  3271                           	movlb 0	; select bank0
  3272  0DFD  0140               	movf	(vfpfcnvrt@fmt),w
  3273  0DFE  084E               	movwf	fsr1l
  3274  0DFF  0086               	clrf fsr1h	
  3275  0E00  0187               	
  3276                           	movlw	01h
  3277  0E01  3001               	addwf	indf1,f
  3278  0E02  0781               	addfsr	fsr1,1
  3279  0E03  3141               	skipnc
  3280  0E04  1803               	incf	indf1,f
  3281  0E05  0A81               	goto	l3561
  3282  0E06  2E07               	line	750
  3283                           ;C:\Program Files (x86)\Microchip\xc8\v2.00\pic\sources\c99\common\doprnt.c: 748:       
                                           while ((0 ? isdigit((*fmt)[0]) : ((unsigned)((*fmt)[0])-'0') < 10)) {
  3284                           	
  3285                           l257:	
  3286  0E07                     	line	748
  3287                           	
  3288                           l3561:	
  3289  0E07                     	movlb 0	; select bank0
  3290  0E07  0140               	movf	(vfpfcnvrt@fmt),w
  3291  0E08  084E               	movwf	fsr1l
  3292  0E09  0086               	clrf fsr1h	
  3293  0E0A  0187               	
  3294                           	moviw	[0]fsr1
  3295  0E0B  3F40               	movwf	(??_vfpfcnvrt+0)+0
  3296  0E0C  00D0               	moviw	[1]fsr1
  3297  0E0D  3F41               	movwf	(??_vfpfcnvrt+0)+0+1
  3298  0E0E  00D1               	movf	0+(??_vfpfcnvrt+0)+0,w
  3299  0E0F  0850               	movwf	fsr0l
  3300  0E10  0084               	movf	(1+(??_vfpfcnvrt+0)+0),w
  3301  0E11  0851               	movwf	fsr0h
  3302  0E12  0085               	movf	indf0,w ;code access
  3303  0E13  0800               	addlw	low(0FFD0h)
  3304  0E14  3ED0               	movwf	(??_vfpfcnvrt+2)+0
  3305  0E15  00D2               	movlw	high(0FFD0h)
  3306  0E16  30FF               	skipnc
  3307  0E17  1803               	movlw	(high(0FFD0h)+1)&0ffh
  3308  0E18  3000               	movwf	((??_vfpfcnvrt+2)+0)+1
  3309  0E19  00D3               	movlw	0
  3310  0E1A  3000               	subwf	1+(??_vfpfcnvrt+2)+0,w
  3311  0E1B  0253               	movlw	0Ah
  3312  0E1C  300A               	skipnz
  3313  0E1D  1903               	subwf	0+(??_vfpfcnvrt+2)+0,w
  3314  0E1E  0252               	skipc
  3315  0E1F  1C03               	goto	u5281
  3316  0E20  2E22               	goto	u5280
  3317  0E21  2E24               u5281:
  3318  0E22                     	movlw	1
  3319  0E22  3001               	goto	u5290
  3320  0E23  2E25               u5280:
  3321  0E24                     	movlw	0
  3322  0E24  3000               u5290:
  3323  0E25                     	movwf	(??_vfpfcnvrt+4)+0
  3324  0E25  00D4               	clrf	(??_vfpfcnvrt+4)+0+1
  3325  0E26  01D5               	movf	0+(??_vfpfcnvrt+4)+0,w
  3326  0E27  0854               	movwf	(_vfpfcnvrt$279)
  3327  0E28  00DA               	movf	1+(??_vfpfcnvrt+4)+0,w
  3328  0E29  0855               	movwf	(_vfpfcnvrt$279+1)
  3329  0E2A  00DB               	goto	l3565
  3330  0E2B  2E47               	
  3331                           l260:	
  3332  0E2C                     	
  3333                           l3563:	
  3334  0E2C                     	movf	(vfpfcnvrt@fmt),w
  3335  0E2C  084E               	movwf	fsr1l
  3336  0E2D  0086               	clrf fsr1h	
  3337  0E2E  0187               	
  3338                           	moviw	[0]fsr1
  3339  0E2F  3F40               	movwf	(??_vfpfcnvrt+0)+0
  3340  0E30  00D0               	moviw	[1]fsr1
  3341  0E31  3F41               	movwf	(??_vfpfcnvrt+0)+0+1
  3342  0E32  00D1               	movf	0+(??_vfpfcnvrt+0)+0,w
  3343  0E33  0850               	movwf	fsr0l
  3344  0E34  0084               	movf	(1+(??_vfpfcnvrt+0)+0),w
  3345  0E35  0851               	movwf	fsr0h
  3346  0E36  0085               	movf	indf0,w ;code access
  3347  0E37  0800               	movwf	(??_vfpfcnvrt+2)+0
  3348  0E38  00D2               	clrf	(??_vfpfcnvrt+2)+0+1
  3349  0E39  01D3               	movf	0+(??_vfpfcnvrt+2)+0,w
  3350  0E3A  0852               	movwf	(isdigit@c)
  3351  0E3B  00F0               	movf	1+(??_vfpfcnvrt+2)+0,w
  3352  0E3C  0853               	movwf	(isdigit@c+1)
  3353  0E3D  00F1               	fcall	_isdigit
  3354  0E3E  319E  2614  318C   	movf	(1+(?_isdigit)),w
  3355  0E41  0871               	movlb 0	; select bank0
  3356  0E42  0140               	movwf	(_vfpfcnvrt$279+1)
  3357  0E43  00DB               	movf	(0+(?_isdigit)),w
  3358  0E44  0870               	movwf	(_vfpfcnvrt$279)
  3359  0E45  00DA               	goto	l3565
  3360  0E46  2E47               	
  3361                           l262:	
  3362  0E47                     	
  3363                           l3565:	
  3364  0E47                     	movf	((_vfpfcnvrt$279)),w
  3365  0E47  085A               iorwf	((_vfpfcnvrt$279+1)),w
  3366  0E48  045B               	btfss	status,2
  3367  0E49  1D03               	goto	u5301
  3368  0E4A  2E4C               	goto	u5300
  3369  0E4B  2E4D               u5301:
  3370  0E4C                     	goto	l3559
  3371  0E4C  2DFD               u5300:
  3372  0E4D                     	goto	l3567
  3373  0E4D  2E50               	
  3374                           l263:	
  3375  0E4E                     	goto	l3567
  3376  0E4E  2E50               	line	751
  3377                           ;C:\Program Files (x86)\Microchip\xc8\v2.00\pic\sources\c99\common\doprnt.c: 751:       
                                       }
  3378                           	
  3379                           l256:	
  3380  0E4F                     	goto	l3567
  3381  0E4F  2E50               	line	752
  3382                           ;C:\Program Files (x86)\Microchip\xc8\v2.00\pic\sources\c99\common\doprnt.c: 752:       
                                   }
  3383                           	
  3384                           l254:	
  3385  0E50                     	line	757
  3386                           	
  3387                           l3567:	
  3388  0E50                     ;C:\Program Files (x86)\Microchip\xc8\v2.00\pic\sources\c99\common\doprnt.c: 757:       
                                   ct[0] = tolower((int)(*fmt)[0]);
  3389                           	movlb 0	; select bank0
  3390  0E50  0140               	movf	(vfpfcnvrt@fmt),w
  3391  0E51  084E               	movwf	fsr1l
  3392  0E52  0086               	clrf fsr1h	
  3393  0E53  0187               	
  3394                           	moviw	[0]fsr1
  3395  0E54  3F40               	movwf	(??_vfpfcnvrt+0)+0
  3396  0E55  00D0               	moviw	[1]fsr1
  3397  0E56  3F41               	movwf	(??_vfpfcnvrt+0)+0+1
  3398  0E57  00D1               	movf	0+(??_vfpfcnvrt+0)+0,w
  3399  0E58  0850               	movwf	fsr0l
  3400  0E59  0084               	movf	(1+(??_vfpfcnvrt+0)+0),w
  3401  0E5A  0851               	movwf	fsr0h
  3402  0E5B  0085               	movf	indf0,w ;code access
  3403  0E5C  0800               	movwf	(??_vfpfcnvrt+2)+0
  3404  0E5D  00D2               	clrf	(??_vfpfcnvrt+2)+0+1
  3405  0E5E  01D3               	movf	0+(??_vfpfcnvrt+2)+0,w
  3406  0E5F  0852               	movwf	(tolower@c)
  3407  0E60  00F6               	movf	1+(??_vfpfcnvrt+2)+0,w
  3408  0E61  0853               	movwf	(tolower@c+1)
  3409  0E62  00F7               	fcall	_tolower
  3410  0E63  319F  272F  318C   	movf	(0+(?_tolower)),w
  3411  0E66  0876               	movlb 0	; select bank0
  3412  0E67  0140               	movwf	(??_vfpfcnvrt+4)+0
  3413  0E68  00D4               	movf	(??_vfpfcnvrt+4)+0,w
  3414  0E69  0854               	movwf	(vfpfcnvrt@ct)
  3415  0E6A  00E2               	line	758
  3416                           	
  3417                           l3569:	
  3418  0E6B                     ;C:\Program Files (x86)\Microchip\xc8\v2.00\pic\sources\c99\common\doprnt.c: 758:       
                                   if (ct[0]) {
  3419                           	movf	((vfpfcnvrt@ct)),w
  3420  0E6B  0862               	btfsc	status,2
  3421  0E6C  1903               	goto	u5311
  3422  0E6D  2E6F               	goto	u5310
  3423  0E6E  2E70               u5311:
  3424  0E6F                     	goto	l3577
  3425  0E6F  2EB1               u5310:
  3426  0E70                     	line	759
  3427                           	
  3428                           l3571:	
  3429  0E70                     ;C:\Program Files (x86)\Microchip\xc8\v2.00\pic\sources\c99\common\doprnt.c: 759:       
                                       ct[1] = tolower((int)(*fmt)[1]);
  3430                           	movf	(vfpfcnvrt@fmt),w
  3431  0E70  084E               	movwf	fsr1l
  3432  0E71  0086               	clrf fsr1h	
  3433  0E72  0187               	
  3434                           	moviw	[0]fsr1
  3435  0E73  3F40               	movwf	(??_vfpfcnvrt+0)+0
  3436  0E74  00D0               	moviw	[1]fsr1
  3437  0E75  3F41               	movwf	(??_vfpfcnvrt+0)+0+1
  3438  0E76  00D1               	movlw	01h
  3439  0E77  3001               	addwf	(??_vfpfcnvrt+0)+0,w
  3440  0E78  0750               	movwf	fsr0l
  3441  0E79  0084               	movf	(??_vfpfcnvrt+0)+1,w
  3442  0E7A  0851               	skipnc
  3443  0E7B  1803               	incf	(??_vfpfcnvrt+0)+1,w
  3444  0E7C  0A51               	movwf	fsr0h
  3445  0E7D  0085               
  3446                           	movf	indf0,w ;code access
  3447  0E7E  0800               	movwf	(??_vfpfcnvrt+2)+0
  3448  0E7F  00D2               	clrf	(??_vfpfcnvrt+2)+0+1
  3449  0E80  01D3               	movf	0+(??_vfpfcnvrt+2)+0,w
  3450  0E81  0852               	movwf	(tolower@c)
  3451  0E82  00F6               	movf	1+(??_vfpfcnvrt+2)+0,w
  3452  0E83  0853               	movwf	(tolower@c+1)
  3453  0E84  00F7               	fcall	_tolower
  3454  0E85  319F  272F  318C   	movf	(0+(?_tolower)),w
  3455  0E88  0876               	movlb 0	; select bank0
  3456  0E89  0140               	movwf	(??_vfpfcnvrt+4)+0
  3457  0E8A  00D4               	movf	(??_vfpfcnvrt+4)+0,w
  3458  0E8B  0854               	movwf	0+(vfpfcnvrt@ct)+01h
  3459  0E8C  00E3               	line	760
  3460                           	
  3461                           l3573:	
  3462  0E8D                     ;C:\Program Files (x86)\Microchip\xc8\v2.00\pic\sources\c99\common\doprnt.c: 760:       
                                       if (ct[1]) {
  3463                           	movf	(0+(vfpfcnvrt@ct)+01h),w
  3464  0E8D  0863               	btfsc	status,2
  3465  0E8E  1903               	goto	u5321
  3466  0E8F  2E91               	goto	u5320
  3467  0E90  2E92               u5321:
  3468  0E91                     	goto	l3577
  3469  0E91  2EB1               u5320:
  3470  0E92                     	line	761
  3471                           	
  3472                           l3575:	
  3473  0E92                     ;C:\Program Files (x86)\Microchip\xc8\v2.00\pic\sources\c99\common\doprnt.c: 761:       
                                           ct[2] = tolower((int)(*fmt)[2]);
  3474                           	movf	(vfpfcnvrt@fmt),w
  3475  0E92  084E               	movwf	fsr1l
  3476  0E93  0086               	clrf fsr1h	
  3477  0E94  0187               	
  3478                           	moviw	[0]fsr1
  3479  0E95  3F40               	movwf	(??_vfpfcnvrt+0)+0
  3480  0E96  00D0               	moviw	[1]fsr1
  3481  0E97  3F41               	movwf	(??_vfpfcnvrt+0)+0+1
  3482  0E98  00D1               	movlw	02h
  3483  0E99  3002               	addwf	(??_vfpfcnvrt+0)+0,w
  3484  0E9A  0750               	movwf	fsr0l
  3485  0E9B  0084               	movf	(??_vfpfcnvrt+0)+1,w
  3486  0E9C  0851               	skipnc
  3487  0E9D  1803               	incf	(??_vfpfcnvrt+0)+1,w
  3488  0E9E  0A51               	movwf	fsr0h
  3489  0E9F  0085               
  3490                           	movf	indf0,w ;code access
  3491  0EA0  0800               	movwf	(??_vfpfcnvrt+2)+0
  3492  0EA1  00D2               	clrf	(??_vfpfcnvrt+2)+0+1
  3493  0EA2  01D3               	movf	0+(??_vfpfcnvrt+2)+0,w
  3494  0EA3  0852               	movwf	(tolower@c)
  3495  0EA4  00F6               	movf	1+(??_vfpfcnvrt+2)+0,w
  3496  0EA5  0853               	movwf	(tolower@c+1)
  3497  0EA6  00F7               	fcall	_tolower
  3498  0EA7  319F  272F  318C   	movf	(0+(?_tolower)),w
  3499  0EAA  0876               	movlb 0	; select bank0
  3500  0EAB  0140               	movwf	(??_vfpfcnvrt+4)+0
  3501  0EAC  00D4               	movf	(??_vfpfcnvrt+4)+0,w
  3502  0EAD  0854               	movwf	0+(vfpfcnvrt@ct)+02h
  3503  0EAE  00E4               	goto	l3577
  3504  0EAF  2EB1               	line	762
  3505                           ;C:\Program Files (x86)\Microchip\xc8\v2.00\pic\sources\c99\common\doprnt.c: 762:       
                                       }
  3506                           	
  3507                           l265:	
  3508  0EB0                     	goto	l3577
  3509  0EB0  2EB1               	line	763
  3510                           ;C:\Program Files (x86)\Microchip\xc8\v2.00\pic\sources\c99\common\doprnt.c: 763:       
                                   }
  3511                           	
  3512                           l264:	
  3513  0EB1                     	line	920
  3514                           	
  3515                           l3577:	
  3516  0EB1                     ;C:\Program Files (x86)\Microchip\xc8\v2.00\pic\sources\c99\common\doprnt.c: 920:       
                                   if (ct[0] == 'f') {
  3517                           		movlw	102
  3518  0EB1  3066               	xorwf	((vfpfcnvrt@ct)),w
  3519  0EB2  0662               	btfss	status,2
  3520  0EB3  1D03               	goto	u5331
  3521  0EB4  2EB6               	goto	u5330
  3522  0EB5  2EB7               u5331:
  3523  0EB6                     	goto	l3589
  3524  0EB6  2EF5               u5330:
  3525  0EB7                     	line	922
  3526                           	
  3527                           l3579:	
  3528  0EB7                     ;C:\Program Files (x86)\Microchip\xc8\v2.00\pic\sources\c99\common\doprnt.c: 922:       
                                       c = (*fmt)[0];
  3529                           	movf	(vfpfcnvrt@fmt),w
  3530  0EB7  084E               	movwf	fsr1l
  3531  0EB8  0086               	clrf fsr1h	
  3532  0EB9  0187               	
  3533                           	moviw	[0]fsr1
  3534  0EBA  3F40               	movwf	(??_vfpfcnvrt+0)+0
  3535  0EBB  00D0               	moviw	[1]fsr1
  3536  0EBC  3F41               	movwf	(??_vfpfcnvrt+0)+0+1
  3537  0EBD  00D1               	movf	0+(??_vfpfcnvrt+0)+0,w
  3538  0EBE  0850               	movwf	fsr0l
  3539  0EBF  0084               	movf	(1+(??_vfpfcnvrt+0)+0),w
  3540  0EC0  0851               	movwf	fsr0h
  3541  0EC1  0085               	movf	indf0,w ;code access
  3542  0EC2  0800               	movwf	(??_vfpfcnvrt+2)+0
  3543  0EC3  00D2               	movf	(??_vfpfcnvrt+2)+0,w
  3544  0EC4  0852               	movwf	(vfpfcnvrt@c)
  3545  0EC5  00E5               	line	923
  3546                           	
  3547                           l3581:	
  3548  0EC6                     ;C:\Program Files (x86)\Microchip\xc8\v2.00\pic\sources\c99\common\doprnt.c: 923:       
                                       ++*fmt;
  3549                           	movf	(vfpfcnvrt@fmt),w
  3550  0EC6  084E               	movwf	fsr1l
  3551  0EC7  0086               	clrf fsr1h	
  3552  0EC8  0187               	
  3553                           	movlw	01h
  3554  0EC9  3001               	addwf	indf1,f
  3555  0ECA  0781               	addfsr	fsr1,1
  3556  0ECB  3141               	skipnc
  3557  0ECC  1803               	incf	indf1,f
  3558  0ECD  0A81               	line	924
  3559                           	
  3560                           l3583:	
  3561  0ECE                     ;C:\Program Files (x86)\Microchip\xc8\v2.00\pic\sources\c99\common\doprnt.c: 924:       
                                       f = (long double)(*(double *)__va_arg(*(double **)ap, (double)0));
  3562                           	movf	(vfpfcnvrt@ap),w
  3563  0ECE  084F               	movwf	fsr1l
  3564  0ECF  0086               	clrf fsr1h	
  3565  0ED0  0187               	
  3566                           	movf	indf1,w
  3567  0ED1  0801               	movwf	fsr0l
  3568  0ED2  0084               	clrf fsr0h	
  3569  0ED3  0185               	
  3570                           	movlw	04h
  3571  0ED4  3004               	addwf	indf1,f
  3572  0ED5  0781               	moviw	[0]fsr0
  3573  0ED6  3F00               	movwf	(vfpfcnvrt@f)
  3574  0ED7  00DE               	moviw	[1]fsr0
  3575  0ED8  3F01               	movwf	(vfpfcnvrt@f+1)
  3576  0ED9  00DF               	moviw	[2]fsr0
  3577  0EDA  3F02               	movwf	(vfpfcnvrt@f+2)
  3578  0EDB  00E0               	moviw	[3]fsr0
  3579  0EDC  3F03               	movwf	(vfpfcnvrt@f+3)
  3580  0EDD  00E1               	line	926
  3581                           	
  3582                           l3585:	
  3583  0EDE                     ;C:\Program Files (x86)\Microchip\xc8\v2.00\pic\sources\c99\common\doprnt.c: 926:       
                                       return efgtoa(fp, f, c);
  3584                           	movf	(vfpfcnvrt@f+3),w
  3585  0EDE  0861               	movwf	(efgtoa@f+3)
  3586  0EDF  00C8               	movf	(vfpfcnvrt@f+2),w
  3587  0EE0  0860               	movwf	(efgtoa@f+2)
  3588  0EE1  00C7               	movf	(vfpfcnvrt@f+1),w
  3589  0EE2  085F               	movwf	(efgtoa@f+1)
  3590  0EE3  00C6               	movf	(vfpfcnvrt@f),w
  3591  0EE4  085E               	movwf	(efgtoa@f)
  3592  0EE5  00C5               
  3593                           	movf	(vfpfcnvrt@c),w
  3594  0EE6  0865               	movwf	(??_vfpfcnvrt+0)+0
  3595  0EE7  00D0               	movf	(??_vfpfcnvrt+0)+0,w
  3596  0EE8  0850               	movwf	(efgtoa@c)
  3597  0EE9  00C9               	movf	(vfpfcnvrt@fp),w
  3598  0EEA  0866               	fcall	_efgtoa
  3599  0EEB  3180  201E  318C   	movlb 0	; select bank0
  3600  0EEE  0140               	movf	(1+(?_efgtoa)),w
  3601  0EEF  0846               	movwf	(?_vfpfcnvrt+1)
  3602  0EF0  00CF               	movf	(0+(?_efgtoa)),w
  3603  0EF1  0845               	movwf	(?_vfpfcnvrt)
  3604  0EF2  00CE               	goto	l267
  3605  0EF3  2FFF               	
  3606                           l3587:	
  3607  0EF4                     	goto	l267
  3608  0EF4  2FFF               	line	927
  3609                           ;C:\Program Files (x86)\Microchip\xc8\v2.00\pic\sources\c99\common\doprnt.c: 927:       
                                   }
  3610                           	
  3611                           l266:	
  3612  0EF5                     	line	928
  3613                           	
  3614                           l3589:	
  3615  0EF5                     ;C:\Program Files (x86)\Microchip\xc8\v2.00\pic\sources\c99\common\doprnt.c: 928:       
                                   if (!strncmp(ct, "lf", ((sizeof("lf")/sizeof("lf"[0]))-1))) {
  3616                           	movlw	low(((STR_12)|8000h))
  3617  0EF5  3026               	movwf	(strncmp@_r)
  3618  0EF6  00F0               	movlw	high(((STR_12)|8000h))
  3619  0EF7  3098               	movwf	((strncmp@_r))+1
  3620  0EF8  00F1               	movlw	02h
  3621  0EF9  3002               	movwf	(strncmp@n)
  3622  0EFA  00F2               	movlw	0
  3623  0EFB  3000               	movwf	((strncmp@n))+1
  3624  0EFC  00F3               	movlw	(low(vfpfcnvrt@ct|((0x0)<<8)))&0ffh
  3625  0EFD  3062               	fcall	_strncmp
  3626  0EFE  3191  21BB  318C   	movf	((0+(?_strncmp))),w
  3627  0F01  0870               iorwf	((1+(?_strncmp))),w
  3628  0F02  0471               	btfss	status,2
  3629  0F03  1D03               	goto	u5341
  3630  0F04  2F06               	goto	u5340
  3631  0F05  2F07               u5341:
  3632  0F06                     	goto	l3607
  3633  0F06  2FA0               u5340:
  3634  0F07                     	line	930
  3635                           	
  3636                           l3591:	
  3637  0F07                     ;C:\Program Files (x86)\Microchip\xc8\v2.00\pic\sources\c99\common\doprnt.c: 931:       
                                       if ((0 ? isupper((int)(*fmt)[0]) : ((unsigned)((int)(*fmt)[0])-'A') < 26)) {
  3638                           	movlb 0	; select bank0
  3639  0F07  0140               	movf	(vfpfcnvrt@fmt),w
  3640  0F08  084E               	movwf	fsr1l
  3641  0F09  0086               	clrf fsr1h	
  3642  0F0A  0187               	
  3643                           	moviw	[0]fsr1
  3644  0F0B  3F40               	movwf	(??_vfpfcnvrt+0)+0
  3645  0F0C  00D0               	moviw	[1]fsr1
  3646  0F0D  3F41               	movwf	(??_vfpfcnvrt+0)+0+1
  3647  0F0E  00D1               	movlw	01h
  3648  0F0F  3001               	addwf	(??_vfpfcnvrt+0)+0,w
  3649  0F10  0750               	movwf	fsr0l
  3650  0F11  0084               	movf	(??_vfpfcnvrt+0)+1,w
  3651  0F12  0851               	skipnc
  3652  0F13  1803               	incf	(??_vfpfcnvrt+0)+1,w
  3653  0F14  0A51               	movwf	fsr0h
  3654  0F15  0085               
  3655                           	movf	indf0,w ;code access
  3656  0F16  0800               	movwf	(??_vfpfcnvrt+2)+0
  3657  0F17  00D2               	movf	(??_vfpfcnvrt+2)+0,w
  3658  0F18  0852               	movwf	(vfpfcnvrt@c)
  3659  0F19  00E5               	line	931
  3660                           	movf	(vfpfcnvrt@fmt),w
  3661  0F1A  084E               	movwf	fsr1l
  3662  0F1B  0086               	clrf fsr1h	
  3663  0F1C  0187               	
  3664                           	moviw	[0]fsr1
  3665  0F1D  3F40               	movwf	(??_vfpfcnvrt+0)+0
  3666  0F1E  00D0               	moviw	[1]fsr1
  3667  0F1F  3F41               	movwf	(??_vfpfcnvrt+0)+0+1
  3668  0F20  00D1               	movf	0+(??_vfpfcnvrt+0)+0,w
  3669  0F21  0850               	movwf	fsr0l
  3670  0F22  0084               	movf	(1+(??_vfpfcnvrt+0)+0),w
  3671  0F23  0851               	movwf	fsr0h
  3672  0F24  0085               	movf	indf0,w ;code access
  3673  0F25  0800               	addlw	low(0FFBFh)
  3674  0F26  3EBF               	movwf	(??_vfpfcnvrt+2)+0
  3675  0F27  00D2               	movlw	high(0FFBFh)
  3676  0F28  30FF               	skipnc
  3677  0F29  1803               	movlw	(high(0FFBFh)+1)&0ffh
  3678  0F2A  3000               	movwf	((??_vfpfcnvrt+2)+0)+1
  3679  0F2B  00D3               	movlw	0
  3680  0F2C  3000               	subwf	1+(??_vfpfcnvrt+2)+0,w
  3681  0F2D  0253               	movlw	01Ah
  3682  0F2E  301A               	skipnz
  3683  0F2F  1903               	subwf	0+(??_vfpfcnvrt+2)+0,w
  3684  0F30  0252               	skipc
  3685  0F31  1C03               	goto	u5351
  3686  0F32  2F34               	goto	u5350
  3687  0F33  2F36               u5351:
  3688  0F34                     	movlw	1
  3689  0F34  3001               	goto	u5360
  3690  0F35  2F37               u5350:
  3691  0F36                     	movlw	0
  3692  0F36  3000               u5360:
  3693  0F37                     	movwf	(??_vfpfcnvrt+4)+0
  3694  0F37  00D4               	clrf	(??_vfpfcnvrt+4)+0+1
  3695  0F38  01D5               	movf	0+(??_vfpfcnvrt+4)+0,w
  3696  0F39  0854               	movwf	(_vfpfcnvrt$283)
  3697  0F3A  00DC               	movf	1+(??_vfpfcnvrt+4)+0,w
  3698  0F3B  0855               	movwf	(_vfpfcnvrt$283+1)
  3699  0F3C  00DD               	goto	l3595
  3700  0F3D  2F59               	
  3701                           l271:	
  3702  0F3E                     	
  3703                           l3593:	
  3704  0F3E                     	movf	(vfpfcnvrt@fmt),w
  3705  0F3E  084E               	movwf	fsr1l
  3706  0F3F  0086               	clrf fsr1h	
  3707  0F40  0187               	
  3708                           	moviw	[0]fsr1
  3709  0F41  3F40               	movwf	(??_vfpfcnvrt+0)+0
  3710  0F42  00D0               	moviw	[1]fsr1
  3711  0F43  3F41               	movwf	(??_vfpfcnvrt+0)+0+1
  3712  0F44  00D1               	movf	0+(??_vfpfcnvrt+0)+0,w
  3713  0F45  0850               	movwf	fsr0l
  3714  0F46  0084               	movf	(1+(??_vfpfcnvrt+0)+0),w
  3715  0F47  0851               	movwf	fsr0h
  3716  0F48  0085               	movf	indf0,w ;code access
  3717  0F49  0800               	movwf	(??_vfpfcnvrt+2)+0
  3718  0F4A  00D2               	clrf	(??_vfpfcnvrt+2)+0+1
  3719  0F4B  01D3               	movf	0+(??_vfpfcnvrt+2)+0,w
  3720  0F4C  0852               	movwf	(isupper@c)
  3721  0F4D  00F0               	movf	1+(??_vfpfcnvrt+2)+0,w
  3722  0F4E  0853               	movwf	(isupper@c+1)
  3723  0F4F  00F1               	fcall	_isupper
  3724  0F50  3188  2000  318C   	movf	(1+(?_isupper)),w
  3725  0F53  0871               	movlb 0	; select bank0
  3726  0F54  0140               	movwf	(_vfpfcnvrt$283+1)
  3727  0F55  00DD               	movf	(0+(?_isupper)),w
  3728  0F56  0870               	movwf	(_vfpfcnvrt$283)
  3729  0F57  00DC               	goto	l3595
  3730  0F58  2F59               	
  3731                           l273:	
  3732  0F59                     	
  3733                           l3595:	
  3734  0F59                     	movf	((_vfpfcnvrt$283)),w
  3735  0F59  085C               iorwf	((_vfpfcnvrt$283+1)),w
  3736  0F5A  045D               	btfsc	status,2
  3737  0F5B  1903               	goto	u5371
  3738  0F5C  2F5E               	goto	u5370
  3739  0F5D  2F5F               u5371:
  3740  0F5E                     	goto	l3599
  3741  0F5E  2F70               u5370:
  3742  0F5F                     	line	932
  3743                           	
  3744                           l3597:	
  3745  0F5F                     ;C:\Program Files (x86)\Microchip\xc8\v2.00\pic\sources\c99\common\doprnt.c: 932:       
                                           f = (*(long double *)__va_arg(*(long double **)ap, (long double)0));
  3746                           	movf	(vfpfcnvrt@ap),w
  3747  0F5F  084F               	movwf	fsr1l
  3748  0F60  0086               	clrf fsr1h	
  3749  0F61  0187               	
  3750                           	movf	indf1,w
  3751  0F62  0801               	movwf	fsr0l
  3752  0F63  0084               	clrf fsr0h	
  3753  0F64  0185               	
  3754                           	movlw	04h
  3755  0F65  3004               	addwf	indf1,f
  3756  0F66  0781               	moviw	[0]fsr0
  3757  0F67  3F00               	movwf	(vfpfcnvrt@f)
  3758  0F68  00DE               	moviw	[1]fsr0
  3759  0F69  3F01               	movwf	(vfpfcnvrt@f+1)
  3760  0F6A  00DF               	moviw	[2]fsr0
  3761  0F6B  3F02               	movwf	(vfpfcnvrt@f+2)
  3762  0F6C  00E0               	moviw	[3]fsr0
  3763  0F6D  3F03               	movwf	(vfpfcnvrt@f+3)
  3764  0F6E  00E1               	line	933
  3765                           ;C:\Program Files (x86)\Microchip\xc8\v2.00\pic\sources\c99\common\doprnt.c: 933:       
                                       } else {
  3766                           	goto	l3601
  3767  0F6F  2F81               	
  3768                           l269:	
  3769  0F70                     	line	934
  3770                           	
  3771                           l3599:	
  3772  0F70                     ;C:\Program Files (x86)\Microchip\xc8\v2.00\pic\sources\c99\common\doprnt.c: 934:       
                                           f = (long double)(*(double *)__va_arg(*(double **)ap, (double)0));
  3773                           	movf	(vfpfcnvrt@ap),w
  3774  0F70  084F               	movwf	fsr1l
  3775  0F71  0086               	clrf fsr1h	
  3776  0F72  0187               	
  3777                           	movf	indf1,w
  3778  0F73  0801               	movwf	fsr0l
  3779  0F74  0084               	clrf fsr0h	
  3780  0F75  0185               	
  3781                           	movlw	04h
  3782  0F76  3004               	addwf	indf1,f
  3783  0F77  0781               	moviw	[0]fsr0
  3784  0F78  3F00               	movwf	(vfpfcnvrt@f)
  3785  0F79  00DE               	moviw	[1]fsr0
  3786  0F7A  3F01               	movwf	(vfpfcnvrt@f+1)
  3787  0F7B  00DF               	moviw	[2]fsr0
  3788  0F7C  3F02               	movwf	(vfpfcnvrt@f+2)
  3789  0F7D  00E0               	moviw	[3]fsr0
  3790  0F7E  3F03               	movwf	(vfpfcnvrt@f+3)
  3791  0F7F  00E1               	goto	l3601
  3792  0F80  2F81               	line	935
  3793                           ;C:\Program Files (x86)\Microchip\xc8\v2.00\pic\sources\c99\common\doprnt.c: 935:       
                                       }
  3794                           	
  3795                           l274:	
  3796  0F81                     	line	936
  3797                           	
  3798                           l3601:	
  3799  0F81                     ;C:\Program Files (x86)\Microchip\xc8\v2.00\pic\sources\c99\common\doprnt.c: 936:       
                                       *fmt += ((sizeof("lf")/sizeof("lf"[0]))-1);
  3800                           	movf	(vfpfcnvrt@fmt),w
  3801  0F81  084E               	movwf	fsr1l
  3802  0F82  0086               	clrf fsr1h	
  3803  0F83  0187               	
  3804                           	movlw	02h
  3805  0F84  3002               	addwf	indf1,f
  3806  0F85  0781               	addfsr	fsr1,1
  3807  0F86  3141               	skipnc
  3808  0F87  1803               	incf	indf1,f
  3809  0F88  0A81               	line	938
  3810                           	
  3811                           l3603:	
  3812  0F89                     ;C:\Program Files (x86)\Microchip\xc8\v2.00\pic\sources\c99\common\doprnt.c: 938:       
                                       return efgtoa(fp, f, c);
  3813                           	movf	(vfpfcnvrt@f+3),w
  3814  0F89  0861               	movwf	(efgtoa@f+3)
  3815  0F8A  00C8               	movf	(vfpfcnvrt@f+2),w
  3816  0F8B  0860               	movwf	(efgtoa@f+2)
  3817  0F8C  00C7               	movf	(vfpfcnvrt@f+1),w
  3818  0F8D  085F               	movwf	(efgtoa@f+1)
  3819  0F8E  00C6               	movf	(vfpfcnvrt@f),w
  3820  0F8F  085E               	movwf	(efgtoa@f)
  3821  0F90  00C5               
  3822                           	movf	(vfpfcnvrt@c),w
  3823  0F91  0865               	movwf	(??_vfpfcnvrt+0)+0
  3824  0F92  00D0               	movf	(??_vfpfcnvrt+0)+0,w
  3825  0F93  0850               	movwf	(efgtoa@c)
  3826  0F94  00C9               	movf	(vfpfcnvrt@fp),w
  3827  0F95  0866               	fcall	_efgtoa
  3828  0F96  3180  201E  318C   	movlb 0	; select bank0
  3829  0F99  0140               	movf	(1+(?_efgtoa)),w
  3830  0F9A  0846               	movwf	(?_vfpfcnvrt+1)
  3831  0F9B  00CF               	movf	(0+(?_efgtoa)),w
  3832  0F9C  0845               	movwf	(?_vfpfcnvrt)
  3833  0F9D  00CE               	goto	l267
  3834  0F9E  2FFF               	
  3835                           l3605:	
  3836  0F9F                     	goto	l267
  3837  0F9F  2FFF               	line	939
  3838                           ;C:\Program Files (x86)\Microchip\xc8\v2.00\pic\sources\c99\common\doprnt.c: 939:       
                                   }
  3839                           	
  3840                           l268:	
  3841  0FA0                     	line	1350
  3842                           	
  3843                           l3607:	
  3844  0FA0                     ;C:\Program Files (x86)\Microchip\xc8\v2.00\pic\sources\c99\common\doprnt.c: 1350:      
                                    if ((*fmt)[0] == '%') {
  3845                           	movlb 0	; select bank0
  3846  0FA0  0140               	movf	(vfpfcnvrt@fmt),w
  3847  0FA1  084E               	movwf	fsr1l
  3848  0FA2  0086               	clrf fsr1h	
  3849  0FA3  0187               	
  3850                           	moviw	[0]fsr1
  3851  0FA4  3F40               	movwf	(??_vfpfcnvrt+0)+0
  3852  0FA5  00D0               	moviw	[1]fsr1
  3853  0FA6  3F41               	movwf	(??_vfpfcnvrt+0)+0+1
  3854  0FA7  00D1               	movf	0+(??_vfpfcnvrt+0)+0,w
  3855  0FA8  0850               	movwf	fsr0l
  3856  0FA9  0084               	movf	(1+(??_vfpfcnvrt+0)+0),w
  3857  0FAA  0851               	movwf	fsr0h
  3858  0FAB  0085               	moviw	fsr0++
  3859  0FAC  0012               xorlw	37
  3860  0FAD  3A25               	btfss	status,2
  3861  0FAE  1D03               	goto	u5381
  3862  0FAF  2FB1               	goto	u5380
  3863  0FB0  2FB2               u5381:
  3864  0FB1                     	goto	l3617
  3865  0FB1  2FCC               u5380:
  3866  0FB2                     	line	1351
  3867                           	
  3868                           l3609:	
  3869  0FB2                     ;C:\Program Files (x86)\Microchip\xc8\v2.00\pic\sources\c99\common\doprnt.c: 1351:      
                                        ++*fmt;
  3870                           	movf	(vfpfcnvrt@fmt),w
  3871  0FB2  084E               	movwf	fsr1l
  3872  0FB3  0086               	clrf fsr1h	
  3873  0FB4  0187               	
  3874                           	movlw	01h
  3875  0FB5  3001               	addwf	indf1,f
  3876  0FB6  0781               	addfsr	fsr1,1
  3877  0FB7  3141               	skipnc
  3878  0FB8  1803               	incf	indf1,f
  3879  0FB9  0A81               	line	1352
  3880                           	
  3881                           l3611:	
  3882  0FBA                     ;C:\Program Files (x86)\Microchip\xc8\v2.00\pic\sources\c99\common\doprnt.c: 1352:      
                                        fputc((int)'%', fp);
  3883                           	movlw	025h
  3884  0FBA  3025               	movwf	(fputc@c)
  3885  0FBB  00F0               	movlw	0
  3886  0FBC  3000               	movwf	((fputc@c))+1
  3887  0FBD  00F1               	movf	(vfpfcnvrt@fp),w
  3888  0FBE  0866               	movwf	(??_vfpfcnvrt+0)+0
  3889  0FBF  00D0               	movf	(??_vfpfcnvrt+0)+0,w
  3890  0FC0  0850               	movwf	(fputc@fp)
  3891  0FC1  00F2               	fcall	_fputc
  3892  0FC2  3190  20AC  318C   	line	1353
  3893                           	
  3894                           l3613:	
  3895  0FC5                     ;C:\Program Files (x86)\Microchip\xc8\v2.00\pic\sources\c99\common\doprnt.c: 1353:      
                                        return 1;
  3896                           	movlw	01h
  3897  0FC5  3001               	movlb 0	; select bank0
  3898  0FC6  0140               	movwf	(?_vfpfcnvrt)
  3899  0FC7  00CE               	movlw	0
  3900  0FC8  3000               	movwf	((?_vfpfcnvrt))+1
  3901  0FC9  00CF               	goto	l267
  3902  0FCA  2FFF               	
  3903                           l3615:	
  3904  0FCB                     	goto	l267
  3905  0FCB  2FFF               	line	1354
  3906                           ;C:\Program Files (x86)\Microchip\xc8\v2.00\pic\sources\c99\common\doprnt.c: 1354:      
                                    }
  3907                           	
  3908                           l275:	
  3909  0FCC                     	line	1357
  3910                           	
  3911                           l3617:	
  3912  0FCC                     ;C:\Program Files (x86)\Microchip\xc8\v2.00\pic\sources\c99\common\doprnt.c: 1357:      
                                    ++*fmt;
  3913                           	movf	(vfpfcnvrt@fmt),w
  3914  0FCC  084E               	movwf	fsr1l
  3915  0FCD  0086               	clrf fsr1h	
  3916  0FCE  0187               	
  3917                           	movlw	01h
  3918  0FCF  3001               	addwf	indf1,f
  3919  0FD0  0781               	addfsr	fsr1,1
  3920  0FD1  3141               	skipnc
  3921  0FD2  1803               	incf	indf1,f
  3922  0FD3  0A81               	line	1358
  3923                           	
  3924                           l3619:	
  3925  0FD4                     ;C:\Program Files (x86)\Microchip\xc8\v2.00\pic\sources\c99\common\doprnt.c: 1358:      
                                    return 0;
  3926                           	clrf	(?_vfpfcnvrt)
  3927  0FD4  01CE               	clrf	(?_vfpfcnvrt+1)
  3928  0FD5  01CF               	goto	l267
  3929  0FD6  2FFF               	
  3930                           l3621:	
  3931  0FD7                     	goto	l267
  3932  0FD7  2FFF               	line	1359
  3933                           ;C:\Program Files (x86)\Microchip\xc8\v2.00\pic\sources\c99\common\doprnt.c: 1359:     }
                                 
  3934                           	
  3935                           l231:	
  3936  0FD8                     	line	1362
  3937                           	
  3938                           l3623:	
  3939  0FD8                     ;C:\Program Files (x86)\Microchip\xc8\v2.00\pic\sources\c99\common\doprnt.c: 1362:     f
                                 putc((int)(*fmt)[0], fp);
  3940                           	movf	(vfpfcnvrt@fmt),w
  3941  0FD8  084E               	movwf	fsr1l
  3942  0FD9  0086               	clrf fsr1h	
  3943  0FDA  0187               	
  3944                           	moviw	[0]fsr1
  3945  0FDB  3F40               	movwf	(??_vfpfcnvrt+0)+0
  3946  0FDC  00D0               	moviw	[1]fsr1
  3947  0FDD  3F41               	movwf	(??_vfpfcnvrt+0)+0+1
  3948  0FDE  00D1               	movf	0+(??_vfpfcnvrt+0)+0,w
  3949  0FDF  0850               	movwf	fsr0l
  3950  0FE0  0084               	movf	(1+(??_vfpfcnvrt+0)+0),w
  3951  0FE1  0851               	movwf	fsr0h
  3952  0FE2  0085               	movf	indf0,w ;code access
  3953  0FE3  0800               	movwf	(??_vfpfcnvrt+2)+0
  3954  0FE4  00D2               	clrf	(??_vfpfcnvrt+2)+0+1
  3955  0FE5  01D3               	movf	0+(??_vfpfcnvrt+2)+0,w
  3956  0FE6  0852               	movwf	(fputc@c)
  3957  0FE7  00F0               	movf	1+(??_vfpfcnvrt+2)+0,w
  3958  0FE8  0853               	movwf	(fputc@c+1)
  3959  0FE9  00F1               	movf	(vfpfcnvrt@fp),w
  3960  0FEA  0866               	movwf	(??_vfpfcnvrt+4)+0
  3961  0FEB  00D4               	movf	(??_vfpfcnvrt+4)+0,w
  3962  0FEC  0854               	movwf	(fputc@fp)
  3963  0FED  00F2               	fcall	_fputc
  3964  0FEE  3190  20AC  318C   	line	1363
  3965                           	
  3966                           l3625:	
  3967  0FF1                     ;C:\Program Files (x86)\Microchip\xc8\v2.00\pic\sources\c99\common\doprnt.c: 1363:     +
                                 +*fmt;
  3968                           	movlb 0	; select bank0
  3969  0FF1  0140               	movf	(vfpfcnvrt@fmt),w
  3970  0FF2  084E               	movwf	fsr1l
  3971  0FF3  0086               	clrf fsr1h	
  3972  0FF4  0187               	
  3973                           	movlw	01h
  3974  0FF5  3001               	addwf	indf1,f
  3975  0FF6  0781               	addfsr	fsr1,1
  3976  0FF7  3141               	skipnc
  3977  0FF8  1803               	incf	indf1,f
  3978  0FF9  0A81               	line	1364
  3979                           	
  3980                           l3627:	
  3981  0FFA                     ;C:\Program Files (x86)\Microchip\xc8\v2.00\pic\sources\c99\common\doprnt.c: 1364:     r
                                 eturn 1;
  3982                           	movlw	01h
  3983  0FFA  3001               	movwf	(?_vfpfcnvrt)
  3984  0FFB  00CE               	movlw	0
  3985  0FFC  3000               	movwf	((?_vfpfcnvrt))+1
  3986  0FFD  00CF               	goto	l267
  3987  0FFE  2FFF               	
  3988                           l3629:	
  3989  0FFF                     	line	1365
  3990                           	
  3991                           l267:	
  3992  0FFF                     	return
  3993  0FFF  0008               	opt stack 0
  3994                           GLOBAL	__end_of_vfpfcnvrt
  3995                           	__end_of_vfpfcnvrt:
  3996  1000                     	signat	_vfpfcnvrt,12410
  3997                           	global	_strncmp
  3998                           
  3999 ;; *************** function _strncmp *****************
  4000 ;; Defined at:
  4001 ;;		line 3 in file "C:\Program Files (x86)\Microchip\xc8\v2.00\pic\sources\c99\common\strncmp.c"
  4002 ;; Parameters:    Size  Location     Type
  4003 ;;  _l              1    wreg     PTR const unsigned char 
  4004 ;;		 -> vfpfcnvrt@ct(3), 
  4005 ;;  _r              2    0[COMMON] PTR const unsigned char 
  4006 ;;		 -> STR_12(3), 
  4007 ;;  n               2    2[COMMON] unsigned int 
  4008 ;; Auto vars:     Size  Location     Type
  4009 ;;  _l              1    6[COMMON] PTR const unsigned char 
  4010 ;;		 -> vfpfcnvrt@ct(3), 
  4011 ;;  r               2    7[COMMON] PTR const unsigned char 
  4012 ;;		 -> STR_12(3), 
  4013 ;;  l               1    9[COMMON] PTR const unsigned char 
  4014 ;;		 -> vfpfcnvrt@ct(3), 
  4015 ;; Return value:  Size  Location     Type
  4016 ;;                  2    0[COMMON] int 
  4017 ;; Registers used:
  4018 ;;		wreg, fsr0l, fsr0h, fsr1l, fsr1h, status,2, status,0, pclath
  4019 ;; Tracked objects:
  4020 ;;		On entry : 0/0
  4021 ;;		On exit  : 0/0
  4022 ;;		Unchanged: 0/0
  4023 ;; Data sizes:     COMMON   BANK0   BANK1   BANK2   BANK3   BANK4   BANK5   BANK6   BANK7   BANK8   BANK9  BANK10  BANK1
       1  BANK12
  4024 ;;      Params:         4       0       0       0       0       0       0       0       0       0       0       0       
       0       0
  4025 ;;      Locals:         4       0       0       0       0       0       0       0       0       0       0       0       
       0       0
  4026 ;;      Temps:          2       0       0       0       0       0       0       0       0       0       0       0       
       0       0
  4027 ;;      Totals:        10       0       0       0       0       0       0       0       0       0       0       0       
       0       0
  4028 ;;Total ram usage:       10 bytes
  4029 ;; Hardware stack levels used:    1
  4030 ;; Hardware stack levels required when called:    1
  4031 ;; This function calls:
  4032 ;;		Nothing
  4033 ;; This function is called by:
  4034 ;;		_vfpfcnvrt
  4035 ;; This function uses a non-reentrant model
  4036 ;;
  4037                           psect	text4,local,class=CODE,delta=2,merge=1,group=2
  4038                           	file	"C:\Program Files (x86)\Microchip\xc8\v2.00\pic\sources\c99\common\strncmp.c"
  4039                           	line	3
  4040                           global __ptext4
  4041                           __ptext4:	;psect for function _strncmp
  4042  11BB                     psect	text4
  4043                           	file	"C:\Program Files (x86)\Microchip\xc8\v2.00\pic\sources\c99\common\strncmp.c"
  4044                           	line	3
  4045                           	global	__size_of_strncmp
  4046                           	__size_of_strncmp	equ	__end_of_strncmp-_strncmp
  4047  0067                     	
  4048                           _strncmp:	
  4049  11BB                     ;incstack = 0
  4050                           	opt	stack 11
  4051                           ; Regs used in _strncmp: [wreg-fsr1h+status,2+status,0+pclath]
  4052                           ;strncmp@_l stored from wreg
  4053                           	movwf	(strncmp@_l)
  4054  11BB  00F6               	line	5
  4055                           	
  4056                           l3467:	
  4057  11BC                     	movf	(strncmp@_l),w
  4058  11BC  0876               	movwf	(??_strncmp+0)+0
  4059  11BD  00F4               	movf	(??_strncmp+0)+0,w
  4060  11BE  0874               	movwf	(strncmp@l)
  4061  11BF  00F9               	movf	(strncmp@_r+1),w
  4062  11C0  0871               	movwf	(strncmp@r+1)
  4063  11C1  00F8               	movf	(strncmp@_r),w
  4064  11C2  0870               	movwf	(strncmp@r)
  4065  11C3  00F7               	line	6
  4066                           	
  4067                           l3469:	
  4068  11C4                     	movlw	01h
  4069  11C4  3001               	subwf	(strncmp@n),f
  4070  11C5  02F2               	movlw	0
  4071  11C6  3000               	subwfb	(strncmp@n+1),f
  4072  11C7  3BF3               		incf	(((strncmp@n))),w
  4073  11C8  0A72               	skipz
  4074  11C9  1D03               	goto	u5131
  4075  11CA  29CF               	incf	(((strncmp@n+1))),w
  4076  11CB  0A73               	btfss	status,2
  4077  11CC  1D03               	goto	u5131
  4078  11CD  29CF               	goto	u5130
  4079  11CE  29D0               u5131:
  4080  11CF                     	goto	l3481
  4081  11CF  29E2               u5130:
  4082  11D0                     	
  4083                           l3471:	
  4084  11D0                     	clrf	(?_strncmp)
  4085  11D0  01F0               	clrf	(?_strncmp+1)
  4086  11D1  01F1               	goto	l837
  4087  11D2  2A21               	
  4088                           l3473:	
  4089  11D3                     	goto	l837
  4090  11D3  2A21               	
  4091                           l836:	
  4092  11D4                     	line	7
  4093                           	goto	l3481
  4094  11D4  29E2               	
  4095                           l839:	
  4096  11D5                     	
  4097                           l3475:	
  4098  11D5                     	movlw	low(01h)
  4099  11D5  3001               	movwf	(??_strncmp+0)+0
  4100  11D6  00F4               	movf	(??_strncmp+0)+0,w
  4101  11D7  0874               	addwf	(strncmp@l),f
  4102  11D8  07F9               	
  4103                           l3477:	
  4104  11D9                     	movlw	01h
  4105  11D9  3001               	addwf	(strncmp@r),f
  4106  11DA  07F7               	movlw	0
  4107  11DB  3000               	addwfc	(strncmp@r+1),f
  4108  11DC  3DF8               	
  4109                           l3479:	
  4110  11DD                     	movlw	01h
  4111  11DD  3001               	subwf	(strncmp@n),f
  4112  11DE  02F2               	movlw	0
  4113  11DF  3000               	subwfb	(strncmp@n+1),f
  4114  11E0  3BF3               	goto	l3481
  4115  11E1  29E2               	
  4116                           l838:	
  4117  11E2                     	
  4118                           l3481:	
  4119  11E2                     	movf	(strncmp@l),w
  4120  11E2  0879               	movwf	fsr1l
  4121  11E3  0086               	clrf fsr1h	
  4122  11E4  0187               	
  4123                           	movf	(indf1),w
  4124  11E5  0801               	btfsc	status,2
  4125  11E6  1903               	goto	u5141
  4126  11E7  29E9               	goto	u5140
  4127  11E8  29EA               u5141:
  4128  11E9                     	goto	l3489
  4129  11E9  2A0A               u5140:
  4130  11EA                     	
  4131                           l3483:	
  4132  11EA                     	movf	(strncmp@r),w
  4133  11EA  0877               	movwf	fsr0l
  4134  11EB  0084               	movf	((strncmp@r+1)),w
  4135  11EC  0878               	movwf	fsr0h
  4136  11ED  0085               	moviw	fsr0++
  4137  11EE  0012               	btfsc	status,2
  4138  11EF  1903               	goto	u5151
  4139  11F0  29F2               	goto	u5150
  4140  11F1  29F3               u5151:
  4141  11F2                     	goto	l3489
  4142  11F2  2A0A               u5150:
  4143  11F3                     	
  4144                           l3485:	
  4145  11F3                     	movf	((strncmp@n)),w
  4146  11F3  0872               iorwf	((strncmp@n+1)),w
  4147  11F4  0473               	btfsc	status,2
  4148  11F5  1903               	goto	u5161
  4149  11F6  29F8               	goto	u5160
  4150  11F7  29F9               u5161:
  4151  11F8                     	goto	l3489
  4152  11F8  2A0A               u5160:
  4153  11F9                     	
  4154                           l3487:	
  4155  11F9                     	movf	(strncmp@r),w
  4156  11F9  0877               	movwf	fsr0l
  4157  11FA  0084               	movf	((strncmp@r+1)),w
  4158  11FB  0878               	movwf	fsr0h
  4159  11FC  0085               	movf	indf0,w ;code access
  4160  11FD  0800               	movwf	(??_strncmp+0)+0
  4161  11FE  00F4               	movf	(strncmp@l),w
  4162  11FF  0879               	movwf	fsr1l
  4163  1200  0086               	clrf fsr1h	
  4164  1201  0187               	
  4165                           	movf	indf1,w
  4166  1202  0801               	xorwf	(??_strncmp+0)+0,w
  4167  1203  0674               	skipnz
  4168  1204  1903               	goto	u5171
  4169  1205  2A07               	goto	u5170
  4170  1206  2A08               u5171:
  4171  1207                     	goto	l3475
  4172  1207  29D5               u5170:
  4173  1208                     	goto	l3489
  4174  1208  2A0A               	
  4175                           l841:	
  4176  1209                     	goto	l3489
  4177  1209  2A0A               	
  4178                           l842:	
  4179  120A                     	line	8
  4180                           	
  4181                           l3489:	
  4182  120A                     	movf	(strncmp@r),w
  4183  120A  0877               	movwf	fsr0l
  4184  120B  0084               	movf	((strncmp@r+1)),w
  4185  120C  0878               	movwf	fsr0h
  4186  120D  0085               	movf	indf0,w ;code access
  4187  120E  0800               	movwf	(??_strncmp+0)+0
  4188  120F  00F4               	clrf	(??_strncmp+0)+0+1
  4189  1210  01F5               	comf	(??_strncmp+0)+0,f
  4190  1211  09F4               	comf	(??_strncmp+0)+1,f
  4191  1212  09F5               	incf	(??_strncmp+0)+0,f
  4192  1213  0AF4               	skipnz
  4193  1214  1903               	incf	(??_strncmp+0)+1,f
  4194  1215  0AF5               	movf	(strncmp@l),w
  4195  1216  0879               	movwf	fsr1l
  4196  1217  0086               	clrf fsr1h	
  4197  1218  0187               	
  4198                           	movf	indf1,w
  4199  1219  0801               	addwf	0+(??_strncmp+0)+0,w
  4200  121A  0774               	movwf	(?_strncmp)
  4201  121B  00F0               	movf	1+(??_strncmp+0)+0,w
  4202  121C  0875               	skipnc
  4203  121D  1803               	incf	1+(??_strncmp+0)+0,w
  4204  121E  0A75               	movwf	((?_strncmp))+1
  4205  121F  00F1               	goto	l837
  4206  1220  2A21               	
  4207                           l3491:	
  4208  1221                     	line	9
  4209                           	
  4210                           l837:	
  4211  1221                     	return
  4212  1221  0008               	opt stack 0
  4213                           GLOBAL	__end_of_strncmp
  4214                           	__end_of_strncmp:
  4215  1222                     	signat	_strncmp,12410
  4216                           	global	_efgtoa
  4217                           
  4218 ;; *************** function _efgtoa *****************
  4219 ;; Defined at:
  4220 ;;		line 319 in file "C:\Program Files (x86)\Microchip\xc8\v2.00\pic\sources\c99\common\doprnt.c"
  4221 ;; Parameters:    Size  Location     Type
  4222 ;;  fp              1    wreg     PTR struct _IO_FILE
  4223 ;;		 -> sprintf@f(5), 
  4224 ;;  f               4   37[BANK0 ] PTR struct _IO_FILE
  4225 ;;  c               1   41[BANK0 ] unsigned char 
  4226 ;; Auto vars:     Size  Location     Type
  4227 ;;  fp              1   28[BANK1 ] PTR struct _IO_FILE
  4228 ;;		 -> sprintf@f(5), 
  4229 ;;  u               4   53[BANK1 ] PTR struct _IO_FILE
  4230 ;;  g               4   45[BANK1 ] PTR struct _IO_FILE
  4231 ;;  l               4   39[BANK1 ] PTR struct _IO_FILE
  4232 ;;  h               4   35[BANK1 ] PTR struct _IO_FILE
  4233 ;;  ou              4    0[BANK1 ] PTR struct _IO_FILE
  4234 ;;  n               2   51[BANK1 ] int 
  4235 ;;  e               2   49[BANK1 ] int 
  4236 ;;  i               2   43[BANK1 ] int 
  4237 ;;  w               2   32[BANK1 ] int 
  4238 ;;  p               2   29[BANK1 ] int 
  4239 ;;  sign            2   26[BANK1 ] int 
  4240 ;;  d               2   24[BANK1 ] int 
  4241 ;;  ne              2   22[BANK1 ] int 
  4242 ;;  m               2   20[BANK1 ] int 
  4243 ;;  pp              2   18[BANK1 ] int 
  4244 ;;  t               2   16[BANK1 ] int 
  4245 ;;  mode            1   34[BANK1 ] unsigned char 
  4246 ;;  nmode           1   31[BANK1 ] unsigned char 
  4247 ;; Return value:  Size  Location     Type
  4248 ;;                  2   37[BANK0 ] int 
  4249 ;; Registers used:
  4250 ;;		wreg, fsr0l, fsr0h, fsr1l, fsr1h, status,2, status,0, pclath, cstack
  4251 ;; Tracked objects:
  4252 ;;		On entry : 0/0
  4253 ;;		On exit  : 0/0
  4254 ;;		Unchanged: 0/0
  4255 ;; Data sizes:     COMMON   BANK0   BANK1   BANK2   BANK3   BANK4   BANK5   BANK6   BANK7   BANK8   BANK9  BANK10  BANK1
       1  BANK12
  4256 ;;      Params:         0       5       0       0       0       0       0       0       0       0       0       0       
       0       0
  4257 ;;      Locals:         0       0      57       0       0       0       0       0       0       0       0       0       
       0       0
  4258 ;;      Temps:          0       4       0       0       0       0       0       0       0       0       0       0       
       0       0
  4259 ;;      Totals:         0       9      57       0       0       0       0       0       0       0       0       0       
       0       0
  4260 ;;Total ram usage:       66 bytes
  4261 ;; Hardware stack levels used:    1
  4262 ;; Hardware stack levels required when called:    5
  4263 ;; This function calls:
  4264 ;;		___awdiv
  4265 ;;		___awmod
  4266 ;;		___fladd
  4267 ;;		___fldiv
  4268 ;;		___fleq
  4269 ;;		___flge
  4270 ;;		___flmul
  4271 ;;		___flneg
  4272 ;;		___flsub
  4273 ;;		___fltol
  4274 ;;		___fpclassifyf
  4275 ;;		_floorf
  4276 ;;		_isupper
  4277 ;;		_pad
  4278 ;;		_strcpy
  4279 ;;		_tolower
  4280 ;; This function is called by:
  4281 ;;		_vfpfcnvrt
  4282 ;; This function uses a non-reentrant model
  4283 ;;
  4284                           psect	text5,local,class=CODE,delta=2,merge=1,group=0
  4285                           	file	"C:\Program Files (x86)\Microchip\xc8\v2.00\pic\sources\c99\common\doprnt.c"
  4286                           	line	319
  4287                           global __ptext5
  4288                           __ptext5:	;psect for function _efgtoa
  4289  001E                     psect	text5
  4290                           	file	"C:\Program Files (x86)\Microchip\xc8\v2.00\pic\sources\c99\common\doprnt.c"
  4291                           	line	319
  4292                           	global	__size_of_efgtoa
  4293                           	__size_of_efgtoa	equ	__end_of_efgtoa-_efgtoa
  4294  0743                     	
  4295                           _efgtoa:	
  4296  001E                     ;incstack = 0
  4297                           	opt	stack 7
  4298                           ; Regs used in _efgtoa: [wreg-fsr1h+status,2+status,0+pclath+cstack]
  4299                           ;efgtoa@fp stored from wreg
  4300                           	movlb 1	; select bank1
  4301  001E  0141               	movwf	(efgtoa@fp)^080h
  4302  001F  00BC               	line	326
  4303                           	
  4304                           l3129:	
  4305  0020                     ;C:\Program Files (x86)\Microchip\xc8\v2.00\pic\sources\c99\common\doprnt.c: 319: static
                                  int efgtoa(FILE *fp, long double f, char c);C:\Program Files (x86)\Microchip\xc8\v2.00\
                                 pic\sources\c99\common\doprnt.c: 320: {;C:\Program Files (x86)\Microchip\xc8\v2.00\pic\s
                                 ources\c99\common\doprnt.c: 321:     char mode, nmode;;C:\Program Files (x86)\Microchip\
                                 xc8\v2.00\pic\sources\c99\common\doprnt.c: 322:     int d, e, i, m, n, ne, p, pp, sign, 
                                 t, w;;C:\Program Files (x86)\Microchip\xc8\v2.00\pic\sources\c99\common\doprnt.c: 323:  
                                    long double g, h, l, ou, u;
  4306                           	clrf	(efgtoa@sign)^080h
  4307  0020  01BA               	clrf	(efgtoa@sign+1)^080h
  4308  0021  01BB               	line	327
  4309                           	
  4310                           l3131:	
  4311  0022                     ;C:\Program Files (x86)\Microchip\xc8\v2.00\pic\sources\c99\common\doprnt.c: 327:     g 
                                 = f;
  4312                           	movlb 0	; select bank0
  4313  0022  0140               	movf	(efgtoa@f+3),w
  4314  0023  0848               	movlb 1	; select bank1
  4315  0024  0141               	movwf	(efgtoa@g+3)^080h
  4316  0025  00D0               	movlb 0	; select bank0
  4317  0026  0140               	movf	(efgtoa@f+2),w
  4318  0027  0847               	movlb 1	; select bank1
  4319  0028  0141               	movwf	(efgtoa@g+2)^080h
  4320  0029  00CF               	movlb 0	; select bank0
  4321  002A  0140               	movf	(efgtoa@f+1),w
  4322  002B  0846               	movlb 1	; select bank1
  4323  002C  0141               	movwf	(efgtoa@g+1)^080h
  4324  002D  00CE               	movlb 0	; select bank0
  4325  002E  0140               	movf	(efgtoa@f),w
  4326  002F  0845               	movlb 1	; select bank1
  4327  0030  0141               	movwf	(efgtoa@g)^080h
  4328  0031  00CD               
  4329                           	line	328
  4330                           	
  4331                           l3133:	
  4332  0032                     ;C:\Program Files (x86)\Microchip\xc8\v2.00\pic\sources\c99\common\doprnt.c: 328:     if
                                  (g < 0.0) {
  4333                           	movf	(efgtoa@g+3)^080h,w
  4334  0032  0850               	movlb 0	; select bank0
  4335  0033  0140               	movwf	(___flge@ff1+3)
  4336  0034  00B8               	movlb 1	; select bank1
  4337  0035  0141               	movf	(efgtoa@g+2)^080h,w
  4338  0036  084F               	movlb 0	; select bank0
  4339  0037  0140               	movwf	(___flge@ff1+2)
  4340  0038  00B7               	movlb 1	; select bank1
  4341  0039  0141               	movf	(efgtoa@g+1)^080h,w
  4342  003A  084E               	movlb 0	; select bank0
  4343  003B  0140               	movwf	(___flge@ff1+1)
  4344  003C  00B6               	movlb 1	; select bank1
  4345  003D  0141               	movf	(efgtoa@g)^080h,w
  4346  003E  084D               	movlb 0	; select bank0
  4347  003F  0140               	movwf	(___flge@ff1)
  4348  0040  00B5               
  4349                           	movlw	0x0
  4350  0041  3000               	movwf	(___flge@ff2+3)
  4351  0042  00BC               	movlw	0x0
  4352  0043  3000               	movwf	(___flge@ff2+2)
  4353  0044  00BB               	movlw	0x0
  4354  0045  3000               	movwf	(___flge@ff2+1)
  4355  0046  00BA               	movlw	0x0
  4356  0047  3000               	movwf	(___flge@ff2)
  4357  0048  00B9               
  4358                           	fcall	___flge
  4359  0049  3193  230E  3180   	btfsc	status,0
  4360  004C  1803               	goto	u4541
  4361  004D  284F               	goto	u4540
  4362  004E  2850               u4541:
  4363  004F                     	goto	l3139
  4364  004F  286A               u4540:
  4365  0050                     	line	329
  4366                           	
  4367                           l3135:	
  4368  0050                     ;C:\Program Files (x86)\Microchip\xc8\v2.00\pic\sources\c99\common\doprnt.c: 329:       
                                   sign = 1;
  4369                           	movlw	01h
  4370  0050  3001               	movlb 1	; select bank1
  4371  0051  0141               	movwf	(efgtoa@sign)^080h
  4372  0052  00BA               	movlw	0
  4373  0053  3000               	movwf	((efgtoa@sign)^080h)+1
  4374  0054  00BB               	line	330
  4375                           	
  4376                           l3137:	
  4377  0055                     ;C:\Program Files (x86)\Microchip\xc8\v2.00\pic\sources\c99\common\doprnt.c: 330:       
                                   g = -g;
  4378                           	movf	(efgtoa@g+3)^080h,w
  4379  0055  0850               	movwf	(___flneg@f1+3)
  4380  0056  00F3               	movf	(efgtoa@g+2)^080h,w
  4381  0057  084F               	movwf	(___flneg@f1+2)
  4382  0058  00F2               	movf	(efgtoa@g+1)^080h,w
  4383  0059  084E               	movwf	(___flneg@f1+1)
  4384  005A  00F1               	movf	(efgtoa@g)^080h,w
  4385  005B  084D               	movwf	(___flneg@f1)
  4386  005C  00F0               
  4387                           	fcall	___flneg
  4388  005D  319E  2607  3180   	movf	(3+(?___flneg)),w
  4389  0060  0873               	movlb 1	; select bank1
  4390  0061  0141               	movwf	(efgtoa@g+3)^080h
  4391  0062  00D0               	movf	(2+(?___flneg)),w
  4392  0063  0872               	movwf	(efgtoa@g+2)^080h
  4393  0064  00CF               	movf	(1+(?___flneg)),w
  4394  0065  0871               	movwf	(efgtoa@g+1)^080h
  4395  0066  00CE               	movf	(0+(?___flneg)),w
  4396  0067  0870               	movwf	(efgtoa@g)^080h
  4397  0068  00CD               
  4398                           	goto	l3139
  4399  0069  286A               	line	331
  4400                           ;C:\Program Files (x86)\Microchip\xc8\v2.00\pic\sources\c99\common\doprnt.c: 331:     }

  4401                           	
  4402                           l140:	
  4403  006A                     	line	334
  4404                           	
  4405                           l3139:	
  4406  006A                     ;C:\Program Files (x86)\Microchip\xc8\v2.00\pic\sources\c99\common\doprnt.c: 334:     n 
                                 = 0;
  4407                           	movlb 1	; select bank1
  4408  006A  0141               	clrf	(efgtoa@n)^080h
  4409  006B  01D3               	clrf	(efgtoa@n+1)^080h
  4410  006C  01D4               	line	335
  4411                           	
  4412                           l3141:	
  4413  006D                     ;C:\Program Files (x86)\Microchip\xc8\v2.00\pic\sources\c99\common\doprnt.c: 335:     w 
                                 = width;
  4414                           	movlb 2	; select bank2
  4415  006D  0142               	movf	(_width+1)^0100h,w
  4416  006E  083B               	movlb 1	; select bank1
  4417  006F  0141               	movwf	(efgtoa@w+1)^080h
  4418  0070  00C1               	movlb 2	; select bank2
  4419  0071  0142               	movf	(_width)^0100h,w
  4420  0072  083A               	movlb 1	; select bank1
  4421  0073  0141               	movwf	(efgtoa@w)^080h
  4422  0074  00C0               	line	336
  4423                           	
  4424                           l3143:	
  4425  0075                     ;C:\Program Files (x86)\Microchip\xc8\v2.00\pic\sources\c99\common\doprnt.c: 336:     if
                                  (sign || (flags & (1 << 2))) {
  4426                           	movf	((efgtoa@sign)^080h),w
  4427  0075  083A               iorwf	((efgtoa@sign+1)^080h),w
  4428  0076  043B               	btfss	status,2
  4429  0077  1D03               	goto	u4551
  4430  0078  287A               	goto	u4550
  4431  0079  287B               u4551:
  4432  007A                     	goto	l3147
  4433  007A  2881               u4550:
  4434  007B                     	
  4435                           l3145:	
  4436  007B                     	movlb 2	; select bank2
  4437  007B  0142               	btfss	(_flags)^0100h,(2)&7
  4438  007C  1D3E               	goto	u4561
  4439  007D  287F               	goto	u4560
  4440  007E  2880               u4561:
  4441  007F                     	goto	l3159
  4442  007F  28A8               u4560:
  4443  0080                     	goto	l3147
  4444  0080  2881               	
  4445                           l143:	
  4446  0081                     	line	337
  4447                           	
  4448                           l3147:	
  4449  0081                     ;C:\Program Files (x86)\Microchip\xc8\v2.00\pic\sources\c99\common\doprnt.c: 337:       
                                   dbuf[n] = sign ? '-' : '+';
  4450                           	movlb 1	; select bank1
  4451  0081  0141               	movf	((efgtoa@sign)^080h),w
  4452  0082  083A               iorwf	((efgtoa@sign+1)^080h),w
  4453  0083  043B               	btfss	status,2
  4454  0084  1D03               	goto	u4571
  4455  0085  2887               	goto	u4570
  4456  0086  2888               u4571:
  4457  0087                     	goto	l3151
  4458  0087  288D               u4570:
  4459  0088                     	
  4460                           l3149:	
  4461  0088                     	movlw	02Bh
  4462  0088  302B               	movwf	(_efgtoa$252)^080h
  4463  0089  00A4               	movlw	0
  4464  008A  3000               	movwf	((_efgtoa$252)^080h)+1
  4465  008B  00A5               	goto	l3153
  4466  008C  2892               	
  4467                           l145:	
  4468  008D                     	
  4469                           l3151:	
  4470  008D                     	movlw	02Dh
  4471  008D  302D               	movwf	(_efgtoa$252)^080h
  4472  008E  00A4               	movlw	0
  4473  008F  3000               	movwf	((_efgtoa$252)^080h)+1
  4474  0090  00A5               	goto	l3153
  4475  0091  2892               	
  4476                           l147:	
  4477  0092                     	
  4478                           l3153:	
  4479  0092                     	movf	(_efgtoa$252)^080h,w
  4480  0092  0824               	movlb 0	; select bank0
  4481  0093  0140               	movwf	(??_efgtoa+0)+0
  4482  0094  00CA               	movlb 1	; select bank1
  4483  0095  0141               	movf	(efgtoa@n)^080h,w
  4484  0096  0853               	addlw	low(_dbuf|((0x1)<<8))&0ffh
  4485  0097  3EA0               	movwf	fsr1l
  4486  0098  0086               	movlw 1	; select bank3/4
  4487  0099  3001               	movwf fsr1h	
  4488  009A  0087               	
  4489                           	movlb 0	; select bank0
  4490  009B  0140               	movf	(??_efgtoa+0)+0,w
  4491  009C  084A               	movwf	indf1
  4492  009D  0081               	line	338
  4493                           	
  4494                           l3155:	
  4495  009E                     ;C:\Program Files (x86)\Microchip\xc8\v2.00\pic\sources\c99\common\doprnt.c: 338:       
                                   ++n;
  4496                           	movlw	01h
  4497  009E  3001               	movlb 1	; select bank1
  4498  009F  0141               	addwf	(efgtoa@n)^080h,f
  4499  00A0  07D3               	movlw	0
  4500  00A1  3000               	addwfc	(efgtoa@n+1)^080h,f
  4501  00A2  3DD4               	line	339
  4502                           	
  4503                           l3157:	
  4504  00A3                     ;C:\Program Files (x86)\Microchip\xc8\v2.00\pic\sources\c99\common\doprnt.c: 339:       
                                   --w;
  4505                           	movlw	0FFh
  4506  00A3  30FF               	addwf	(efgtoa@w)^080h,f
  4507  00A4  07C0               	movlw	0FFh
  4508  00A5  30FF               	addwfc	(efgtoa@w+1)^080h,f
  4509  00A6  3DC1               	goto	l3159
  4510  00A7  28A8               	line	340
  4511                           ;C:\Program Files (x86)\Microchip\xc8\v2.00\pic\sources\c99\common\doprnt.c: 340:     }

  4512                           	
  4513                           l141:	
  4514  00A8                     	line	343
  4515                           	
  4516                           l3159:	
  4517  00A8                     ;C:\Program Files (x86)\Microchip\xc8\v2.00\pic\sources\c99\common\doprnt.c: 344:       
                                   if ((0 ? isupper((int)c) : ((unsigned)((int)c)-'A') < 26)) {
  4518                           	movlb 1	; select bank1
  4519  00A8  0141               	movf	(efgtoa@g+3)^080h,w
  4520  00A9  0850               	movwf	(___fpclassifyf@x+3)
  4521  00AA  00F3               	movf	(efgtoa@g+2)^080h,w
  4522  00AB  084F               	movwf	(___fpclassifyf@x+2)
  4523  00AC  00F2               	movf	(efgtoa@g+1)^080h,w
  4524  00AD  084E               	movwf	(___fpclassifyf@x+1)
  4525  00AE  00F1               	movf	(efgtoa@g)^080h,w
  4526  00AF  084D               	movwf	(___fpclassifyf@x)
  4527  00B0  00F0               
  4528                           	fcall	___fpclassifyf
  4529  00B1  3192  228B  3180   		decf	((0+(?___fpclassifyf))),w
  4530  00B4  0370               iorwf	((1+(?___fpclassifyf))),w
  4531  00B5  0471               	btfss	status,2
  4532  00B6  1D03               	goto	u4581
  4533  00B7  28B9               	goto	u4580
  4534  00B8  28BA               u4581:
  4535  00B9                     	goto	l3177
  4536  00B9  2921               u4580:
  4537  00BA                     	line	344
  4538                           	
  4539                           l3161:	
  4540  00BA                     	movlb 0	; select bank0
  4541  00BA  0140               	movf	(efgtoa@c),w
  4542  00BB  0849               	addlw	low(0FFBFh)
  4543  00BC  3EBF               	movwf	(??_efgtoa+0)+0
  4544  00BD  00CA               	movlw	high(0FFBFh)
  4545  00BE  30FF               	skipnc
  4546  00BF  1803               	movlw	(high(0FFBFh)+1)&0ffh
  4547  00C0  3000               	movwf	((??_efgtoa+0)+0)+1
  4548  00C1  00CB               	movlw	0
  4549  00C2  3000               	subwf	1+(??_efgtoa+0)+0,w
  4550  00C3  024B               	movlw	01Ah
  4551  00C4  301A               	skipnz
  4552  00C5  1903               	subwf	0+(??_efgtoa+0)+0,w
  4553  00C6  024A               	skipc
  4554  00C7  1C03               	goto	u4591
  4555  00C8  28CA               	goto	u4590
  4556  00C9  28CC               u4591:
  4557  00CA                     	movlw	1
  4558  00CA  3001               	goto	u4600
  4559  00CB  28CD               u4590:
  4560  00CC                     	movlw	0
  4561  00CC  3000               u4600:
  4562  00CD                     	movwf	(??_efgtoa+2)+0
  4563  00CD  00CC               	clrf	(??_efgtoa+2)+0+1
  4564  00CE  01CD               	movf	0+(??_efgtoa+2)+0,w
  4565  00CF  084C               	movlb 1	; select bank1
  4566  00D0  0141               	movwf	(_efgtoa$253)^080h
  4567  00D1  00A6               	movlb 0	; select bank0
  4568  00D2  0140               	movf	1+(??_efgtoa+2)+0,w
  4569  00D3  084D               	movlb 1	; select bank1
  4570  00D4  0141               	movwf	(_efgtoa$253+1)^080h
  4571  00D5  00A7               	goto	l3165
  4572  00D6  28E8               	
  4573                           l151:	
  4574  00D7                     	
  4575                           l3163:	
  4576  00D7                     	movlb 0	; select bank0
  4577  00D7  0140               	movf	(efgtoa@c),w
  4578  00D8  0849               	movwf	(??_efgtoa+0)+0
  4579  00D9  00CA               	clrf	(??_efgtoa+0)+0+1
  4580  00DA  01CB               	movf	0+(??_efgtoa+0)+0,w
  4581  00DB  084A               	movwf	(isupper@c)
  4582  00DC  00F0               	movf	1+(??_efgtoa+0)+0,w
  4583  00DD  084B               	movwf	(isupper@c+1)
  4584  00DE  00F1               	fcall	_isupper
  4585  00DF  3188  2000  3180   	movf	(1+(?_isupper)),w
  4586  00E2  0871               	movlb 1	; select bank1
  4587  00E3  0141               	movwf	(_efgtoa$253+1)^080h
  4588  00E4  00A7               	movf	(0+(?_isupper)),w
  4589  00E5  0870               	movwf	(_efgtoa$253)^080h
  4590  00E6  00A6               	goto	l3165
  4591  00E7  28E8               	
  4592                           l153:	
  4593  00E8                     	
  4594                           l3165:	
  4595  00E8                     	movf	((_efgtoa$253)^080h),w
  4596  00E8  0826               iorwf	((_efgtoa$253+1)^080h),w
  4597  00E9  0427               	btfsc	status,2
  4598  00EA  1903               	goto	u4611
  4599  00EB  28ED               	goto	u4610
  4600  00EC  28EE               u4611:
  4601  00ED                     	goto	l3169
  4602  00ED  28F8               u4610:
  4603  00EE                     	line	345
  4604                           	
  4605                           l3167:	
  4606  00EE                     ;C:\Program Files (x86)\Microchip\xc8\v2.00\pic\sources\c99\common\doprnt.c: 345:       
                                       strcpy(&dbuf[n], "INF");
  4607                           	movlw	low(((STR_2)|8000h))
  4608  00EE  3016               	movwf	(strcpy@src)
  4609  00EF  00F0               	movlw	high(((STR_2)|8000h))
  4610  00F0  3098               	movwf	((strcpy@src))+1
  4611  00F1  00F1               	movf	(efgtoa@n)^080h,w
  4612  00F2  0853               	addlw	low(_dbuf|((0x1)<<8))&0ffh
  4613  00F3  3EA0               	fcall	_strcpy
  4614  00F4  319E  2690  3180   	line	346
  4615                           ;C:\Program Files (x86)\Microchip\xc8\v2.00\pic\sources\c99\common\doprnt.c: 346:       
                                   } else {
  4616                           	goto	l3171
  4617  00F7  2903               	
  4618                           l149:	
  4619  00F8                     	line	347
  4620                           	
  4621                           l3169:	
  4622  00F8                     ;C:\Program Files (x86)\Microchip\xc8\v2.00\pic\sources\c99\common\doprnt.c: 347:       
                                       strcpy(&dbuf[n], "inf");
  4623                           	movlw	low(((STR_3)|8000h))
  4624  00F8  301E               	movwf	(strcpy@src)
  4625  00F9  00F0               	movlw	high(((STR_3)|8000h))
  4626  00FA  3098               	movwf	((strcpy@src))+1
  4627  00FB  00F1               	movlb 1	; select bank1
  4628  00FC  0141               	movf	(efgtoa@n)^080h,w
  4629  00FD  0853               	addlw	low(_dbuf|((0x1)<<8))&0ffh
  4630  00FE  3EA0               	fcall	_strcpy
  4631  00FF  319E  2690  3180   	goto	l3171
  4632  0102  2903               	line	348
  4633                           ;C:\Program Files (x86)\Microchip\xc8\v2.00\pic\sources\c99\common\doprnt.c: 348:       
                                   }
  4634                           	
  4635                           l154:	
  4636  0103                     	line	349
  4637                           	
  4638                           l3171:	
  4639  0103                     ;C:\Program Files (x86)\Microchip\xc8\v2.00\pic\sources\c99\common\doprnt.c: 349:       
                                   w -= ((sizeof("inf")/sizeof("inf"[0]))-1);
  4640                           	movlw	0FDh
  4641  0103  30FD               	movlb 1	; select bank1
  4642  0104  0141               	addwf	(efgtoa@w)^080h,f
  4643  0105  07C0               	movlw	0FFh
  4644  0106  30FF               	addwfc	(efgtoa@w+1)^080h,f
  4645  0107  3DC1               	line	350
  4646                           	
  4647                           l3173:	
  4648  0108                     ;C:\Program Files (x86)\Microchip\xc8\v2.00\pic\sources\c99\common\doprnt.c: 350:       
                                   return pad(fp, &dbuf[0], w);
  4649                           	movlw	(low(_dbuf|((0x1)<<8)))&0ffh
  4650  0108  30A0               	movlb 0	; select bank0
  4651  0109  0140               	movwf	(??_efgtoa+0)+0
  4652  010A  00CA               	movf	(??_efgtoa+0)+0,w
  4653  010B  084A               	movwf	(pad@buf)
  4654  010C  00A4               	movlb 1	; select bank1
  4655  010D  0141               	movf	(efgtoa@w+1)^080h,w
  4656  010E  0841               	movlb 0	; select bank0
  4657  010F  0140               	movwf	(pad@p+1)
  4658  0110  00A6               	movlb 1	; select bank1
  4659  0111  0141               	movf	(efgtoa@w)^080h,w
  4660  0112  0840               	movlb 0	; select bank0
  4661  0113  0140               	movwf	(pad@p)
  4662  0114  00A5               	movlb 1	; select bank1
  4663  0115  0141               	movf	(efgtoa@fp)^080h,w
  4664  0116  083C               	fcall	_pad
  4665  0117  3191  215E  3180   	movlb 0	; select bank0
  4666  011A  0140               	movf	(1+(?_pad)),w
  4667  011B  0825               	movwf	(?_efgtoa+1)
  4668  011C  00C6               	movf	(0+(?_pad)),w
  4669  011D  0824               	movwf	(?_efgtoa)
  4670  011E  00C5               	goto	l155
  4671  011F  2F60               	
  4672                           l3175:	
  4673  0120                     	goto	l155
  4674  0120  2F60               	line	351
  4675                           ;C:\Program Files (x86)\Microchip\xc8\v2.00\pic\sources\c99\common\doprnt.c: 351:     }

  4676                           	
  4677                           l148:	
  4678  0121                     	line	352
  4679                           	
  4680                           l3177:	
  4681  0121                     ;C:\Program Files (x86)\Microchip\xc8\v2.00\pic\sources\c99\common\doprnt.c: 353:       
                                   if ((0 ? isupper((int)c) : ((unsigned)((int)c)-'A') < 26)) {
  4682                           	movlb 1	; select bank1
  4683  0121  0141               	movf	(efgtoa@g+3)^080h,w
  4684  0122  0850               	movwf	(___fpclassifyf@x+3)
  4685  0123  00F3               	movf	(efgtoa@g+2)^080h,w
  4686  0124  084F               	movwf	(___fpclassifyf@x+2)
  4687  0125  00F2               	movf	(efgtoa@g+1)^080h,w
  4688  0126  084E               	movwf	(___fpclassifyf@x+1)
  4689  0127  00F1               	movf	(efgtoa@g)^080h,w
  4690  0128  084D               	movwf	(___fpclassifyf@x)
  4691  0129  00F0               
  4692                           	fcall	___fpclassifyf
  4693  012A  3192  228B  3180   	movf	((0+(?___fpclassifyf))),w
  4694  012D  0870               iorwf	((1+(?___fpclassifyf))),w
  4695  012E  0471               	btfss	status,2
  4696  012F  1D03               	goto	u4621
  4697  0130  2932               	goto	u4620
  4698  0131  2933               u4621:
  4699  0132                     	goto	l3195
  4700  0132  299A               u4620:
  4701  0133                     	line	353
  4702                           	
  4703                           l3179:	
  4704  0133                     	movlb 0	; select bank0
  4705  0133  0140               	movf	(efgtoa@c),w
  4706  0134  0849               	addlw	low(0FFBFh)
  4707  0135  3EBF               	movwf	(??_efgtoa+0)+0
  4708  0136  00CA               	movlw	high(0FFBFh)
  4709  0137  30FF               	skipnc
  4710  0138  1803               	movlw	(high(0FFBFh)+1)&0ffh
  4711  0139  3000               	movwf	((??_efgtoa+0)+0)+1
  4712  013A  00CB               	movlw	0
  4713  013B  3000               	subwf	1+(??_efgtoa+0)+0,w
  4714  013C  024B               	movlw	01Ah
  4715  013D  301A               	skipnz
  4716  013E  1903               	subwf	0+(??_efgtoa+0)+0,w
  4717  013F  024A               	skipc
  4718  0140  1C03               	goto	u4631
  4719  0141  2943               	goto	u4630
  4720  0142  2945               u4631:
  4721  0143                     	movlw	1
  4722  0143  3001               	goto	u4640
  4723  0144  2946               u4630:
  4724  0145                     	movlw	0
  4725  0145  3000               u4640:
  4726  0146                     	movwf	(??_efgtoa+2)+0
  4727  0146  00CC               	clrf	(??_efgtoa+2)+0+1
  4728  0147  01CD               	movf	0+(??_efgtoa+2)+0,w
  4729  0148  084C               	movlb 1	; select bank1
  4730  0149  0141               	movwf	(_efgtoa$258)^080h
  4731  014A  00A8               	movlb 0	; select bank0
  4732  014B  0140               	movf	1+(??_efgtoa+2)+0,w
  4733  014C  084D               	movlb 1	; select bank1
  4734  014D  0141               	movwf	(_efgtoa$258+1)^080h
  4735  014E  00A9               	goto	l3183
  4736  014F  2961               	
  4737                           l159:	
  4738  0150                     	
  4739                           l3181:	
  4740  0150                     	movlb 0	; select bank0
  4741  0150  0140               	movf	(efgtoa@c),w
  4742  0151  0849               	movwf	(??_efgtoa+0)+0
  4743  0152  00CA               	clrf	(??_efgtoa+0)+0+1
  4744  0153  01CB               	movf	0+(??_efgtoa+0)+0,w
  4745  0154  084A               	movwf	(isupper@c)
  4746  0155  00F0               	movf	1+(??_efgtoa+0)+0,w
  4747  0156  084B               	movwf	(isupper@c+1)
  4748  0157  00F1               	fcall	_isupper
  4749  0158  3188  2000  3180   	movf	(1+(?_isupper)),w
  4750  015B  0871               	movlb 1	; select bank1
  4751  015C  0141               	movwf	(_efgtoa$258+1)^080h
  4752  015D  00A9               	movf	(0+(?_isupper)),w
  4753  015E  0870               	movwf	(_efgtoa$258)^080h
  4754  015F  00A8               	goto	l3183
  4755  0160  2961               	
  4756                           l161:	
  4757  0161                     	
  4758                           l3183:	
  4759  0161                     	movf	((_efgtoa$258)^080h),w
  4760  0161  0828               iorwf	((_efgtoa$258+1)^080h),w
  4761  0162  0429               	btfsc	status,2
  4762  0163  1903               	goto	u4651
  4763  0164  2966               	goto	u4650
  4764  0165  2967               u4651:
  4765  0166                     	goto	l3187
  4766  0166  2971               u4650:
  4767  0167                     	line	354
  4768                           	
  4769                           l3185:	
  4770  0167                     ;C:\Program Files (x86)\Microchip\xc8\v2.00\pic\sources\c99\common\doprnt.c: 354:       
                                       strcpy(&dbuf[n], "NAN");
  4771                           	movlw	low(((STR_6)|8000h))
  4772  0167  301A               	movwf	(strcpy@src)
  4773  0168  00F0               	movlw	high(((STR_6)|8000h))
  4774  0169  3098               	movwf	((strcpy@src))+1
  4775  016A  00F1               	movf	(efgtoa@n)^080h,w
  4776  016B  0853               	addlw	low(_dbuf|((0x1)<<8))&0ffh
  4777  016C  3EA0               	fcall	_strcpy
  4778  016D  319E  2690  3180   	line	355
  4779                           ;C:\Program Files (x86)\Microchip\xc8\v2.00\pic\sources\c99\common\doprnt.c: 355:       
                                   } else {
  4780                           	goto	l3189
  4781  0170  297C               	
  4782                           l157:	
  4783  0171                     	line	356
  4784                           	
  4785                           l3187:	
  4786  0171                     ;C:\Program Files (x86)\Microchip\xc8\v2.00\pic\sources\c99\common\doprnt.c: 356:       
                                       strcpy(&dbuf[n], "nan");
  4787                           	movlw	low(((STR_7)|8000h))
  4788  0171  3022               	movwf	(strcpy@src)
  4789  0172  00F0               	movlw	high(((STR_7)|8000h))
  4790  0173  3098               	movwf	((strcpy@src))+1
  4791  0174  00F1               	movlb 1	; select bank1
  4792  0175  0141               	movf	(efgtoa@n)^080h,w
  4793  0176  0853               	addlw	low(_dbuf|((0x1)<<8))&0ffh
  4794  0177  3EA0               	fcall	_strcpy
  4795  0178  319E  2690  3180   	goto	l3189
  4796  017B  297C               	line	357
  4797                           ;C:\Program Files (x86)\Microchip\xc8\v2.00\pic\sources\c99\common\doprnt.c: 357:       
                                   }
  4798                           	
  4799                           l162:	
  4800  017C                     	line	358
  4801                           	
  4802                           l3189:	
  4803  017C                     ;C:\Program Files (x86)\Microchip\xc8\v2.00\pic\sources\c99\common\doprnt.c: 358:       
                                   w -= ((sizeof("inf")/sizeof("inf"[0]))-1);
  4804                           	movlw	0FDh
  4805  017C  30FD               	movlb 1	; select bank1
  4806  017D  0141               	addwf	(efgtoa@w)^080h,f
  4807  017E  07C0               	movlw	0FFh
  4808  017F  30FF               	addwfc	(efgtoa@w+1)^080h,f
  4809  0180  3DC1               	line	359
  4810                           	
  4811                           l3191:	
  4812  0181                     ;C:\Program Files (x86)\Microchip\xc8\v2.00\pic\sources\c99\common\doprnt.c: 359:       
                                   return pad(fp, &dbuf[0], w);
  4813                           	movlw	(low(_dbuf|((0x1)<<8)))&0ffh
  4814  0181  30A0               	movlb 0	; select bank0
  4815  0182  0140               	movwf	(??_efgtoa+0)+0
  4816  0183  00CA               	movf	(??_efgtoa+0)+0,w
  4817  0184  084A               	movwf	(pad@buf)
  4818  0185  00A4               	movlb 1	; select bank1
  4819  0186  0141               	movf	(efgtoa@w+1)^080h,w
  4820  0187  0841               	movlb 0	; select bank0
  4821  0188  0140               	movwf	(pad@p+1)
  4822  0189  00A6               	movlb 1	; select bank1
  4823  018A  0141               	movf	(efgtoa@w)^080h,w
  4824  018B  0840               	movlb 0	; select bank0
  4825  018C  0140               	movwf	(pad@p)
  4826  018D  00A5               	movlb 1	; select bank1
  4827  018E  0141               	movf	(efgtoa@fp)^080h,w
  4828  018F  083C               	fcall	_pad
  4829  0190  3191  215E  3180   	movlb 0	; select bank0
  4830  0193  0140               	movf	(1+(?_pad)),w
  4831  0194  0825               	movwf	(?_efgtoa+1)
  4832  0195  00C6               	movf	(0+(?_pad)),w
  4833  0196  0824               	movwf	(?_efgtoa)
  4834  0197  00C5               	goto	l155
  4835  0198  2F60               	
  4836                           l3193:	
  4837  0199                     	goto	l155
  4838  0199  2F60               	line	360
  4839                           ;C:\Program Files (x86)\Microchip\xc8\v2.00\pic\sources\c99\common\doprnt.c: 360:     }

  4840                           	
  4841                           l156:	
  4842  019A                     	line	363
  4843                           	
  4844                           l3195:	
  4845  019A                     ;C:\Program Files (x86)\Microchip\xc8\v2.00\pic\sources\c99\common\doprnt.c: 363:     u 
                                 = 1.0;
  4846                           	movlw	0x3f
  4847  019A  303F               	movlb 1	; select bank1
  4848  019B  0141               	movwf	(efgtoa@u+3)^080h
  4849  019C  00D8               	movlw	0x80
  4850  019D  3080               	movwf	(efgtoa@u+2)^080h
  4851  019E  00D7               	movlw	0x0
  4852  019F  3000               	movwf	(efgtoa@u+1)^080h
  4853  01A0  00D6               	movlw	0x0
  4854  01A1  3000               	movwf	(efgtoa@u)^080h
  4855  01A2  00D5               
  4856                           	line	364
  4857                           	
  4858                           l3197:	
  4859  01A3                     ;C:\Program Files (x86)\Microchip\xc8\v2.00\pic\sources\c99\common\doprnt.c: 364:     e 
                                 = 0;
  4860                           	clrf	(efgtoa@e)^080h
  4861  01A3  01D1               	clrf	(efgtoa@e+1)^080h
  4862  01A4  01D2               	line	365
  4863                           	
  4864                           l3199:	
  4865  01A5                     ;C:\Program Files (x86)\Microchip\xc8\v2.00\pic\sources\c99\common\doprnt.c: 365:     if
                                  (!(g == 0.0)) {
  4866                           	movf	(efgtoa@g+3)^080h,w
  4867  01A5  0850               	movwf	(___fleq@ff1+3)
  4868  01A6  00F3               	movf	(efgtoa@g+2)^080h,w
  4869  01A7  084F               	movwf	(___fleq@ff1+2)
  4870  01A8  00F2               	movf	(efgtoa@g+1)^080h,w
  4871  01A9  084E               	movwf	(___fleq@ff1+1)
  4872  01AA  00F1               	movf	(efgtoa@g)^080h,w
  4873  01AB  084D               	movwf	(___fleq@ff1)
  4874  01AC  00F0               
  4875                           	movlw	0x0
  4876  01AD  3000               	movwf	(___fleq@ff2+3)
  4877  01AE  00F7               	movlw	0x0
  4878  01AF  3000               	movwf	(___fleq@ff2+2)
  4879  01B0  00F6               	movlw	0x0
  4880  01B1  3000               	movwf	(___fleq@ff2+1)
  4881  01B2  00F5               	movlw	0x0
  4882  01B3  3000               	movwf	(___fleq@ff2)
  4883  01B4  00F4               
  4884                           	fcall	___fleq
  4885  01B5  3190  205C  3180   	btfsc	status,0
  4886  01B8  1803               	goto	u4661
  4887  01B9  29BB               	goto	u4660
  4888  01BA  29BC               u4661:
  4889  01BB                     	goto	l3215
  4890  01BB  2A77               u4660:
  4891  01BC                     	goto	l3207
  4892  01BC  29EF               	line	366
  4893                           	
  4894                           l3201:	
  4895  01BD                     ;C:\Program Files (x86)\Microchip\xc8\v2.00\pic\sources\c99\common\doprnt.c: 366:       
                                   while (!(g < (u*10.0))) {
  4896                           	goto	l3207
  4897  01BD  29EF               	
  4898                           l165:	
  4899  01BE                     	line	367
  4900                           	
  4901                           l3203:	
  4902  01BE                     ;C:\Program Files (x86)\Microchip\xc8\v2.00\pic\sources\c99\common\doprnt.c: 367:       
                                       u = u*10.0;
  4903                           	movlw	0x41
  4904  01BE  3041               	movlb 0	; select bank0
  4905  01BF  0140               	movwf	(___flmul@b+3)
  4906  01C0  00A3               	movlw	0x20
  4907  01C1  3020               	movwf	(___flmul@b+2)
  4908  01C2  00A2               	movlw	0x0
  4909  01C3  3000               	movwf	(___flmul@b+1)
  4910  01C4  00A1               	movlw	0x0
  4911  01C5  3000               	movwf	(___flmul@b)
  4912  01C6  00A0               
  4913                           	movlb 1	; select bank1
  4914  01C7  0141               	movf	(efgtoa@u+3)^080h,w
  4915  01C8  0858               	movlb 0	; select bank0
  4916  01C9  0140               	movwf	(___flmul@a+3)
  4917  01CA  00A7               	movlb 1	; select bank1
  4918  01CB  0141               	movf	(efgtoa@u+2)^080h,w
  4919  01CC  0857               	movlb 0	; select bank0
  4920  01CD  0140               	movwf	(___flmul@a+2)
  4921  01CE  00A6               	movlb 1	; select bank1
  4922  01CF  0141               	movf	(efgtoa@u+1)^080h,w
  4923  01D0  0856               	movlb 0	; select bank0
  4924  01D1  0140               	movwf	(___flmul@a+1)
  4925  01D2  00A5               	movlb 1	; select bank1
  4926  01D3  0141               	movf	(efgtoa@u)^080h,w
  4927  01D4  0855               	movlb 0	; select bank0
  4928  01D5  0140               	movwf	(___flmul@a)
  4929  01D6  00A4               
  4930                           	fcall	___flmul
  4931  01D7  3195  2595  3180   	movlb 0	; select bank0
  4932  01DA  0140               	movf	(3+(?___flmul)),w
  4933  01DB  0823               	movlb 1	; select bank1
  4934  01DC  0141               	movwf	(efgtoa@u+3)^080h
  4935  01DD  00D8               	movlb 0	; select bank0
  4936  01DE  0140               	movf	(2+(?___flmul)),w
  4937  01DF  0822               	movlb 1	; select bank1
  4938  01E0  0141               	movwf	(efgtoa@u+2)^080h
  4939  01E1  00D7               	movlb 0	; select bank0
  4940  01E2  0140               	movf	(1+(?___flmul)),w
  4941  01E3  0821               	movlb 1	; select bank1
  4942  01E4  0141               	movwf	(efgtoa@u+1)^080h
  4943  01E5  00D6               	movlb 0	; select bank0
  4944  01E6  0140               	movf	(0+(?___flmul)),w
  4945  01E7  0820               	movlb 1	; select bank1
  4946  01E8  0141               	movwf	(efgtoa@u)^080h
  4947  01E9  00D5               
  4948                           	line	368
  4949                           	
  4950                           l3205:	
  4951  01EA                     ;C:\Program Files (x86)\Microchip\xc8\v2.00\pic\sources\c99\common\doprnt.c: 368:       
                                       ++e;
  4952                           	movlw	01h
  4953  01EA  3001               	addwf	(efgtoa@e)^080h,f
  4954  01EB  07D1               	movlw	0
  4955  01EC  3000               	addwfc	(efgtoa@e+1)^080h,f
  4956  01ED  3DD2               	goto	l3207
  4957  01EE  29EF               	line	369
  4958                           ;C:\Program Files (x86)\Microchip\xc8\v2.00\pic\sources\c99\common\doprnt.c: 369:       
                                   }
  4959                           	
  4960                           l164:	
  4961  01EF                     	line	366
  4962                           	
  4963                           l3207:	
  4964  01EF                     ;C:\Program Files (x86)\Microchip\xc8\v2.00\pic\sources\c99\common\doprnt.c: 366:       
                                   while (!(g < (u*10.0))) {
  4965                           	movlb 1	; select bank1
  4966  01EF  0141               	movf	(efgtoa@g+3)^080h,w
  4967  01F0  0850               	movlb 0	; select bank0
  4968  01F1  0140               	movwf	(___flge@ff1+3)
  4969  01F2  00B8               	movlb 1	; select bank1
  4970  01F3  0141               	movf	(efgtoa@g+2)^080h,w
  4971  01F4  084F               	movlb 0	; select bank0
  4972  01F5  0140               	movwf	(___flge@ff1+2)
  4973  01F6  00B7               	movlb 1	; select bank1
  4974  01F7  0141               	movf	(efgtoa@g+1)^080h,w
  4975  01F8  084E               	movlb 0	; select bank0
  4976  01F9  0140               	movwf	(___flge@ff1+1)
  4977  01FA  00B6               	movlb 1	; select bank1
  4978  01FB  0141               	movf	(efgtoa@g)^080h,w
  4979  01FC  084D               	movlb 0	; select bank0
  4980  01FD  0140               	movwf	(___flge@ff1)
  4981  01FE  00B5               
  4982                           	movlw	0x41
  4983  01FF  3041               	movwf	(___flmul@b+3)
  4984  0200  00A3               	movlw	0x20
  4985  0201  3020               	movwf	(___flmul@b+2)
  4986  0202  00A2               	movlw	0x0
  4987  0203  3000               	movwf	(___flmul@b+1)
  4988  0204  00A1               	movlw	0x0
  4989  0205  3000               	movwf	(___flmul@b)
  4990  0206  00A0               
  4991                           	movlb 1	; select bank1
  4992  0207  0141               	movf	(efgtoa@u+3)^080h,w
  4993  0208  0858               	movlb 0	; select bank0
  4994  0209  0140               	movwf	(___flmul@a+3)
  4995  020A  00A7               	movlb 1	; select bank1
  4996  020B  0141               	movf	(efgtoa@u+2)^080h,w
  4997  020C  0857               	movlb 0	; select bank0
  4998  020D  0140               	movwf	(___flmul@a+2)
  4999  020E  00A6               	movlb 1	; select bank1
  5000  020F  0141               	movf	(efgtoa@u+1)^080h,w
  5001  0210  0856               	movlb 0	; select bank0
  5002  0211  0140               	movwf	(___flmul@a+1)
  5003  0212  00A5               	movlb 1	; select bank1
  5004  0213  0141               	movf	(efgtoa@u)^080h,w
  5005  0214  0855               	movlb 0	; select bank0
  5006  0215  0140               	movwf	(___flmul@a)
  5007  0216  00A4               
  5008                           	fcall	___flmul
  5009  0217  3195  2595  3180   	movlb 0	; select bank0
  5010  021A  0140               	movf	(3+(?___flmul)),w
  5011  021B  0823               	movwf	(___flge@ff2+3)
  5012  021C  00BC               	movf	(2+(?___flmul)),w
  5013  021D  0822               	movwf	(___flge@ff2+2)
  5014  021E  00BB               	movf	(1+(?___flmul)),w
  5015  021F  0821               	movwf	(___flge@ff2+1)
  5016  0220  00BA               	movf	(0+(?___flmul)),w
  5017  0221  0820               	movwf	(___flge@ff2)
  5018  0222  00B9               
  5019                           	fcall	___flge
  5020  0223  3193  230E  3180   	btfsc	status,0
  5021  0226  1803               	goto	u4671
  5022  0227  2A29               	goto	u4670
  5023  0228  2A2A               u4671:
  5024  0229                     	goto	l3203
  5025  0229  29BE               u4670:
  5026  022A                     	goto	l3213
  5027  022A  2A4E               	
  5028                           l166:	
  5029  022B                     	line	370
  5030                           ;C:\Program Files (x86)\Microchip\xc8\v2.00\pic\sources\c99\common\doprnt.c: 370:       
                                   while (g < u) {
  5031                           	goto	l3213
  5032  022B  2A4E               	
  5033                           l168:	
  5034  022C                     	line	371
  5035                           	
  5036                           l3209:	
  5037  022C                     ;C:\Program Files (x86)\Microchip\xc8\v2.00\pic\sources\c99\common\doprnt.c: 371:       
                                       u = u/10.0;
  5038                           	movlw	0x41
  5039  022C  3041               	movwf	(___fldiv@a+3)
  5040  022D  00F3               	movlw	0x20
  5041  022E  3020               	movwf	(___fldiv@a+2)
  5042  022F  00F2               	movlw	0x0
  5043  0230  3000               	movwf	(___fldiv@a+1)
  5044  0231  00F1               	movlw	0x0
  5045  0232  3000               	movwf	(___fldiv@a)
  5046  0233  00F0               
  5047                           	movlb 1	; select bank1
  5048  0234  0141               	movf	(efgtoa@u+3)^080h,w
  5049  0235  0858               	movwf	(___fldiv@b+3)
  5050  0236  00F7               	movf	(efgtoa@u+2)^080h,w
  5051  0237  0857               	movwf	(___fldiv@b+2)
  5052  0238  00F6               	movf	(efgtoa@u+1)^080h,w
  5053  0239  0856               	movwf	(___fldiv@b+1)
  5054  023A  00F5               	movf	(efgtoa@u)^080h,w
  5055  023B  0855               	movwf	(___fldiv@b)
  5056  023C  00F4               
  5057                           	fcall	___fldiv
  5058  023D  3188  2019  3180   	movf	(3+(?___fldiv)),w
  5059  0240  0873               	movlb 1	; select bank1
  5060  0241  0141               	movwf	(efgtoa@u+3)^080h
  5061  0242  00D8               	movf	(2+(?___fldiv)),w
  5062  0243  0872               	movwf	(efgtoa@u+2)^080h
  5063  0244  00D7               	movf	(1+(?___fldiv)),w
  5064  0245  0871               	movwf	(efgtoa@u+1)^080h
  5065  0246  00D6               	movf	(0+(?___fldiv)),w
  5066  0247  0870               	movwf	(efgtoa@u)^080h
  5067  0248  00D5               
  5068                           	line	372
  5069                           	
  5070                           l3211:	
  5071  0249                     ;C:\Program Files (x86)\Microchip\xc8\v2.00\pic\sources\c99\common\doprnt.c: 372:       
                                       --e;
  5072                           	movlw	0FFh
  5073  0249  30FF               	addwf	(efgtoa@e)^080h,f
  5074  024A  07D1               	movlw	0FFh
  5075  024B  30FF               	addwfc	(efgtoa@e+1)^080h,f
  5076  024C  3DD2               	goto	l3213
  5077  024D  2A4E               	line	373
  5078                           ;C:\Program Files (x86)\Microchip\xc8\v2.00\pic\sources\c99\common\doprnt.c: 373:       
                                   }
  5079                           	
  5080                           l167:	
  5081  024E                     	line	370
  5082                           	
  5083                           l3213:	
  5084  024E                     ;C:\Program Files (x86)\Microchip\xc8\v2.00\pic\sources\c99\common\doprnt.c: 370:       
                                   while (g < u) {
  5085                           	movlb 1	; select bank1
  5086  024E  0141               	movf	(efgtoa@g+3)^080h,w
  5087  024F  0850               	movlb 0	; select bank0
  5088  0250  0140               	movwf	(___flge@ff1+3)
  5089  0251  00B8               	movlb 1	; select bank1
  5090  0252  0141               	movf	(efgtoa@g+2)^080h,w
  5091  0253  084F               	movlb 0	; select bank0
  5092  0254  0140               	movwf	(___flge@ff1+2)
  5093  0255  00B7               	movlb 1	; select bank1
  5094  0256  0141               	movf	(efgtoa@g+1)^080h,w
  5095  0257  084E               	movlb 0	; select bank0
  5096  0258  0140               	movwf	(___flge@ff1+1)
  5097  0259  00B6               	movlb 1	; select bank1
  5098  025A  0141               	movf	(efgtoa@g)^080h,w
  5099  025B  084D               	movlb 0	; select bank0
  5100  025C  0140               	movwf	(___flge@ff1)
  5101  025D  00B5               
  5102                           	movlb 1	; select bank1
  5103  025E  0141               	movf	(efgtoa@u+3)^080h,w
  5104  025F  0858               	movlb 0	; select bank0
  5105  0260  0140               	movwf	(___flge@ff2+3)
  5106  0261  00BC               	movlb 1	; select bank1
  5107  0262  0141               	movf	(efgtoa@u+2)^080h,w
  5108  0263  0857               	movlb 0	; select bank0
  5109  0264  0140               	movwf	(___flge@ff2+2)
  5110  0265  00BB               	movlb 1	; select bank1
  5111  0266  0141               	movf	(efgtoa@u+1)^080h,w
  5112  0267  0856               	movlb 0	; select bank0
  5113  0268  0140               	movwf	(___flge@ff2+1)
  5114  0269  00BA               	movlb 1	; select bank1
  5115  026A  0141               	movf	(efgtoa@u)^080h,w
  5116  026B  0855               	movlb 0	; select bank0
  5117  026C  0140               	movwf	(___flge@ff2)
  5118  026D  00B9               
  5119                           	fcall	___flge
  5120  026E  3193  230E  3180   	btfss	status,0
  5121  0271  1C03               	goto	u4681
  5122  0272  2A74               	goto	u4680
  5123  0273  2A75               u4681:
  5124  0274                     	goto	l3209
  5125  0274  2A2C               u4680:
  5126  0275                     	goto	l3215
  5127  0275  2A77               	
  5128                           l169:	
  5129  0276                     	goto	l3215
  5130  0276  2A77               	line	374
  5131                           ;C:\Program Files (x86)\Microchip\xc8\v2.00\pic\sources\c99\common\doprnt.c: 374:     }

  5132                           	
  5133                           l163:	
  5134  0277                     	line	377
  5135                           	
  5136                           l3215:	
  5137  0277                     ;C:\Program Files (x86)\Microchip\xc8\v2.00\pic\sources\c99\common\doprnt.c: 377:     mo
                                 de = tolower((int)c);
  5138                           	movlb 0	; select bank0
  5139  0277  0140               	movf	(efgtoa@c),w
  5140  0278  0849               	movwf	(??_efgtoa+0)+0
  5141  0279  00CA               	clrf	(??_efgtoa+0)+0+1
  5142  027A  01CB               	movf	0+(??_efgtoa+0)+0,w
  5143  027B  084A               	movwf	(tolower@c)
  5144  027C  00F6               	movf	1+(??_efgtoa+0)+0,w
  5145  027D  084B               	movwf	(tolower@c+1)
  5146  027E  00F7               	fcall	_tolower
  5147  027F  319F  272F  3180   	movf	(0+(?_tolower)),w
  5148  0282  0876               	movlb 0	; select bank0
  5149  0283  0140               	movwf	(??_efgtoa+2)+0
  5150  0284  00CC               	movf	(??_efgtoa+2)+0,w
  5151  0285  084C               	movlb 1	; select bank1
  5152  0286  0141               	movwf	(efgtoa@mode)^080h
  5153  0287  00C2               	line	378
  5154                           	
  5155                           l3217:	
  5156  0288                     ;C:\Program Files (x86)\Microchip\xc8\v2.00\pic\sources\c99\common\doprnt.c: 378:     nm
                                 ode = mode;
  5157                           	movf	(efgtoa@mode)^080h,w
  5158  0288  0842               	movlb 0	; select bank0
  5159  0289  0140               	movwf	(??_efgtoa+0)+0
  5160  028A  00CA               	movf	(??_efgtoa+0)+0,w
  5161  028B  084A               	movlb 1	; select bank1
  5162  028C  0141               	movwf	(efgtoa@nmode)^080h
  5163  028D  00BF               	line	379
  5164                           	
  5165                           l3219:	
  5166  028E                     ;C:\Program Files (x86)\Microchip\xc8\v2.00\pic\sources\c99\common\doprnt.c: 379:     if
                                  (mode == 'g') {
  5167                           		movlw	103
  5168  028E  3067               	xorwf	((efgtoa@mode)^080h),w
  5169  028F  0642               	btfss	status,2
  5170  0290  1D03               	goto	u4691
  5171  0291  2A93               	goto	u4690
  5172  0292  2A94               u4691:
  5173  0293                     	goto	l170
  5174  0293  2ABE               u4690:
  5175  0294                     	line	380
  5176                           	
  5177                           l3221:	
  5178  0294                     ;C:\Program Files (x86)\Microchip\xc8\v2.00\pic\sources\c99\common\doprnt.c: 380:   if (
                                 prec == 0) {
  5179                           	movlb 2	; select bank2
  5180  0294  0142               	movf	((_prec)^0100h),w
  5181  0295  083C               iorwf	((_prec+1)^0100h),w
  5182  0296  043D               	btfss	status,2
  5183  0297  1D03               	goto	u4701
  5184  0298  2A9A               	goto	u4700
  5185  0299  2A9B               u4701:
  5186  029A                     	goto	l171
  5187  029A  2A9F               u4700:
  5188  029B                     	line	381
  5189                           	
  5190                           l3223:	
  5191  029B                     ;C:\Program Files (x86)\Microchip\xc8\v2.00\pic\sources\c99\common\doprnt.c: 381:    pre
                                 c = 1;
  5192                           	movlw	01h
  5193  029B  3001               	movwf	(_prec)^0100h
  5194  029C  00BC               	movlw	0
  5195  029D  3000               	movwf	((_prec)^0100h)+1
  5196  029E  00BD               	line	382
  5197                           ;C:\Program Files (x86)\Microchip\xc8\v2.00\pic\sources\c99\common\doprnt.c: 382:   }
  5198                           	
  5199                           l171:	
  5200  029F                     	line	383
  5201                           ;C:\Program Files (x86)\Microchip\xc8\v2.00\pic\sources\c99\common\doprnt.c: 383:       
                                   p = (0 < prec) ? prec : 6;
  5202                           	movf	(_prec+1)^0100h,w
  5203  029F  083D               	xorlw	80h
  5204  02A0  3A80               	movlb 0	; select bank0
  5205  02A1  0140               	movwf	(??_efgtoa+0)+0
  5206  02A2  00CA               	movlw	(0)^80h
  5207  02A3  3080               	subwf	(??_efgtoa+0)+0,w
  5208  02A4  024A               	skipz
  5209  02A5  1D03               	goto	u4715
  5210  02A6  2AAA               	movlw	01h
  5211  02A7  3001               	movlb 2	; select bank2
  5212  02A8  0142               	subwf	(_prec)^0100h,w
  5213  02A9  023C               u4715:
  5214  02AA                     
  5215                           	skipnc
  5216  02AA  1803               	goto	u4711
  5217  02AB  2AAD               	goto	u4710
  5218  02AC  2AAE               u4711:
  5219  02AD                     	goto	l3227
  5220  02AD  2AB4               u4710:
  5221  02AE                     	
  5222                           l3225:	
  5223  02AE                     	movlw	06h
  5224  02AE  3006               	movlb 1	; select bank1
  5225  02AF  0141               	movwf	(efgtoa@p)^080h
  5226  02B0  00BD               	movlw	0
  5227  02B1  3000               	movwf	((efgtoa@p)^080h)+1
  5228  02B2  00BE               	goto	l3233
  5229  02B3  2AD2               	
  5230                           l173:	
  5231  02B4                     	
  5232                           l3227:	
  5233  02B4                     	movlb 2	; select bank2
  5234  02B4  0142               	movf	(_prec+1)^0100h,w
  5235  02B5  083D               	movlb 1	; select bank1
  5236  02B6  0141               	movwf	(efgtoa@p+1)^080h
  5237  02B7  00BE               	movlb 2	; select bank2
  5238  02B8  0142               	movf	(_prec)^0100h,w
  5239  02B9  083C               	movlb 1	; select bank1
  5240  02BA  0141               	movwf	(efgtoa@p)^080h
  5241  02BB  00BD               	goto	l3233
  5242  02BC  2AD2               	
  5243                           l175:	
  5244  02BD                     	line	384
  5245                           ;C:\Program Files (x86)\Microchip\xc8\v2.00\pic\sources\c99\common\doprnt.c: 384:     } 
                                 else {
  5246                           	goto	l3233
  5247  02BD  2AD2               	
  5248                           l170:	
  5249  02BE                     	line	385
  5250                           ;C:\Program Files (x86)\Microchip\xc8\v2.00\pic\sources\c99\common\doprnt.c: 385:       
                                   p = (prec < 0) ? 6 : prec;
  5251                           	movlb 2	; select bank2
  5252  02BE  0142               	btfsc	(_prec+1)^0100h,7
  5253  02BF  1BBD               	goto	u4721
  5254  02C0  2AC2               	goto	u4720
  5255  02C1  2AC3               u4721:
  5256  02C2                     	goto	l3231
  5257  02C2  2ACB               u4720:
  5258  02C3                     	
  5259                           l3229:	
  5260  02C3                     	movf	(_prec+1)^0100h,w
  5261  02C3  083D               	movlb 1	; select bank1
  5262  02C4  0141               	movwf	(efgtoa@p+1)^080h
  5263  02C5  00BE               	movlb 2	; select bank2
  5264  02C6  0142               	movf	(_prec)^0100h,w
  5265  02C7  083C               	movlb 1	; select bank1
  5266  02C8  0141               	movwf	(efgtoa@p)^080h
  5267  02C9  00BD               	goto	l3233
  5268  02CA  2AD2               	
  5269                           l178:	
  5270  02CB                     	
  5271                           l3231:	
  5272  02CB                     	movlw	06h
  5273  02CB  3006               	movlb 1	; select bank1
  5274  02CC  0141               	movwf	(efgtoa@p)^080h
  5275  02CD  00BD               	movlw	0
  5276  02CE  3000               	movwf	((efgtoa@p)^080h)+1
  5277  02CF  00BE               	goto	l3233
  5278  02D0  2AD2               	
  5279                           l180:	
  5280  02D1                     	goto	l3233
  5281  02D1  2AD2               	line	386
  5282                           ;C:\Program Files (x86)\Microchip\xc8\v2.00\pic\sources\c99\common\doprnt.c: 386:     }

  5283                           	
  5284                           l176:	
  5285  02D2                     	line	389
  5286                           	
  5287                           l3233:	
  5288  02D2                     ;C:\Program Files (x86)\Microchip\xc8\v2.00\pic\sources\c99\common\doprnt.c: 389:     if
                                  (mode == 'g') {
  5289                           		movlw	103
  5290  02D2  3067               	xorwf	((efgtoa@mode)^080h),w
  5291  02D3  0642               	btfss	status,2
  5292  02D4  1D03               	goto	u4731
  5293  02D5  2AD7               	goto	u4730
  5294  02D6  2AD8               u4731:
  5295  02D7                     	goto	l181
  5296  02D7  2B11               u4730:
  5297  02D8                     	line	390
  5298                           	
  5299                           l3235:	
  5300  02D8                     ;C:\Program Files (x86)\Microchip\xc8\v2.00\pic\sources\c99\common\doprnt.c: 390:       
                                   if (!(e < -4) && !((p - 1) < e)) {
  5301                           	movf	(efgtoa@e+1)^080h,w
  5302  02D8  0852               	xorlw	80h
  5303  02D9  3A80               	movlb 0	; select bank0
  5304  02DA  0140               	movwf	(??_efgtoa+0)+0
  5305  02DB  00CA               	movlw	(0FFh)^80h
  5306  02DC  307F               	subwf	(??_efgtoa+0)+0,w
  5307  02DD  024A               	skipz
  5308  02DE  1D03               	goto	u4745
  5309  02DF  2AE3               	movlw	0FCh
  5310  02E0  30FC               	movlb 1	; select bank1
  5311  02E1  0141               	subwf	(efgtoa@e)^080h,w
  5312  02E2  0251               u4745:
  5313  02E3                     
  5314                           	skipc
  5315  02E3  1C03               	goto	u4741
  5316  02E4  2AE6               	goto	u4740
  5317  02E5  2AE7               u4741:
  5318  02E6                     	goto	l3241
  5319  02E6  2B0A               u4740:
  5320  02E7                     	
  5321                           l3237:	
  5322  02E7                     	movlb 1	; select bank1
  5323  02E7  0141               	movf	(efgtoa@p)^080h,w
  5324  02E8  083D               	addlw	0FFh
  5325  02E9  3EFF               	movlb 0	; select bank0
  5326  02EA  0140               	movwf	(??_efgtoa+0)+0
  5327  02EB  00CA               	movlw	0FFh
  5328  02EC  30FF               	movlb 1	; select bank1
  5329  02ED  0141               	addwfc	(efgtoa@p+1)^080h,w
  5330  02EE  3D3E               	movlb 0	; select bank0
  5331  02EF  0140               	movwf	1+(??_efgtoa+0)+0
  5332  02F0  00CB               	movf	1+(??_efgtoa+0)+0,w
  5333  02F1  084B               	xorlw	80h
  5334  02F2  3A80               	movwf	(??_efgtoa+2)+0
  5335  02F3  00CC               	movlb 1	; select bank1
  5336  02F4  0141               	movf	(efgtoa@e+1)^080h,w
  5337  02F5  0852               	xorlw	80h
  5338  02F6  3A80               	movlb 0	; select bank0
  5339  02F7  0140               	subwf	(??_efgtoa+2)+0,w
  5340  02F8  024C               	skipz
  5341  02F9  1D03               	goto	u4755
  5342  02FA  2AFF               	movlb 1	; select bank1
  5343  02FB  0141               	movf	(efgtoa@e)^080h,w
  5344  02FC  0851               	movlb 0	; select bank0
  5345  02FD  0140               	subwf	0+(??_efgtoa+0)+0,w
  5346  02FE  024A               u4755:
  5347  02FF                     
  5348                           	skipc
  5349  02FF  1C03               	goto	u4751
  5350  0300  2B02               	goto	u4750
  5351  0301  2B03               u4751:
  5352  0302                     	goto	l3241
  5353  0302  2B0A               u4750:
  5354  0303                     	line	391
  5355                           	
  5356                           l3239:	
  5357  0303                     ;C:\Program Files (x86)\Microchip\xc8\v2.00\pic\sources\c99\common\doprnt.c: 391:       
                                       nmode = 'f';
  5358                           	movlw	low(066h)
  5359  0303  3066               	movlb 0	; select bank0
  5360  0304  0140               	movwf	(??_efgtoa+0)+0
  5361  0305  00CA               	movf	(??_efgtoa+0)+0,w
  5362  0306  084A               	movlb 1	; select bank1
  5363  0307  0141               	movwf	(efgtoa@nmode)^080h
  5364  0308  00BF               	line	392
  5365                           ;C:\Program Files (x86)\Microchip\xc8\v2.00\pic\sources\c99\common\doprnt.c: 392:       
                                   } else {
  5366                           	goto	l181
  5367  0309  2B11               	
  5368                           l182:	
  5369  030A                     	line	393
  5370                           	
  5371                           l3241:	
  5372  030A                     ;C:\Program Files (x86)\Microchip\xc8\v2.00\pic\sources\c99\common\doprnt.c: 393:       
                                       nmode = 'e';
  5373                           	movlw	low(065h)
  5374  030A  3065               	movlb 0	; select bank0
  5375  030B  0140               	movwf	(??_efgtoa+0)+0
  5376  030C  00CA               	movf	(??_efgtoa+0)+0,w
  5377  030D  084A               	movlb 1	; select bank1
  5378  030E  0141               	movwf	(efgtoa@nmode)^080h
  5379  030F  00BF               	goto	l181
  5380  0310  2B11               	line	394
  5381                           ;C:\Program Files (x86)\Microchip\xc8\v2.00\pic\sources\c99\common\doprnt.c: 394:       
                                   }
  5382                           	
  5383                           l183:	
  5384  0311                     	line	395
  5385                           ;C:\Program Files (x86)\Microchip\xc8\v2.00\pic\sources\c99\common\doprnt.c: 395:     }

  5386                           	
  5387                           l181:	
  5388  0311                     	line	398
  5389                           ;C:\Program Files (x86)\Microchip\xc8\v2.00\pic\sources\c99\common\doprnt.c: 398:     m 
                                 = p;
  5390                           	movf	(efgtoa@p+1)^080h,w
  5391  0311  083E               	movwf	(efgtoa@m+1)^080h
  5392  0312  00B5               	movf	(efgtoa@p)^080h,w
  5393  0313  083D               	movwf	(efgtoa@m)^080h
  5394  0314  00B4               	line	399
  5395                           	
  5396                           l3243:	
  5397  0315                     ;C:\Program Files (x86)\Microchip\xc8\v2.00\pic\sources\c99\common\doprnt.c: 399:     if
                                  (!(mode == 'g') || ((nmode == 'f') && (e < 0))) {
  5398                           		movlw	103
  5399  0315  3067               	xorwf	((efgtoa@mode)^080h),w
  5400  0316  0642               	btfss	status,2
  5401  0317  1D03               	goto	u4761
  5402  0318  2B1A               	goto	u4760
  5403  0319  2B1B               u4761:
  5404  031A                     	goto	l3249
  5405  031A  2B26               u4760:
  5406  031B                     	
  5407                           l3245:	
  5408  031B                     		movlw	102
  5409  031B  3066               	xorwf	((efgtoa@nmode)^080h),w
  5410  031C  063F               	btfss	status,2
  5411  031D  1D03               	goto	u4771
  5412  031E  2B20               	goto	u4770
  5413  031F  2B21               u4771:
  5414  0320                     	goto	l3251
  5415  0320  2B2B               u4770:
  5416  0321                     	
  5417                           l3247:	
  5418  0321                     	btfss	(efgtoa@e+1)^080h,7
  5419  0321  1FD2               	goto	u4781
  5420  0322  2B24               	goto	u4780
  5421  0323  2B25               u4781:
  5422  0324                     	goto	l3251
  5423  0324  2B2B               u4780:
  5424  0325                     	goto	l3249
  5425  0325  2B26               	
  5426                           l186:	
  5427  0326                     	line	400
  5428                           	
  5429                           l3249:	
  5430  0326                     ;C:\Program Files (x86)\Microchip\xc8\v2.00\pic\sources\c99\common\doprnt.c: 400:       
                                   ++m;
  5431                           	movlw	01h
  5432  0326  3001               	addwf	(efgtoa@m)^080h,f
  5433  0327  07B4               	movlw	0
  5434  0328  3000               	addwfc	(efgtoa@m+1)^080h,f
  5435  0329  3DB5               	goto	l3251
  5436  032A  2B2B               	line	401
  5437                           ;C:\Program Files (x86)\Microchip\xc8\v2.00\pic\sources\c99\common\doprnt.c: 401:     }

  5438                           	
  5439                           l184:	
  5440  032B                     	line	404
  5441                           	
  5442                           l3251:	
  5443  032B                     ;C:\Program Files (x86)\Microchip\xc8\v2.00\pic\sources\c99\common\doprnt.c: 404:     if
                                  (nmode == 'f') {
  5444                           		movlw	102
  5445  032B  3066               	xorwf	((efgtoa@nmode)^080h),w
  5446  032C  063F               	btfss	status,2
  5447  032D  1D03               	goto	u4791
  5448  032E  2B30               	goto	u4790
  5449  032F  2B31               u4791:
  5450  0330                     	goto	l3263
  5451  0330  2B4C               u4790:
  5452  0331                     	line	405
  5453                           	
  5454                           l3253:	
  5455  0331                     ;C:\Program Files (x86)\Microchip\xc8\v2.00\pic\sources\c99\common\doprnt.c: 405:       
                                   if (e < 0) {
  5456                           	btfss	(efgtoa@e+1)^080h,7
  5457  0331  1FD2               	goto	u4801
  5458  0332  2B34               	goto	u4800
  5459  0333  2B35               u4801:
  5460  0334                     	goto	l3259
  5461  0334  2B40               u4800:
  5462  0335                     	line	406
  5463                           	
  5464                           l3255:	
  5465  0335                     ;C:\Program Files (x86)\Microchip\xc8\v2.00\pic\sources\c99\common\doprnt.c: 406:       
                                       u = 1.0;
  5466                           	movlw	0x3f
  5467  0335  303F               	movwf	(efgtoa@u+3)^080h
  5468  0336  00D8               	movlw	0x80
  5469  0337  3080               	movwf	(efgtoa@u+2)^080h
  5470  0338  00D7               	movlw	0x0
  5471  0339  3000               	movwf	(efgtoa@u+1)^080h
  5472  033A  00D6               	movlw	0x0
  5473  033B  3000               	movwf	(efgtoa@u)^080h
  5474  033C  00D5               
  5475                           	line	407
  5476                           	
  5477                           l3257:	
  5478  033D                     ;C:\Program Files (x86)\Microchip\xc8\v2.00\pic\sources\c99\common\doprnt.c: 407:       
                                       e = 0;
  5479                           	clrf	(efgtoa@e)^080h
  5480  033D  01D1               	clrf	(efgtoa@e+1)^080h
  5481  033E  01D2               	goto	l3259
  5482  033F  2B40               	line	408
  5483                           ;C:\Program Files (x86)\Microchip\xc8\v2.00\pic\sources\c99\common\doprnt.c: 408:       
                                   }
  5484                           	
  5485                           l188:	
  5486  0340                     	line	409
  5487                           	
  5488                           l3259:	
  5489  0340                     ;C:\Program Files (x86)\Microchip\xc8\v2.00\pic\sources\c99\common\doprnt.c: 409:       
                                   if (!(mode == 'g')) {
  5490                           		movlw	103
  5491  0340  3067               	xorwf	((efgtoa@mode)^080h),w
  5492  0341  0642               	btfsc	status,2
  5493  0342  1903               	goto	u4811
  5494  0343  2B45               	goto	u4810
  5495  0344  2B46               u4811:
  5496  0345                     	goto	l3263
  5497  0345  2B4C               u4810:
  5498  0346                     	line	410
  5499                           	
  5500                           l3261:	
  5501  0346                     ;C:\Program Files (x86)\Microchip\xc8\v2.00\pic\sources\c99\common\doprnt.c: 410:       
                                       m += e;
  5502                           	movf	(efgtoa@e)^080h,w
  5503  0346  0851               	addwf	(efgtoa@m)^080h,f
  5504  0347  07B4               	movf	(efgtoa@e+1)^080h,w
  5505  0348  0852               	addwfc	(efgtoa@m+1)^080h,f
  5506  0349  3DB5               	goto	l3263
  5507  034A  2B4C               	line	411
  5508                           ;C:\Program Files (x86)\Microchip\xc8\v2.00\pic\sources\c99\common\doprnt.c: 411:       
                                   }
  5509                           	
  5510                           l189:	
  5511  034B                     	goto	l3263
  5512  034B  2B4C               	line	412
  5513                           ;C:\Program Files (x86)\Microchip\xc8\v2.00\pic\sources\c99\common\doprnt.c: 412:     }

  5514                           	
  5515                           l187:	
  5516  034C                     	line	415
  5517                           	
  5518                           l3263:	
  5519  034C                     ;C:\Program Files (x86)\Microchip\xc8\v2.00\pic\sources\c99\common\doprnt.c: 415:     i 
                                 = 0;
  5520                           	clrf	(efgtoa@i)^080h
  5521  034C  01CB               	clrf	(efgtoa@i+1)^080h
  5522  034D  01CC               	line	416
  5523                           	
  5524                           l3265:	
  5525  034E                     ;C:\Program Files (x86)\Microchip\xc8\v2.00\pic\sources\c99\common\doprnt.c: 416:     h 
                                 = g;
  5526                           	movf	(efgtoa@g+3)^080h,w
  5527  034E  0850               	movwf	(efgtoa@h+3)^080h
  5528  034F  00C6               	movf	(efgtoa@g+2)^080h,w
  5529  0350  084F               	movwf	(efgtoa@h+2)^080h
  5530  0351  00C5               	movf	(efgtoa@g+1)^080h,w
  5531  0352  084E               	movwf	(efgtoa@h+1)^080h
  5532  0353  00C4               	movf	(efgtoa@g)^080h,w
  5533  0354  084D               	movwf	(efgtoa@h)^080h
  5534  0355  00C3               
  5535                           	line	417
  5536                           	
  5537                           l3267:	
  5538  0356                     ;C:\Program Files (x86)\Microchip\xc8\v2.00\pic\sources\c99\common\doprnt.c: 417:     ou
                                  = u;
  5539                           	movf	(efgtoa@u+3)^080h,w
  5540  0356  0858               	movwf	(efgtoa@ou+3)^080h
  5541  0357  00A3               	movf	(efgtoa@u+2)^080h,w
  5542  0358  0857               	movwf	(efgtoa@ou+2)^080h
  5543  0359  00A2               	movf	(efgtoa@u+1)^080h,w
  5544  035A  0856               	movwf	(efgtoa@ou+1)^080h
  5545  035B  00A1               	movf	(efgtoa@u)^080h,w
  5546  035C  0855               	movwf	(efgtoa@ou)^080h
  5547  035D  00A0               
  5548                           	line	418
  5549                           ;C:\Program Files (x86)\Microchip\xc8\v2.00\pic\sources\c99\common\doprnt.c: 418:     wh
                                 ile (i < m) {
  5550                           	goto	l3273
  5551  035E  2C0E               	
  5552                           l191:	
  5553  035F                     	line	419
  5554                           	
  5555                           l3269:	
  5556  035F                     ;C:\Program Files (x86)\Microchip\xc8\v2.00\pic\sources\c99\common\doprnt.c: 419:       
                                   l = floorf(h/u);
  5557                           	movlb 1	; select bank1
  5558  035F  0141               	movf	(efgtoa@u+3)^080h,w
  5559  0360  0858               	movwf	(___fldiv@a+3)
  5560  0361  00F3               	movf	(efgtoa@u+2)^080h,w
  5561  0362  0857               	movwf	(___fldiv@a+2)
  5562  0363  00F2               	movf	(efgtoa@u+1)^080h,w
  5563  0364  0856               	movwf	(___fldiv@a+1)
  5564  0365  00F1               	movf	(efgtoa@u)^080h,w
  5565  0366  0855               	movwf	(___fldiv@a)
  5566  0367  00F0               
  5567                           	movf	(efgtoa@h+3)^080h,w
  5568  0368  0846               	movwf	(___fldiv@b+3)
  5569  0369  00F7               	movf	(efgtoa@h+2)^080h,w
  5570  036A  0845               	movwf	(___fldiv@b+2)
  5571  036B  00F6               	movf	(efgtoa@h+1)^080h,w
  5572  036C  0844               	movwf	(___fldiv@b+1)
  5573  036D  00F5               	movf	(efgtoa@h)^080h,w
  5574  036E  0843               	movwf	(___fldiv@b)
  5575  036F  00F4               
  5576                           	fcall	___fldiv
  5577  0370  3188  2019  3180   	movf	(3+(?___fldiv)),w
  5578  0373  0873               	movlb 0	; select bank0
  5579  0374  0140               	movwf	(floorf@x+3)
  5580  0375  00B0               	movf	(2+(?___fldiv)),w
  5581  0376  0872               	movwf	(floorf@x+2)
  5582  0377  00AF               	movf	(1+(?___fldiv)),w
  5583  0378  0871               	movwf	(floorf@x+1)
  5584  0379  00AE               	movf	(0+(?___fldiv)),w
  5585  037A  0870               	movwf	(floorf@x)
  5586  037B  00AD               
  5587                           	fcall	_floorf
  5588  037C  3194  24A6  3180   	movlb 0	; select bank0
  5589  037F  0140               	movf	(3+(?_floorf)),w
  5590  0380  0830               	movlb 1	; select bank1
  5591  0381  0141               	movwf	(efgtoa@l+3)^080h
  5592  0382  00CA               	movlb 0	; select bank0
  5593  0383  0140               	movf	(2+(?_floorf)),w
  5594  0384  082F               	movlb 1	; select bank1
  5595  0385  0141               	movwf	(efgtoa@l+2)^080h
  5596  0386  00C9               	movlb 0	; select bank0
  5597  0387  0140               	movf	(1+(?_floorf)),w
  5598  0388  082E               	movlb 1	; select bank1
  5599  0389  0141               	movwf	(efgtoa@l+1)^080h
  5600  038A  00C8               	movlb 0	; select bank0
  5601  038B  0140               	movf	(0+(?_floorf)),w
  5602  038C  082D               	movlb 1	; select bank1
  5603  038D  0141               	movwf	(efgtoa@l)^080h
  5604  038E  00C7               
  5605                           	line	420
  5606                           ;C:\Program Files (x86)\Microchip\xc8\v2.00\pic\sources\c99\common\doprnt.c: 420:       
                                   d = (int)l;
  5607                           	movf	(efgtoa@l+3)^080h,w
  5608  038F  084A               	movwf	(___fltol@f1+3)
  5609  0390  00F3               	movf	(efgtoa@l+2)^080h,w
  5610  0391  0849               	movwf	(___fltol@f1+2)
  5611  0392  00F2               	movf	(efgtoa@l+1)^080h,w
  5612  0393  0848               	movwf	(___fltol@f1+1)
  5613  0394  00F1               	movf	(efgtoa@l)^080h,w
  5614  0395  0847               	movwf	(___fltol@f1)
  5615  0396  00F0               
  5616                           	fcall	___fltol
  5617  0397  3187  2761  3180   	movf	(1+(?___fltol)),w
  5618  039A  0871               	movlb 1	; select bank1
  5619  039B  0141               	movwf	(efgtoa@d+1)^080h
  5620  039C  00B9               	movf	(0+(?___fltol)),w
  5621  039D  0870               	movwf	(efgtoa@d)^080h
  5622  039E  00B8               	line	421
  5623                           ;C:\Program Files (x86)\Microchip\xc8\v2.00\pic\sources\c99\common\doprnt.c: 421:       
                                   h -= l*u;
  5624                           	movf	(efgtoa@l+3)^080h,w
  5625  039F  084A               	movlb 0	; select bank0
  5626  03A0  0140               	movwf	(___flmul@a+3)
  5627  03A1  00A7               	movlb 1	; select bank1
  5628  03A2  0141               	movf	(efgtoa@l+2)^080h,w
  5629  03A3  0849               	movlb 0	; select bank0
  5630  03A4  0140               	movwf	(___flmul@a+2)
  5631  03A5  00A6               	movlb 1	; select bank1
  5632  03A6  0141               	movf	(efgtoa@l+1)^080h,w
  5633  03A7  0848               	movlb 0	; select bank0
  5634  03A8  0140               	movwf	(___flmul@a+1)
  5635  03A9  00A5               	movlb 1	; select bank1
  5636  03AA  0141               	movf	(efgtoa@l)^080h,w
  5637  03AB  0847               	movlb 0	; select bank0
  5638  03AC  0140               	movwf	(___flmul@a)
  5639  03AD  00A4               
  5640                           	movlb 1	; select bank1
  5641  03AE  0141               	movf	(efgtoa@u+3)^080h,w
  5642  03AF  0858               	movlb 0	; select bank0
  5643  03B0  0140               	movwf	(___flmul@b+3)
  5644  03B1  00A3               	movlb 1	; select bank1
  5645  03B2  0141               	movf	(efgtoa@u+2)^080h,w
  5646  03B3  0857               	movlb 0	; select bank0
  5647  03B4  0140               	movwf	(___flmul@b+2)
  5648  03B5  00A2               	movlb 1	; select bank1
  5649  03B6  0141               	movf	(efgtoa@u+1)^080h,w
  5650  03B7  0856               	movlb 0	; select bank0
  5651  03B8  0140               	movwf	(___flmul@b+1)
  5652  03B9  00A1               	movlb 1	; select bank1
  5653  03BA  0141               	movf	(efgtoa@u)^080h,w
  5654  03BB  0855               	movlb 0	; select bank0
  5655  03BC  0140               	movwf	(___flmul@b)
  5656  03BD  00A0               
  5657                           	fcall	___flmul
  5658  03BE  3195  2595  3180   	movlb 0	; select bank0
  5659  03C1  0140               	movf	(3+(?___flmul)),w
  5660  03C2  0823               	movwf	(___flsub@a+3)
  5661  03C3  00B8               	movf	(2+(?___flmul)),w
  5662  03C4  0822               	movwf	(___flsub@a+2)
  5663  03C5  00B7               	movf	(1+(?___flmul)),w
  5664  03C6  0821               	movwf	(___flsub@a+1)
  5665  03C7  00B6               	movf	(0+(?___flmul)),w
  5666  03C8  0820               	movwf	(___flsub@a)
  5667  03C9  00B5               
  5668                           	movlb 1	; select bank1
  5669  03CA  0141               	movf	(efgtoa@h+3)^080h,w
  5670  03CB  0846               	movlb 0	; select bank0
  5671  03CC  0140               	movwf	(___flsub@b+3)
  5672  03CD  00BC               	movlb 1	; select bank1
  5673  03CE  0141               	movf	(efgtoa@h+2)^080h,w
  5674  03CF  0845               	movlb 0	; select bank0
  5675  03D0  0140               	movwf	(___flsub@b+2)
  5676  03D1  00BB               	movlb 1	; select bank1
  5677  03D2  0141               	movf	(efgtoa@h+1)^080h,w
  5678  03D3  0844               	movlb 0	; select bank0
  5679  03D4  0140               	movwf	(___flsub@b+1)
  5680  03D5  00BA               	movlb 1	; select bank1
  5681  03D6  0141               	movf	(efgtoa@h)^080h,w
  5682  03D7  0843               	movlb 0	; select bank0
  5683  03D8  0140               	movwf	(___flsub@b)
  5684  03D9  00B9               
  5685                           	fcall	___flsub
  5686  03DA  319E  264C  3180   	movlb 0	; select bank0
  5687  03DD  0140               	movf	(3+(?___flsub)),w
  5688  03DE  0838               	movlb 1	; select bank1
  5689  03DF  0141               	movwf	(efgtoa@h+3)^080h
  5690  03E0  00C6               	movlb 0	; select bank0
  5691  03E1  0140               	movf	(2+(?___flsub)),w
  5692  03E2  0837               	movlb 1	; select bank1
  5693  03E3  0141               	movwf	(efgtoa@h+2)^080h
  5694  03E4  00C5               	movlb 0	; select bank0
  5695  03E5  0140               	movf	(1+(?___flsub)),w
  5696  03E6  0836               	movlb 1	; select bank1
  5697  03E7  0141               	movwf	(efgtoa@h+1)^080h
  5698  03E8  00C4               	movlb 0	; select bank0
  5699  03E9  0140               	movf	(0+(?___flsub)),w
  5700  03EA  0835               	movlb 1	; select bank1
  5701  03EB  0141               	movwf	(efgtoa@h)^080h
  5702  03EC  00C3               
  5703                           	line	422
  5704                           ;C:\Program Files (x86)\Microchip\xc8\v2.00\pic\sources\c99\common\doprnt.c: 422:       
                                   u = u/10.0;
  5705                           	movlw	0x41
  5706  03ED  3041               	movwf	(___fldiv@a+3)
  5707  03EE  00F3               	movlw	0x20
  5708  03EF  3020               	movwf	(___fldiv@a+2)
  5709  03F0  00F2               	movlw	0x0
  5710  03F1  3000               	movwf	(___fldiv@a+1)
  5711  03F2  00F1               	movlw	0x0
  5712  03F3  3000               	movwf	(___fldiv@a)
  5713  03F4  00F0               
  5714                           	movf	(efgtoa@u+3)^080h,w
  5715  03F5  0858               	movwf	(___fldiv@b+3)
  5716  03F6  00F7               	movf	(efgtoa@u+2)^080h,w
  5717  03F7  0857               	movwf	(___fldiv@b+2)
  5718  03F8  00F6               	movf	(efgtoa@u+1)^080h,w
  5719  03F9  0856               	movwf	(___fldiv@b+1)
  5720  03FA  00F5               	movf	(efgtoa@u)^080h,w
  5721  03FB  0855               	movwf	(___fldiv@b)
  5722  03FC  00F4               
  5723                           	fcall	___fldiv
  5724  03FD  3188  2019  3180   	movf	(3+(?___fldiv)),w
  5725  0400  0873               	movlb 1	; select bank1
  5726  0401  0141               	movwf	(efgtoa@u+3)^080h
  5727  0402  00D8               	movf	(2+(?___fldiv)),w
  5728  0403  0872               	movwf	(efgtoa@u+2)^080h
  5729  0404  00D7               	movf	(1+(?___fldiv)),w
  5730  0405  0871               	movwf	(efgtoa@u+1)^080h
  5731  0406  00D6               	movf	(0+(?___fldiv)),w
  5732  0407  0870               	movwf	(efgtoa@u)^080h
  5733  0408  00D5               
  5734                           	line	423
  5735                           	
  5736                           l3271:	
  5737  0409                     ;C:\Program Files (x86)\Microchip\xc8\v2.00\pic\sources\c99\common\doprnt.c: 423:       
                                   ++i;
  5738                           	movlw	01h
  5739  0409  3001               	addwf	(efgtoa@i)^080h,f
  5740  040A  07CB               	movlw	0
  5741  040B  3000               	addwfc	(efgtoa@i+1)^080h,f
  5742  040C  3DCC               	goto	l3273
  5743  040D  2C0E               	line	424
  5744                           ;C:\Program Files (x86)\Microchip\xc8\v2.00\pic\sources\c99\common\doprnt.c: 424:     }

  5745                           	
  5746                           l190:	
  5747  040E                     	line	418
  5748                           	
  5749                           l3273:	
  5750  040E                     ;C:\Program Files (x86)\Microchip\xc8\v2.00\pic\sources\c99\common\doprnt.c: 418:     wh
                                 ile (i < m) {
  5751                           	movf	(efgtoa@i+1)^080h,w
  5752  040E  084C               	xorlw	80h
  5753  040F  3A80               	movlb 0	; select bank0
  5754  0410  0140               	movwf	(??_efgtoa+0)+0
  5755  0411  00CA               	movlb 1	; select bank1
  5756  0412  0141               	movf	(efgtoa@m+1)^080h,w
  5757  0413  0835               	xorlw	80h
  5758  0414  3A80               	movlb 0	; select bank0
  5759  0415  0140               	subwf	(??_efgtoa+0)+0,w
  5760  0416  024A               	skipz
  5761  0417  1D03               	goto	u4825
  5762  0418  2C1C               	movlb 1	; select bank1
  5763  0419  0141               	movf	(efgtoa@m)^080h,w
  5764  041A  0834               	subwf	(efgtoa@i)^080h,w
  5765  041B  024B               u4825:
  5766  041C                     
  5767                           	skipc
  5768  041C  1C03               	goto	u4821
  5769  041D  2C1F               	goto	u4820
  5770  041E  2C20               u4821:
  5771  041F                     	goto	l3269
  5772  041F  2B5F               u4820:
  5773  0420                     	goto	l3275
  5774  0420  2C21               	
  5775                           l192:	
  5776  0421                     	line	427
  5777                           	
  5778                           l3275:	
  5779  0421                     ;C:\Program Files (x86)\Microchip\xc8\v2.00\pic\sources\c99\common\doprnt.c: 427:     l 
                                 = u*5.0;
  5780                           	movlw	0x40
  5781  0421  3040               	movlb 0	; select bank0
  5782  0422  0140               	movwf	(___flmul@b+3)
  5783  0423  00A3               	movlw	0xa0
  5784  0424  30A0               	movwf	(___flmul@b+2)
  5785  0425  00A2               	movlw	0x0
  5786  0426  3000               	movwf	(___flmul@b+1)
  5787  0427  00A1               	movlw	0x0
  5788  0428  3000               	movwf	(___flmul@b)
  5789  0429  00A0               
  5790                           	movlb 1	; select bank1
  5791  042A  0141               	movf	(efgtoa@u+3)^080h,w
  5792  042B  0858               	movlb 0	; select bank0
  5793  042C  0140               	movwf	(___flmul@a+3)
  5794  042D  00A7               	movlb 1	; select bank1
  5795  042E  0141               	movf	(efgtoa@u+2)^080h,w
  5796  042F  0857               	movlb 0	; select bank0
  5797  0430  0140               	movwf	(___flmul@a+2)
  5798  0431  00A6               	movlb 1	; select bank1
  5799  0432  0141               	movf	(efgtoa@u+1)^080h,w
  5800  0433  0856               	movlb 0	; select bank0
  5801  0434  0140               	movwf	(___flmul@a+1)
  5802  0435  00A5               	movlb 1	; select bank1
  5803  0436  0141               	movf	(efgtoa@u)^080h,w
  5804  0437  0855               	movlb 0	; select bank0
  5805  0438  0140               	movwf	(___flmul@a)
  5806  0439  00A4               
  5807                           	fcall	___flmul
  5808  043A  3195  2595  3180   	movlb 0	; select bank0
  5809  043D  0140               	movf	(3+(?___flmul)),w
  5810  043E  0823               	movlb 1	; select bank1
  5811  043F  0141               	movwf	(efgtoa@l+3)^080h
  5812  0440  00CA               	movlb 0	; select bank0
  5813  0441  0140               	movf	(2+(?___flmul)),w
  5814  0442  0822               	movlb 1	; select bank1
  5815  0443  0141               	movwf	(efgtoa@l+2)^080h
  5816  0444  00C9               	movlb 0	; select bank0
  5817  0445  0140               	movf	(1+(?___flmul)),w
  5818  0446  0821               	movlb 1	; select bank1
  5819  0447  0141               	movwf	(efgtoa@l+1)^080h
  5820  0448  00C8               	movlb 0	; select bank0
  5821  0449  0140               	movf	(0+(?___flmul)),w
  5822  044A  0820               	movlb 1	; select bank1
  5823  044B  0141               	movwf	(efgtoa@l)^080h
  5824  044C  00C7               
  5825                           	line	428
  5826                           ;C:\Program Files (x86)\Microchip\xc8\v2.00\pic\sources\c99\common\doprnt.c: 428:     if
                                  (h < l) {
  5827                           	movf	(efgtoa@h+3)^080h,w
  5828  044D  0846               	movlb 0	; select bank0
  5829  044E  0140               	movwf	(___flge@ff1+3)
  5830  044F  00B8               	movlb 1	; select bank1
  5831  0450  0141               	movf	(efgtoa@h+2)^080h,w
  5832  0451  0845               	movlb 0	; select bank0
  5833  0452  0140               	movwf	(___flge@ff1+2)
  5834  0453  00B7               	movlb 1	; select bank1
  5835  0454  0141               	movf	(efgtoa@h+1)^080h,w
  5836  0455  0844               	movlb 0	; select bank0
  5837  0456  0140               	movwf	(___flge@ff1+1)
  5838  0457  00B6               	movlb 1	; select bank1
  5839  0458  0141               	movf	(efgtoa@h)^080h,w
  5840  0459  0843               	movlb 0	; select bank0
  5841  045A  0140               	movwf	(___flge@ff1)
  5842  045B  00B5               
  5843                           	movlb 1	; select bank1
  5844  045C  0141               	movf	(efgtoa@l+3)^080h,w
  5845  045D  084A               	movlb 0	; select bank0
  5846  045E  0140               	movwf	(___flge@ff2+3)
  5847  045F  00BC               	movlb 1	; select bank1
  5848  0460  0141               	movf	(efgtoa@l+2)^080h,w
  5849  0461  0849               	movlb 0	; select bank0
  5850  0462  0140               	movwf	(___flge@ff2+2)
  5851  0463  00BB               	movlb 1	; select bank1
  5852  0464  0141               	movf	(efgtoa@l+1)^080h,w
  5853  0465  0848               	movlb 0	; select bank0
  5854  0466  0140               	movwf	(___flge@ff2+1)
  5855  0467  00BA               	movlb 1	; select bank1
  5856  0468  0141               	movf	(efgtoa@l)^080h,w
  5857  0469  0847               	movlb 0	; select bank0
  5858  046A  0140               	movwf	(___flge@ff2)
  5859  046B  00B9               
  5860                           	fcall	___flge
  5861  046C  3193  230E  3180   	btfsc	status,0
  5862  046F  1803               	goto	u4831
  5863  0470  2C72               	goto	u4830
  5864  0471  2C73               u4831:
  5865  0472                     	goto	l3279
  5866  0472  2C7D               u4830:
  5867  0473                     	line	429
  5868                           	
  5869                           l3277:	
  5870  0473                     ;C:\Program Files (x86)\Microchip\xc8\v2.00\pic\sources\c99\common\doprnt.c: 429:       
                                   l = 0.0;
  5871                           	movlw	0x0
  5872  0473  3000               	movlb 1	; select bank1
  5873  0474  0141               	movwf	(efgtoa@l+3)^080h
  5874  0475  00CA               	movlw	0x0
  5875  0476  3000               	movwf	(efgtoa@l+2)^080h
  5876  0477  00C9               	movlw	0x0
  5877  0478  3000               	movwf	(efgtoa@l+1)^080h
  5878  0479  00C8               	movlw	0x0
  5879  047A  3000               	movwf	(efgtoa@l)^080h
  5880  047B  00C7               
  5881                           	line	430
  5882                           ;C:\Program Files (x86)\Microchip\xc8\v2.00\pic\sources\c99\common\doprnt.c: 430:     } 
                                 else {
  5883                           	goto	l3285
  5884  047C  2CA4               	
  5885                           l193:	
  5886  047D                     	line	432
  5887                           	
  5888                           l3279:	
  5889  047D                     ;C:\Program Files (x86)\Microchip\xc8\v2.00\pic\sources\c99\common\doprnt.c: 432:       
                                   if ((h == l) && !(d % 2)) {
  5890                           	movlb 1	; select bank1
  5891  047D  0141               	movf	(efgtoa@h+3)^080h,w
  5892  047E  0846               	movwf	(___fleq@ff1+3)
  5893  047F  00F3               	movf	(efgtoa@h+2)^080h,w
  5894  0480  0845               	movwf	(___fleq@ff1+2)
  5895  0481  00F2               	movf	(efgtoa@h+1)^080h,w
  5896  0482  0844               	movwf	(___fleq@ff1+1)
  5897  0483  00F1               	movf	(efgtoa@h)^080h,w
  5898  0484  0843               	movwf	(___fleq@ff1)
  5899  0485  00F0               
  5900                           	movf	(efgtoa@l+3)^080h,w
  5901  0486  084A               	movwf	(___fleq@ff2+3)
  5902  0487  00F7               	movf	(efgtoa@l+2)^080h,w
  5903  0488  0849               	movwf	(___fleq@ff2+2)
  5904  0489  00F6               	movf	(efgtoa@l+1)^080h,w
  5905  048A  0848               	movwf	(___fleq@ff2+1)
  5906  048B  00F5               	movf	(efgtoa@l)^080h,w
  5907  048C  0847               	movwf	(___fleq@ff2)
  5908  048D  00F4               
  5909                           	fcall	___fleq
  5910  048E  3190  205C  3180   	btfss	status,0
  5911  0491  1C03               	goto	u4841
  5912  0492  2C94               	goto	u4840
  5913  0493  2C95               u4841:
  5914  0494                     	goto	l3285
  5915  0494  2CA4               u4840:
  5916  0495                     	
  5917                           l3281:	
  5918  0495                     	movlb 1	; select bank1
  5919  0495  0141               	btfsc	(efgtoa@d)^080h,(0)&7
  5920  0496  1838               	goto	u4851
  5921  0497  2C99               	goto	u4850
  5922  0498  2C9A               u4851:
  5923  0499                     	goto	l3285
  5924  0499  2CA4               u4850:
  5925  049A                     	line	433
  5926                           	
  5927                           l3283:	
  5928  049A                     ;C:\Program Files (x86)\Microchip\xc8\v2.00\pic\sources\c99\common\doprnt.c: 433:       
                                       l = 0.0;
  5929                           	movlw	0x0
  5930  049A  3000               	movwf	(efgtoa@l+3)^080h
  5931  049B  00CA               	movlw	0x0
  5932  049C  3000               	movwf	(efgtoa@l+2)^080h
  5933  049D  00C9               	movlw	0x0
  5934  049E  3000               	movwf	(efgtoa@l+1)^080h
  5935  049F  00C8               	movlw	0x0
  5936  04A0  3000               	movwf	(efgtoa@l)^080h
  5937  04A1  00C7               
  5938                           	goto	l3285
  5939  04A2  2CA4               	line	434
  5940                           ;C:\Program Files (x86)\Microchip\xc8\v2.00\pic\sources\c99\common\doprnt.c: 434:       
                                   }
  5941                           	
  5942                           l195:	
  5943  04A3                     	goto	l3285
  5944  04A3  2CA4               	line	435
  5945                           ;C:\Program Files (x86)\Microchip\xc8\v2.00\pic\sources\c99\common\doprnt.c: 435:     }

  5946                           	
  5947                           l194:	
  5948  04A4                     	line	438
  5949                           	
  5950                           l3285:	
  5951  04A4                     ;C:\Program Files (x86)\Microchip\xc8\v2.00\pic\sources\c99\common\doprnt.c: 438:     h 
                                 = g + l;
  5952                           	movlb 1	; select bank1
  5953  04A4  0141               	movf	(efgtoa@l+3)^080h,w
  5954  04A5  084A               	movwf	(___fladd@b+3)
  5955  04A6  00F3               	movf	(efgtoa@l+2)^080h,w
  5956  04A7  0849               	movwf	(___fladd@b+2)
  5957  04A8  00F2               	movf	(efgtoa@l+1)^080h,w
  5958  04A9  0848               	movwf	(___fladd@b+1)
  5959  04AA  00F1               	movf	(efgtoa@l)^080h,w
  5960  04AB  0847               	movwf	(___fladd@b)
  5961  04AC  00F0               
  5962                           	movf	(efgtoa@g+3)^080h,w
  5963  04AD  0850               	movwf	(___fladd@a+3)
  5964  04AE  00F7               	movf	(efgtoa@g+2)^080h,w
  5965  04AF  084F               	movwf	(___fladd@a+2)
  5966  04B0  00F6               	movf	(efgtoa@g+1)^080h,w
  5967  04B1  084E               	movwf	(___fladd@a+1)
  5968  04B2  00F5               	movf	(efgtoa@g)^080h,w
  5969  04B3  084D               	movwf	(___fladd@a)
  5970  04B4  00F4               
  5971                           	fcall	___fladd
  5972  04B5  3189  21F8  3180   	movf	(3+(?___fladd)),w
  5973  04B8  0873               	movlb 1	; select bank1
  5974  04B9  0141               	movwf	(efgtoa@h+3)^080h
  5975  04BA  00C6               	movf	(2+(?___fladd)),w
  5976  04BB  0872               	movwf	(efgtoa@h+2)^080h
  5977  04BC  00C5               	movf	(1+(?___fladd)),w
  5978  04BD  0871               	movwf	(efgtoa@h+1)^080h
  5979  04BE  00C4               	movf	(0+(?___fladd)),w
  5980  04BF  0870               	movwf	(efgtoa@h)^080h
  5981  04C0  00C3               
  5982                           	line	441
  5983                           	
  5984                           l3287:	
  5985  04C1                     ;C:\Program Files (x86)\Microchip\xc8\v2.00\pic\sources\c99\common\doprnt.c: 441:     u 
                                 = ou;
  5986                           	movf	(efgtoa@ou+3)^080h,w
  5987  04C1  0823               	movwf	(efgtoa@u+3)^080h
  5988  04C2  00D8               	movf	(efgtoa@ou+2)^080h,w
  5989  04C3  0822               	movwf	(efgtoa@u+2)^080h
  5990  04C4  00D7               	movf	(efgtoa@ou+1)^080h,w
  5991  04C5  0821               	movwf	(efgtoa@u+1)^080h
  5992  04C6  00D6               	movf	(efgtoa@ou)^080h,w
  5993  04C7  0820               	movwf	(efgtoa@u)^080h
  5994  04C8  00D5               
  5995                           	line	442
  5996                           	
  5997                           l3289:	
  5998  04C9                     ;C:\Program Files (x86)\Microchip\xc8\v2.00\pic\sources\c99\common\doprnt.c: 442:     ne
                                  = (nmode == 'e') ? 0 : e;
  5999                           		movlw	101
  6000  04C9  3065               	xorwf	((efgtoa@nmode)^080h),w
  6001  04CA  063F               	btfsc	status,2
  6002  04CB  1903               	goto	u4861
  6003  04CC  2CCE               	goto	u4860
  6004  04CD  2CCF               u4861:
  6005  04CE                     	goto	l3293
  6006  04CE  2CD4               u4860:
  6007  04CF                     	
  6008                           l3291:	
  6009  04CF                     	movf	(efgtoa@e+1)^080h,w
  6010  04CF  0852               	movwf	(efgtoa@ne+1)^080h
  6011  04D0  00B7               	movf	(efgtoa@e)^080h,w
  6012  04D1  0851               	movwf	(efgtoa@ne)^080h
  6013  04D2  00B6               	goto	l199
  6014  04D3  2CD6               	
  6015                           l197:	
  6016  04D4                     	
  6017                           l3293:	
  6018  04D4                     	clrf	(efgtoa@ne)^080h
  6019  04D4  01B6               	clrf	(efgtoa@ne+1)^080h
  6020  04D5  01B7               	
  6021                           l199:	
  6022  04D6                     	line	443
  6023                           ;C:\Program Files (x86)\Microchip\xc8\v2.00\pic\sources\c99\common\doprnt.c: 443:     pp
                                  = 0;
  6024                           	clrf	(efgtoa@pp)^080h
  6025  04D6  01B2               	clrf	(efgtoa@pp+1)^080h
  6026  04D7  01B3               	line	444
  6027                           ;C:\Program Files (x86)\Microchip\xc8\v2.00\pic\sources\c99\common\doprnt.c: 444:     t 
                                 = 0;
  6028                           	clrf	(efgtoa@t)^080h
  6029  04D8  01B0               	clrf	(efgtoa@t+1)^080h
  6030  04D9  01B1               	line	445
  6031                           ;C:\Program Files (x86)\Microchip\xc8\v2.00\pic\sources\c99\common\doprnt.c: 445:     i 
                                 = 0;
  6032                           	clrf	(efgtoa@i)^080h
  6033  04DA  01CB               	clrf	(efgtoa@i+1)^080h
  6034  04DB  01CC               	line	446
  6035                           ;C:\Program Files (x86)\Microchip\xc8\v2.00\pic\sources\c99\common\doprnt.c: 446:     wh
                                 ile ((i < m) && (n < (80 - 5))) {
  6036                           	goto	l3343
  6037  04DC  2E09               	
  6038                           l201:	
  6039  04DD                     	line	447
  6040                           	
  6041                           l3295:	
  6042  04DD                     ;C:\Program Files (x86)\Microchip\xc8\v2.00\pic\sources\c99\common\doprnt.c: 447:       
                                   l = floorf(h/u);
  6043                           	movlb 1	; select bank1
  6044  04DD  0141               	movf	(efgtoa@u+3)^080h,w
  6045  04DE  0858               	movwf	(___fldiv@a+3)
  6046  04DF  00F3               	movf	(efgtoa@u+2)^080h,w
  6047  04E0  0857               	movwf	(___fldiv@a+2)
  6048  04E1  00F2               	movf	(efgtoa@u+1)^080h,w
  6049  04E2  0856               	movwf	(___fldiv@a+1)
  6050  04E3  00F1               	movf	(efgtoa@u)^080h,w
  6051  04E4  0855               	movwf	(___fldiv@a)
  6052  04E5  00F0               
  6053                           	movf	(efgtoa@h+3)^080h,w
  6054  04E6  0846               	movwf	(___fldiv@b+3)
  6055  04E7  00F7               	movf	(efgtoa@h+2)^080h,w
  6056  04E8  0845               	movwf	(___fldiv@b+2)
  6057  04E9  00F6               	movf	(efgtoa@h+1)^080h,w
  6058  04EA  0844               	movwf	(___fldiv@b+1)
  6059  04EB  00F5               	movf	(efgtoa@h)^080h,w
  6060  04EC  0843               	movwf	(___fldiv@b)
  6061  04ED  00F4               
  6062                           	fcall	___fldiv
  6063  04EE  3188  2019  3180   	movf	(3+(?___fldiv)),w
  6064  04F1  0873               	movlb 0	; select bank0
  6065  04F2  0140               	movwf	(floorf@x+3)
  6066  04F3  00B0               	movf	(2+(?___fldiv)),w
  6067  04F4  0872               	movwf	(floorf@x+2)
  6068  04F5  00AF               	movf	(1+(?___fldiv)),w
  6069  04F6  0871               	movwf	(floorf@x+1)
  6070  04F7  00AE               	movf	(0+(?___fldiv)),w
  6071  04F8  0870               	movwf	(floorf@x)
  6072  04F9  00AD               
  6073                           	fcall	_floorf
  6074  04FA  3194  24A6  3180   	movlb 0	; select bank0
  6075  04FD  0140               	movf	(3+(?_floorf)),w
  6076  04FE  0830               	movlb 1	; select bank1
  6077  04FF  0141               	movwf	(efgtoa@l+3)^080h
  6078  0500  00CA               	movlb 0	; select bank0
  6079  0501  0140               	movf	(2+(?_floorf)),w
  6080  0502  082F               	movlb 1	; select bank1
  6081  0503  0141               	movwf	(efgtoa@l+2)^080h
  6082  0504  00C9               	movlb 0	; select bank0
  6083  0505  0140               	movf	(1+(?_floorf)),w
  6084  0506  082E               	movlb 1	; select bank1
  6085  0507  0141               	movwf	(efgtoa@l+1)^080h
  6086  0508  00C8               	movlb 0	; select bank0
  6087  0509  0140               	movf	(0+(?_floorf)),w
  6088  050A  082D               	movlb 1	; select bank1
  6089  050B  0141               	movwf	(efgtoa@l)^080h
  6090  050C  00C7               
  6091                           	line	448
  6092                           ;C:\Program Files (x86)\Microchip\xc8\v2.00\pic\sources\c99\common\doprnt.c: 448:       
                                   d = (int)l;
  6093                           	movf	(efgtoa@l+3)^080h,w
  6094  050D  084A               	movwf	(___fltol@f1+3)
  6095  050E  00F3               	movf	(efgtoa@l+2)^080h,w
  6096  050F  0849               	movwf	(___fltol@f1+2)
  6097  0510  00F2               	movf	(efgtoa@l+1)^080h,w
  6098  0511  0848               	movwf	(___fltol@f1+1)
  6099  0512  00F1               	movf	(efgtoa@l)^080h,w
  6100  0513  0847               	movwf	(___fltol@f1)
  6101  0514  00F0               
  6102                           	fcall	___fltol
  6103  0515  3187  2761  3180   	movf	(1+(?___fltol)),w
  6104  0518  0871               	movlb 1	; select bank1
  6105  0519  0141               	movwf	(efgtoa@d+1)^080h
  6106  051A  00B9               	movf	(0+(?___fltol)),w
  6107  051B  0870               	movwf	(efgtoa@d)^080h
  6108  051C  00B8               	line	449
  6109                           	
  6110                           l3297:	
  6111  051D                     ;C:\Program Files (x86)\Microchip\xc8\v2.00\pic\sources\c99\common\doprnt.c: 449:       
                                   if (!(flags & (1 << 4)) && !d && (mode == 'g') && (ne < 0)) {
  6112                           	movlb 2	; select bank2
  6113  051D  0142               	btfsc	(_flags)^0100h,(4)&7
  6114  051E  1A3E               	goto	u4871
  6115  051F  2D21               	goto	u4870
  6116  0520  2D22               u4871:
  6117  0521                     	goto	l3307
  6118  0521  2D38               u4870:
  6119  0522                     	
  6120                           l3299:	
  6121  0522                     	movlb 1	; select bank1
  6122  0522  0141               	movf	((efgtoa@d)^080h),w
  6123  0523  0838               iorwf	((efgtoa@d+1)^080h),w
  6124  0524  0439               	btfss	status,2
  6125  0525  1D03               	goto	u4881
  6126  0526  2D28               	goto	u4880
  6127  0527  2D29               u4881:
  6128  0528                     	goto	l3307
  6129  0528  2D38               u4880:
  6130  0529                     	
  6131                           l3301:	
  6132  0529                     		movlw	103
  6133  0529  3067               	xorwf	((efgtoa@mode)^080h),w
  6134  052A  0642               	btfss	status,2
  6135  052B  1D03               	goto	u4891
  6136  052C  2D2E               	goto	u4890
  6137  052D  2D2F               u4891:
  6138  052E                     	goto	l3307
  6139  052E  2D38               u4890:
  6140  052F                     	
  6141                           l3303:	
  6142  052F                     	btfss	(efgtoa@ne+1)^080h,7
  6143  052F  1FB7               	goto	u4901
  6144  0530  2D32               	goto	u4900
  6145  0531  2D33               u4901:
  6146  0532                     	goto	l3307
  6147  0532  2D38               u4900:
  6148  0533                     	line	450
  6149                           	
  6150                           l3305:	
  6151  0533                     ;C:\Program Files (x86)\Microchip\xc8\v2.00\pic\sources\c99\common\doprnt.c: 450:       
                                       ++t;
  6152                           	movlw	01h
  6153  0533  3001               	addwf	(efgtoa@t)^080h,f
  6154  0534  07B0               	movlw	0
  6155  0535  3000               	addwfc	(efgtoa@t+1)^080h,f
  6156  0536  3DB1               	line	451
  6157                           ;C:\Program Files (x86)\Microchip\xc8\v2.00\pic\sources\c99\common\doprnt.c: 451:       
                                   } else {
  6158                           	goto	l3335
  6159  0537  2D96               	
  6160                           l202:	
  6161  0538                     	line	452
  6162                           	
  6163                           l3307:	
  6164  0538                     ;C:\Program Files (x86)\Microchip\xc8\v2.00\pic\sources\c99\common\doprnt.c: 452:       
                                       if (!pp && (ne < 0)) {
  6165                           	movlb 1	; select bank1
  6166  0538  0141               	movf	((efgtoa@pp)^080h),w
  6167  0539  0832               iorwf	((efgtoa@pp+1)^080h),w
  6168  053A  0433               	btfss	status,2
  6169  053B  1D03               	goto	u4911
  6170  053C  2D3E               	goto	u4910
  6171  053D  2D3F               u4911:
  6172  053E                     	goto	l3327
  6173  053E  2D78               u4910:
  6174  053F                     	
  6175                           l3309:	
  6176  053F                     	btfss	(efgtoa@ne+1)^080h,7
  6177  053F  1FB7               	goto	u4921
  6178  0540  2D42               	goto	u4920
  6179  0541  2D43               u4921:
  6180  0542                     	goto	l3327
  6181  0542  2D78               u4920:
  6182  0543                     	line	453
  6183                           	
  6184                           l3311:	
  6185  0543                     ;C:\Program Files (x86)\Microchip\xc8\v2.00\pic\sources\c99\common\doprnt.c: 453:       
                                           dbuf[n++] = '.';
  6186                           	movlw	low(02Eh)
  6187  0543  302E               	movlb 0	; select bank0
  6188  0544  0140               	movwf	(??_efgtoa+0)+0
  6189  0545  00CA               	movlb 1	; select bank1
  6190  0546  0141               	movf	(efgtoa@n)^080h,w
  6191  0547  0853               	addlw	low(_dbuf|((0x1)<<8))&0ffh
  6192  0548  3EA0               	movwf	fsr1l
  6193  0549  0086               	movlw 1	; select bank3/4
  6194  054A  3001               	movwf fsr1h	
  6195  054B  0087               	
  6196                           	movlb 0	; select bank0
  6197  054C  0140               	movf	(??_efgtoa+0)+0,w
  6198  054D  084A               	movwf	indf1
  6199  054E  0081               	
  6200                           l3313:	
  6201  054F                     	movlw	01h
  6202  054F  3001               	movlb 1	; select bank1
  6203  0550  0141               	addwf	(efgtoa@n)^080h,f
  6204  0551  07D3               	movlw	0
  6205  0552  3000               	addwfc	(efgtoa@n+1)^080h,f
  6206  0553  3DD4               	line	454
  6207                           	
  6208                           l3315:	
  6209  0554                     ;C:\Program Files (x86)\Microchip\xc8\v2.00\pic\sources\c99\common\doprnt.c: 454:       
                                           --w;
  6210                           	movlw	0FFh
  6211  0554  30FF               	addwf	(efgtoa@w)^080h,f
  6212  0555  07C0               	movlw	0FFh
  6213  0556  30FF               	addwfc	(efgtoa@w+1)^080h,f
  6214  0557  3DC1               	line	455
  6215                           	
  6216                           l3317:	
  6217  0558                     ;C:\Program Files (x86)\Microchip\xc8\v2.00\pic\sources\c99\common\doprnt.c: 455:       
                                           pp = 1;
  6218                           	movlw	01h
  6219  0558  3001               	movwf	(efgtoa@pp)^080h
  6220  0559  00B2               	movlw	0
  6221  055A  3000               	movwf	((efgtoa@pp)^080h)+1
  6222  055B  00B3               	goto	l3327
  6223  055C  2D78               	line	456
  6224                           ;C:\Program Files (x86)\Microchip\xc8\v2.00\pic\sources\c99\common\doprnt.c: 456:       
                                       }
  6225                           	
  6226                           l204:	
  6227  055D                     	line	457
  6228                           ;C:\Program Files (x86)\Microchip\xc8\v2.00\pic\sources\c99\common\doprnt.c: 457:       
                                       while (t) {
  6229                           	goto	l3327
  6230  055D  2D78               	
  6231                           l206:	
  6232  055E                     	line	458
  6233                           	
  6234                           l3319:	
  6235  055E                     ;C:\Program Files (x86)\Microchip\xc8\v2.00\pic\sources\c99\common\doprnt.c: 458:       
                                           dbuf[n++] = '0';
  6236                           	movlw	low(030h)
  6237  055E  3030               	movlb 0	; select bank0
  6238  055F  0140               	movwf	(??_efgtoa+0)+0
  6239  0560  00CA               	movlb 1	; select bank1
  6240  0561  0141               	movf	(efgtoa@n)^080h,w
  6241  0562  0853               	addlw	low(_dbuf|((0x1)<<8))&0ffh
  6242  0563  3EA0               	movwf	fsr1l
  6243  0564  0086               	movlw 1	; select bank3/4
  6244  0565  3001               	movwf fsr1h	
  6245  0566  0087               	
  6246                           	movlb 0	; select bank0
  6247  0567  0140               	movf	(??_efgtoa+0)+0,w
  6248  0568  084A               	movwf	indf1
  6249  0569  0081               	
  6250                           l3321:	
  6251  056A                     	movlw	01h
  6252  056A  3001               	movlb 1	; select bank1
  6253  056B  0141               	addwf	(efgtoa@n)^080h,f
  6254  056C  07D3               	movlw	0
  6255  056D  3000               	addwfc	(efgtoa@n+1)^080h,f
  6256  056E  3DD4               	line	459
  6257                           	
  6258                           l3323:	
  6259  056F                     ;C:\Program Files (x86)\Microchip\xc8\v2.00\pic\sources\c99\common\doprnt.c: 459:       
                                           --w;
  6260                           	movlw	0FFh
  6261  056F  30FF               	addwf	(efgtoa@w)^080h,f
  6262  0570  07C0               	movlw	0FFh
  6263  0571  30FF               	addwfc	(efgtoa@w+1)^080h,f
  6264  0572  3DC1               	line	460
  6265                           	
  6266                           l3325:	
  6267  0573                     ;C:\Program Files (x86)\Microchip\xc8\v2.00\pic\sources\c99\common\doprnt.c: 460:       
                                           --t;
  6268                           	movlw	0FFh
  6269  0573  30FF               	addwf	(efgtoa@t)^080h,f
  6270  0574  07B0               	movlw	0FFh
  6271  0575  30FF               	addwfc	(efgtoa@t+1)^080h,f
  6272  0576  3DB1               	goto	l3327
  6273  0577  2D78               	line	461
  6274                           ;C:\Program Files (x86)\Microchip\xc8\v2.00\pic\sources\c99\common\doprnt.c: 461:       
                                       }
  6275                           	
  6276                           l205:	
  6277  0578                     	line	457
  6278                           	
  6279                           l3327:	
  6280  0578                     ;C:\Program Files (x86)\Microchip\xc8\v2.00\pic\sources\c99\common\doprnt.c: 457:       
                                       while (t) {
  6281                           	movf	((efgtoa@t)^080h),w
  6282  0578  0830               iorwf	((efgtoa@t+1)^080h),w
  6283  0579  0431               	btfss	status,2
  6284  057A  1D03               	goto	u4931
  6285  057B  2D7D               	goto	u4930
  6286  057C  2D7E               u4931:
  6287  057D                     	goto	l3319
  6288  057D  2D5E               u4930:
  6289  057E                     	goto	l3329
  6290  057E  2D7F               	
  6291                           l207:	
  6292  057F                     	line	462
  6293                           	
  6294                           l3329:	
  6295  057F                     ;C:\Program Files (x86)\Microchip\xc8\v2.00\pic\sources\c99\common\doprnt.c: 462:       
                                       dbuf[n++] = '0' + d;
  6296                           	movf	(efgtoa@d)^080h,w
  6297  057F  0838               	addlw	030h
  6298  0580  3E30               	movlb 0	; select bank0
  6299  0581  0140               	movwf	(??_efgtoa+0)+0
  6300  0582  00CA               	movlb 1	; select bank1
  6301  0583  0141               	movf	(efgtoa@n)^080h,w
  6302  0584  0853               	addlw	low(_dbuf|((0x1)<<8))&0ffh
  6303  0585  3EA0               	movwf	fsr1l
  6304  0586  0086               	movlw 1	; select bank3/4
  6305  0587  3001               	movwf fsr1h	
  6306  0588  0087               	
  6307                           	movlb 0	; select bank0
  6308  0589  0140               	movf	(??_efgtoa+0)+0,w
  6309  058A  084A               	movwf	indf1
  6310  058B  0081               	
  6311                           l3331:	
  6312  058C                     	movlw	01h
  6313  058C  3001               	movlb 1	; select bank1
  6314  058D  0141               	addwf	(efgtoa@n)^080h,f
  6315  058E  07D3               	movlw	0
  6316  058F  3000               	addwfc	(efgtoa@n+1)^080h,f
  6317  0590  3DD4               	line	463
  6318                           	
  6319                           l3333:	
  6320  0591                     ;C:\Program Files (x86)\Microchip\xc8\v2.00\pic\sources\c99\common\doprnt.c: 463:       
                                       --w;
  6321                           	movlw	0FFh
  6322  0591  30FF               	addwf	(efgtoa@w)^080h,f
  6323  0592  07C0               	movlw	0FFh
  6324  0593  30FF               	addwfc	(efgtoa@w+1)^080h,f
  6325  0594  3DC1               	goto	l3335
  6326  0595  2D96               	line	464
  6327                           ;C:\Program Files (x86)\Microchip\xc8\v2.00\pic\sources\c99\common\doprnt.c: 464:       
                                   }
  6328                           	
  6329                           l203:	
  6330  0596                     	line	465
  6331                           	
  6332                           l3335:	
  6333  0596                     ;C:\Program Files (x86)\Microchip\xc8\v2.00\pic\sources\c99\common\doprnt.c: 465:       
                                   h -= l*u;
  6334                           	movf	(efgtoa@l+3)^080h,w
  6335  0596  084A               	movlb 0	; select bank0
  6336  0597  0140               	movwf	(___flmul@a+3)
  6337  0598  00A7               	movlb 1	; select bank1
  6338  0599  0141               	movf	(efgtoa@l+2)^080h,w
  6339  059A  0849               	movlb 0	; select bank0
  6340  059B  0140               	movwf	(___flmul@a+2)
  6341  059C  00A6               	movlb 1	; select bank1
  6342  059D  0141               	movf	(efgtoa@l+1)^080h,w
  6343  059E  0848               	movlb 0	; select bank0
  6344  059F  0140               	movwf	(___flmul@a+1)
  6345  05A0  00A5               	movlb 1	; select bank1
  6346  05A1  0141               	movf	(efgtoa@l)^080h,w
  6347  05A2  0847               	movlb 0	; select bank0
  6348  05A3  0140               	movwf	(___flmul@a)
  6349  05A4  00A4               
  6350                           	movlb 1	; select bank1
  6351  05A5  0141               	movf	(efgtoa@u+3)^080h,w
  6352  05A6  0858               	movlb 0	; select bank0
  6353  05A7  0140               	movwf	(___flmul@b+3)
  6354  05A8  00A3               	movlb 1	; select bank1
  6355  05A9  0141               	movf	(efgtoa@u+2)^080h,w
  6356  05AA  0857               	movlb 0	; select bank0
  6357  05AB  0140               	movwf	(___flmul@b+2)
  6358  05AC  00A2               	movlb 1	; select bank1
  6359  05AD  0141               	movf	(efgtoa@u+1)^080h,w
  6360  05AE  0856               	movlb 0	; select bank0
  6361  05AF  0140               	movwf	(___flmul@b+1)
  6362  05B0  00A1               	movlb 1	; select bank1
  6363  05B1  0141               	movf	(efgtoa@u)^080h,w
  6364  05B2  0855               	movlb 0	; select bank0
  6365  05B3  0140               	movwf	(___flmul@b)
  6366  05B4  00A0               
  6367                           	fcall	___flmul
  6368  05B5  3195  2595  3180   	movlb 0	; select bank0
  6369  05B8  0140               	movf	(3+(?___flmul)),w
  6370  05B9  0823               	movwf	(___flsub@a+3)
  6371  05BA  00B8               	movf	(2+(?___flmul)),w
  6372  05BB  0822               	movwf	(___flsub@a+2)
  6373  05BC  00B7               	movf	(1+(?___flmul)),w
  6374  05BD  0821               	movwf	(___flsub@a+1)
  6375  05BE  00B6               	movf	(0+(?___flmul)),w
  6376  05BF  0820               	movwf	(___flsub@a)
  6377  05C0  00B5               
  6378                           	movlb 1	; select bank1
  6379  05C1  0141               	movf	(efgtoa@h+3)^080h,w
  6380  05C2  0846               	movlb 0	; select bank0
  6381  05C3  0140               	movwf	(___flsub@b+3)
  6382  05C4  00BC               	movlb 1	; select bank1
  6383  05C5  0141               	movf	(efgtoa@h+2)^080h,w
  6384  05C6  0845               	movlb 0	; select bank0
  6385  05C7  0140               	movwf	(___flsub@b+2)
  6386  05C8  00BB               	movlb 1	; select bank1
  6387  05C9  0141               	movf	(efgtoa@h+1)^080h,w
  6388  05CA  0844               	movlb 0	; select bank0
  6389  05CB  0140               	movwf	(___flsub@b+1)
  6390  05CC  00BA               	movlb 1	; select bank1
  6391  05CD  0141               	movf	(efgtoa@h)^080h,w
  6392  05CE  0843               	movlb 0	; select bank0
  6393  05CF  0140               	movwf	(___flsub@b)
  6394  05D0  00B9               
  6395                           	fcall	___flsub
  6396  05D1  319E  264C  3180   	movlb 0	; select bank0
  6397  05D4  0140               	movf	(3+(?___flsub)),w
  6398  05D5  0838               	movlb 1	; select bank1
  6399  05D6  0141               	movwf	(efgtoa@h+3)^080h
  6400  05D7  00C6               	movlb 0	; select bank0
  6401  05D8  0140               	movf	(2+(?___flsub)),w
  6402  05D9  0837               	movlb 1	; select bank1
  6403  05DA  0141               	movwf	(efgtoa@h+2)^080h
  6404  05DB  00C5               	movlb 0	; select bank0
  6405  05DC  0140               	movf	(1+(?___flsub)),w
  6406  05DD  0836               	movlb 1	; select bank1
  6407  05DE  0141               	movwf	(efgtoa@h+1)^080h
  6408  05DF  00C4               	movlb 0	; select bank0
  6409  05E0  0140               	movf	(0+(?___flsub)),w
  6410  05E1  0835               	movlb 1	; select bank1
  6411  05E2  0141               	movwf	(efgtoa@h)^080h
  6412  05E3  00C3               
  6413                           	line	466
  6414                           	
  6415                           l3337:	
  6416  05E4                     ;C:\Program Files (x86)\Microchip\xc8\v2.00\pic\sources\c99\common\doprnt.c: 466:       
                                   u = u/10.0;
  6417                           	movlw	0x41
  6418  05E4  3041               	movwf	(___fldiv@a+3)
  6419  05E5  00F3               	movlw	0x20
  6420  05E6  3020               	movwf	(___fldiv@a+2)
  6421  05E7  00F2               	movlw	0x0
  6422  05E8  3000               	movwf	(___fldiv@a+1)
  6423  05E9  00F1               	movlw	0x0
  6424  05EA  3000               	movwf	(___fldiv@a)
  6425  05EB  00F0               
  6426                           	movf	(efgtoa@u+3)^080h,w
  6427  05EC  0858               	movwf	(___fldiv@b+3)
  6428  05ED  00F7               	movf	(efgtoa@u+2)^080h,w
  6429  05EE  0857               	movwf	(___fldiv@b+2)
  6430  05EF  00F6               	movf	(efgtoa@u+1)^080h,w
  6431  05F0  0856               	movwf	(___fldiv@b+1)
  6432  05F1  00F5               	movf	(efgtoa@u)^080h,w
  6433  05F2  0855               	movwf	(___fldiv@b)
  6434  05F3  00F4               
  6435                           	fcall	___fldiv
  6436  05F4  3188  2019  3180   	movf	(3+(?___fldiv)),w
  6437  05F7  0873               	movlb 1	; select bank1
  6438  05F8  0141               	movwf	(efgtoa@u+3)^080h
  6439  05F9  00D8               	movf	(2+(?___fldiv)),w
  6440  05FA  0872               	movwf	(efgtoa@u+2)^080h
  6441  05FB  00D7               	movf	(1+(?___fldiv)),w
  6442  05FC  0871               	movwf	(efgtoa@u+1)^080h
  6443  05FD  00D6               	movf	(0+(?___fldiv)),w
  6444  05FE  0870               	movwf	(efgtoa@u)^080h
  6445  05FF  00D5               
  6446                           	line	467
  6447                           	
  6448                           l3339:	
  6449  0600                     ;C:\Program Files (x86)\Microchip\xc8\v2.00\pic\sources\c99\common\doprnt.c: 467:       
                                   --ne;
  6450                           	movlw	0FFh
  6451  0600  30FF               	addwf	(efgtoa@ne)^080h,f
  6452  0601  07B6               	movlw	0FFh
  6453  0602  30FF               	addwfc	(efgtoa@ne+1)^080h,f
  6454  0603  3DB7               	line	468
  6455                           	
  6456                           l3341:	
  6457  0604                     ;C:\Program Files (x86)\Microchip\xc8\v2.00\pic\sources\c99\common\doprnt.c: 468:       
                                   ++i;
  6458                           	movlw	01h
  6459  0604  3001               	addwf	(efgtoa@i)^080h,f
  6460  0605  07CB               	movlw	0
  6461  0606  3000               	addwfc	(efgtoa@i+1)^080h,f
  6462  0607  3DCC               	goto	l3343
  6463  0608  2E09               	line	469
  6464                           ;C:\Program Files (x86)\Microchip\xc8\v2.00\pic\sources\c99\common\doprnt.c: 469:     }

  6465                           	
  6466                           l200:	
  6467  0609                     	line	446
  6468                           	
  6469                           l3343:	
  6470  0609                     ;C:\Program Files (x86)\Microchip\xc8\v2.00\pic\sources\c99\common\doprnt.c: 446:     wh
                                 ile ((i < m) && (n < (80 - 5))) {
  6471                           	movf	(efgtoa@i+1)^080h,w
  6472  0609  084C               	xorlw	80h
  6473  060A  3A80               	movlb 0	; select bank0
  6474  060B  0140               	movwf	(??_efgtoa+0)+0
  6475  060C  00CA               	movlb 1	; select bank1
  6476  060D  0141               	movf	(efgtoa@m+1)^080h,w
  6477  060E  0835               	xorlw	80h
  6478  060F  3A80               	movlb 0	; select bank0
  6479  0610  0140               	subwf	(??_efgtoa+0)+0,w
  6480  0611  024A               	skipz
  6481  0612  1D03               	goto	u4945
  6482  0613  2E17               	movlb 1	; select bank1
  6483  0614  0141               	movf	(efgtoa@m)^080h,w
  6484  0615  0834               	subwf	(efgtoa@i)^080h,w
  6485  0616  024B               u4945:
  6486  0617                     
  6487                           	skipnc
  6488  0617  1803               	goto	u4941
  6489  0618  2E1A               	goto	u4940
  6490  0619  2E1B               u4941:
  6491  061A                     	goto	l3347
  6492  061A  2E2D               u4940:
  6493  061B                     	
  6494                           l3345:	
  6495  061B                     	movlb 1	; select bank1
  6496  061B  0141               	movf	(efgtoa@n+1)^080h,w
  6497  061C  0854               	xorlw	80h
  6498  061D  3A80               	movlb 0	; select bank0
  6499  061E  0140               	movwf	(??_efgtoa+0)+0
  6500  061F  00CA               	movlw	(0)^80h
  6501  0620  3080               	subwf	(??_efgtoa+0)+0,w
  6502  0621  024A               	skipz
  6503  0622  1D03               	goto	u4955
  6504  0623  2E27               	movlw	04Bh
  6505  0624  304B               	movlb 1	; select bank1
  6506  0625  0141               	subwf	(efgtoa@n)^080h,w
  6507  0626  0253               u4955:
  6508  0627                     
  6509                           	skipc
  6510  0627  1C03               	goto	u4951
  6511  0628  2E2A               	goto	u4950
  6512  0629  2E2B               u4951:
  6513  062A                     	goto	l3295
  6514  062A  2CDD               u4950:
  6515  062B                     	goto	l3347
  6516  062B  2E2D               	
  6517                           l209:	
  6518  062C                     	goto	l3347
  6519  062C  2E2D               	
  6520                           l210:	
  6521  062D                     	line	470
  6522                           	
  6523                           l3347:	
  6524  062D                     ;C:\Program Files (x86)\Microchip\xc8\v2.00\pic\sources\c99\common\doprnt.c: 470:     if
                                  (!pp && (flags & (1 << 4))) {
  6525                           	movlb 1	; select bank1
  6526  062D  0141               	movf	((efgtoa@pp)^080h),w
  6527  062E  0832               iorwf	((efgtoa@pp+1)^080h),w
  6528  062F  0433               	btfss	status,2
  6529  0630  1D03               	goto	u4961
  6530  0631  2E33               	goto	u4960
  6531  0632  2E34               u4961:
  6532  0633                     	goto	l3355
  6533  0633  2E4B               u4960:
  6534  0634                     	
  6535                           l3349:	
  6536  0634                     	movlb 2	; select bank2
  6537  0634  0142               	btfss	(_flags)^0100h,(4)&7
  6538  0635  1E3E               	goto	u4971
  6539  0636  2E38               	goto	u4970
  6540  0637  2E39               u4971:
  6541  0638                     	goto	l3355
  6542  0638  2E4B               u4970:
  6543  0639                     	line	471
  6544                           	
  6545                           l3351:	
  6546  0639                     ;C:\Program Files (x86)\Microchip\xc8\v2.00\pic\sources\c99\common\doprnt.c: 471:       
                                   dbuf[n++] = '.';
  6547                           	movlw	low(02Eh)
  6548  0639  302E               	movlb 0	; select bank0
  6549  063A  0140               	movwf	(??_efgtoa+0)+0
  6550  063B  00CA               	movlb 1	; select bank1
  6551  063C  0141               	movf	(efgtoa@n)^080h,w
  6552  063D  0853               	addlw	low(_dbuf|((0x1)<<8))&0ffh
  6553  063E  3EA0               	movwf	fsr1l
  6554  063F  0086               	movlw 1	; select bank3/4
  6555  0640  3001               	movwf fsr1h	
  6556  0641  0087               	
  6557                           	movlb 0	; select bank0
  6558  0642  0140               	movf	(??_efgtoa+0)+0,w
  6559  0643  084A               	movwf	indf1
  6560  0644  0081               	
  6561                           l3353:	
  6562  0645                     	movlw	01h
  6563  0645  3001               	movlb 1	; select bank1
  6564  0646  0141               	addwf	(efgtoa@n)^080h,f
  6565  0647  07D3               	movlw	0
  6566  0648  3000               	addwfc	(efgtoa@n+1)^080h,f
  6567  0649  3DD4               	goto	l3355
  6568  064A  2E4B               	line	472
  6569                           ;C:\Program Files (x86)\Microchip\xc8\v2.00\pic\sources\c99\common\doprnt.c: 472:     }

  6570                           	
  6571                           l211:	
  6572  064B                     	line	473
  6573                           	
  6574                           l3355:	
  6575  064B                     ;C:\Program Files (x86)\Microchip\xc8\v2.00\pic\sources\c99\common\doprnt.c: 473:     db
                                 uf[n] = '\0';
  6576                           	movlb 1	; select bank1
  6577  064B  0141               	movf	(efgtoa@n)^080h,w
  6578  064C  0853               	addlw	low(_dbuf|((0x1)<<8))&0ffh
  6579  064D  3EA0               	movwf	fsr1l
  6580  064E  0086               	movlw 1	; select bank3/4
  6581  064F  3001               	movwf fsr1h	
  6582  0650  0087               	
  6583                           	clrf	indf1
  6584  0651  0181               	line	476
  6585                           	
  6586                           l3357:	
  6587  0652                     ;C:\Program Files (x86)\Microchip\xc8\v2.00\pic\sources\c99\common\doprnt.c: 476:     if
                                  (nmode == 'e') {
  6588                           		movlw	101
  6589  0652  3065               	xorwf	((efgtoa@nmode)^080h),w
  6590  0653  063F               	btfss	status,2
  6591  0654  1D03               	goto	u4981
  6592  0655  2E57               	goto	u4980
  6593  0656  2E58               u4981:
  6594  0657                     	goto	l3417
  6595  0657  2F48               u4980:
  6596  0658                     	line	477
  6597                           	
  6598                           l3359:	
  6599  0658                     ;C:\Program Files (x86)\Microchip\xc8\v2.00\pic\sources\c99\common\doprnt.c: 477:       
                                   i = sizeof(dbuf) - 1;
  6600                           	movlw	04Fh
  6601  0658  304F               	movwf	(efgtoa@i)^080h
  6602  0659  00CB               	movlw	0
  6603  065A  3000               	movwf	((efgtoa@i)^080h)+1
  6604  065B  00CC               	line	478
  6605                           	
  6606                           l3361:	
  6607  065C                     ;C:\Program Files (x86)\Microchip\xc8\v2.00\pic\sources\c99\common\doprnt.c: 478:       
                                   dbuf[i] = '\0';
  6608                           	movf	(efgtoa@i)^080h,w
  6609  065C  084B               	addlw	low(_dbuf|((0x1)<<8))&0ffh
  6610  065D  3EA0               	movwf	fsr1l
  6611  065E  0086               	movlw 1	; select bank3/4
  6612  065F  3001               	movwf fsr1h	
  6613  0660  0087               	
  6614                           	clrf	indf1
  6615  0661  0181               	line	479
  6616                           	
  6617                           l3363:	
  6618  0662                     ;C:\Program Files (x86)\Microchip\xc8\v2.00\pic\sources\c99\common\doprnt.c: 479:       
                                   sign = 0;
  6619                           	clrf	(efgtoa@sign)^080h
  6620  0662  01BA               	clrf	(efgtoa@sign+1)^080h
  6621  0663  01BB               	line	480
  6622                           	
  6623                           l3365:	
  6624  0664                     ;C:\Program Files (x86)\Microchip\xc8\v2.00\pic\sources\c99\common\doprnt.c: 480:       
                                   if (e < 0) {
  6625                           	btfss	(efgtoa@e+1)^080h,7
  6626  0664  1FD2               	goto	u4991
  6627  0665  2E67               	goto	u4990
  6628  0666  2E68               u4991:
  6629  0667                     	goto	l3371
  6630  0667  2E72               u4990:
  6631  0668                     	line	481
  6632                           	
  6633                           l3367:	
  6634  0668                     ;C:\Program Files (x86)\Microchip\xc8\v2.00\pic\sources\c99\common\doprnt.c: 481:       
                                       sign = 1;
  6635                           	movlw	01h
  6636  0668  3001               	movwf	(efgtoa@sign)^080h
  6637  0669  00BA               	movlw	0
  6638  066A  3000               	movwf	((efgtoa@sign)^080h)+1
  6639  066B  00BB               	line	482
  6640                           	
  6641                           l3369:	
  6642  066C                     ;C:\Program Files (x86)\Microchip\xc8\v2.00\pic\sources\c99\common\doprnt.c: 482:       
                                       e = -e;
  6643                           	comf	(efgtoa@e)^080h,f
  6644  066C  09D1               	comf	(efgtoa@e+1)^080h,f
  6645  066D  09D2               	incf	(efgtoa@e)^080h,f
  6646  066E  0AD1               	skipnz
  6647  066F  1903               	incf	(efgtoa@e+1)^080h,f
  6648  0670  0AD2               	goto	l3371
  6649  0671  2E72               	line	483
  6650                           ;C:\Program Files (x86)\Microchip\xc8\v2.00\pic\sources\c99\common\doprnt.c: 483:       
                                   }
  6651                           	
  6652                           l213:	
  6653  0672                     	line	484
  6654                           	
  6655                           l3371:	
  6656  0672                     ;C:\Program Files (x86)\Microchip\xc8\v2.00\pic\sources\c99\common\doprnt.c: 484:       
                                   p = 2;
  6657                           	movlw	02h
  6658  0672  3002               	movwf	(efgtoa@p)^080h
  6659  0673  00BD               	movlw	0
  6660  0674  3000               	movwf	((efgtoa@p)^080h)+1
  6661  0675  00BE               	line	485
  6662                           ;C:\Program Files (x86)\Microchip\xc8\v2.00\pic\sources\c99\common\doprnt.c: 485:       
                                   while (e || (0 < p)) {
  6663                           	goto	l3383
  6664  0676  2EAE               	
  6665                           l215:	
  6666  0677                     	line	486
  6667                           	
  6668                           l3373:	
  6669  0677                     ;C:\Program Files (x86)\Microchip\xc8\v2.00\pic\sources\c99\common\doprnt.c: 486:       
                                       --i;
  6670                           	movlw	0FFh
  6671  0677  30FF               	movlb 1	; select bank1
  6672  0678  0141               	addwf	(efgtoa@i)^080h,f
  6673  0679  07CB               	movlw	0FFh
  6674  067A  30FF               	addwfc	(efgtoa@i+1)^080h,f
  6675  067B  3DCC               	line	487
  6676                           	
  6677                           l3375:	
  6678  067C                     ;C:\Program Files (x86)\Microchip\xc8\v2.00\pic\sources\c99\common\doprnt.c: 487:       
                                       dbuf[i] = '0' + (e % 10);
  6679                           	movlw	0Ah
  6680  067C  300A               	movwf	(___awmod@divisor)
  6681  067D  00F0               	movlw	0
  6682  067E  3000               	movwf	((___awmod@divisor))+1
  6683  067F  00F1               	movf	(efgtoa@e+1)^080h,w
  6684  0680  0852               	movwf	(___awmod@dividend+1)
  6685  0681  00F3               	movf	(efgtoa@e)^080h,w
  6686  0682  0851               	movwf	(___awmod@dividend)
  6687  0683  00F2               	fcall	___awmod
  6688  0684  3191  2101  3180   	movf	(0+(?___awmod)),w
  6689  0687  0870               	addlw	030h
  6690  0688  3E30               	movlb 0	; select bank0
  6691  0689  0140               	movwf	(??_efgtoa+0)+0
  6692  068A  00CA               	movlb 1	; select bank1
  6693  068B  0141               	movf	(efgtoa@i)^080h,w
  6694  068C  084B               	addlw	low(_dbuf|((0x1)<<8))&0ffh
  6695  068D  3EA0               	movwf	fsr1l
  6696  068E  0086               	movlw 1	; select bank3/4
  6697  068F  3001               	movwf fsr1h	
  6698  0690  0087               	
  6699                           	movlb 0	; select bank0
  6700  0691  0140               	movf	(??_efgtoa+0)+0,w
  6701  0692  084A               	movwf	indf1
  6702  0693  0081               	line	488
  6703                           	
  6704                           l3377:	
  6705  0694                     ;C:\Program Files (x86)\Microchip\xc8\v2.00\pic\sources\c99\common\doprnt.c: 488:       
                                       e = e / 10;
  6706                           	movlw	0Ah
  6707  0694  300A               	movwf	(___awdiv@divisor)
  6708  0695  00F0               	movlw	0
  6709  0696  3000               	movwf	((___awdiv@divisor))+1
  6710  0697  00F1               	movlb 1	; select bank1
  6711  0698  0141               	movf	(efgtoa@e+1)^080h,w
  6712  0699  0852               	movwf	(___awdiv@dividend+1)
  6713  069A  00F3               	movf	(efgtoa@e)^080h,w
  6714  069B  0851               	movwf	(___awdiv@dividend)
  6715  069C  00F2               	fcall	___awdiv
  6716  069D  3192  2222  3180   	movf	(1+(?___awdiv)),w
  6717  06A0  0871               	movlb 1	; select bank1
  6718  06A1  0141               	movwf	(efgtoa@e+1)^080h
  6719  06A2  00D2               	movf	(0+(?___awdiv)),w
  6720  06A3  0870               	movwf	(efgtoa@e)^080h
  6721  06A4  00D1               	line	489
  6722                           	
  6723                           l3379:	
  6724  06A5                     ;C:\Program Files (x86)\Microchip\xc8\v2.00\pic\sources\c99\common\doprnt.c: 489:       
                                       --p;
  6725                           	movlw	0FFh
  6726  06A5  30FF               	addwf	(efgtoa@p)^080h,f
  6727  06A6  07BD               	movlw	0FFh
  6728  06A7  30FF               	addwfc	(efgtoa@p+1)^080h,f
  6729  06A8  3DBE               	line	490
  6730                           	
  6731                           l3381:	
  6732  06A9                     ;C:\Program Files (x86)\Microchip\xc8\v2.00\pic\sources\c99\common\doprnt.c: 490:       
                                       --w;
  6733                           	movlw	0FFh
  6734  06A9  30FF               	addwf	(efgtoa@w)^080h,f
  6735  06AA  07C0               	movlw	0FFh
  6736  06AB  30FF               	addwfc	(efgtoa@w+1)^080h,f
  6737  06AC  3DC1               	goto	l3383
  6738  06AD  2EAE               	line	491
  6739                           ;C:\Program Files (x86)\Microchip\xc8\v2.00\pic\sources\c99\common\doprnt.c: 491:       
                                   }
  6740                           	
  6741                           l214:	
  6742  06AE                     	line	485
  6743                           	
  6744                           l3383:	
  6745  06AE                     ;C:\Program Files (x86)\Microchip\xc8\v2.00\pic\sources\c99\common\doprnt.c: 485:       
                                   while (e || (0 < p)) {
  6746                           	movf	((efgtoa@e)^080h),w
  6747  06AE  0851               iorwf	((efgtoa@e+1)^080h),w
  6748  06AF  0452               	btfss	status,2
  6749  06B0  1D03               	goto	u5001
  6750  06B1  2EB3               	goto	u5000
  6751  06B2  2EB4               u5001:
  6752  06B3                     	goto	l3373
  6753  06B3  2E77               u5000:
  6754  06B4                     	
  6755                           l3385:	
  6756  06B4                     	movf	(efgtoa@p+1)^080h,w
  6757  06B4  083E               	xorlw	80h
  6758  06B5  3A80               	movlb 0	; select bank0
  6759  06B6  0140               	movwf	(??_efgtoa+0)+0
  6760  06B7  00CA               	movlw	(0)^80h
  6761  06B8  3080               	subwf	(??_efgtoa+0)+0,w
  6762  06B9  024A               	skipz
  6763  06BA  1D03               	goto	u5015
  6764  06BB  2EBF               	movlw	01h
  6765  06BC  3001               	movlb 1	; select bank1
  6766  06BD  0141               	subwf	(efgtoa@p)^080h,w
  6767  06BE  023D               u5015:
  6768  06BF                     
  6769                           	skipnc
  6770  06BF  1803               	goto	u5011
  6771  06C0  2EC2               	goto	u5010
  6772  06C1  2EC3               u5011:
  6773  06C2                     	goto	l3373
  6774  06C2  2E77               u5010:
  6775  06C3                     	goto	l3387
  6776  06C3  2EC4               	
  6777                           l216:	
  6778  06C4                     	line	492
  6779                           	
  6780                           l3387:	
  6781  06C4                     ;C:\Program Files (x86)\Microchip\xc8\v2.00\pic\sources\c99\common\doprnt.c: 492:       
                                   --i;
  6782                           	movlw	0FFh
  6783  06C4  30FF               	movlb 1	; select bank1
  6784  06C5  0141               	addwf	(efgtoa@i)^080h,f
  6785  06C6  07CB               	movlw	0FFh
  6786  06C7  30FF               	addwfc	(efgtoa@i+1)^080h,f
  6787  06C8  3DCC               	line	493
  6788                           	
  6789                           l3389:	
  6790  06C9                     ;C:\Program Files (x86)\Microchip\xc8\v2.00\pic\sources\c99\common\doprnt.c: 493:       
                                   dbuf[i] = sign ? '-' : '+';
  6791                           	movf	((efgtoa@sign)^080h),w
  6792  06C9  083A               iorwf	((efgtoa@sign+1)^080h),w
  6793  06CA  043B               	btfss	status,2
  6794  06CB  1D03               	goto	u5021
  6795  06CC  2ECE               	goto	u5020
  6796  06CD  2ECF               u5021:
  6797  06CE                     	goto	l3393
  6798  06CE  2ED4               u5020:
  6799  06CF                     	
  6800                           l3391:	
  6801  06CF                     	movlw	02Bh
  6802  06CF  302B               	movwf	(_efgtoa$262)^080h
  6803  06D0  00AA               	movlw	0
  6804  06D1  3000               	movwf	((_efgtoa$262)^080h)+1
  6805  06D2  00AB               	goto	l3395
  6806  06D3  2ED9               	
  6807                           l218:	
  6808  06D4                     	
  6809                           l3393:	
  6810  06D4                     	movlw	02Dh
  6811  06D4  302D               	movwf	(_efgtoa$262)^080h
  6812  06D5  00AA               	movlw	0
  6813  06D6  3000               	movwf	((_efgtoa$262)^080h)+1
  6814  06D7  00AB               	goto	l3395
  6815  06D8  2ED9               	
  6816                           l220:	
  6817  06D9                     	
  6818                           l3395:	
  6819  06D9                     	movf	(_efgtoa$262)^080h,w
  6820  06D9  082A               	movlb 0	; select bank0
  6821  06DA  0140               	movwf	(??_efgtoa+0)+0
  6822  06DB  00CA               	movlb 1	; select bank1
  6823  06DC  0141               	movf	(efgtoa@i)^080h,w
  6824  06DD  084B               	addlw	low(_dbuf|((0x1)<<8))&0ffh
  6825  06DE  3EA0               	movwf	fsr1l
  6826  06DF  0086               	movlw 1	; select bank3/4
  6827  06E0  3001               	movwf fsr1h	
  6828  06E1  0087               	
  6829                           	movlb 0	; select bank0
  6830  06E2  0140               	movf	(??_efgtoa+0)+0,w
  6831  06E3  084A               	movwf	indf1
  6832  06E4  0081               	line	494
  6833                           	
  6834                           l3397:	
  6835  06E5                     ;C:\Program Files (x86)\Microchip\xc8\v2.00\pic\sources\c99\common\doprnt.c: 494:       
                                   --w;
  6836                           	movlw	0FFh
  6837  06E5  30FF               	movlb 1	; select bank1
  6838  06E6  0141               	addwf	(efgtoa@w)^080h,f
  6839  06E7  07C0               	movlw	0FFh
  6840  06E8  30FF               	addwfc	(efgtoa@w+1)^080h,f
  6841  06E9  3DC1               	line	495
  6842                           	
  6843                           l3399:	
  6844  06EA                     ;C:\Program Files (x86)\Microchip\xc8\v2.00\pic\sources\c99\common\doprnt.c: 496:       
                                   dbuf[i] = (0 ? isupper((int)c) : ((unsigned)((int)c)-'A') < 26) ? 'E' : 'e';
  6845                           	movlw	0FFh
  6846  06EA  30FF               	addwf	(efgtoa@i)^080h,f
  6847  06EB  07CB               	movlw	0FFh
  6848  06EC  30FF               	addwfc	(efgtoa@i+1)^080h,f
  6849  06ED  3DCC               	line	496
  6850                           	
  6851                           l3401:	
  6852  06EE                     	movlb 0	; select bank0
  6853  06EE  0140               	movf	(efgtoa@c),w
  6854  06EF  0849               	addlw	low(0FFBFh)
  6855  06F0  3EBF               	movwf	(??_efgtoa+0)+0
  6856  06F1  00CA               	movlw	high(0FFBFh)
  6857  06F2  30FF               	skipnc
  6858  06F3  1803               	movlw	(high(0FFBFh)+1)&0ffh
  6859  06F4  3000               	movwf	((??_efgtoa+0)+0)+1
  6860  06F5  00CB               	movlw	0
  6861  06F6  3000               	subwf	1+(??_efgtoa+0)+0,w
  6862  06F7  024B               	movlw	01Ah
  6863  06F8  301A               	skipnz
  6864  06F9  1903               	subwf	0+(??_efgtoa+0)+0,w
  6865  06FA  024A               	skipc
  6866  06FB  1C03               	goto	u5031
  6867  06FC  2EFE               	goto	u5030
  6868  06FD  2F00               u5031:
  6869  06FE                     	movlw	1
  6870  06FE  3001               	goto	u5040
  6871  06FF  2F01               u5030:
  6872  0700                     	movlw	0
  6873  0700  3000               u5040:
  6874  0701                     	movwf	(??_efgtoa+2)+0
  6875  0701  00CC               	clrf	(??_efgtoa+2)+0+1
  6876  0702  01CD               	movf	0+(??_efgtoa+2)+0,w
  6877  0703  084C               	movlb 1	; select bank1
  6878  0704  0141               	movwf	(_efgtoa$264)^080h
  6879  0705  00AE               	movlb 0	; select bank0
  6880  0706  0140               	movf	1+(??_efgtoa+2)+0,w
  6881  0707  084D               	movlb 1	; select bank1
  6882  0708  0141               	movwf	(_efgtoa$264+1)^080h
  6883  0709  00AF               	goto	l3405
  6884  070A  2F1C               	
  6885                           l226:	
  6886  070B                     	
  6887                           l3403:	
  6888  070B                     	movlb 0	; select bank0
  6889  070B  0140               	movf	(efgtoa@c),w
  6890  070C  0849               	movwf	(??_efgtoa+0)+0
  6891  070D  00CA               	clrf	(??_efgtoa+0)+0+1
  6892  070E  01CB               	movf	0+(??_efgtoa+0)+0,w
  6893  070F  084A               	movwf	(isupper@c)
  6894  0710  00F0               	movf	1+(??_efgtoa+0)+0,w
  6895  0711  084B               	movwf	(isupper@c+1)
  6896  0712  00F1               	fcall	_isupper
  6897  0713  3188  2000  3180   	movf	(1+(?_isupper)),w
  6898  0716  0871               	movlb 1	; select bank1
  6899  0717  0141               	movwf	(_efgtoa$264+1)^080h
  6900  0718  00AF               	movf	(0+(?_isupper)),w
  6901  0719  0870               	movwf	(_efgtoa$264)^080h
  6902  071A  00AE               	goto	l3405
  6903  071B  2F1C               	
  6904                           l228:	
  6905  071C                     	
  6906                           l3405:	
  6907  071C                     	movf	((_efgtoa$264)^080h),w
  6908  071C  082E               iorwf	((_efgtoa$264+1)^080h),w
  6909  071D  042F               	btfss	status,2
  6910  071E  1D03               	goto	u5051
  6911  071F  2F21               	goto	u5050
  6912  0720  2F22               u5051:
  6913  0721                     	goto	l3409
  6914  0721  2F27               u5050:
  6915  0722                     	
  6916                           l3407:	
  6917  0722                     	movlw	065h
  6918  0722  3065               	movwf	(_efgtoa$263)^080h
  6919  0723  00AC               	movlw	0
  6920  0724  3000               	movwf	((_efgtoa$263)^080h)+1
  6921  0725  00AD               	goto	l3411
  6922  0726  2F2C               	
  6923                           l222:	
  6924  0727                     	
  6925                           l3409:	
  6926  0727                     	movlw	045h
  6927  0727  3045               	movwf	(_efgtoa$263)^080h
  6928  0728  00AC               	movlw	0
  6929  0729  3000               	movwf	((_efgtoa$263)^080h)+1
  6930  072A  00AD               	goto	l3411
  6931  072B  2F2C               	
  6932                           l224:	
  6933  072C                     	
  6934                           l3411:	
  6935  072C                     	movf	(_efgtoa$263)^080h,w
  6936  072C  082C               	movlb 0	; select bank0
  6937  072D  0140               	movwf	(??_efgtoa+0)+0
  6938  072E  00CA               	movlb 1	; select bank1
  6939  072F  0141               	movf	(efgtoa@i)^080h,w
  6940  0730  084B               	addlw	low(_dbuf|((0x1)<<8))&0ffh
  6941  0731  3EA0               	movwf	fsr1l
  6942  0732  0086               	movlw 1	; select bank3/4
  6943  0733  3001               	movwf fsr1h	
  6944  0734  0087               	
  6945                           	movlb 0	; select bank0
  6946  0735  0140               	movf	(??_efgtoa+0)+0,w
  6947  0736  084A               	movwf	indf1
  6948  0737  0081               	line	497
  6949                           	
  6950                           l3413:	
  6951  0738                     ;C:\Program Files (x86)\Microchip\xc8\v2.00\pic\sources\c99\common\doprnt.c: 497:       
                                   --w;
  6952                           	movlw	0FFh
  6953  0738  30FF               	movlb 1	; select bank1
  6954  0739  0141               	addwf	(efgtoa@w)^080h,f
  6955  073A  07C0               	movlw	0FFh
  6956  073B  30FF               	addwfc	(efgtoa@w+1)^080h,f
  6957  073C  3DC1               	line	498
  6958                           	
  6959                           l3415:	
  6960  073D                     ;C:\Program Files (x86)\Microchip\xc8\v2.00\pic\sources\c99\common\doprnt.c: 498:       
                                   strcpy(&dbuf[n], &dbuf[i]);
  6961                           	movf	(efgtoa@i)^080h,w
  6962  073D  084B               	addlw	low(_dbuf|((0x1)<<8))&0ffh
  6963  073E  3EA0               	movwf	(strcpy@src)
  6964  073F  00F0               	movlw	0x1
  6965  0740  3001               
  6966                           	movwf	(strcpy@src+1)
  6967  0741  00F1               	movf	(efgtoa@n)^080h,w
  6968  0742  0853               	addlw	low(_dbuf|((0x1)<<8))&0ffh
  6969  0743  3EA0               	fcall	_strcpy
  6970  0744  319E  2690  3180   	goto	l3417
  6971  0747  2F48               	line	499
  6972                           ;C:\Program Files (x86)\Microchip\xc8\v2.00\pic\sources\c99\common\doprnt.c: 499:     }

  6973                           	
  6974                           l212:	
  6975  0748                     	line	502
  6976                           	
  6977                           l3417:	
  6978  0748                     ;C:\Program Files (x86)\Microchip\xc8\v2.00\pic\sources\c99\common\doprnt.c: 502:     re
                                 turn pad(fp, &dbuf[0], w);
  6979                           	movlw	(low(_dbuf|((0x1)<<8)))&0ffh
  6980  0748  30A0               	movlb 0	; select bank0
  6981  0749  0140               	movwf	(??_efgtoa+0)+0
  6982  074A  00CA               	movf	(??_efgtoa+0)+0,w
  6983  074B  084A               	movwf	(pad@buf)
  6984  074C  00A4               	movlb 1	; select bank1
  6985  074D  0141               	movf	(efgtoa@w+1)^080h,w
  6986  074E  0841               	movlb 0	; select bank0
  6987  074F  0140               	movwf	(pad@p+1)
  6988  0750  00A6               	movlb 1	; select bank1
  6989  0751  0141               	movf	(efgtoa@w)^080h,w
  6990  0752  0840               	movlb 0	; select bank0
  6991  0753  0140               	movwf	(pad@p)
  6992  0754  00A5               	movlb 1	; select bank1
  6993  0755  0141               	movf	(efgtoa@fp)^080h,w
  6994  0756  083C               	fcall	_pad
  6995  0757  3191  215E  3180   	movlb 0	; select bank0
  6996  075A  0140               	movf	(1+(?_pad)),w
  6997  075B  0825               	movwf	(?_efgtoa+1)
  6998  075C  00C6               	movf	(0+(?_pad)),w
  6999  075D  0824               	movwf	(?_efgtoa)
  7000  075E  00C5               	goto	l155
  7001  075F  2F60               	
  7002                           l3419:	
  7003  0760                     	line	503
  7004                           	
  7005                           l155:	
  7006  0760                     	return
  7007  0760  0008               	opt stack 0
  7008                           GLOBAL	__end_of_efgtoa
  7009                           	__end_of_efgtoa:
  7010  0761                     	signat	_efgtoa,12410
  7011                           	global	_tolower
  7012                           
  7013 ;; *************** function _tolower *****************
  7014 ;; Defined at:
  7015 ;;		line 4 in file "C:\Program Files (x86)\Microchip\xc8\v2.00\pic\sources\c99\common\tolower.c"
  7016 ;; Parameters:    Size  Location     Type
  7017 ;;  c               2    6[COMMON] int 
  7018 ;; Auto vars:     Size  Location     Type
  7019 ;;		None
  7020 ;; Return value:  Size  Location     Type
  7021 ;;                  2    6[COMMON] int 
  7022 ;; Registers used:
  7023 ;;		wreg, status,2, status,0, pclath, cstack
  7024 ;; Tracked objects:
  7025 ;;		On entry : 0/0
  7026 ;;		On exit  : 0/0
  7027 ;;		Unchanged: 0/0
  7028 ;; Data sizes:     COMMON   BANK0   BANK1   BANK2   BANK3   BANK4   BANK5   BANK6   BANK7   BANK8   BANK9  BANK10  BANK1
       1  BANK12
  7029 ;;      Params:         2       0       0       0       0       0       0       0       0       0       0       0       
       0       0
  7030 ;;      Locals:         2       0       0       0       0       0       0       0       0       0       0       0       
       0       0
  7031 ;;      Temps:          4       0       0       0       0       0       0       0       0       0       0       0       
       0       0
  7032 ;;      Totals:         8       0       0       0       0       0       0       0       0       0       0       0       
       0       0
  7033 ;;Total ram usage:        8 bytes
  7034 ;; Hardware stack levels used:    1
  7035 ;; Hardware stack levels required when called:    2
  7036 ;; This function calls:
  7037 ;;		_isupper
  7038 ;; This function is called by:
  7039 ;;		_efgtoa
  7040 ;;		_vfpfcnvrt
  7041 ;; This function uses a non-reentrant model
  7042 ;;
  7043                           psect	text6,local,class=CODE,delta=2,merge=1,group=2
  7044                           	file	"C:\Program Files (x86)\Microchip\xc8\v2.00\pic\sources\c99\common\tolower.c"
  7045                           	line	4
  7046                           global __ptext6
  7047                           __ptext6:	;psect for function _tolower
  7048  1F2F                     psect	text6
  7049                           	file	"C:\Program Files (x86)\Microchip\xc8\v2.00\pic\sources\c99\common\tolower.c"
  7050                           	line	4
  7051                           	global	__size_of_tolower
  7052                           	__size_of_tolower	equ	__end_of_tolower-_tolower
  7053  0033                     	
  7054                           _tolower:	
  7055  1F2F                     ;incstack = 0
  7056                           	opt	stack 10
  7057                           ; Regs used in _tolower: [wreg+status,2+status,0+pclath+cstack]
  7058                           	line	6
  7059                           	
  7060                           l2609:	
  7061  1F2F                     	movf	(tolower@c),w
  7062  1F2F  0876               	addlw	0BFh
  7063  1F30  3EBF               	movwf	(??_tolower+0)+0
  7064  1F31  00F8               	movlw	0FFh
  7065  1F32  30FF               	addwfc	(tolower@c+1),w
  7066  1F33  3D77               	movwf	1+(??_tolower+0)+0
  7067  1F34  00F9               	movlw	0
  7068  1F35  3000               	subwf	1+(??_tolower+0)+0,w
  7069  1F36  0279               	movlw	01Ah
  7070  1F37  301A               	skipnz
  7071  1F38  1903               	subwf	0+(??_tolower+0)+0,w
  7072  1F39  0278               	skipc
  7073  1F3A  1C03               	goto	u3391
  7074  1F3B  2F3D               	goto	u3390
  7075  1F3C  2F3F               u3391:
  7076  1F3D                     	movlw	1
  7077  1F3D  3001               	goto	u3400
  7078  1F3E  2F40               u3390:
  7079  1F3F                     	movlw	0
  7080  1F3F  3000               u3400:
  7081  1F40                     	movwf	(??_tolower+2)+0
  7082  1F40  00FA               	clrf	(??_tolower+2)+0+1
  7083  1F41  01FB               	movf	0+(??_tolower+2)+0,w
  7084  1F42  087A               	movwf	(_tolower$702)
  7085  1F43  00FC               	movf	1+(??_tolower+2)+0,w
  7086  1F44  087B               	movwf	(_tolower$702+1)
  7087  1F45  00FD               	goto	l2613
  7088  1F46  2F53               	
  7089                           l849:	
  7090  1F47                     	
  7091                           l2611:	
  7092  1F47                     	movf	(tolower@c+1),w
  7093  1F47  0877               	movwf	(isupper@c+1)
  7094  1F48  00F1               	movf	(tolower@c),w
  7095  1F49  0876               	movwf	(isupper@c)
  7096  1F4A  00F0               	fcall	_isupper
  7097  1F4B  3188  2000  319F   	movf	(1+(?_isupper)),w
  7098  1F4E  0871               	movwf	(_tolower$702+1)
  7099  1F4F  00FD               	movf	(0+(?_isupper)),w
  7100  1F50  0870               	movwf	(_tolower$702)
  7101  1F51  00FC               	goto	l2613
  7102  1F52  2F53               	
  7103                           l851:	
  7104  1F53                     	
  7105                           l2613:	
  7106  1F53                     	movf	((_tolower$702)),w
  7107  1F53  087C               iorwf	((_tolower$702+1)),w
  7108  1F54  047D               	btfsc	status,2
  7109  1F55  1903               	goto	u3411
  7110  1F56  2F58               	goto	u3410
  7111  1F57  2F59               u3411:
  7112  1F58                     	goto	l847
  7113  1F58  2F61               u3410:
  7114  1F59                     	
  7115                           l2615:	
  7116  1F59                     	movlw	020h
  7117  1F59  3020               	iorwf	(tolower@c),w
  7118  1F5A  0476               	movwf	(?_tolower)
  7119  1F5B  00F6               	movlw	0
  7120  1F5C  3000               	iorwf	(tolower@c+1),w
  7121  1F5D  0477               	movwf	1+(?_tolower)
  7122  1F5E  00F7               	goto	l852
  7123  1F5F  2F61               	
  7124                           l2617:	
  7125  1F60                     	goto	l852
  7126  1F60  2F61               	
  7127                           l847:	
  7128  1F61                     	line	7
  7129                           	line	8
  7130                           	
  7131                           l852:	
  7132  1F61                     	return
  7133  1F61  0008               	opt stack 0
  7134                           GLOBAL	__end_of_tolower
  7135                           	__end_of_tolower:
  7136  1F62                     	signat	_tolower,4218
  7137                           	global	_isupper
  7138                           
  7139 ;; *************** function _isupper *****************
  7140 ;; Defined at:
  7141 ;;		line 5 in file "C:\Program Files (x86)\Microchip\xc8\v2.00\pic\sources\c99\common\isupper.c"
  7142 ;; Parameters:    Size  Location     Type
  7143 ;;  c               2    0[COMMON] int 
  7144 ;; Auto vars:     Size  Location     Type
  7145 ;;		None
  7146 ;; Return value:  Size  Location     Type
  7147 ;;                  2    0[COMMON] int 
  7148 ;; Registers used:
  7149 ;;		wreg, status,2, status,0
  7150 ;; Tracked objects:
  7151 ;;		On entry : 0/0
  7152 ;;		On exit  : 0/0
  7153 ;;		Unchanged: 0/0
  7154 ;; Data sizes:     COMMON   BANK0   BANK1   BANK2   BANK3   BANK4   BANK5   BANK6   BANK7   BANK8   BANK9  BANK10  BANK1
       1  BANK12
  7155 ;;      Params:         2       0       0       0       0       0       0       0       0       0       0       0       
       0       0
  7156 ;;      Locals:         0       0       0       0       0       0       0       0       0       0       0       0       
       0       0
  7157 ;;      Temps:          4       0       0       0       0       0       0       0       0       0       0       0       
       0       0
  7158 ;;      Totals:         6       0       0       0       0       0       0       0       0       0       0       0       
       0       0
  7159 ;;Total ram usage:        6 bytes
  7160 ;; Hardware stack levels used:    1
  7161 ;; Hardware stack levels required when called:    1
  7162 ;; This function calls:
  7163 ;;		Nothing
  7164 ;; This function is called by:
  7165 ;;		_efgtoa
  7166 ;;		_vfpfcnvrt
  7167 ;;		_tolower
  7168 ;; This function uses a non-reentrant model
  7169 ;;
  7170                           psect	text7,local,class=CODE,delta=2,merge=1,group=2
  7171                           	file	"C:\Program Files (x86)\Microchip\xc8\v2.00\pic\sources\c99\common\isupper.c"
  7172                           	line	5
  7173                           global __ptext7
  7174                           __ptext7:	;psect for function _isupper
  7175  0800                     psect	text7
  7176                           	file	"C:\Program Files (x86)\Microchip\xc8\v2.00\pic\sources\c99\common\isupper.c"
  7177                           	line	5
  7178                           	global	__size_of_isupper
  7179                           	__size_of_isupper	equ	__end_of_isupper-_isupper
  7180  0019                     	
  7181                           _isupper:	
  7182  0800                     ;incstack = 0
  7183                           	opt	stack 10
  7184                           ; Regs used in _isupper: [wreg+status,2+status,0]
  7185                           	line	7
  7186                           	
  7187                           l2347:	
  7188  0800                     	movf	(isupper@c),w
  7189  0800  0870               	addlw	0BFh
  7190  0801  3EBF               	movwf	(??_isupper+0)+0
  7191  0802  00F2               	movlw	0FFh
  7192  0803  30FF               	addwfc	(isupper@c+1),w
  7193  0804  3D71               	movwf	1+(??_isupper+0)+0
  7194  0805  00F3               	movlw	0
  7195  0806  3000               	subwf	1+(??_isupper+0)+0,w
  7196  0807  0273               	movlw	01Ah
  7197  0808  301A               	skipnz
  7198  0809  1903               	subwf	0+(??_isupper+0)+0,w
  7199  080A  0272               	skipc
  7200  080B  1C03               	goto	u2781
  7201  080C  280E               	goto	u2780
  7202  080D  2810               u2781:
  7203  080E                     	movlw	1
  7204  080E  3001               	goto	u2790
  7205  080F  2811               u2780:
  7206  0810                     	movlw	0
  7207  0810  3000               u2790:
  7208  0811                     	movwf	(??_isupper+2)+0
  7209  0811  00F4               	clrf	(??_isupper+2)+0+1
  7210  0812  01F5               	movf	0+(??_isupper+2)+0,w
  7211  0813  0874               	movwf	(?_isupper)
  7212  0814  00F0               	movf	1+(??_isupper+2)+0,w
  7213  0815  0875               	movwf	(?_isupper+1)
  7214  0816  00F1               	goto	l788
  7215  0817  2818               	
  7216                           l2349:	
  7217  0818                     	line	8
  7218                           	
  7219                           l788:	
  7220  0818                     	return
  7221  0818  0008               	opt stack 0
  7222                           GLOBAL	__end_of_isupper
  7223                           	__end_of_isupper:
  7224  0819                     	signat	_isupper,4218
  7225                           	global	_strcpy
  7226                           
  7227 ;; *************** function _strcpy *****************
  7228 ;; Defined at:
  7229 ;;		line 7 in file "C:\Program Files (x86)\Microchip\xc8\v2.00\pic\sources\c99\common\strcpy.c"
  7230 ;; Parameters:    Size  Location     Type
  7231 ;;  dest            1    wreg     PTR unsigned char 
  7232 ;;		 -> dbuf(80), 
  7233 ;;  src             2    0[COMMON] PTR const unsigned char 
  7234 ;;		 -> STR_7(4), STR_6(4), STR_3(4), STR_2(4), 
  7235 ;;		 -> dbuf(80), 
  7236 ;; Auto vars:     Size  Location     Type
  7237 ;;  dest            1    7[COMMON] PTR unsigned char 
  7238 ;;		 -> dbuf(80), 
  7239 ;;  s               2    4[COMMON] PTR const unsigned char 
  7240 ;;		 -> STR_7(4), STR_6(4), STR_3(4), STR_2(4), 
  7241 ;;		 -> dbuf(80), 
  7242 ;;  d               1    6[COMMON] PTR unsigned char 
  7243 ;;		 -> dbuf(80), 
  7244 ;; Return value:  Size  Location     Type
  7245 ;;                  1    wreg      PTR unsigned char 
  7246 ;; Registers used:
  7247 ;;		wreg, fsr0l, fsr0h, fsr1l, fsr1h, status,2, status,0, pclath
  7248 ;; Tracked objects:
  7249 ;;		On entry : 0/0
  7250 ;;		On exit  : 0/0
  7251 ;;		Unchanged: 0/0
  7252 ;; Data sizes:     COMMON   BANK0   BANK1   BANK2   BANK3   BANK4   BANK5   BANK6   BANK7   BANK8   BANK9  BANK10  BANK1
       1  BANK12
  7253 ;;      Params:         2       0       0       0       0       0       0       0       0       0       0       0       
       0       0
  7254 ;;      Locals:         4       0       0       0       0       0       0       0       0       0       0       0       
       0       0
  7255 ;;      Temps:          2       0       0       0       0       0       0       0       0       0       0       0       
       0       0
  7256 ;;      Totals:         8       0       0       0       0       0       0       0       0       0       0       0       
       0       0
  7257 ;;Total ram usage:        8 bytes
  7258 ;; Hardware stack levels used:    1
  7259 ;; Hardware stack levels required when called:    1
  7260 ;; This function calls:
  7261 ;;		Nothing
  7262 ;; This function is called by:
  7263 ;;		_efgtoa
  7264 ;; This function uses a non-reentrant model
  7265 ;;
  7266                           psect	text8,local,class=CODE,delta=2,merge=1,group=2
  7267                           	file	"C:\Program Files (x86)\Microchip\xc8\v2.00\pic\sources\c99\common\strcpy.c"
  7268                           	line	7
  7269                           global __ptext8
  7270                           __ptext8:	;psect for function _strcpy
  7271  1E90                     psect	text8
  7272                           	file	"C:\Program Files (x86)\Microchip\xc8\v2.00\pic\sources\c99\common\strcpy.c"
  7273                           	line	7
  7274                           	global	__size_of_strcpy
  7275                           	__size_of_strcpy	equ	__end_of_strcpy-_strcpy
  7276  0024                     	
  7277                           _strcpy:	
  7278  1E90                     ;incstack = 0
  7279                           	opt	stack 10
  7280                           ; Regs used in _strcpy: [wreg-fsr1h+status,2+status,0+pclath]
  7281                           ;strcpy@dest stored from wreg
  7282                           	movwf	(strcpy@dest)
  7283  1E90  00F7               	line	13
  7284                           	
  7285                           l2605:	
  7286  1E91                     	movf	(strcpy@src+1),w
  7287  1E91  0871               	movwf	(strcpy@s+1)
  7288  1E92  00F5               	movf	(strcpy@src),w
  7289  1E93  0870               	movwf	(strcpy@s)
  7290  1E94  00F4               	line	14
  7291                           	movf	(strcpy@dest),w
  7292  1E95  0877               	movwf	(??_strcpy+0)+0
  7293  1E96  00F2               	movf	(??_strcpy+0)+0,w
  7294  1E97  0872               	movwf	(strcpy@d)
  7295  1E98  00F6               	line	15
  7296                           	goto	l2607
  7297  1E99  2E9B               	
  7298                           l825:	
  7299  1E9A                     	goto	l2607
  7300  1E9A  2E9B               	
  7301                           l824:	
  7302  1E9B                     	
  7303                           l2607:	
  7304  1E9B                     	movf	(strcpy@d),w
  7305  1E9B  0876               	movwf	fsr1l
  7306  1E9C  0086               	movlw 1	; select bank2/3
  7307  1E9D  3001               	movwf fsr1h	
  7308  1E9E  0087               	
  7309                           	incf	(strcpy@d),f
  7310  1E9F  0AF6               	movf	(strcpy@s+1),w
  7311  1EA0  0875               	movwf	(??_strcpy+0)+0+1
  7312  1EA1  00F3               	movf	(strcpy@s),w
  7313  1EA2  0874               	movwf	(??_strcpy+0)+0
  7314  1EA3  00F2               	incf	(strcpy@s),f
  7315  1EA4  0AF4               	skipnz
  7316  1EA5  1903               	incf	(strcpy@s+1),f
  7317  1EA6  0AF5               	movf	0+(??_strcpy+0)+0,w
  7318  1EA7  0872               	movwf	fsr0l
  7319  1EA8  0084               	movf	(1+(??_strcpy+0)+0),w
  7320  1EA9  0873               	movwf	fsr0h
  7321  1EAA  0085               	movf	indf0,w ;code access
  7322  1EAB  0800               	movwi	[0]fsr1
  7323  1EAC  3FC0               	movf	wreg
  7324  1EAD  0889               	btfss	status,2
  7325  1EAE  1D03               	goto	u3381
  7326  1EAF  2EB1               	goto	u3380
  7327  1EB0  2EB2               u3381:
  7328  1EB1                     	goto	l2607
  7329  1EB1  2E9B               u3380:
  7330  1EB2                     	goto	l827
  7331  1EB2  2EB3               	
  7332                           l826:	
  7333  1EB3                     	line	18
  7334                           ;	Return value of _strcpy is never used
  7335                           	
  7336                           l827:	
  7337  1EB3                     	return
  7338  1EB3  0008               	opt stack 0
  7339                           GLOBAL	__end_of_strcpy
  7340                           	__end_of_strcpy:
  7341  1EB4                     	signat	_strcpy,8313
  7342                           	global	_pad
  7343                           
  7344 ;; *************** function _pad *****************
  7345 ;; Defined at:
  7346 ;;		line 72 in file "C:\Program Files (x86)\Microchip\xc8\v2.00\pic\sources\c99\common\doprnt.c"
  7347 ;; Parameters:    Size  Location     Type
  7348 ;;  fp              1    wreg     PTR struct _IO_FILE
  7349 ;;		 -> sprintf@f(5), 
  7350 ;;  buf             1    4[BANK0 ] PTR unsigned char 
  7351 ;;		 -> dbuf(80), 
  7352 ;;  p               2    5[BANK0 ] int 
  7353 ;; Auto vars:     Size  Location     Type
  7354 ;;  fp              1   11[BANK0 ] PTR struct _IO_FILE
  7355 ;;		 -> sprintf@f(5), 
  7356 ;;  w               2    9[BANK0 ] int 
  7357 ;;  i               2    7[BANK0 ] int 
  7358 ;; Return value:  Size  Location     Type
  7359 ;;                  2    4[BANK0 ] int 
  7360 ;; Registers used:
  7361 ;;		wreg, fsr0l, fsr0h, fsr1l, fsr1h, status,2, status,0, pclath, cstack
  7362 ;; Tracked objects:
  7363 ;;		On entry : 0/0
  7364 ;;		On exit  : 0/0
  7365 ;;		Unchanged: 0/0
  7366 ;; Data sizes:     COMMON   BANK0   BANK1   BANK2   BANK3   BANK4   BANK5   BANK6   BANK7   BANK8   BANK9  BANK10  BANK1
       1  BANK12
  7367 ;;      Params:         0       3       0       0       0       0       0       0       0       0       0       0       
       0       0
  7368 ;;      Locals:         0       5       0       0       0       0       0       0       0       0       0       0       
       0       0
  7369 ;;      Temps:          1       0       0       0       0       0       0       0       0       0       0       0       
       0       0
  7370 ;;      Totals:         1       8       0       0       0       0       0       0       0       0       0       0       
       0       0
  7371 ;;Total ram usage:        9 bytes
  7372 ;; Hardware stack levels used:    1
  7373 ;; Hardware stack levels required when called:    4
  7374 ;; This function calls:
  7375 ;;		_fputc
  7376 ;;		_fputs
  7377 ;;		_strlen
  7378 ;; This function is called by:
  7379 ;;		_efgtoa
  7380 ;; This function uses a non-reentrant model
  7381 ;;
  7382                           psect	text9,local,class=CODE,delta=2,merge=1,group=0
  7383                           	file	"C:\Program Files (x86)\Microchip\xc8\v2.00\pic\sources\c99\common\doprnt.c"
  7384                           	line	72
  7385                           global __ptext9
  7386                           __ptext9:	;psect for function _pad
  7387  115E                     psect	text9
  7388                           	file	"C:\Program Files (x86)\Microchip\xc8\v2.00\pic\sources\c99\common\doprnt.c"
  7389                           	line	72
  7390                           	global	__size_of_pad
  7391                           	__size_of_pad	equ	__end_of_pad-_pad
  7392  005D                     	
  7393                           _pad:	
  7394  115E                     ;incstack = 0
  7395                           	opt	stack 7
  7396                           ; Regs used in _pad: [wreg-fsr1h+status,2+status,0+pclath+cstack]
  7397                           ;pad@fp stored from wreg
  7398                           	movlb 0	; select bank0
  7399  115E  0140               	movwf	(pad@fp)
  7400  115F  00AB               	line	77
  7401                           	
  7402                           l2559:	
  7403  1160                     ;C:\Program Files (x86)\Microchip\xc8\v2.00\pic\sources\c99\common\doprnt.c: 72: static 
                                 int pad(FILE *fp, char *buf, int p);C:\Program Files (x86)\Microchip\xc8\v2.00\pic\sourc
                                 es\c99\common\doprnt.c: 73: {;C:\Program Files (x86)\Microchip\xc8\v2.00\pic\sources\c99
                                 \common\doprnt.c: 74:     int i, w;;C:\Program Files (x86)\Microchip\xc8\v2.00\pic\sourc
                                 es\c99\common\doprnt.c: 77:     if (flags & (1 << 0)) {
  7404                           	movlb 2	; select bank2
  7405  1160  0142               	btfss	(_flags)^0100h,(0)&7
  7406  1161  1C3E               	goto	u3261
  7407  1162  2964               	goto	u3260
  7408  1163  2965               u3261:
  7409  1164                     	goto	l2563
  7410  1164  296F               u3260:
  7411  1165                     	line	78
  7412                           	
  7413                           l2561:	
  7414  1165                     ;C:\Program Files (x86)\Microchip\xc8\v2.00\pic\sources\c99\common\doprnt.c: 78:        
                                  fputs((const char *)buf, fp);
  7415                           	movlb 0	; select bank0
  7416  1165  0140               	movf	(pad@fp),w
  7417  1166  082B               	movwf	(??_pad+0)+0
  7418  1167  00FC               	movf	(??_pad+0)+0,w
  7419  1168  087C               	movwf	(fputs@fp)
  7420  1169  00F8               	movf	(pad@buf),w
  7421  116A  0824               	fcall	_fputs
  7422  116B  319F  2704  3191   	goto	l2563
  7423  116E  296F               	line	79
  7424                           ;C:\Program Files (x86)\Microchip\xc8\v2.00\pic\sources\c99\common\doprnt.c: 79:     }
  7425                           	
  7426                           l128:	
  7427  116F                     	line	82
  7428                           	
  7429                           l2563:	
  7430  116F                     ;C:\Program Files (x86)\Microchip\xc8\v2.00\pic\sources\c99\common\doprnt.c: 82:     w =
                                  (p < 0) ? 0 : p;
  7431                           	movlb 0	; select bank0
  7432  116F  0140               	btfsc	(pad@p+1),7
  7433  1170  1BA6               	goto	u3271
  7434  1171  2973               	goto	u3270
  7435  1172  2974               u3271:
  7436  1173                     	goto	l2567
  7437  1173  2979               u3270:
  7438  1174                     	
  7439                           l2565:	
  7440  1174                     	movf	(pad@p+1),w
  7441  1174  0826               	movwf	(pad@w+1)
  7442  1175  00AA               	movf	(pad@p),w
  7443  1176  0825               	movwf	(pad@w)
  7444  1177  00A9               	goto	l132
  7445  1178  297B               	
  7446                           l130:	
  7447  1179                     	
  7448                           l2567:	
  7449  1179                     	clrf	(pad@w)
  7450  1179  01A9               	clrf	(pad@w+1)
  7451  117A  01AA               	
  7452                           l132:	
  7453  117B                     	line	83
  7454                           ;C:\Program Files (x86)\Microchip\xc8\v2.00\pic\sources\c99\common\doprnt.c: 83:     i =
                                  0;
  7455                           	clrf	(pad@i)
  7456  117B  01A7               	clrf	(pad@i+1)
  7457  117C  01A8               	line	84
  7458                           ;C:\Program Files (x86)\Microchip\xc8\v2.00\pic\sources\c99\common\doprnt.c: 84:     whi
                                 le (i < w) {
  7459                           	goto	l2573
  7460  117D  2990               	
  7461                           l134:	
  7462  117E                     	line	85
  7463                           	
  7464                           l2569:	
  7465  117E                     ;C:\Program Files (x86)\Microchip\xc8\v2.00\pic\sources\c99\common\doprnt.c: 85:        
                                  fputc(' ', fp);
  7466                           	movlw	020h
  7467  117E  3020               	movwf	(fputc@c)
  7468  117F  00F0               	movlw	0
  7469  1180  3000               	movwf	((fputc@c))+1
  7470  1181  00F1               	movlb 0	; select bank0
  7471  1182  0140               	movf	(pad@fp),w
  7472  1183  082B               	movwf	(??_pad+0)+0
  7473  1184  00FC               	movf	(??_pad+0)+0,w
  7474  1185  087C               	movwf	(fputc@fp)
  7475  1186  00F2               	fcall	_fputc
  7476  1187  3190  20AC  3191   	line	86
  7477                           	
  7478                           l2571:	
  7479  118A                     ;C:\Program Files (x86)\Microchip\xc8\v2.00\pic\sources\c99\common\doprnt.c: 86:        
                                  ++i;
  7480                           	movlw	01h
  7481  118A  3001               	movlb 0	; select bank0
  7482  118B  0140               	addwf	(pad@i),f
  7483  118C  07A7               	movlw	0
  7484  118D  3000               	addwfc	(pad@i+1),f
  7485  118E  3DA8               	goto	l2573
  7486  118F  2990               	line	87
  7487                           ;C:\Program Files (x86)\Microchip\xc8\v2.00\pic\sources\c99\common\doprnt.c: 87:     }
  7488                           	
  7489                           l133:	
  7490  1190                     	line	84
  7491                           	
  7492                           l2573:	
  7493  1190                     ;C:\Program Files (x86)\Microchip\xc8\v2.00\pic\sources\c99\common\doprnt.c: 84:     whi
                                 le (i < w) {
  7494                           	movf	(pad@i+1),w
  7495  1190  0828               	xorlw	80h
  7496  1191  3A80               	movwf	(??_pad+0)+0
  7497  1192  00FC               	movf	(pad@w+1),w
  7498  1193  082A               	xorlw	80h
  7499  1194  3A80               	subwf	(??_pad+0)+0,w
  7500  1195  027C               	skipz
  7501  1196  1D03               	goto	u3285
  7502  1197  299A               	movf	(pad@w),w
  7503  1198  0829               	subwf	(pad@i),w
  7504  1199  0227               u3285:
  7505  119A                     
  7506                           	skipc
  7507  119A  1C03               	goto	u3281
  7508  119B  299D               	goto	u3280
  7509  119C  299E               u3281:
  7510  119D                     	goto	l2569
  7511  119D  297E               u3280:
  7512  119E                     	
  7513                           l135:	
  7514  119E                     	line	90
  7515                           ;C:\Program Files (x86)\Microchip\xc8\v2.00\pic\sources\c99\common\doprnt.c: 90:     if 
                                 (!(flags & (1 << 0))) {
  7516                           	movlb 2	; select bank2
  7517  119E  0142               	btfsc	(_flags)^0100h,(0)&7
  7518  119F  183E               	goto	u3291
  7519  11A0  29A2               	goto	u3290
  7520  11A1  29A3               u3291:
  7521  11A2                     	goto	l2577
  7522  11A2  29AD               u3290:
  7523  11A3                     	line	91
  7524                           	
  7525                           l2575:	
  7526  11A3                     ;C:\Program Files (x86)\Microchip\xc8\v2.00\pic\sources\c99\common\doprnt.c: 91:        
                                  fputs((const char *)buf, fp);
  7527                           	movlb 0	; select bank0
  7528  11A3  0140               	movf	(pad@fp),w
  7529  11A4  082B               	movwf	(??_pad+0)+0
  7530  11A5  00FC               	movf	(??_pad+0)+0,w
  7531  11A6  087C               	movwf	(fputs@fp)
  7532  11A7  00F8               	movf	(pad@buf),w
  7533  11A8  0824               	fcall	_fputs
  7534  11A9  319F  2704  3191   	goto	l2577
  7535  11AC  29AD               	line	92
  7536                           ;C:\Program Files (x86)\Microchip\xc8\v2.00\pic\sources\c99\common\doprnt.c: 92:     }
  7537                           	
  7538                           l136:	
  7539  11AD                     	line	94
  7540                           	
  7541                           l2577:	
  7542  11AD                     ;C:\Program Files (x86)\Microchip\xc8\v2.00\pic\sources\c99\common\doprnt.c: 94:     ret
                                 urn strlen(buf) + w;
  7543                           	movlb 0	; select bank0
  7544  11AD  0140               	movf	(pad@buf),w
  7545  11AE  0824               	fcall	_strlen
  7546  11AF  319E  26DA  3191   	movlb 0	; select bank0
  7547  11B2  0140               	movf	(pad@w),w
  7548  11B3  0829               	addwf	(0+(?_strlen)),w
  7549  11B4  0770               	movwf	(?_pad)
  7550  11B5  00A4               	movf	(pad@w+1),w
  7551  11B6  082A               	addwfc	(1+(?_strlen)),w
  7552  11B7  3D71               	movwf	1+(?_pad)
  7553  11B8  00A5               	goto	l137
  7554  11B9  29BA               	
  7555                           l2579:	
  7556  11BA                     	line	95
  7557                           	
  7558                           l137:	
  7559  11BA                     	return
  7560  11BA  0008               	opt stack 0
  7561                           GLOBAL	__end_of_pad
  7562                           	__end_of_pad:
  7563  11BB                     	signat	_pad,12410
  7564                           	global	_strlen
  7565                           
  7566 ;; *************** function _strlen *****************
  7567 ;; Defined at:
  7568 ;;		line 12 in file "C:\Program Files (x86)\Microchip\xc8\v2.00\pic\sources\c99\common\strlen.c"
  7569 ;; Parameters:    Size  Location     Type
  7570 ;;  s               1    wreg     PTR const unsigned char 
  7571 ;;		 -> dbuf(80), 
  7572 ;; Auto vars:     Size  Location     Type
  7573 ;;  s               1    7[COMMON] PTR const unsigned char 
  7574 ;;		 -> dbuf(80), 
  7575 ;;  a               1    6[COMMON] PTR const unsigned char 
  7576 ;;		 -> dbuf(80), 
  7577 ;; Return value:  Size  Location     Type
  7578 ;;                  2    0[COMMON] unsigned int 
  7579 ;; Registers used:
  7580 ;;		wreg, fsr1l, fsr1h, status,2, status,0
  7581 ;; Tracked objects:
  7582 ;;		On entry : 0/0
  7583 ;;		On exit  : 0/0
  7584 ;;		Unchanged: 0/0
  7585 ;; Data sizes:     COMMON   BANK0   BANK1   BANK2   BANK3   BANK4   BANK5   BANK6   BANK7   BANK8   BANK9  BANK10  BANK1
       1  BANK12
  7586 ;;      Params:         2       0       0       0       0       0       0       0       0       0       0       0       
       0       0
  7587 ;;      Locals:         2       0       0       0       0       0       0       0       0       0       0       0       
       0       0
  7588 ;;      Temps:          4       0       0       0       0       0       0       0       0       0       0       0       
       0       0
  7589 ;;      Totals:         8       0       0       0       0       0       0       0       0       0       0       0       
       0       0
  7590 ;;Total ram usage:        8 bytes
  7591 ;; Hardware stack levels used:    1
  7592 ;; Hardware stack levels required when called:    1
  7593 ;; This function calls:
  7594 ;;		Nothing
  7595 ;; This function is called by:
  7596 ;;		_pad
  7597 ;; This function uses a non-reentrant model
  7598 ;;
  7599                           psect	text10,local,class=CODE,delta=2,merge=1,group=2
  7600                           	file	"C:\Program Files (x86)\Microchip\xc8\v2.00\pic\sources\c99\common\strlen.c"
  7601                           	line	12
  7602                           global __ptext10
  7603                           __ptext10:	;psect for function _strlen
  7604  1EDA                     psect	text10
  7605                           	file	"C:\Program Files (x86)\Microchip\xc8\v2.00\pic\sources\c99\common\strlen.c"
  7606                           	line	12
  7607                           	global	__size_of_strlen
  7608                           	__size_of_strlen	equ	__end_of_strlen-_strlen
  7609  002A                     	
  7610                           _strlen:	
  7611  1EDA                     ;incstack = 0
  7612                           	opt	stack 9
  7613                           ; Regs used in _strlen: [wreg+fsr1l+fsr1h+status,2+status,0]
  7614                           ;strlen@s stored from wreg
  7615                           	movwf	(strlen@s)
  7616  1EDA  00F7               	line	14
  7617                           	
  7618                           l2337:	
  7619  1EDB                     	movf	(strlen@s),w
  7620  1EDB  0877               	movwf	(??_strlen+0)+0
  7621  1EDC  00F2               	movf	(??_strlen+0)+0,w
  7622  1EDD  0872               	movwf	(strlen@a)
  7623  1EDE  00F6               	line	16
  7624                           	goto	l2341
  7625  1EDF  2EE5               	
  7626                           l831:	
  7627  1EE0                     	line	17
  7628                           	
  7629                           l2339:	
  7630  1EE0                     	movlw	low(01h)
  7631  1EE0  3001               	movwf	(??_strlen+0)+0
  7632  1EE1  00F2               	movf	(??_strlen+0)+0,w
  7633  1EE2  0872               	addwf	(strlen@s),f
  7634  1EE3  07F7               	goto	l2341
  7635  1EE4  2EE5               	line	18
  7636                           	
  7637                           l830:	
  7638  1EE5                     	line	16
  7639                           	
  7640                           l2341:	
  7641  1EE5                     	movf	(strlen@s),w
  7642  1EE5  0877               	movwf	fsr1l
  7643  1EE6  0086               	movlw 1	; select bank2/3
  7644  1EE7  3001               	movwf fsr1h	
  7645  1EE8  0087               	
  7646                           	movf	(indf1),w
  7647  1EE9  0801               	btfss	status,2
  7648  1EEA  1D03               	goto	u2771
  7649  1EEB  2EED               	goto	u2770
  7650  1EEC  2EEE               u2771:
  7651  1EED                     	goto	l2339
  7652  1EED  2EE0               u2770:
  7653  1EEE                     	goto	l2343
  7654  1EEE  2EEF               	
  7655                           l832:	
  7656  1EEF                     	line	25
  7657                           	
  7658                           l2343:	
  7659  1EEF                     	movf	(strlen@a),w
  7660  1EEF  0876               	movwf	(??_strlen+0)+0
  7661  1EF0  00F2               	movlw	(0x1)
  7662  1EF1  3001               	movwf	(??_strlen+0)+0+1
  7663  1EF2  00F3               	comf	(??_strlen+0)+0,f
  7664  1EF3  09F2               	comf	(??_strlen+0)+1,f
  7665  1EF4  09F3               	incf	(??_strlen+0)+0,f
  7666  1EF5  0AF2               	skipnz
  7667  1EF6  1903               	incf	(??_strlen+0)+1,f
  7668  1EF7  0AF3               	movf	(strlen@s),w
  7669  1EF8  0877               	movwf	(??_strlen+2)+0
  7670  1EF9  00F4               	movlw	(0x1)
  7671  1EFA  3001               	movwf	(??_strlen+2)+0+1
  7672  1EFB  00F5               	movf	0+(??_strlen+0)+0,w
  7673  1EFC  0872               	addwf	0+(??_strlen+2)+0,w
  7674  1EFD  0774               	movwf	(?_strlen)
  7675  1EFE  00F0               	movf	1+(??_strlen+0)+0,w
  7676  1EFF  0873               	addwfc	1+(??_strlen+2)+0,w
  7677  1F00  3D75               	movwf	1+(?_strlen)
  7678  1F01  00F1               	goto	l833
  7679  1F02  2F03               	
  7680                           l2345:	
  7681  1F03                     	line	26
  7682                           	
  7683                           l833:	
  7684  1F03                     	return
  7685  1F03  0008               	opt stack 0
  7686                           GLOBAL	__end_of_strlen
  7687                           	__end_of_strlen:
  7688  1F04                     	signat	_strlen,4218
  7689                           	global	_fputs
  7690                           
  7691 ;; *************** function _fputs *****************
  7692 ;; Defined at:
  7693 ;;		line 8 in file "C:\Program Files (x86)\Microchip\xc8\v2.00\pic\sources\c99\common\nf_fputs.c"
  7694 ;; Parameters:    Size  Location     Type
  7695 ;;  s               1    wreg     PTR const unsigned char 
  7696 ;;		 -> dbuf(80), 
  7697 ;;  fp              1    8[COMMON] PTR struct _IO_FILE
  7698 ;;		 -> sprintf@f(5), 
  7699 ;; Auto vars:     Size  Location     Type
  7700 ;;  s               1    3[BANK0 ] PTR const unsigned char 
  7701 ;;		 -> dbuf(80), 
  7702 ;;  i               2    1[BANK0 ] int 
  7703 ;;  c               1    0[BANK0 ] unsigned char 
  7704 ;; Return value:  Size  Location     Type
  7705 ;;                  2    8[COMMON] int 
  7706 ;; Registers used:
  7707 ;;		wreg, fsr0l, fsr0h, fsr1l, fsr1h, status,2, status,0, pclath, cstack
  7708 ;; Tracked objects:
  7709 ;;		On entry : 0/0
  7710 ;;		On exit  : 0/0
  7711 ;;		Unchanged: 0/0
  7712 ;; Data sizes:     COMMON   BANK0   BANK1   BANK2   BANK3   BANK4   BANK5   BANK6   BANK7   BANK8   BANK9  BANK10  BANK1
       1  BANK12
  7713 ;;      Params:         1       0       0       0       0       0       0       0       0       0       0       0       
       0       0
  7714 ;;      Locals:         0       4       0       0       0       0       0       0       0       0       0       0       
       0       0
  7715 ;;      Temps:          3       0       0       0       0       0       0       0       0       0       0       0       
       0       0
  7716 ;;      Totals:         4       4       0       0       0       0       0       0       0       0       0       0       
       0       0
  7717 ;;Total ram usage:        8 bytes
  7718 ;; Hardware stack levels used:    1
  7719 ;; Hardware stack levels required when called:    3
  7720 ;; This function calls:
  7721 ;;		_fputc
  7722 ;; This function is called by:
  7723 ;;		_pad
  7724 ;; This function uses a non-reentrant model
  7725 ;;
  7726                           psect	text11,local,class=CODE,delta=2,merge=1,group=2
  7727                           	file	"C:\Program Files (x86)\Microchip\xc8\v2.00\pic\sources\c99\common\nf_fputs.c"
  7728                           	line	8
  7729                           global __ptext11
  7730                           __ptext11:	;psect for function _fputs
  7731  1F04                     psect	text11
  7732                           	file	"C:\Program Files (x86)\Microchip\xc8\v2.00\pic\sources\c99\common\nf_fputs.c"
  7733                           	line	8
  7734                           	global	__size_of_fputs
  7735                           	__size_of_fputs	equ	__end_of_fputs-_fputs
  7736  002B                     	
  7737                           _fputs:	
  7738  1F04                     ;incstack = 0
  7739                           	opt	stack 7
  7740                           ; Regs used in _fputs: [wreg-fsr1h+status,2+status,0+pclath+cstack]
  7741                           ;fputs@s stored from wreg
  7742                           	movlb 0	; select bank0
  7743  1F04  0140               	movwf	(fputs@s)
  7744  1F05  00A3               	line	13
  7745                           	
  7746                           l2329:	
  7747  1F06                     	clrf	(fputs@i)
  7748  1F06  01A1               	clrf	(fputs@i+1)
  7749  1F07  01A2               	line	14
  7750                           	goto	l2335
  7751  1F08  2F1D               	
  7752                           l809:	
  7753  1F09                     	line	15
  7754                           	
  7755                           l2331:	
  7756  1F09                     	movf	(fputs@c),w
  7757  1F09  0820               	movwf	(??_fputs+0)+0
  7758  1F0A  00F9               	clrf	(??_fputs+0)+0+1
  7759  1F0B  01FA               	movf	0+(??_fputs+0)+0,w
  7760  1F0C  0879               	movwf	(fputc@c)
  7761  1F0D  00F0               	movf	1+(??_fputs+0)+0,w
  7762  1F0E  087A               	movwf	(fputc@c+1)
  7763  1F0F  00F1               	movf	(fputs@fp),w
  7764  1F10  0878               	movwf	(??_fputs+2)+0
  7765  1F11  00FB               	movf	(??_fputs+2)+0,w
  7766  1F12  087B               	movwf	(fputc@fp)
  7767  1F13  00F2               	fcall	_fputc
  7768  1F14  3190  20AC  319F   	line	16
  7769                           	
  7770                           l2333:	
  7771  1F17                     	movlw	01h
  7772  1F17  3001               	movlb 0	; select bank0
  7773  1F18  0140               	addwf	(fputs@i),f
  7774  1F19  07A1               	movlw	0
  7775  1F1A  3000               	addwfc	(fputs@i+1),f
  7776  1F1B  3DA2               	goto	l2335
  7777  1F1C  2F1D               	line	17
  7778                           	
  7779                           l808:	
  7780  1F1D                     	line	14
  7781                           	
  7782                           l2335:	
  7783  1F1D                     	movf	(fputs@i),w
  7784  1F1D  0821               	addwf	(fputs@s),w
  7785  1F1E  0723               	movwf	(??_fputs+0)+0
  7786  1F1F  00F9               	movf	0+(??_fputs+0)+0,w
  7787  1F20  0879               	movwf	fsr1l
  7788  1F21  0086               	movlw 1	; select bank2/3
  7789  1F22  3001               	movwf fsr1h	
  7790  1F23  0087               	
  7791                           	movf	indf1,w
  7792  1F24  0801               	movwf	(??_fputs+1)+0
  7793  1F25  00FA               	movf	(??_fputs+1)+0,w
  7794  1F26  087A               	movwf	(fputs@c)
  7795  1F27  00A0               	movf	(((fputs@c))),w
  7796  1F28  0820               	btfss	status,2
  7797  1F29  1D03               	goto	u2761
  7798  1F2A  2F2C               	goto	u2760
  7799  1F2B  2F2D               u2761:
  7800  1F2C                     	goto	l2331
  7801  1F2C  2F09               u2760:
  7802  1F2D                     	goto	l811
  7803  1F2D  2F2E               	
  7804                           l810:	
  7805  1F2E                     	line	19
  7806                           ;	Return value of _fputs is never used
  7807                           	
  7808                           l811:	
  7809  1F2E                     	return
  7810  1F2E  0008               	opt stack 0
  7811                           GLOBAL	__end_of_fputs
  7812                           	__end_of_fputs:
  7813  1F2F                     	signat	_fputs,8314
  7814                           	global	_fputc
  7815                           
  7816 ;; *************** function _fputc *****************
  7817 ;; Defined at:
  7818 ;;		line 8 in file "C:\Program Files (x86)\Microchip\xc8\v2.00\pic\sources\c99\common\nf_fputc.c"
  7819 ;; Parameters:    Size  Location     Type
  7820 ;;  c               2    0[COMMON] int 
  7821 ;;  fp              1    2[COMMON] PTR struct _IO_FILE
  7822 ;;		 -> sprintf@f(5), 
  7823 ;; Auto vars:     Size  Location     Type
  7824 ;;		None
  7825 ;; Return value:  Size  Location     Type
  7826 ;;                  2    0[COMMON] int 
  7827 ;; Registers used:
  7828 ;;		wreg, fsr0l, fsr0h, fsr1l, fsr1h, status,2, status,0, pclath, cstack
  7829 ;; Tracked objects:
  7830 ;;		On entry : 0/0
  7831 ;;		On exit  : 0/0
  7832 ;;		Unchanged: 0/0
  7833 ;; Data sizes:     COMMON   BANK0   BANK1   BANK2   BANK3   BANK4   BANK5   BANK6   BANK7   BANK8   BANK9  BANK10  BANK1
       1  BANK12
  7834 ;;      Params:         3       0       0       0       0       0       0       0       0       0       0       0       
       0       0
  7835 ;;      Locals:         0       0       0       0       0       0       0       0       0       0       0       0       
       0       0
  7836 ;;      Temps:          5       0       0       0       0       0       0       0       0       0       0       0       
       0       0
  7837 ;;      Totals:         8       0       0       0       0       0       0       0       0       0       0       0       
       0       0
  7838 ;;Total ram usage:        8 bytes
  7839 ;; Hardware stack levels used:    1
  7840 ;; Hardware stack levels required when called:    2
  7841 ;; This function calls:
  7842 ;;		_putch
  7843 ;; This function is called by:
  7844 ;;		_pad
  7845 ;;		_vfpfcnvrt
  7846 ;;		_fputs
  7847 ;; This function uses a non-reentrant model
  7848 ;;
  7849                           psect	text12,local,class=CODE,delta=2,merge=1,group=2
  7850                           	file	"C:\Program Files (x86)\Microchip\xc8\v2.00\pic\sources\c99\common\nf_fputc.c"
  7851                           	line	8
  7852                           global __ptext12
  7853                           __ptext12:	;psect for function _fputc
  7854  10AC                     psect	text12
  7855                           	file	"C:\Program Files (x86)\Microchip\xc8\v2.00\pic\sources\c99\common\nf_fputc.c"
  7856                           	line	8
  7857                           	global	__size_of_fputc
  7858                           	__size_of_fputc	equ	__end_of_fputc-_fputc
  7859  0055                     	
  7860                           _fputc:	
  7861  10AC                     ;incstack = 0
  7862                           	opt	stack 10
  7863                           ; Regs used in _fputc: [wreg-fsr1h+status,2+status,0+pclath+cstack]
  7864                           	line	12
  7865                           	
  7866                           l2313:	
  7867  10AC                     	movf	((fputc@fp)),w
  7868  10AC  0872               	btfsc	status,2
  7869  10AD  1903               	goto	u2721
  7870  10AE  28B0               	goto	u2720
  7871  10AF  28B1               u2721:
  7872  10B0                     	goto	l2317
  7873  10B0  28B7               u2720:
  7874  10B1                     	
  7875                           l2315:	
  7876  10B1                     	movf	((fputc@fp)),w
  7877  10B1  0872               	btfss	status,2
  7878  10B2  1D03               	goto	u2731
  7879  10B3  28B5               	goto	u2730
  7880  10B4  28B6               u2731:
  7881  10B5                     	goto	l2319
  7882  10B5  28BC               u2730:
  7883  10B6                     	goto	l2317
  7884  10B6  28B7               	
  7885                           l798:	
  7886  10B7                     	line	13
  7887                           	
  7888                           l2317:	
  7889  10B7                     	movf	(fputc@c),w
  7890  10B7  0870               	fcall	_putch
  7891  10B8  3187  27FB  3190   	line	14
  7892                           	goto	l803
  7893  10BB  2900               	
  7894                           l796:	
  7895  10BC                     	line	15
  7896                           	
  7897                           l2319:	
  7898  10BC                     	movf	(fputc@fp),w
  7899  10BC  0872               	addlw	03h
  7900  10BD  3E03               	movwf	fsr1l
  7901  10BE  0086               	clrf fsr1h	
  7902  10BF  0187               	
  7903                           		moviw	fsr1++
  7904  10C0  0016               	iorwf	indf1,w
  7905  10C1  0401               	btfsc	status,2
  7906  10C2  1903               	goto	u2741
  7907  10C3  28C5               	goto	u2740
  7908  10C4  28C6               
  7909                           u2741:
  7910  10C5                     	goto	l2323
  7911  10C5  28E4               u2740:
  7912  10C6                     	
  7913                           l2321:	
  7914  10C6                     	movf	(fputc@fp),w
  7915  10C6  0872               	addlw	03h
  7916  10C7  3E03               	movwf	fsr1l
  7917  10C8  0086               	clrf fsr1h	
  7918  10C9  0187               	
  7919                           	moviw	[0]fsr1
  7920  10CA  3F40               	movwf	(??_fputc+0)+0
  7921  10CB  00F3               	moviw	[1]fsr1
  7922  10CC  3F41               	movwf	(??_fputc+0)+0+1
  7923  10CD  00F4               	incf	(fputc@fp),w
  7924  10CE  0A72               	movwf	fsr1l
  7925  10CF  0086               	clrf fsr1h	
  7926  10D0  0187               	
  7927                           	moviw	[0]fsr1
  7928  10D1  3F40               	movwf	(??_fputc+2)+0
  7929  10D2  00F5               	moviw	[1]fsr1
  7930  10D3  3F41               	movwf	(??_fputc+2)+0+1
  7931  10D4  00F6               	movf	1+(??_fputc+2)+0,w
  7932  10D5  0876               	xorlw	80h
  7933  10D6  3A80               	movwf	(??_fputc+4)+0
  7934  10D7  00F7               	movf	1+(??_fputc+0)+0,w
  7935  10D8  0874               	xorlw	80h
  7936  10D9  3A80               	subwf	(??_fputc+4)+0,w
  7937  10DA  0277               	skipz
  7938  10DB  1D03               	goto	u2755
  7939  10DC  28DF               	movf	0+(??_fputc+0)+0,w
  7940  10DD  0873               	subwf	0+(??_fputc+2)+0,w
  7941  10DE  0275               u2755:
  7942  10DF                     
  7943                           	skipnc
  7944  10DF  1803               	goto	u2751
  7945  10E0  28E2               	goto	u2750
  7946  10E1  28E3               u2751:
  7947  10E2                     	goto	l803
  7948  10E2  2900               u2750:
  7949  10E3                     	goto	l2323
  7950  10E3  28E4               	
  7951                           l802:	
  7952  10E4                     	line	16
  7953                           	
  7954                           l2323:	
  7955  10E4                     	movf	(fputc@c),w
  7956  10E4  0870               	movwf	(??_fputc+0)+0
  7957  10E5  00F3               	movf	(fputc@fp),w
  7958  10E6  0872               	movwf	fsr1l
  7959  10E7  0086               	clrf fsr1h	
  7960  10E8  0187               	
  7961                           	incf	(fputc@fp),w
  7962  10E9  0A72               	movwf	fsr0l
  7963  10EA  0084               	clrf fsr0h	
  7964  10EB  0185               	
  7965                           	movf	indf0,w
  7966  10EC  0800               	addwf	indf1,w
  7967  10ED  0701               	movwf	(??_fputc+1)+0
  7968  10EE  00F4               	movf	0+(??_fputc+1)+0,w
  7969  10EF  0874               	movwf	fsr1l
  7970  10F0  0086               	movlw 1	; select bank2/3
  7971  10F1  3001               	movwf fsr1h	
  7972  10F2  0087               	
  7973                           	movf	(??_fputc+0)+0,w
  7974  10F3  0873               	movwf	indf1
  7975  10F4  0081               	line	17
  7976                           	
  7977                           l2325:	
  7978  10F5                     	incf	(fputc@fp),w
  7979  10F5  0A72               	movwf	fsr1l
  7980  10F6  0086               	clrf fsr1h	
  7981  10F7  0187               	
  7982                           	movlw	01h
  7983  10F8  3001               	addwf	indf1,f
  7984  10F9  0781               	addfsr	fsr1,1
  7985  10FA  3141               	skipnc
  7986  10FB  1803               	incf	indf1,f
  7987  10FC  0A81               	goto	l803
  7988  10FD  2900               	line	18
  7989                           	
  7990                           l800:	
  7991  10FE                     	goto	l803
  7992  10FE  2900               	line	19
  7993                           	
  7994                           l799:	
  7995  10FF                     	goto	l803
  7996  10FF  2900               	line	20
  7997                           	
  7998                           l2327:	
  7999  1100                     	line	21
  8000                           ;	Return value of _fputc is never used
  8001                           	
  8002                           l803:	
  8003  1100                     	return
  8004  1100  0008               	opt stack 0
  8005                           GLOBAL	__end_of_fputc
  8006                           	__end_of_fputc:
  8007  1101                     	signat	_fputc,8314
  8008                           	global	_putch
  8009                           
  8010 ;; *************** function _putch *****************
  8011 ;; Defined at:
  8012 ;;		line 7 in file "C:\Program Files (x86)\Microchip\xc8\v2.00\pic\sources\c99\common\putch.c"
  8013 ;; Parameters:    Size  Location     Type
  8014 ;;  c               1    wreg     unsigned char 
  8015 ;; Auto vars:     Size  Location     Type
  8016 ;;  c               1    0[COMMON] unsigned char 
  8017 ;; Return value:  Size  Location     Type
  8018 ;;                  1    wreg      void 
  8019 ;; Registers used:
  8020 ;;		wreg
  8021 ;; Tracked objects:
  8022 ;;		On entry : 0/0
  8023 ;;		On exit  : 0/0
  8024 ;;		Unchanged: 0/0
  8025 ;; Data sizes:     COMMON   BANK0   BANK1   BANK2   BANK3   BANK4   BANK5   BANK6   BANK7   BANK8   BANK9  BANK10  BANK1
       1  BANK12
  8026 ;;      Params:         0       0       0       0       0       0       0       0       0       0       0       0       
       0       0
  8027 ;;      Locals:         0       0       0       0       0       0       0       0       0       0       0       0       
       0       0
  8028 ;;      Temps:          0       0       0       0       0       0       0       0       0       0       0       0       
       0       0
  8029 ;;      Totals:         0       0       0       0       0       0       0       0       0       0       0       0       
       0       0
  8030 ;;Total ram usage:        0 bytes
  8031 ;; Hardware stack levels used:    1
  8032 ;; Hardware stack levels required when called:    1
  8033 ;; This function calls:
  8034 ;;		Nothing
  8035 ;; This function is called by:
  8036 ;;		_fputc
  8037 ;; This function uses a non-reentrant model
  8038 ;;
  8039                           psect	text13,local,class=CODE,delta=2,merge=1,group=2
  8040                           	file	"C:\Program Files (x86)\Microchip\xc8\v2.00\pic\sources\c99\common\putch.c"
  8041                           	line	7
  8042                           global __ptext13
  8043                           __ptext13:	;psect for function _putch
  8044  07FB                     psect	text13
  8045                           	file	"C:\Program Files (x86)\Microchip\xc8\v2.00\pic\sources\c99\common\putch.c"
  8046                           	line	7
  8047                           	global	__size_of_putch
  8048                           	__size_of_putch	equ	__end_of_putch-_putch
  8049  0001                     	
  8050                           _putch:	
  8051  07FB                     ;incstack = 0
  8052                           	opt	stack 10
  8053                           ; Regs used in _putch: [wreg]
  8054                           	line	9
  8055                           	
  8056                           l821:	
  8057  07FB                     	return
  8058  07FB  0008               	opt stack 0
  8059                           GLOBAL	__end_of_putch
  8060                           	__end_of_putch:
  8061  07FC                     	signat	_putch,4217
  8062                           	global	_floorf
  8063                           
  8064 ;; *************** function _floorf *****************
  8065 ;; Defined at:
  8066 ;;		line 3 in file "C:\Program Files (x86)\Microchip\xc8\v2.00\pic\sources\c99\common\floorf.c"
  8067 ;; Parameters:    Size  Location     Type
  8068 ;;  x               4   13[BANK0 ] float 
  8069 ;; Auto vars:     Size  Location     Type
  8070 ;;  u               4   29[BANK0 ] struct .
  8071 ;;  m               4   23[BANK0 ] unsigned long 
  8072 ;;  e               2   27[BANK0 ] int 
  8073 ;; Return value:  Size  Location     Type
  8074 ;;                  4   13[BANK0 ] float 
  8075 ;; Registers used:
  8076 ;;		wreg, status,2, status,0
  8077 ;; Tracked objects:
  8078 ;;		On entry : 0/0
  8079 ;;		On exit  : 0/0
  8080 ;;		Unchanged: 0/0
  8081 ;; Data sizes:     COMMON   BANK0   BANK1   BANK2   BANK3   BANK4   BANK5   BANK6   BANK7   BANK8   BANK9  BANK10  BANK1
       1  BANK12
  8082 ;;      Params:         0       4       0       0       0       0       0       0       0       0       0       0       
       0       0
  8083 ;;      Locals:         0      10       0       0       0       0       0       0       0       0       0       0       
       0       0
  8084 ;;      Temps:          0       6       0       0       0       0       0       0       0       0       0       0       
       0       0
  8085 ;;      Totals:         0      20       0       0       0       0       0       0       0       0       0       0       
       0       0
  8086 ;;Total ram usage:       20 bytes
  8087 ;; Hardware stack levels used:    1
  8088 ;; Hardware stack levels required when called:    1
  8089 ;; This function calls:
  8090 ;;		Nothing
  8091 ;; This function is called by:
  8092 ;;		_efgtoa
  8093 ;; This function uses a non-reentrant model
  8094 ;;
  8095                           psect	text14,local,class=CODE,delta=2,merge=1,group=2
  8096                           	file	"C:\Program Files (x86)\Microchip\xc8\v2.00\pic\sources\c99\common\floorf.c"
  8097                           	line	3
  8098                           global __ptext14
  8099                           __ptext14:	;psect for function _floorf
  8100  14A6                     psect	text14
  8101                           	file	"C:\Program Files (x86)\Microchip\xc8\v2.00\pic\sources\c99\common\floorf.c"
  8102                           	line	3
  8103                           	global	__size_of_floorf
  8104                           	__size_of_floorf	equ	__end_of_floorf-_floorf
  8105  00EF                     	
  8106                           _floorf:	
  8107  14A6                     ;incstack = 0
  8108                           	opt	stack 10
  8109                           ; Regs used in _floorf: [wreg+status,2+status,0]
  8110                           	line	5
  8111                           	
  8112                           l2619:	
  8113  14A6                     	movlb 2	; select bank2
  8114  14A6  0142               	movf	(floorf@F514+3)^0100h,w
  8115  14A7  082F               	movlb 0	; select bank0
  8116  14A8  0140               	movwf	(floorf@u+3)
  8117  14A9  00C0               	movlb 2	; select bank2
  8118  14AA  0142               	movf	(floorf@F514+2)^0100h,w
  8119  14AB  082E               	movlb 0	; select bank0
  8120  14AC  0140               	movwf	(floorf@u+2)
  8121  14AD  00BF               	movlb 2	; select bank2
  8122  14AE  0142               	movf	(floorf@F514+1)^0100h,w
  8123  14AF  082D               	movlb 0	; select bank0
  8124  14B0  0140               	movwf	(floorf@u+1)
  8125  14B1  00BE               	movlb 2	; select bank2
  8126  14B2  0142               	movf	(floorf@F514)^0100h,w
  8127  14B3  082C               	movlb 0	; select bank0
  8128  14B4  0140               	movwf	(floorf@u)
  8129  14B5  00BD               
  8130                           	movf	(floorf@x+3),w
  8131  14B6  0830               	movwf	(floorf@u+3)
  8132  14B7  00C0               	movf	(floorf@x+2),w
  8133  14B8  082F               	movwf	(floorf@u+2)
  8134  14B9  00BF               	movf	(floorf@x+1),w
  8135  14BA  082E               	movwf	(floorf@u+1)
  8136  14BB  00BE               	movf	(floorf@x),w
  8137  14BC  082D               	movwf	(floorf@u)
  8138  14BD  00BD               
  8139                           	line	6
  8140                           	
  8141                           l2621:	
  8142  14BE                     	movf	(floorf@u),w
  8143  14BE  083D               	movwf	(??_floorf+0)+0
  8144  14BF  00B1               	movf	(floorf@u+1),w
  8145  14C0  083E               	movwf	((??_floorf+0)+0+1)
  8146  14C1  00B2               	movf	(floorf@u+2),w
  8147  14C2  083F               	movwf	((??_floorf+0)+0+2)
  8148  14C3  00B3               	movf	(floorf@u+3),w
  8149  14C4  0840               	movwf	((??_floorf+0)+0+3)
  8150  14C5  00B4               	movlw	017h
  8151  14C6  3017               u3425:
  8152  14C7                     	lsrf	(??_floorf+0)+3,f
  8153  14C7  36B4               	rrf	(??_floorf+0)+2,f
  8154  14C8  0CB3               	rrf	(??_floorf+0)+1,f
  8155  14C9  0CB2               	rrf	(??_floorf+0)+0,f
  8156  14CA  0CB1               u3420:
  8157  14CB                     	decfsz	wreg,f
  8158  14CB  0B89               	goto	u3425
  8159  14CC  2CC7               	movlw	0FFh
  8160  14CD  30FF               	andwf	0+(??_floorf+0)+0,w
  8161  14CE  0531               	movwf	(??_floorf+4)+0
  8162  14CF  00B5               	movlw	0
  8163  14D0  3000               	andwf	1+(??_floorf+0)+0,w
  8164  14D1  0532               	movwf	1+(??_floorf+4)+0
  8165  14D2  00B6               	movf	0+(??_floorf+4)+0,w
  8166  14D3  0835               	addlw	081h
  8167  14D4  3E81               	movwf	(floorf@e)
  8168  14D5  00BB               	movlw	0FFh
  8169  14D6  30FF               	addwfc	1+(??_floorf+4)+0,w
  8170  14D7  3D36               	movwf	1+(floorf@e)
  8171  14D8  00BC               	line	9
  8172                           	
  8173                           l2623:	
  8174  14D9                     	movf	(floorf@e+1),w
  8175  14D9  083C               	xorlw	80h
  8176  14DA  3A80               	movwf	(??_floorf+0)+0
  8177  14DB  00B1               	movlw	(0)^80h
  8178  14DC  3080               	subwf	(??_floorf+0)+0,w
  8179  14DD  0231               	skipz
  8180  14DE  1D03               	goto	u3435
  8181  14DF  2CE2               	movlw	017h
  8182  14E0  3017               	subwf	(floorf@e),w
  8183  14E1  023B               u3435:
  8184  14E2                     
  8185                           	skipc
  8186  14E2  1C03               	goto	u3431
  8187  14E3  2CE5               	goto	u3430
  8188  14E4  2CE6               u3431:
  8189  14E5                     	goto	l763
  8190  14E5  2CE7               u3430:
  8191  14E6                     	line	10
  8192                           	
  8193                           l2625:	
  8194  14E6                     	goto	l764
  8195  14E6  2D94               	
  8196                           l763:	
  8197  14E7                     	line	11
  8198                           	movlb 0	; select bank0
  8199  14E7  0140               	btfsc	(floorf@e+1),7
  8200  14E8  1BBC               	goto	u3441
  8201  14E9  2CEB               	goto	u3440
  8202  14EA  2CEC               u3441:
  8203  14EB                     	goto	l2639
  8204  14EB  2D4A               u3440:
  8205  14EC                     	line	12
  8206                           	
  8207                           l2627:	
  8208  14EC                     	movlw	0FFh
  8209  14EC  30FF               	movwf	((??_floorf+0)+0)
  8210  14ED  00B1               	movlw	0FFh
  8211  14EE  30FF               	movwf	((??_floorf+0)+0+1)
  8212  14EF  00B2               	movlw	07Fh
  8213  14F0  307F               	movwf	((??_floorf+0)+0+2)
  8214  14F1  00B3               	movlw	0
  8215  14F2  3000               	movwf	((??_floorf+0)+0+3)
  8216  14F3  00B4               	incf	(floorf@e),w
  8217  14F4  0A3B               	goto	u3450
  8218  14F5  2CFA               u3455:
  8219  14F6                     	asrf	(??_floorf+0)+3,f
  8220  14F6  37B4               	rrf	(??_floorf+0)+2,f
  8221  14F7  0CB3               	rrf	(??_floorf+0)+1,f
  8222  14F8  0CB2               	rrf	(??_floorf+0)+0,f
  8223  14F9  0CB1               u3450:
  8224  14FA                     	decfsz	wreg,f
  8225  14FA  0B89               	goto	u3455
  8226  14FB  2CF6               	movf	3+(??_floorf+0)+0,w
  8227  14FC  0834               	movwf	(floorf@m+3)
  8228  14FD  00BA               	movf	2+(??_floorf+0)+0,w
  8229  14FE  0833               	movwf	(floorf@m+2)
  8230  14FF  00B9               	movf	1+(??_floorf+0)+0,w
  8231  1500  0832               	movwf	(floorf@m+1)
  8232  1501  00B8               	movf	0+(??_floorf+0)+0,w
  8233  1502  0831               	movwf	(floorf@m)
  8234  1503  00B7               
  8235                           	line	13
  8236                           	
  8237                           l2629:	
  8238  1504                     	movf	(floorf@u),w
  8239  1504  083D               	andwf	(floorf@m),w
  8240  1505  0537               	movwf	((??_floorf+0)+0+0)
  8241  1506  00B1               	movf	(floorf@u+1),w
  8242  1507  083E               	andwf	(floorf@m+1),w
  8243  1508  0538               	movwf	((??_floorf+0)+0+1)
  8244  1509  00B2               	movf	(floorf@u+2),w
  8245  150A  083F               	andwf	(floorf@m+2),w
  8246  150B  0539               	movwf	((??_floorf+0)+0+2)
  8247  150C  00B3               	movf	(floorf@u+3),w
  8248  150D  0840               	andwf	(floorf@m+3),w
  8249  150E  053A               	movwf	((??_floorf+0)+0+3)
  8250  150F  00B4               	movf	3+(??_floorf+0)+0,w
  8251  1510  0834               	iorwf	2+(??_floorf+0)+0,w
  8252  1511  0433               	iorwf	1+(??_floorf+0)+0,w
  8253  1512  0432               	iorwf	0+(??_floorf+0)+0,w
  8254  1513  0431               	skipz
  8255  1514  1D03               	goto	u3461
  8256  1515  2D17               	goto	u3460
  8257  1516  2D18               u3461:
  8258  1517                     	goto	l2633
  8259  1517  2D19               u3460:
  8260  1518                     	line	14
  8261                           	
  8262                           l2631:	
  8263  1518                     	goto	l764
  8264  1518  2D94               	
  8265                           l766:	
  8266  1519                     	line	16
  8267                           	
  8268                           l2633:	
  8269  1519                     	movf	(floorf@u),w
  8270  1519  083D               	movwf	(??_floorf+0)+0
  8271  151A  00B1               	movf	(floorf@u+1),w
  8272  151B  083E               	movwf	((??_floorf+0)+0+1)
  8273  151C  00B2               	movf	(floorf@u+2),w
  8274  151D  083F               	movwf	((??_floorf+0)+0+2)
  8275  151E  00B3               	movf	(floorf@u+3),w
  8276  151F  0840               	movwf	((??_floorf+0)+0+3)
  8277  1520  00B4               	movlw	01Fh
  8278  1521  301F               u3475:
  8279  1522                     	lsrf	(??_floorf+0)+3,f
  8280  1522  36B4               	rrf	(??_floorf+0)+2,f
  8281  1523  0CB3               	rrf	(??_floorf+0)+1,f
  8282  1524  0CB2               	rrf	(??_floorf+0)+0,f
  8283  1525  0CB1               u3470:
  8284  1526                     	decfsz	wreg,f
  8285  1526  0B89               	goto	u3475
  8286  1527  2D22               	movf	3+(??_floorf+0)+0,w
  8287  1528  0834               	iorwf	2+(??_floorf+0)+0,w
  8288  1529  0433               	iorwf	1+(??_floorf+0)+0,w
  8289  152A  0432               	iorwf	0+(??_floorf+0)+0,w
  8290  152B  0431               	skipnz
  8291  152C  1903               	goto	u3481
  8292  152D  2D2F               	goto	u3480
  8293  152E  2D30               u3481:
  8294  152F                     	goto	l2637
  8295  152F  2D39               u3480:
  8296  1530                     	line	17
  8297                           	
  8298                           l2635:	
  8299  1530                     	movf	(floorf@m),w
  8300  1530  0837               	addwf	(floorf@u),f
  8301  1531  07BD               	movf	(floorf@m+1),w
  8302  1532  0838               	addwfc	(floorf@u+1),f
  8303  1533  3DBE               	movf	(floorf@m+2),w
  8304  1534  0839               	addwfc	(floorf@u+2),f
  8305  1535  3DBF               	movf	(floorf@m+3),w
  8306  1536  083A               	addwfc	(floorf@u+3),f
  8307  1537  3DC0               	goto	l2637
  8308  1538  2D39               	
  8309                           l767:	
  8310  1539                     	line	18
  8311                           	
  8312                           l2637:	
  8313  1539                     	comf	(floorf@m),w
  8314  1539  0937               	movwf	(??_floorf+0)+0
  8315  153A  00B1               	comf	(floorf@m+1),w
  8316  153B  0938               	movwf	((??_floorf+0)+0+1)
  8317  153C  00B2               	comf	(floorf@m+2),w
  8318  153D  0939               	movwf	((??_floorf+0)+0+2)
  8319  153E  00B3               	comf	(floorf@m+3),w
  8320  153F  093A               	movwf	((??_floorf+0)+0+3)
  8321  1540  00B4               
  8322                           	movf	0+(??_floorf+0)+0,w
  8323  1541  0831               	andwf	(floorf@u),f
  8324  1542  05BD               	movf	1+(??_floorf+0)+0,w
  8325  1543  0832               	andwf	(floorf@u+1),f
  8326  1544  05BE               	movf	2+(??_floorf+0)+0,w
  8327  1545  0833               	andwf	(floorf@u+2),f
  8328  1546  05BF               	movf	3+(??_floorf+0)+0,w
  8329  1547  0834               	andwf	(floorf@u+3),f
  8330  1548  05C0               	line	19
  8331                           	goto	l768
  8332  1549  2D8B               	
  8333                           l765:	
  8334  154A                     	line	21
  8335                           	
  8336                           l2639:	
  8337  154A                     	movf	(floorf@u),w
  8338  154A  083D               	movwf	(??_floorf+0)+0
  8339  154B  00B1               	movf	(floorf@u+1),w
  8340  154C  083E               	movwf	((??_floorf+0)+0+1)
  8341  154D  00B2               	movf	(floorf@u+2),w
  8342  154E  083F               	movwf	((??_floorf+0)+0+2)
  8343  154F  00B3               	movf	(floorf@u+3),w
  8344  1550  0840               	movwf	((??_floorf+0)+0+3)
  8345  1551  00B4               	movlw	01Fh
  8346  1552  301F               u3495:
  8347  1553                     	lsrf	(??_floorf+0)+3,f
  8348  1553  36B4               	rrf	(??_floorf+0)+2,f
  8349  1554  0CB3               	rrf	(??_floorf+0)+1,f
  8350  1555  0CB2               	rrf	(??_floorf+0)+0,f
  8351  1556  0CB1               u3490:
  8352  1557                     	decfsz	wreg,f
  8353  1557  0B89               	goto	u3495
  8354  1558  2D53               	movf	3+(??_floorf+0)+0,w
  8355  1559  0834               	iorwf	2+(??_floorf+0)+0,w
  8356  155A  0433               	iorwf	1+(??_floorf+0)+0,w
  8357  155B  0432               	iorwf	0+(??_floorf+0)+0,w
  8358  155C  0431               	skipz
  8359  155D  1D03               	goto	u3501
  8360  155E  2D60               	goto	u3500
  8361  155F  2D61               u3501:
  8362  1560                     	goto	l2643
  8363  1560  2D6A               u3500:
  8364  1561                     	line	22
  8365                           	
  8366                           l2641:	
  8367  1561                     	movlw	high highword(0)
  8368  1561  3000               	movwf	(floorf@u+3)
  8369  1562  00C0               	movlw	low highword(0)
  8370  1563  3000               	movwf	(floorf@u+2)
  8371  1564  00BF               	movlw	high(0)
  8372  1565  3000               	movwf	(floorf@u+1)
  8373  1566  00BE               	movlw	low(0)
  8374  1567  3000               	movwf	(floorf@u)
  8375  1568  00BD               
  8376                           	goto	l768
  8377  1569  2D8B               	line	23
  8378                           	
  8379                           l769:	
  8380  156A                     	
  8381                           l2643:	
  8382  156A                     	movf	(floorf@u),w
  8383  156A  083D               	movwf	(??_floorf+0)+0
  8384  156B  00B1               	movf	(floorf@u+1),w
  8385  156C  083E               	movwf	((??_floorf+0)+0+1)
  8386  156D  00B2               	movf	(floorf@u+2),w
  8387  156E  083F               	movwf	((??_floorf+0)+0+2)
  8388  156F  00B3               	movf	(floorf@u+3),w
  8389  1570  0840               	movwf	((??_floorf+0)+0+3)
  8390  1571  00B4               	movlw	01h
  8391  1572  3001               u3515:
  8392  1573                     	lslf	(??_floorf+0)+0,f
  8393  1573  35B1               	rlf	(??_floorf+0)+1,f
  8394  1574  0DB2               	rlf	(??_floorf+0)+2,f
  8395  1575  0DB3               	rlf	(??_floorf+0)+3,f
  8396  1576  0DB4               u3510:
  8397  1577                     	decfsz	wreg,f
  8398  1577  0B89               	goto	u3515
  8399  1578  2D73               	movf	3+(??_floorf+0)+0,w
  8400  1579  0834               	iorwf	2+(??_floorf+0)+0,w
  8401  157A  0433               	iorwf	1+(??_floorf+0)+0,w
  8402  157B  0432               	iorwf	0+(??_floorf+0)+0,w
  8403  157C  0431               	skipnz
  8404  157D  1903               	goto	u3521
  8405  157E  2D80               	goto	u3520
  8406  157F  2D81               u3521:
  8407  1580                     	goto	l768
  8408  1580  2D8B               u3520:
  8409  1581                     	line	24
  8410                           	
  8411                           l2645:	
  8412  1581                     	movlw	0xbf
  8413  1581  30BF               	movwf	(floorf@u+3)
  8414  1582  00C0               	movlw	0x80
  8415  1583  3080               	movwf	(floorf@u+2)
  8416  1584  00BF               	movlw	0x0
  8417  1585  3000               	movwf	(floorf@u+1)
  8418  1586  00BE               	movlw	0x0
  8419  1587  3000               	movwf	(floorf@u)
  8420  1588  00BD               
  8421                           	goto	l768
  8422  1589  2D8B               	
  8423                           l771:	
  8424  158A                     	goto	l768
  8425  158A  2D8B               	
  8426                           l770:	
  8427  158B                     	line	25
  8428                           	
  8429                           l768:	
  8430  158B                     	line	26
  8431                           	movf	(floorf@u+3),w
  8432  158B  0840               	movwf	(?_floorf+3)
  8433  158C  00B0               	movf	(floorf@u+2),w
  8434  158D  083F               	movwf	(?_floorf+2)
  8435  158E  00AF               	movf	(floorf@u+1),w
  8436  158F  083E               	movwf	(?_floorf+1)
  8437  1590  00AE               	movf	(floorf@u),w
  8438  1591  083D               	movwf	(?_floorf)
  8439  1592  00AD               
  8440                           	goto	l764
  8441  1593  2D94               	
  8442                           l2647:	
  8443  1594                     	line	27
  8444                           	
  8445                           l764:	
  8446  1594                     	return
  8447  1594  0008               	opt stack 0
  8448                           GLOBAL	__end_of_floorf
  8449                           	__end_of_floorf:
  8450  1595                     	signat	_floorf,4220
  8451                           	global	___fpclassifyf
  8452                           
  8453 ;; *************** function ___fpclassifyf *****************
  8454 ;; Defined at:
  8455 ;;		line 4 in file "C:\Program Files (x86)\Microchip\xc8\v2.00\pic\sources\c99\common\__fpclassifyf.c"
  8456 ;; Parameters:    Size  Location     Type
  8457 ;;  x               4    0[COMMON] float 
  8458 ;; Auto vars:     Size  Location     Type
  8459 ;;  u               4    2[BANK0 ] struct .
  8460 ;;  e               2    0[BANK0 ] int 
  8461 ;; Return value:  Size  Location     Type
  8462 ;;                  2    0[COMMON] int 
  8463 ;; Registers used:
  8464 ;;		wreg, status,2, status,0
  8465 ;; Tracked objects:
  8466 ;;		On entry : 0/0
  8467 ;;		On exit  : 0/0
  8468 ;;		Unchanged: 0/0
  8469 ;; Data sizes:     COMMON   BANK0   BANK1   BANK2   BANK3   BANK4   BANK5   BANK6   BANK7   BANK8   BANK9  BANK10  BANK1
       1  BANK12
  8470 ;;      Params:         4       0       0       0       0       0       0       0       0       0       0       0       
       0       0
  8471 ;;      Locals:         0       6       0       0       0       0       0       0       0       0       0       0       
       0       0
  8472 ;;      Temps:          6       0       0       0       0       0       0       0       0       0       0       0       
       0       0
  8473 ;;      Totals:        10       6       0       0       0       0       0       0       0       0       0       0       
       0       0
  8474 ;;Total ram usage:       16 bytes
  8475 ;; Hardware stack levels used:    1
  8476 ;; Hardware stack levels required when called:    1
  8477 ;; This function calls:
  8478 ;;		Nothing
  8479 ;; This function is called by:
  8480 ;;		_efgtoa
  8481 ;; This function uses a non-reentrant model
  8482 ;;
  8483                           psect	text15,local,class=CODE,delta=2,merge=1,group=2
  8484                           	file	"C:\Program Files (x86)\Microchip\xc8\v2.00\pic\sources\c99\common\__fpclassifyf.c
                                 "
  8485                           	line	4
  8486                           global __ptext15
  8487                           __ptext15:	;psect for function ___fpclassifyf
  8488  128B                     psect	text15
  8489                           	file	"C:\Program Files (x86)\Microchip\xc8\v2.00\pic\sources\c99\common\__fpclassifyf.c
                                 "
  8490                           	line	4
  8491                           	global	__size_of___fpclassifyf
  8492                           	__size_of___fpclassifyf	equ	__end_of___fpclassifyf-___fpclassifyf
  8493  0083                     	
  8494                           ___fpclassifyf:	
  8495  128B                     ;incstack = 0
  8496                           	opt	stack 10
  8497                           ; Regs used in ___fpclassifyf: [wreg+status,2+status,0]
  8498                           	line	6
  8499                           	
  8500                           l2581:	
  8501  128B                     	movlb 2	; select bank2
  8502  128B  0142               	movf	(___fpclassifyf@F453+3)^0100h,w
  8503  128C  0833               	movlb 0	; select bank0
  8504  128D  0140               	movwf	(___fpclassifyf@u+3)
  8505  128E  00A5               	movlb 2	; select bank2
  8506  128F  0142               	movf	(___fpclassifyf@F453+2)^0100h,w
  8507  1290  0832               	movlb 0	; select bank0
  8508  1291  0140               	movwf	(___fpclassifyf@u+2)
  8509  1292  00A4               	movlb 2	; select bank2
  8510  1293  0142               	movf	(___fpclassifyf@F453+1)^0100h,w
  8511  1294  0831               	movlb 0	; select bank0
  8512  1295  0140               	movwf	(___fpclassifyf@u+1)
  8513  1296  00A3               	movlb 2	; select bank2
  8514  1297  0142               	movf	(___fpclassifyf@F453)^0100h,w
  8515  1298  0830               	movlb 0	; select bank0
  8516  1299  0140               	movwf	(___fpclassifyf@u)
  8517  129A  00A2               
  8518                           	movf	(___fpclassifyf@x+3),w
  8519  129B  0873               	movwf	(___fpclassifyf@u+3)
  8520  129C  00A5               	movf	(___fpclassifyf@x+2),w
  8521  129D  0872               	movwf	(___fpclassifyf@u+2)
  8522  129E  00A4               	movf	(___fpclassifyf@x+1),w
  8523  129F  0871               	movwf	(___fpclassifyf@u+1)
  8524  12A0  00A3               	movf	(___fpclassifyf@x),w
  8525  12A1  0870               	movwf	(___fpclassifyf@u)
  8526  12A2  00A2               
  8527                           	line	7
  8528                           	
  8529                           l2583:	
  8530  12A3                     	movf	(___fpclassifyf@u),w
  8531  12A3  0822               	movwf	(??___fpclassifyf+0)+0
  8532  12A4  00F4               	movf	(___fpclassifyf@u+1),w
  8533  12A5  0823               	movwf	((??___fpclassifyf+0)+0+1)
  8534  12A6  00F5               	movf	(___fpclassifyf@u+2),w
  8535  12A7  0824               	movwf	((??___fpclassifyf+0)+0+2)
  8536  12A8  00F6               	movf	(___fpclassifyf@u+3),w
  8537  12A9  0825               	movwf	((??___fpclassifyf+0)+0+3)
  8538  12AA  00F7               	movlw	017h
  8539  12AB  3017               u3305:
  8540  12AC                     	lsrf	(??___fpclassifyf+0)+3,f
  8541  12AC  36F7               	rrf	(??___fpclassifyf+0)+2,f
  8542  12AD  0CF6               	rrf	(??___fpclassifyf+0)+1,f
  8543  12AE  0CF5               	rrf	(??___fpclassifyf+0)+0,f
  8544  12AF  0CF4               u3300:
  8545  12B0                     	decfsz	wreg,f
  8546  12B0  0B89               	goto	u3305
  8547  12B1  2AAC               	movlw	0FFh
  8548  12B2  30FF               	andwf	0+(??___fpclassifyf+0)+0,w
  8549  12B3  0574               	movwf	(___fpclassifyf@e)
  8550  12B4  00A0               	movlw	0
  8551  12B5  3000               	andwf	1+(??___fpclassifyf+0)+0,w
  8552  12B6  0575               	movwf	1+(___fpclassifyf@e)
  8553  12B7  00A1               	line	8
  8554                           	
  8555                           l2585:	
  8556  12B8                     	movf	((___fpclassifyf@e)),w
  8557  12B8  0820               iorwf	((___fpclassifyf@e+1)),w
  8558  12B9  0421               	btfss	status,2
  8559  12BA  1D03               	goto	u3311
  8560  12BB  2ABD               	goto	u3310
  8561  12BC  2ABE               u3311:
  8562  12BD                     	goto	l2595
  8563  12BD  2AE1               u3310:
  8564  12BE                     	
  8565                           l2587:	
  8566  12BE                     	movf	(___fpclassifyf@u),w
  8567  12BE  0822               	movwf	(??___fpclassifyf+0)+0
  8568  12BF  00F4               	movf	(___fpclassifyf@u+1),w
  8569  12C0  0823               	movwf	((??___fpclassifyf+0)+0+1)
  8570  12C1  00F5               	movf	(___fpclassifyf@u+2),w
  8571  12C2  0824               	movwf	((??___fpclassifyf+0)+0+2)
  8572  12C3  00F6               	movf	(___fpclassifyf@u+3),w
  8573  12C4  0825               	movwf	((??___fpclassifyf+0)+0+3)
  8574  12C5  00F7               	movlw	01h
  8575  12C6  3001               u3325:
  8576  12C7                     	lslf	(??___fpclassifyf+0)+0,f
  8577  12C7  35F4               	rlf	(??___fpclassifyf+0)+1,f
  8578  12C8  0DF5               	rlf	(??___fpclassifyf+0)+2,f
  8579  12C9  0DF6               	rlf	(??___fpclassifyf+0)+3,f
  8580  12CA  0DF7               u3320:
  8581  12CB                     	decfsz	wreg,f
  8582  12CB  0B89               	goto	u3325
  8583  12CC  2AC7               	movf	3+(??___fpclassifyf+0)+0,w
  8584  12CD  0877               	iorwf	2+(??___fpclassifyf+0)+0,w
  8585  12CE  0476               	iorwf	1+(??___fpclassifyf+0)+0,w
  8586  12CF  0475               	iorwf	0+(??___fpclassifyf+0)+0,w
  8587  12D0  0474               	skipz
  8588  12D1  1D03               	goto	u3331
  8589  12D2  2AD4               	goto	u3330
  8590  12D3  2AD5               u3331:
  8591  12D4                     	goto	l2591
  8592  12D4  2ADA               u3330:
  8593  12D5                     	
  8594                           l2589:	
  8595  12D5                     	movlw	02h
  8596  12D5  3002               	movwf	(?___fpclassifyf)
  8597  12D6  00F0               	movlw	0
  8598  12D7  3000               	movwf	((?___fpclassifyf))+1
  8599  12D8  00F1               	goto	l726
  8600  12D9  2B0D               	
  8601                           l723:	
  8602  12DA                     	
  8603                           l2591:	
  8604  12DA                     	movlw	03h
  8605  12DA  3003               	movwf	(?___fpclassifyf)
  8606  12DB  00F0               	movlw	0
  8607  12DC  3000               	movwf	((?___fpclassifyf))+1
  8608  12DD  00F1               	goto	l726
  8609  12DE  2B0D               	
  8610                           l725:	
  8611  12DF                     	goto	l726
  8612  12DF  2B0D               	
  8613                           l2593:	
  8614  12E0                     	goto	l726
  8615  12E0  2B0D               	
  8616                           l721:	
  8617  12E1                     	line	9
  8618                           	
  8619                           l2595:	
  8620  12E1                     		incf	((___fpclassifyf@e)),w
  8621  12E1  0A20               iorwf	((___fpclassifyf@e+1)),w
  8622  12E2  0421               	btfss	status,2
  8623  12E3  1D03               	goto	u3341
  8624  12E4  2AE6               	goto	u3340
  8625  12E5  2AE7               u3341:
  8626  12E6                     	goto	l2601
  8627  12E6  2B08               u3340:
  8628  12E7                     	
  8629                           l2597:	
  8630  12E7                     	movf	(___fpclassifyf@u),w
  8631  12E7  0822               	movwf	(??___fpclassifyf+0)+0
  8632  12E8  00F4               	movf	(___fpclassifyf@u+1),w
  8633  12E9  0823               	movwf	((??___fpclassifyf+0)+0+1)
  8634  12EA  00F5               	movf	(___fpclassifyf@u+2),w
  8635  12EB  0824               	movwf	((??___fpclassifyf+0)+0+2)
  8636  12EC  00F6               	movf	(___fpclassifyf@u+3),w
  8637  12ED  0825               	movwf	((??___fpclassifyf+0)+0+3)
  8638  12EE  00F7               	movlw	09h
  8639  12EF  3009               u3355:
  8640  12F0                     	lslf	(??___fpclassifyf+0)+0,f
  8641  12F0  35F4               	rlf	(??___fpclassifyf+0)+1,f
  8642  12F1  0DF5               	rlf	(??___fpclassifyf+0)+2,f
  8643  12F2  0DF6               	rlf	(??___fpclassifyf+0)+3,f
  8644  12F3  0DF7               u3350:
  8645  12F4                     	decfsz	wreg,f
  8646  12F4  0B89               	goto	u3355
  8647  12F5  2AF0               	movf	3+(??___fpclassifyf+0)+0,w
  8648  12F6  0877               	iorwf	2+(??___fpclassifyf+0)+0,w
  8649  12F7  0476               	iorwf	1+(??___fpclassifyf+0)+0,w
  8650  12F8  0475               	iorwf	0+(??___fpclassifyf+0)+0,w
  8651  12F9  0474               	skipnz
  8652  12FA  1903               	goto	u3361
  8653  12FB  2AFD               	goto	u3360
  8654  12FC  2AFF               u3361:
  8655  12FD                     	movlw	1
  8656  12FD  3001               	goto	u3370
  8657  12FE  2B00               u3360:
  8658  12FF                     	movlw	0
  8659  12FF  3000               u3370:
  8660  1300                     	movwf	(??___fpclassifyf+4)+0
  8661  1300  00F8               	clrf	(??___fpclassifyf+4)+0+1
  8662  1301  01F9               	movf	0+(??___fpclassifyf+4)+0,w
  8663  1302  0878               	movwf	(?___fpclassifyf)
  8664  1303  00F0               	movf	1+(??___fpclassifyf+4)+0,w
  8665  1304  0879               	movwf	(?___fpclassifyf+1)
  8666  1305  00F1               	goto	l726
  8667  1306  2B0D               	
  8668                           l2599:	
  8669  1307                     	goto	l726
  8670  1307  2B0D               	
  8671                           l727:	
  8672  1308                     	line	10
  8673                           	
  8674                           l2601:	
  8675  1308                     	movlw	04h
  8676  1308  3004               	movwf	(?___fpclassifyf)
  8677  1309  00F0               	movlw	0
  8678  130A  3000               	movwf	((?___fpclassifyf))+1
  8679  130B  00F1               	goto	l726
  8680  130C  2B0D               	
  8681                           l2603:	
  8682  130D                     	line	11
  8683                           	
  8684                           l726:	
  8685  130D                     	return
  8686  130D  0008               	opt stack 0
  8687                           GLOBAL	__end_of___fpclassifyf
  8688                           	__end_of___fpclassifyf:
  8689  130E                     	signat	___fpclassifyf,4218
  8690                           	global	___fltol
  8691                           
  8692 ;; *************** function ___fltol *****************
  8693 ;; Defined at:
  8694 ;;		line 43 in file "C:\Program Files (x86)\Microchip\xc8\v2.00\pic\sources\c99\common\fltol.c"
  8695 ;; Parameters:    Size  Location     Type
  8696 ;;  f1              4    0[COMMON] int 
  8697 ;; Auto vars:     Size  Location     Type
  8698 ;;  exp1            1   10[COMMON] unsigned char 
  8699 ;;  sign1           1    9[COMMON] unsigned char 
  8700 ;; Return value:  Size  Location     Type
  8701 ;;                  4    0[COMMON] long 
  8702 ;; Registers used:
  8703 ;;		wreg, status,2, status,0
  8704 ;; Tracked objects:
  8705 ;;		On entry : 0/0
  8706 ;;		On exit  : 0/0
  8707 ;;		Unchanged: 0/0
  8708 ;; Data sizes:     COMMON   BANK0   BANK1   BANK2   BANK3   BANK4   BANK5   BANK6   BANK7   BANK8   BANK9  BANK10  BANK1
       1  BANK12
  8709 ;;      Params:         4       0       0       0       0       0       0       0       0       0       0       0       
       0       0
  8710 ;;      Locals:         2       0       0       0       0       0       0       0       0       0       0       0       
       0       0
  8711 ;;      Temps:          5       0       0       0       0       0       0       0       0       0       0       0       
       0       0
  8712 ;;      Totals:        11       0       0       0       0       0       0       0       0       0       0       0       
       0       0
  8713 ;;Total ram usage:       11 bytes
  8714 ;; Hardware stack levels used:    1
  8715 ;; Hardware stack levels required when called:    1
  8716 ;; This function calls:
  8717 ;;		Nothing
  8718 ;; This function is called by:
  8719 ;;		_efgtoa
  8720 ;; This function uses a non-reentrant model
  8721 ;;
  8722                           psect	text16,local,class=CODE,delta=2,merge=1,group=1
  8723                           	file	"C:\Program Files (x86)\Microchip\xc8\v2.00\pic\sources\c99\common\fltol.c"
  8724                           	line	43
  8725                           global __ptext16
  8726                           __ptext16:	;psect for function ___fltol
  8727  0761                     psect	text16
  8728                           	file	"C:\Program Files (x86)\Microchip\xc8\v2.00\pic\sources\c99\common\fltol.c"
  8729                           	line	43
  8730                           	global	__size_of___fltol
  8731                           	__size_of___fltol	equ	__end_of___fltol-___fltol
  8732  0094                     	
  8733                           ___fltol:	
  8734  0761                     ;incstack = 0
  8735                           	opt	stack 10
  8736                           ; Regs used in ___fltol: [wreg+status,2+status,0]
  8737                           	line	47
  8738                           	
  8739                           l2795:	
  8740  0761                     	movf	(___fltol@f1),w
  8741  0761  0870               	movwf	(??___fltol+0)+0
  8742  0762  00F4               	movf	(___fltol@f1+1),w
  8743  0763  0871               	movwf	((??___fltol+0)+0+1)
  8744  0764  00F5               	movf	(___fltol@f1+2),w
  8745  0765  0872               	movwf	((??___fltol+0)+0+2)
  8746  0766  00F6               	movf	(___fltol@f1+3),w
  8747  0767  0873               	movwf	((??___fltol+0)+0+3)
  8748  0768  00F7               	clrc
  8749  0769  1003               	rlf	(??___fltol+0)+2,w
  8750  076A  0D76               	rlf	(??___fltol+0)+3,w
  8751  076B  0D77               	movwf	(??___fltol+4)+0
  8752  076C  00F8               	movf	(??___fltol+4)+0,w
  8753  076D  0878               	movwf	(___fltol@exp1)
  8754  076E  00FA               	movf	(((___fltol@exp1))),w
  8755  076F  087A               	btfss	status,2
  8756  0770  1D03               	goto	u3871
  8757  0771  2F73               	goto	u3870
  8758  0772  2F74               u3871:
  8759  0773                     	goto	l2801
  8760  0773  2F7E               u3870:
  8761  0774                     	line	48
  8762                           	
  8763                           l2797:	
  8764  0774                     	movlw	high highword(0)
  8765  0774  3000               	movwf	(?___fltol+3)
  8766  0775  00F3               	movlw	low highword(0)
  8767  0776  3000               	movwf	(?___fltol+2)
  8768  0777  00F2               	movlw	high(0)
  8769  0778  3000               	movwf	(?___fltol+1)
  8770  0779  00F1               	movlw	low(0)
  8771  077A  3000               	movwf	(?___fltol)
  8772  077B  00F0               
  8773                           	goto	l479
  8774  077C  2FF4               	
  8775                           l2799:	
  8776  077D                     	goto	l479
  8777  077D  2FF4               	
  8778                           l478:	
  8779  077E                     	line	49
  8780                           	
  8781                           l2801:	
  8782  077E                     	movf	(___fltol@f1),w
  8783  077E  0870               	movwf	(??___fltol+0)+0
  8784  077F  00F4               	movf	(___fltol@f1+1),w
  8785  0780  0871               	movwf	((??___fltol+0)+0+1)
  8786  0781  00F5               	movf	(___fltol@f1+2),w
  8787  0782  0872               	movwf	((??___fltol+0)+0+2)
  8788  0783  00F6               	movf	(___fltol@f1+3),w
  8789  0784  0873               	movwf	((??___fltol+0)+0+3)
  8790  0785  00F7               	movlw	01Fh
  8791  0786  301F               u3885:
  8792  0787                     	lsrf	(??___fltol+0)+3,f
  8793  0787  36F7               	rrf	(??___fltol+0)+2,f
  8794  0788  0CF6               	rrf	(??___fltol+0)+1,f
  8795  0789  0CF5               	rrf	(??___fltol+0)+0,f
  8796  078A  0CF4               u3880:
  8797  078B                     	decfsz	wreg,f
  8798  078B  0B89               	goto	u3885
  8799  078C  2F87               	movf	0+(??___fltol+0)+0,w
  8800  078D  0874               	movwf	(??___fltol+4)+0
  8801  078E  00F8               	movf	(??___fltol+4)+0,w
  8802  078F  0878               	movwf	(___fltol@sign1)
  8803  0790  00F9               	line	50
  8804                           	
  8805                           l2803:	
  8806  0791                     	bsf	(___fltol@f1)+(23/8),(23)&7
  8807  0791  17F2               	line	51
  8808                           	
  8809                           l2805:	
  8810  0792                     	movlw	0FFh
  8811  0792  30FF               	andwf	(___fltol@f1),f
  8812  0793  05F0               	movlw	0FFh
  8813  0794  30FF               	andwf	(___fltol@f1+1),f
  8814  0795  05F1               	movlw	0FFh
  8815  0796  30FF               	andwf	(___fltol@f1+2),f
  8816  0797  05F2               	movlw	0
  8817  0798  3000               	andwf	(___fltol@f1+3),f
  8818  0799  05F3               	line	52
  8819                           	
  8820                           l2807:	
  8821  079A                     	movlw	096h
  8822  079A  3096               	subwf	(___fltol@exp1),f
  8823  079B  02FA               	line	53
  8824                           	
  8825                           l2809:	
  8826  079C                     	btfss	(___fltol@exp1),7
  8827  079C  1FFA               	goto	u3891
  8828  079D  2F9F               	goto	u3890
  8829  079E  2FA0               u3891:
  8830  079F                     	goto	l2819
  8831  079F  2FC3               u3890:
  8832  07A0                     	line	54
  8833                           	
  8834                           l2811:	
  8835  07A0                     	movf	(___fltol@exp1),w
  8836  07A0  087A               	xorlw	80h
  8837  07A1  3A80               	addlw	-((-23)^80h)
  8838  07A2  3E97               	skipnc
  8839  07A3  1803               	goto	u3901
  8840  07A4  2FA6               	goto	u3900
  8841  07A5  2FA7               u3901:
  8842  07A6                     	goto	l2817
  8843  07A6  2FB2               u3900:
  8844  07A7                     	line	55
  8845                           	
  8846                           l2813:	
  8847  07A7                     	movlw	high highword(0)
  8848  07A7  3000               	movwf	(?___fltol+3)
  8849  07A8  00F3               	movlw	low highword(0)
  8850  07A9  3000               	movwf	(?___fltol+2)
  8851  07AA  00F2               	movlw	high(0)
  8852  07AB  3000               	movwf	(?___fltol+1)
  8853  07AC  00F1               	movlw	low(0)
  8854  07AD  3000               	movwf	(?___fltol)
  8855  07AE  00F0               
  8856                           	goto	l479
  8857  07AF  2FF4               	
  8858                           l2815:	
  8859  07B0                     	goto	l479
  8860  07B0  2FF4               	
  8861                           l481:	
  8862  07B1                     	goto	l2817
  8863  07B1  2FB2               	line	56
  8864                           	
  8865                           l482:	
  8866  07B2                     	line	57
  8867                           	
  8868                           l2817:	
  8869  07B2                     	movlw	01h
  8870  07B2  3001               u3915:
  8871  07B3                     	lsrf	(___fltol@f1+3),f
  8872  07B3  36F3               	rrf	(___fltol@f1+2),f
  8873  07B4  0CF2               	rrf	(___fltol@f1+1),f
  8874  07B5  0CF1               	rrf	(___fltol@f1),f
  8875  07B6  0CF0               	decfsz	wreg,f
  8876  07B7  0B89               	goto	u3915
  8877  07B8  2FB3               
  8878                           	movlw	low(01h)
  8879  07B9  3001               	movwf	(??___fltol+0)+0
  8880  07BA  00F4               	movf	(??___fltol+0)+0,w
  8881  07BB  0874               	addwf	(___fltol@exp1),f
  8882  07BC  07FA               	btfss	status,2
  8883  07BD  1D03               	goto	u3921
  8884  07BE  2FC0               	goto	u3920
  8885  07BF  2FC1               u3921:
  8886  07C0                     	goto	l2817
  8887  07C0  2FB2               u3920:
  8888  07C1                     	goto	l2827
  8889  07C1  2FE4               	
  8890                           l483:	
  8891  07C2                     	line	59
  8892                           	goto	l2827
  8893  07C2  2FE4               	
  8894                           l480:	
  8895  07C3                     	line	60
  8896                           	
  8897                           l2819:	
  8898  07C3                     	movlw	low(020h)
  8899  07C3  3020               	subwf	(___fltol@exp1),w
  8900  07C4  027A               	skipc
  8901  07C5  1C03               	goto	u3931
  8902  07C6  2FC8               	goto	u3930
  8903  07C7  2FC9               u3931:
  8904  07C8                     	goto	l486
  8905  07C8  2FDD               u3930:
  8906  07C9                     	line	61
  8907                           	
  8908                           l2821:	
  8909  07C9                     	movlw	high highword(0)
  8910  07C9  3000               	movwf	(?___fltol+3)
  8911  07CA  00F3               	movlw	low highword(0)
  8912  07CB  3000               	movwf	(?___fltol+2)
  8913  07CC  00F2               	movlw	high(0)
  8914  07CD  3000               	movwf	(?___fltol+1)
  8915  07CE  00F1               	movlw	low(0)
  8916  07CF  3000               	movwf	(?___fltol)
  8917  07D0  00F0               
  8918                           	goto	l479
  8919  07D1  2FF4               	
  8920                           l2823:	
  8921  07D2                     	goto	l479
  8922  07D2  2FF4               	
  8923                           l485:	
  8924  07D3                     	line	62
  8925                           	goto	l486
  8926  07D3  2FDD               	
  8927                           l487:	
  8928  07D4                     	line	63
  8929                           	
  8930                           l2825:	
  8931  07D4                     	movlw	01h
  8932  07D4  3001               u3945:
  8933  07D5                     	lslf	(___fltol@f1),f
  8934  07D5  35F0               	rlf	(___fltol@f1+1),f
  8935  07D6  0DF1               	rlf	(___fltol@f1+2),f
  8936  07D7  0DF2               	rlf	(___fltol@f1+3),f
  8937  07D8  0DF3               	decfsz	wreg,f
  8938  07D9  0B89               	goto	u3945
  8939  07DA  2FD5               	line	64
  8940                           	movlw	01h
  8941  07DB  3001               	subwf	(___fltol@exp1),f
  8942  07DC  02FA               	line	65
  8943                           	
  8944                           l486:	
  8945  07DD                     	line	62
  8946                           	movf	((___fltol@exp1)),w
  8947  07DD  087A               	btfss	status,2
  8948  07DE  1D03               	goto	u3951
  8949  07DF  2FE1               	goto	u3950
  8950  07E0  2FE2               u3951:
  8951  07E1                     	goto	l2825
  8952  07E1  2FD4               u3950:
  8953  07E2                     	goto	l2827
  8954  07E2  2FE4               	
  8955                           l488:	
  8956  07E3                     	goto	l2827
  8957  07E3  2FE4               	line	66
  8958                           	
  8959                           l484:	
  8960  07E4                     	line	67
  8961                           	
  8962                           l2827:	
  8963  07E4                     	movf	((___fltol@sign1)),w
  8964  07E4  0879               	btfsc	status,2
  8965  07E5  1903               	goto	u3961
  8966  07E6  2FE8               	goto	u3960
  8967  07E7  2FE9               u3961:
  8968  07E8                     	goto	l489
  8969  07E8  2FF4               u3960:
  8970  07E9                     	line	68
  8971                           	
  8972                           l2829:	
  8973  07E9                     	comf	(___fltol@f1),f
  8974  07E9  09F0               	comf	(___fltol@f1+1),f
  8975  07EA  09F1               	comf	(___fltol@f1+2),f
  8976  07EB  09F2               	comf	(___fltol@f1+3),f
  8977  07EC  09F3               	incf	(___fltol@f1),f
  8978  07ED  0AF0               	skipnz
  8979  07EE  1903               	incf	(___fltol@f1+1),f
  8980  07EF  0AF1               	skipnz
  8981  07F0  1903               	incf	(___fltol@f1+2),f
  8982  07F1  0AF2               	skipnz
  8983  07F2  1903               	incf	(___fltol@f1+3),f
  8984  07F3  0AF3               	
  8985                           l489:	
  8986  07F4                     	line	69
  8987                           	line	70
  8988                           	
  8989                           l479:	
  8990  07F4                     	return
  8991  07F4  0008               	opt stack 0
  8992                           GLOBAL	__end_of___fltol
  8993                           	__end_of___fltol:
  8994  07F5                     	signat	___fltol,4220
  8995                           	global	___flsub
  8996                           
  8997 ;; *************** function ___flsub *****************
  8998 ;; Defined at:
  8999 ;;		line 242 in file "C:\Program Files (x86)\Microchip\xc8\v2.00\pic\sources\c99\common\sprcadd.c"
  9000 ;; Parameters:    Size  Location     Type
  9001 ;;  a               4   21[BANK0 ] long 
  9002 ;;  b               4   25[BANK0 ] long 
  9003 ;; Auto vars:     Size  Location     Type
  9004 ;;		None
  9005 ;; Return value:  Size  Location     Type
  9006 ;;                  4   21[BANK0 ] long 
  9007 ;; Registers used:
  9008 ;;		wreg, status,2, status,0, pclath, cstack
  9009 ;; Tracked objects:
  9010 ;;		On entry : 0/0
  9011 ;;		On exit  : 0/0
  9012 ;;		Unchanged: 0/0
  9013 ;; Data sizes:     COMMON   BANK0   BANK1   BANK2   BANK3   BANK4   BANK5   BANK6   BANK7   BANK8   BANK9  BANK10  BANK1
       1  BANK12
  9014 ;;      Params:         0       8       0       0       0       0       0       0       0       0       0       0       
       0       0
  9015 ;;      Locals:         0       0       0       0       0       0       0       0       0       0       0       0       
       0       0
  9016 ;;      Temps:          0       0       0       0       0       0       0       0       0       0       0       0       
       0       0
  9017 ;;      Totals:         0       8       0       0       0       0       0       0       0       0       0       0       
       0       0
  9018 ;;Total ram usage:        8 bytes
  9019 ;; Hardware stack levels used:    1
  9020 ;; Hardware stack levels required when called:    2
  9021 ;; This function calls:
  9022 ;;		___fladd
  9023 ;; This function is called by:
  9024 ;;		_efgtoa
  9025 ;; This function uses a non-reentrant model
  9026 ;;
  9027                           psect	text17,local,class=CODE,delta=2,merge=1,group=1
  9028                           	file	"C:\Program Files (x86)\Microchip\xc8\v2.00\pic\sources\c99\common\sprcadd.c"
  9029                           	line	242
  9030                           global __ptext17
  9031                           __ptext17:	;psect for function ___flsub
  9032  1E4C                     psect	text17
  9033                           	file	"C:\Program Files (x86)\Microchip\xc8\v2.00\pic\sources\c99\common\sprcadd.c"
  9034                           	line	242
  9035                           	global	__size_of___flsub
  9036                           	__size_of___flsub	equ	__end_of___flsub-___flsub
  9037  0021                     	
  9038                           ___flsub:	
  9039  1E4C                     ;incstack = 0
  9040                           	opt	stack 9
  9041                           ; Regs used in ___flsub: [wreg+status,2+status,0+pclath+cstack]
  9042                           	line	248
  9043                           	
  9044                           l2831:	
  9045  1E4C                     	movlw	080h
  9046  1E4C  3080               	movlb 0	; select bank0
  9047  1E4D  0140               	xorwf	(___flsub@a+3),f
  9048  1E4E  06B8               	line	249
  9049                           	
  9050                           l2833:	
  9051  1E4F                     	movf	(___flsub@b+3),w
  9052  1E4F  083C               	movwf	(___fladd@b+3)
  9053  1E50  00F3               	movf	(___flsub@b+2),w
  9054  1E51  083B               	movwf	(___fladd@b+2)
  9055  1E52  00F2               	movf	(___flsub@b+1),w
  9056  1E53  083A               	movwf	(___fladd@b+1)
  9057  1E54  00F1               	movf	(___flsub@b),w
  9058  1E55  0839               	movwf	(___fladd@b)
  9059  1E56  00F0               
  9060                           	movf	(___flsub@a+3),w
  9061  1E57  0838               	movwf	(___fladd@a+3)
  9062  1E58  00F7               	movf	(___flsub@a+2),w
  9063  1E59  0837               	movwf	(___fladd@a+2)
  9064  1E5A  00F6               	movf	(___flsub@a+1),w
  9065  1E5B  0836               	movwf	(___fladd@a+1)
  9066  1E5C  00F5               	movf	(___flsub@a),w
  9067  1E5D  0835               	movwf	(___fladd@a)
  9068  1E5E  00F4               
  9069                           	fcall	___fladd
  9070  1E5F  3189  21F8  319E   	movf	(3+(?___fladd)),w
  9071  1E62  0873               	movlb 0	; select bank0
  9072  1E63  0140               	movwf	(?___flsub+3)
  9073  1E64  00B8               	movf	(2+(?___fladd)),w
  9074  1E65  0872               	movwf	(?___flsub+2)
  9075  1E66  00B7               	movf	(1+(?___fladd)),w
  9076  1E67  0871               	movwf	(?___flsub+1)
  9077  1E68  00B6               	movf	(0+(?___fladd)),w
  9078  1E69  0870               	movwf	(?___flsub)
  9079  1E6A  00B5               
  9080                           	goto	l632
  9081  1E6B  2E6C               	
  9082                           l2835:	
  9083  1E6C                     	line	250
  9084                           	
  9085                           l632:	
  9086  1E6C                     	return
  9087  1E6C  0008               	opt stack 0
  9088                           GLOBAL	__end_of___flsub
  9089                           	__end_of___flsub:
  9090  1E6D                     	signat	___flsub,8316
  9091                           	global	___fladd
  9092                           
  9093 ;; *************** function ___fladd *****************
  9094 ;; Defined at:
  9095 ;;		line 10 in file "C:\Program Files (x86)\Microchip\xc8\v2.00\pic\sources\c99\common\sprcadd.c"
  9096 ;; Parameters:    Size  Location     Type
  9097 ;;  b               4    0[COMMON] long 
  9098 ;;  a               4    4[COMMON] long 
  9099 ;; Auto vars:     Size  Location     Type
  9100 ;;  grs             1   11[COMMON] unsigned char 
  9101 ;;  bexp            1   10[COMMON] unsigned char 
  9102 ;;  aexp            1    9[COMMON] unsigned char 
  9103 ;;  signs           1    8[COMMON] unsigned char 
  9104 ;; Return value:  Size  Location     Type
  9105 ;;                  4    0[COMMON] unsigned char 
  9106 ;; Registers used:
  9107 ;;		wreg, status,2, status,0
  9108 ;; Tracked objects:
  9109 ;;		On entry : 0/0
  9110 ;;		On exit  : 0/0
  9111 ;;		Unchanged: 0/0
  9112 ;; Data sizes:     COMMON   BANK0   BANK1   BANK2   BANK3   BANK4   BANK5   BANK6   BANK7   BANK8   BANK9  BANK10  BANK1
       1  BANK12
  9113 ;;      Params:         8       0       0       0       0       0       0       0       0       0       0       0       
       0       0
  9114 ;;      Locals:         4       0       0       0       0       0       0       0       0       0       0       0       
       0       0
  9115 ;;      Temps:          0      12       0       0       0       0       0       0       0       0       0       0       
       0       0
  9116 ;;      Totals:        12      12       0       0       0       0       0       0       0       0       0       0       
       0       0
  9117 ;;Total ram usage:       24 bytes
  9118 ;; Hardware stack levels used:    1
  9119 ;; Hardware stack levels required when called:    1
  9120 ;; This function calls:
  9121 ;;		Nothing
  9122 ;; This function is called by:
  9123 ;;		_efgtoa
  9124 ;;		___flsub
  9125 ;; This function uses a non-reentrant model
  9126 ;;
  9127                           psect	text18,local,class=CODE,delta=2,merge=1,group=1
  9128                           	line	10
  9129                           global __ptext18
  9130                           __ptext18:	;psect for function ___fladd
  9131  09F8                     psect	text18
  9132                           	file	"C:\Program Files (x86)\Microchip\xc8\v2.00\pic\sources\c99\common\sprcadd.c"
  9133                           	line	10
  9134                           	global	__size_of___fladd
  9135                           	__size_of___fladd	equ	__end_of___fladd-___fladd
  9136  0279                     	
  9137                           ___fladd:	
  9138  09F8                     ;incstack = 0
  9139                           	opt	stack 9
  9140                           ; Regs used in ___fladd: [wreg+status,2+status,0]
  9141                           	line	21
  9142                           	
  9143                           l2351:	
  9144  09F8                     	movf	0+(___fladd@b)+03h,w
  9145  09F8  0873               	andlw	080h
  9146  09F9  3980               	movlb 0	; select bank0
  9147  09FA  0140               	movwf	(??___fladd+0)+0
  9148  09FB  00A0               	movf	(??___fladd+0)+0,w
  9149  09FC  0820               	movwf	(___fladd@signs)
  9150  09FD  00F8               	line	22
  9151                           	
  9152                           l2353:	
  9153  09FE                     	lslf	0+(___fladd@b)+03h,w
  9154  09FE  3573               	movwf	(??___fladd+0)+0
  9155  09FF  00A0               	movf	(??___fladd+0)+0,w
  9156  0A00  0820               	movwf	(___fladd@bexp)
  9157  0A01  00FA               	line	23
  9158                           	
  9159                           l2355:	
  9160  0A02                     	btfss	0+(___fladd@b)+02h,(7)&7
  9161  0A02  1FF2               	goto	u2801
  9162  0A03  2A05               	goto	u2800
  9163  0A04  2A06               u2801:
  9164  0A05                     	goto	l2359
  9165  0A05  2A08               u2800:
  9166  0A06                     	line	24
  9167                           	
  9168                           l2357:	
  9169  0A06                     	bsf	(___fladd@bexp)+(0/8),(0)&7
  9170  0A06  147A               	goto	l2359
  9171  0A07  2A08               	line	25
  9172                           	
  9173                           l578:	
  9174  0A08                     	line	28
  9175                           	
  9176                           l2359:	
  9177  0A08                     	movf	((___fladd@bexp)),w
  9178  0A08  087A               	btfsc	status,2
  9179  0A09  1903               	goto	u2811
  9180  0A0A  2A0C               	goto	u2810
  9181  0A0B  2A0D               u2811:
  9182  0A0C                     	goto	l2369
  9183  0A0C  2A1E               u2810:
  9184  0A0D                     	line	30
  9185                           	
  9186                           l2361:	
  9187  0A0D                     		incf	((___fladd@bexp)),w
  9188  0A0D  0A7A               	btfss	status,2
  9189  0A0E  1D03               	goto	u2821
  9190  0A0F  2A11               	goto	u2820
  9191  0A10  2A12               u2821:
  9192  0A11                     	goto	l2365
  9193  0A11  2A1B               u2820:
  9194  0A12                     	line	32
  9195                           	
  9196                           l2363:	
  9197  0A12                     	movlw	0x0
  9198  0A12  3000               	movwf	(___fladd@b+3)
  9199  0A13  00F3               	movlw	0x0
  9200  0A14  3000               	movwf	(___fladd@b+2)
  9201  0A15  00F2               	movlw	0x0
  9202  0A16  3000               	movwf	(___fladd@b+1)
  9203  0A17  00F1               	movlw	0x0
  9204  0A18  3000               	movwf	(___fladd@b)
  9205  0A19  00F0               
  9206                           	goto	l2365
  9207  0A1A  2A1B               	line	33
  9208                           	
  9209                           l580:	
  9210  0A1B                     	line	35
  9211                           	
  9212                           l2365:	
  9213  0A1B                     	bsf	(___fladd@b)+(23/8),(23)&7
  9214  0A1B  17F2               	line	37
  9215                           	
  9216                           l2367:	
  9217  0A1C                     	clrf	0+(___fladd@b)+03h
  9218  0A1C  01F3               	line	38
  9219                           	goto	l2371
  9220  0A1D  2A27               	line	39
  9221                           	
  9222                           l579:	
  9223  0A1E                     	line	41
  9224                           	
  9225                           l2369:	
  9226  0A1E                     	movlw	0x0
  9227  0A1E  3000               	movwf	(___fladd@b+3)
  9228  0A1F  00F3               	movlw	0x0
  9229  0A20  3000               	movwf	(___fladd@b+2)
  9230  0A21  00F2               	movlw	0x0
  9231  0A22  3000               	movwf	(___fladd@b+1)
  9232  0A23  00F1               	movlw	0x0
  9233  0A24  3000               	movwf	(___fladd@b)
  9234  0A25  00F0               
  9235                           	goto	l2371
  9236  0A26  2A27               	line	42
  9237                           	
  9238                           l581:	
  9239  0A27                     	line	44
  9240                           	
  9241                           l2371:	
  9242  0A27                     	movf	0+(___fladd@a)+03h,w
  9243  0A27  0877               	andlw	080h
  9244  0A28  3980               	movwf	(??___fladd+0)+0
  9245  0A29  00A0               	movf	(??___fladd+0)+0,w
  9246  0A2A  0820               	movwf	(___fladd@aexp)
  9247  0A2B  00F9               	line	46
  9248                           	
  9249                           l2373:	
  9250  0A2C                     	movf	(___fladd@aexp),w
  9251  0A2C  0879               	xorwf	(___fladd@signs),w
  9252  0A2D  0678               	skipnz
  9253  0A2E  1903               	goto	u2831
  9254  0A2F  2A31               	goto	u2830
  9255  0A30  2A32               u2831:
  9256  0A31                     	goto	l2377
  9257  0A31  2A34               u2830:
  9258  0A32                     	line	47
  9259                           	
  9260                           l2375:	
  9261  0A32                     	bsf	(___fladd@signs)+(6/8),(6)&7
  9262  0A32  1778               	goto	l2377
  9263  0A33  2A34               	line	48
  9264                           	
  9265                           l582:	
  9266  0A34                     	line	49
  9267                           	
  9268                           l2377:	
  9269  0A34                     	lslf	0+(___fladd@a)+03h,w
  9270  0A34  3577               	movwf	(??___fladd+0)+0
  9271  0A35  00A0               	movf	(??___fladd+0)+0,w
  9272  0A36  0820               	movwf	(___fladd@aexp)
  9273  0A37  00F9               	line	50
  9274                           	
  9275                           l2379:	
  9276  0A38                     	btfss	0+(___fladd@a)+02h,(7)&7
  9277  0A38  1FF6               	goto	u2841
  9278  0A39  2A3B               	goto	u2840
  9279  0A3A  2A3C               u2841:
  9280  0A3B                     	goto	l2383
  9281  0A3B  2A3E               u2840:
  9282  0A3C                     	line	51
  9283                           	
  9284                           l2381:	
  9285  0A3C                     	bsf	(___fladd@aexp)+(0/8),(0)&7
  9286  0A3C  1479               	goto	l2383
  9287  0A3D  2A3E               	line	52
  9288                           	
  9289                           l583:	
  9290  0A3E                     	line	55
  9291                           	
  9292                           l2383:	
  9293  0A3E                     	movf	((___fladd@aexp)),w
  9294  0A3E  0879               	btfsc	status,2
  9295  0A3F  1903               	goto	u2851
  9296  0A40  2A42               	goto	u2850
  9297  0A41  2A43               u2851:
  9298  0A42                     	goto	l2393
  9299  0A42  2A54               u2850:
  9300  0A43                     	line	57
  9301                           	
  9302                           l2385:	
  9303  0A43                     		incf	((___fladd@aexp)),w
  9304  0A43  0A79               	btfss	status,2
  9305  0A44  1D03               	goto	u2861
  9306  0A45  2A47               	goto	u2860
  9307  0A46  2A48               u2861:
  9308  0A47                     	goto	l2389
  9309  0A47  2A51               u2860:
  9310  0A48                     	line	59
  9311                           	
  9312                           l2387:	
  9313  0A48                     	movlw	0x0
  9314  0A48  3000               	movwf	(___fladd@a+3)
  9315  0A49  00F7               	movlw	0x0
  9316  0A4A  3000               	movwf	(___fladd@a+2)
  9317  0A4B  00F6               	movlw	0x0
  9318  0A4C  3000               	movwf	(___fladd@a+1)
  9319  0A4D  00F5               	movlw	0x0
  9320  0A4E  3000               	movwf	(___fladd@a)
  9321  0A4F  00F4               
  9322                           	goto	l2389
  9323  0A50  2A51               	line	60
  9324                           	
  9325                           l585:	
  9326  0A51                     	line	62
  9327                           	
  9328                           l2389:	
  9329  0A51                     	bsf	(___fladd@a)+(23/8),(23)&7
  9330  0A51  17F6               	line	64
  9331                           	
  9332                           l2391:	
  9333  0A52                     	clrf	0+(___fladd@a)+03h
  9334  0A52  01F7               	line	65
  9335                           	goto	l586
  9336  0A53  2A5C               	line	66
  9337                           	
  9338                           l584:	
  9339  0A54                     	line	68
  9340                           	
  9341                           l2393:	
  9342  0A54                     	movlw	0x0
  9343  0A54  3000               	movwf	(___fladd@a+3)
  9344  0A55  00F7               	movlw	0x0
  9345  0A56  3000               	movwf	(___fladd@a+2)
  9346  0A57  00F6               	movlw	0x0
  9347  0A58  3000               	movwf	(___fladd@a+1)
  9348  0A59  00F5               	movlw	0x0
  9349  0A5A  3000               	movwf	(___fladd@a)
  9350  0A5B  00F4               
  9351                           	line	69
  9352                           	
  9353                           l586:	
  9354  0A5C                     	line	75
  9355                           	movf	(___fladd@bexp),w
  9356  0A5C  087A               	subwf	(___fladd@aexp),w
  9357  0A5D  0279               	skipnc
  9358  0A5E  1803               	goto	u2871
  9359  0A5F  2A61               	goto	u2870
  9360  0A60  2A62               u2871:
  9361  0A61                     	goto	l2429
  9362  0A61  2AA8               u2870:
  9363  0A62                     	line	77
  9364                           	
  9365                           l2395:	
  9366  0A62                     	btfss	(___fladd@signs),(6)&7
  9367  0A62  1F78               	goto	u2881
  9368  0A63  2A65               	goto	u2880
  9369  0A64  2A66               u2881:
  9370  0A65                     	goto	l2399
  9371  0A65  2A6B               u2880:
  9372  0A66                     	line	78
  9373                           	
  9374                           l2397:	
  9375  0A66                     	movlw	low(080h)
  9376  0A66  3080               	movwf	(??___fladd+0)+0
  9377  0A67  00A0               	movf	(??___fladd+0)+0,w
  9378  0A68  0820               	xorwf	(___fladd@signs),f
  9379  0A69  06F8               	goto	l2399
  9380  0A6A  2A6B               	line	79
  9381                           	
  9382                           l588:	
  9383  0A6B                     	line	81
  9384                           	
  9385                           l2399:	
  9386  0A6B                     	movf	(___fladd@bexp),w
  9387  0A6B  087A               	movwf	(??___fladd+0)+0
  9388  0A6C  00A0               	movf	(??___fladd+0)+0,w
  9389  0A6D  0820               	movwf	(___fladd@grs)
  9390  0A6E  00FB               	line	82
  9391                           	
  9392                           l2401:	
  9393  0A6F                     	movf	(___fladd@aexp),w
  9394  0A6F  0879               	movwf	(??___fladd+0)+0
  9395  0A70  00A0               	movf	(??___fladd+0)+0,w
  9396  0A71  0820               	movwf	(___fladd@bexp)
  9397  0A72  00FA               	line	83
  9398                           	
  9399                           l2403:	
  9400  0A73                     	movf	(___fladd@grs),w
  9401  0A73  087B               	movwf	(??___fladd+0)+0
  9402  0A74  00A0               	movf	(??___fladd+0)+0,w
  9403  0A75  0820               	movwf	(___fladd@aexp)
  9404  0A76  00F9               	line	84
  9405                           	
  9406                           l2405:	
  9407  0A77                     	movf	(___fladd@b),w
  9408  0A77  0870               	movwf	(??___fladd+0)+0
  9409  0A78  00A0               	movf	(??___fladd+0)+0,w
  9410  0A79  0820               	movwf	(___fladd@grs)
  9411  0A7A  00FB               	line	85
  9412                           	
  9413                           l2407:	
  9414  0A7B                     	movf	(___fladd@a),w
  9415  0A7B  0874               	movwf	(??___fladd+0)+0
  9416  0A7C  00A0               	movf	(??___fladd+0)+0,w
  9417  0A7D  0820               	movwf	(___fladd@b)
  9418  0A7E  00F0               	line	86
  9419                           	
  9420                           l2409:	
  9421  0A7F                     	movf	(___fladd@grs),w
  9422  0A7F  087B               	movwf	(??___fladd+0)+0
  9423  0A80  00A0               	movf	(??___fladd+0)+0,w
  9424  0A81  0820               	movwf	(___fladd@a)
  9425  0A82  00F4               	line	87
  9426                           	
  9427                           l2411:	
  9428  0A83                     	movf	0+(___fladd@b)+01h,w
  9429  0A83  0871               	movwf	(??___fladd+0)+0
  9430  0A84  00A0               	movf	(??___fladd+0)+0,w
  9431  0A85  0820               	movwf	(___fladd@grs)
  9432  0A86  00FB               	line	88
  9433                           	
  9434                           l2413:	
  9435  0A87                     	movf	0+(___fladd@a)+01h,w
  9436  0A87  0875               	movwf	(??___fladd+0)+0
  9437  0A88  00A0               	movf	(??___fladd+0)+0,w
  9438  0A89  0820               	movwf	0+(___fladd@b)+01h
  9439  0A8A  00F1               	line	89
  9440                           	
  9441                           l2415:	
  9442  0A8B                     	movf	(___fladd@grs),w
  9443  0A8B  087B               	movwf	(??___fladd+0)+0
  9444  0A8C  00A0               	movf	(??___fladd+0)+0,w
  9445  0A8D  0820               	movwf	0+(___fladd@a)+01h
  9446  0A8E  00F5               	line	90
  9447                           	
  9448                           l2417:	
  9449  0A8F                     	movf	0+(___fladd@b)+02h,w
  9450  0A8F  0872               	movwf	(??___fladd+0)+0
  9451  0A90  00A0               	movf	(??___fladd+0)+0,w
  9452  0A91  0820               	movwf	(___fladd@grs)
  9453  0A92  00FB               	line	91
  9454                           	
  9455                           l2419:	
  9456  0A93                     	movf	0+(___fladd@a)+02h,w
  9457  0A93  0876               	movwf	(??___fladd+0)+0
  9458  0A94  00A0               	movf	(??___fladd+0)+0,w
  9459  0A95  0820               	movwf	0+(___fladd@b)+02h
  9460  0A96  00F2               	line	92
  9461                           	
  9462                           l2421:	
  9463  0A97                     	movf	(___fladd@grs),w
  9464  0A97  087B               	movwf	(??___fladd+0)+0
  9465  0A98  00A0               	movf	(??___fladd+0)+0,w
  9466  0A99  0820               	movwf	0+(___fladd@a)+02h
  9467  0A9A  00F6               	line	93
  9468                           	
  9469                           l2423:	
  9470  0A9B                     	movf	0+(___fladd@b)+03h,w
  9471  0A9B  0873               	movwf	(??___fladd+0)+0
  9472  0A9C  00A0               	movf	(??___fladd+0)+0,w
  9473  0A9D  0820               	movwf	(___fladd@grs)
  9474  0A9E  00FB               	line	94
  9475                           	
  9476                           l2425:	
  9477  0A9F                     	movf	0+(___fladd@a)+03h,w
  9478  0A9F  0877               	movwf	(??___fladd+0)+0
  9479  0AA0  00A0               	movf	(??___fladd+0)+0,w
  9480  0AA1  0820               	movwf	0+(___fladd@b)+03h
  9481  0AA2  00F3               	line	95
  9482                           	
  9483                           l2427:	
  9484  0AA3                     	movf	(___fladd@grs),w
  9485  0AA3  087B               	movwf	(??___fladd+0)+0
  9486  0AA4  00A0               	movf	(??___fladd+0)+0,w
  9487  0AA5  0820               	movwf	0+(___fladd@a)+03h
  9488  0AA6  00F7               	goto	l2429
  9489  0AA7  2AA8               	line	96
  9490                           	
  9491                           l587:	
  9492  0AA8                     	line	98
  9493                           	
  9494                           l2429:	
  9495  0AA8                     	clrf	(___fladd@grs)
  9496  0AA8  01FB               	line	100
  9497                           	
  9498                           l2431:	
  9499  0AA9                     	movf	(___fladd@bexp),w
  9500  0AA9  087A               	movwf	(??___fladd+0)+0
  9501  0AAA  00A0               	clrf	(??___fladd+0)+0+1
  9502  0AAB  01A1               	comf	(??___fladd+0)+0,f
  9503  0AAC  09A0               	comf	(??___fladd+0)+1,f
  9504  0AAD  09A1               	incf	(??___fladd+0)+0,f
  9505  0AAE  0AA0               	skipnz
  9506  0AAF  1903               	incf	(??___fladd+0)+1,f
  9507  0AB0  0AA1               	movf	(___fladd@aexp),w
  9508  0AB1  0879               	addwf	0+(??___fladd+0)+0,w
  9509  0AB2  0720               	movwf	(??___fladd+2)+0
  9510  0AB3  00A2               	movf	1+(??___fladd+0)+0,w
  9511  0AB4  0821               	skipnc
  9512  0AB5  1803               	incf	1+(??___fladd+0)+0,w
  9513  0AB6  0A21               	movwf	((??___fladd+2)+0)+1
  9514  0AB7  00A3               	movf	1+(??___fladd+2)+0,w
  9515  0AB8  0823               	xorlw	80h
  9516  0AB9  3A80               	movwf	(??___fladd+4)+0
  9517  0ABA  00A4               	movlw	(0)^80h
  9518  0ABB  3080               	subwf	(??___fladd+4)+0,w
  9519  0ABC  0224               	skipz
  9520  0ABD  1D03               	goto	u2895
  9521  0ABE  2AC1               	movlw	01Ah
  9522  0ABF  301A               	subwf	0+(??___fladd+2)+0,w
  9523  0AC0  0222               u2895:
  9524  0AC1                     
  9525                           	skipc
  9526  0AC1  1C03               	goto	u2891
  9527  0AC2  2AC4               	goto	u2890
  9528  0AC3  2AC5               u2891:
  9529  0AC4                     	goto	l2447
  9530  0AC4  2B03               u2890:
  9531  0AC5                     	line	101
  9532                           	
  9533                           l2433:	
  9534  0AC5                     	movf	(___fladd@b+3),w
  9535  0AC5  0873               	iorwf	(___fladd@b+2),w
  9536  0AC6  0472               	iorwf	(___fladd@b+1),w
  9537  0AC7  0471               	iorwf	(___fladd@b),w
  9538  0AC8  0470               	skipz
  9539  0AC9  1D03               	goto	u2901
  9540  0ACA  2ACC               	goto	u2900
  9541  0ACB  2ACE               u2901:
  9542  0ACC                     	movlw	1
  9543  0ACC  3001               	goto	u2910
  9544  0ACD  2ACF               u2900:
  9545  0ACE                     	movlw	0
  9546  0ACE  3000               u2910:
  9547  0ACF                     	movlb 0	; select bank0
  9548  0ACF  0140               	movwf	(??___fladd+0)+0
  9549  0AD0  00A0               	movf	(??___fladd+0)+0,w
  9550  0AD1  0820               	movwf	(___fladd@grs)
  9551  0AD2  00FB               	line	102
  9552                           	movlw	high highword(0)
  9553  0AD3  3000               	movwf	(___fladd@b+3)
  9554  0AD4  00F3               	movlw	low highword(0)
  9555  0AD5  3000               	movwf	(___fladd@b+2)
  9556  0AD6  00F2               	movlw	high(0)
  9557  0AD7  3000               	movwf	(___fladd@b+1)
  9558  0AD8  00F1               	movlw	low(0)
  9559  0AD9  3000               	movwf	(___fladd@b)
  9560  0ADA  00F0               
  9561                           	line	103
  9562                           	movf	(___fladd@aexp),w
  9563  0ADB  0879               	movwf	(??___fladd+0)+0
  9564  0ADC  00A0               	movf	(??___fladd+0)+0,w
  9565  0ADD  0820               	movwf	(___fladd@bexp)
  9566  0ADE  00FA               	line	104
  9567                           	goto	l590
  9568  0ADF  2B0A               	line	105
  9569                           	
  9570                           l589:	
  9571  0AE0                     	line	106
  9572                           	goto	l2447
  9573  0AE0  2B03               	
  9574                           l592:	
  9575  0AE1                     	line	109
  9576                           	btfss	(___fladd@grs),(0)&7
  9577  0AE1  1C7B               	goto	u2921
  9578  0AE2  2AE4               	goto	u2920
  9579  0AE3  2AE5               u2921:
  9580  0AE4                     	goto	l2437
  9581  0AE4  2AEC               u2920:
  9582  0AE5                     	line	110
  9583                           	
  9584                           l2435:	
  9585  0AE5                     	lsrf	(___fladd@grs),w
  9586  0AE5  367B               	iorlw	01h
  9587  0AE6  3801               	movlb 0	; select bank0
  9588  0AE7  0140               	movwf	(??___fladd+0)+0
  9589  0AE8  00A0               	movf	(??___fladd+0)+0,w
  9590  0AE9  0820               	movwf	(___fladd@grs)
  9591  0AEA  00FB               	line	111
  9592                           	goto	l2439
  9593  0AEB  2AEF               	line	112
  9594                           	
  9595                           l593:	
  9596  0AEC                     	line	113
  9597                           	
  9598                           l2437:	
  9599  0AEC                     	clrc
  9600  0AEC  1003               	rrf	(___fladd@grs),f
  9601  0AED  0CFB               
  9602                           	goto	l2439
  9603  0AEE  2AEF               	line	114
  9604                           	
  9605                           l594:	
  9606  0AEF                     	line	115
  9607                           	
  9608                           l2439:	
  9609  0AEF                     	btfss	(___fladd@b),(0)&7
  9610  0AEF  1C70               	goto	u2931
  9611  0AF0  2AF2               	goto	u2930
  9612  0AF1  2AF3               u2931:
  9613  0AF2                     	goto	l2443
  9614  0AF2  2AF5               u2930:
  9615  0AF3                     	line	116
  9616                           	
  9617                           l2441:	
  9618  0AF3                     	bsf	(___fladd@grs)+(7/8),(7)&7
  9619  0AF3  17FB               	goto	l2443
  9620  0AF4  2AF5               	line	117
  9621                           	
  9622                           l595:	
  9623  0AF5                     	line	118
  9624                           	
  9625                           l2443:	
  9626  0AF5                     	movlw	01h
  9627  0AF5  3001               	movlb 0	; select bank0
  9628  0AF6  0140               	movwf	(??___fladd+0)+0
  9629  0AF7  00A0               u2945:
  9630  0AF8                     	asrf	(___fladd@b+3),f
  9631  0AF8  37F3               	rrf	(___fladd@b+2),f
  9632  0AF9  0CF2               	rrf	(___fladd@b+1),f
  9633  0AFA  0CF1               	rrf	(___fladd@b),f
  9634  0AFB  0CF0               	decfsz	(??___fladd+0)+0&07fh,f
  9635  0AFC  0BA0               	goto	u2945
  9636  0AFD  2AF8               
  9637                           	line	119
  9638                           	
  9639                           l2445:	
  9640  0AFE                     	movlw	low(01h)
  9641  0AFE  3001               	movwf	(??___fladd+0)+0
  9642  0AFF  00A0               	movf	(??___fladd+0)+0,w
  9643  0B00  0820               	addwf	(___fladd@bexp),f
  9644  0B01  07FA               	goto	l2447
  9645  0B02  2B03               	line	120
  9646                           	
  9647                           l591:	
  9648  0B03                     	line	106
  9649                           	
  9650                           l2447:	
  9651  0B03                     	movf	(___fladd@aexp),w
  9652  0B03  0879               	subwf	(___fladd@bexp),w
  9653  0B04  027A               	skipc
  9654  0B05  1C03               	goto	u2951
  9655  0B06  2B08               	goto	u2950
  9656  0B07  2B09               u2951:
  9657  0B08                     	goto	l592
  9658  0B08  2AE1               u2950:
  9659  0B09                     	goto	l590
  9660  0B09  2B0A               	
  9661                           l596:	
  9662  0B0A                     	line	121
  9663                           	
  9664                           l590:	
  9665  0B0A                     	line	124
  9666                           	btfsc	(___fladd@signs),(6)&7
  9667  0B0A  1B78               	goto	u2961
  9668  0B0B  2B0D               	goto	u2960
  9669  0B0C  2B0E               u2961:
  9670  0B0D                     	goto	l2473
  9671  0B0D  2B4C               u2960:
  9672  0B0E                     	line	127
  9673                           	
  9674                           l2449:	
  9675  0B0E                     	movf	((___fladd@bexp)),w
  9676  0B0E  087A               	btfss	status,2
  9677  0B0F  1D03               	goto	u2971
  9678  0B10  2B12               	goto	u2970
  9679  0B11  2B13               u2971:
  9680  0B12                     	goto	l2455
  9681  0B12  2B1D               u2970:
  9682  0B13                     	line	128
  9683                           	
  9684                           l2451:	
  9685  0B13                     	movlw	0x0
  9686  0B13  3000               	movwf	(?___fladd+3)
  9687  0B14  00F3               	movlw	0x0
  9688  0B15  3000               	movwf	(?___fladd+2)
  9689  0B16  00F2               	movlw	0x0
  9690  0B17  3000               	movwf	(?___fladd+1)
  9691  0B18  00F1               	movlw	0x0
  9692  0B19  3000               	movwf	(?___fladd)
  9693  0B1A  00F0               
  9694                           	goto	l599
  9695  0B1B  2C70               	
  9696                           l2453:	
  9697  0B1C                     	goto	l599
  9698  0B1C  2C70               	line	129
  9699                           	
  9700                           l598:	
  9701  0B1D                     	line	132
  9702                           	
  9703                           l2455:	
  9704  0B1D                     	movf	(___fladd@a),w
  9705  0B1D  0874               	addwf	(___fladd@b),f
  9706  0B1E  07F0               	movf	(___fladd@a+1),w
  9707  0B1F  0875               	addwfc	(___fladd@b+1),f
  9708  0B20  3DF1               	movf	(___fladd@a+2),w
  9709  0B21  0876               	addwfc	(___fladd@b+2),f
  9710  0B22  3DF2               	movf	(___fladd@a+3),w
  9711  0B23  0877               	addwfc	(___fladd@b+3),f
  9712  0B24  3DF3               	line	134
  9713                           	
  9714                           l2457:	
  9715  0B25                     	btfss	(___fladd@b+3),(24)&7
  9716  0B25  1C73               	goto	u2981
  9717  0B26  2B28               	goto	u2980
  9718  0B27  2B29               u2981:
  9719  0B28                     	goto	l2507
  9720  0B28  2BF4               u2980:
  9721  0B29                     	line	135
  9722                           	
  9723                           l2459:	
  9724  0B29                     	btfss	(___fladd@grs),(0)&7
  9725  0B29  1C7B               	goto	u2991
  9726  0B2A  2B2C               	goto	u2990
  9727  0B2B  2B2D               u2991:
  9728  0B2C                     	goto	l2463
  9729  0B2C  2B34               u2990:
  9730  0B2D                     	line	136
  9731                           	
  9732                           l2461:	
  9733  0B2D                     	lsrf	(___fladd@grs),w
  9734  0B2D  367B               	iorlw	01h
  9735  0B2E  3801               	movlb 0	; select bank0
  9736  0B2F  0140               	movwf	(??___fladd+0)+0
  9737  0B30  00A0               	movf	(??___fladd+0)+0,w
  9738  0B31  0820               	movwf	(___fladd@grs)
  9739  0B32  00FB               	line	137
  9740                           	goto	l2465
  9741  0B33  2B37               	line	138
  9742                           	
  9743                           l601:	
  9744  0B34                     	line	139
  9745                           	
  9746                           l2463:	
  9747  0B34                     	clrc
  9748  0B34  1003               	rrf	(___fladd@grs),f
  9749  0B35  0CFB               
  9750                           	goto	l2465
  9751  0B36  2B37               	line	140
  9752                           	
  9753                           l602:	
  9754  0B37                     	line	141
  9755                           	
  9756                           l2465:	
  9757  0B37                     	btfss	(___fladd@b),(0)&7
  9758  0B37  1C70               	goto	u3001
  9759  0B38  2B3A               	goto	u3000
  9760  0B39  2B3B               u3001:
  9761  0B3A                     	goto	l2469
  9762  0B3A  2B3D               u3000:
  9763  0B3B                     	line	142
  9764                           	
  9765                           l2467:	
  9766  0B3B                     	bsf	(___fladd@grs)+(7/8),(7)&7
  9767  0B3B  17FB               	goto	l2469
  9768  0B3C  2B3D               	line	143
  9769                           	
  9770                           l603:	
  9771  0B3D                     	line	144
  9772                           	
  9773                           l2469:	
  9774  0B3D                     	movlw	01h
  9775  0B3D  3001               	movlb 0	; select bank0
  9776  0B3E  0140               	movwf	(??___fladd+0)+0
  9777  0B3F  00A0               u3015:
  9778  0B40                     	asrf	(___fladd@b+3),f
  9779  0B40  37F3               	rrf	(___fladd@b+2),f
  9780  0B41  0CF2               	rrf	(___fladd@b+1),f
  9781  0B42  0CF1               	rrf	(___fladd@b),f
  9782  0B43  0CF0               	decfsz	(??___fladd+0)+0&07fh,f
  9783  0B44  0BA0               	goto	u3015
  9784  0B45  2B40               
  9785                           	line	145
  9786                           	
  9787                           l2471:	
  9788  0B46                     	movlw	low(01h)
  9789  0B46  3001               	movwf	(??___fladd+0)+0
  9790  0B47  00A0               	movf	(??___fladd+0)+0,w
  9791  0B48  0820               	addwf	(___fladd@bexp),f
  9792  0B49  07FA               	goto	l2507
  9793  0B4A  2BF4               	line	146
  9794                           	
  9795                           l600:	
  9796  0B4B                     	line	148
  9797                           	goto	l2507
  9798  0B4B  2BF4               	line	149
  9799                           	
  9800                           l597:	
  9801  0B4C                     	line	153
  9802                           	
  9803                           l2473:	
  9804  0B4C                     	movf	(___fladd@b+3),w
  9805  0B4C  0873               	xorlw	80h
  9806  0B4D  3A80               	movlb 0	; select bank0
  9807  0B4E  0140               	movwf	(??___fladd+0)+0
  9808  0B4F  00A0               	movf	(___fladd@a+3),w
  9809  0B50  0877               	xorlw	80h
  9810  0B51  3A80               	subwf	(??___fladd+0)+0,w
  9811  0B52  0220               	
  9812                           	skipz
  9813  0B53  1D03               	goto	u3023
  9814  0B54  2B5F               	movf	(___fladd@a+2),w
  9815  0B55  0876               	subwf	(___fladd@b+2),w
  9816  0B56  0272               	skipz
  9817  0B57  1D03               	goto	u3023
  9818  0B58  2B5F               	movf	(___fladd@a+1),w
  9819  0B59  0875               	subwf	(___fladd@b+1),w
  9820  0B5A  0271               	skipz
  9821  0B5B  1D03               	goto	u3023
  9822  0B5C  2B5F               	movf	(___fladd@a),w
  9823  0B5D  0874               	subwf	(___fladd@b),w
  9824  0B5E  0270               u3023:
  9825  0B5F                     	skipnc
  9826  0B5F  1803               	goto	u3021
  9827  0B60  2B62               	goto	u3020
  9828  0B61  2B63               u3021:
  9829  0B62                     	goto	l2483
  9830  0B62  2BAF               u3020:
  9831  0B63                     	line	154
  9832                           	
  9833                           l2475:	
  9834  0B63                     	movlw	0FFh
  9835  0B63  30FF               	movwf	((??___fladd+0)+0)
  9836  0B64  00A0               	movlw	0FFh
  9837  0B65  30FF               	movwf	((??___fladd+0)+0+1)
  9838  0B66  00A1               	movlw	0FFh
  9839  0B67  30FF               	movwf	((??___fladd+0)+0+2)
  9840  0B68  00A2               	movlw	0FFh
  9841  0B69  30FF               	movwf	((??___fladd+0)+0+3)
  9842  0B6A  00A3               	movf	(___fladd@a),w
  9843  0B6B  0874               	movwf	(??___fladd+4)+0
  9844  0B6C  00A4               	movf	(___fladd@a+1),w
  9845  0B6D  0875               	movwf	((??___fladd+4)+0+1)
  9846  0B6E  00A5               	movf	(___fladd@a+2),w
  9847  0B6F  0876               	movwf	((??___fladd+4)+0+2)
  9848  0B70  00A6               	movf	(___fladd@a+3),w
  9849  0B71  0877               	movwf	((??___fladd+4)+0+3)
  9850  0B72  00A7               	comf	(___fladd@b),w
  9851  0B73  0970               	movwf	(??___fladd+8)+0
  9852  0B74  00A8               	comf	(___fladd@b+1),w
  9853  0B75  0971               	movwf	((??___fladd+8)+0+1)
  9854  0B76  00A9               	comf	(___fladd@b+2),w
  9855  0B77  0972               	movwf	((??___fladd+8)+0+2)
  9856  0B78  00AA               	comf	(___fladd@b+3),w
  9857  0B79  0973               	movwf	((??___fladd+8)+0+3)
  9858  0B7A  00AB               	incf	(??___fladd+8)+0,f
  9859  0B7B  0AA8               	skipnz
  9860  0B7C  1903               	incf	((??___fladd+8)+0+1),f
  9861  0B7D  0AA9               	skipnz
  9862  0B7E  1903               	incf	((??___fladd+8)+0+2),f
  9863  0B7F  0AAA               	skipnz
  9864  0B80  1903               	incf	((??___fladd+8)+0+3),f
  9865  0B81  0AAB               	movf	0+(??___fladd+8)+0,w
  9866  0B82  0828               	addwf	(??___fladd+4)+0,f
  9867  0B83  07A4               	movf	1+(??___fladd+8)+0,w
  9868  0B84  0829               	addwfc	(??___fladd+4)+1,f
  9869  0B85  3DA5               	movf	2+(??___fladd+8)+0,w
  9870  0B86  082A               	addwfc	(??___fladd+4)+2,f
  9871  0B87  3DA6               	movf	3+(??___fladd+8)+0,w
  9872  0B88  082B               	addwfc	(??___fladd+4)+3,f
  9873  0B89  3DA7               	movf	0+(??___fladd+4)+0,w
  9874  0B8A  0824               	addwf	(??___fladd+0)+0,f
  9875  0B8B  07A0               	movf	1+(??___fladd+4)+0,w
  9876  0B8C  0825               	addwfc	(??___fladd+0)+1,f
  9877  0B8D  3DA1               	movf	2+(??___fladd+4)+0,w
  9878  0B8E  0826               	addwfc	(??___fladd+0)+2,f
  9879  0B8F  3DA2               	movf	3+(??___fladd+4)+0,w
  9880  0B90  0827               	addwfc	(??___fladd+0)+3,f
  9881  0B91  3DA3               	movf	3+(??___fladd+0)+0,w
  9882  0B92  0823               	movwf	(___fladd@b+3)
  9883  0B93  00F3               	movf	2+(??___fladd+0)+0,w
  9884  0B94  0822               	movwf	(___fladd@b+2)
  9885  0B95  00F2               	movf	1+(??___fladd+0)+0,w
  9886  0B96  0821               	movwf	(___fladd@b+1)
  9887  0B97  00F1               	movf	0+(??___fladd+0)+0,w
  9888  0B98  0820               	movwf	(___fladd@b)
  9889  0B99  00F0               
  9890                           	line	155
  9891                           	movlw	low(080h)
  9892  0B9A  3080               	movwf	(??___fladd+0)+0
  9893  0B9B  00A0               	movf	(??___fladd+0)+0,w
  9894  0B9C  0820               	xorwf	(___fladd@signs),f
  9895  0B9D  06F8               	line	156
  9896                           	
  9897                           l2477:	
  9898  0B9E                     	comf	(___fladd@grs),f
  9899  0B9E  09FB               	incf	(___fladd@grs),f
  9900  0B9F  0AFB               	line	157
  9901                           	
  9902                           l2479:	
  9903  0BA0                     	movf	((___fladd@grs)),w
  9904  0BA0  087B               	btfss	status,2
  9905  0BA1  1D03               	goto	u3031
  9906  0BA2  2BA4               	goto	u3030
  9907  0BA3  2BA5               u3031:
  9908  0BA4                     	goto	l607
  9909  0BA4  2BB7               u3030:
  9910  0BA5                     	line	158
  9911                           	
  9912                           l2481:	
  9913  0BA5                     	movlw	01h
  9914  0BA5  3001               	addwf	(___fladd@b),f
  9915  0BA6  07F0               	movlw	0
  9916  0BA7  3000               	addwfc	(___fladd@b+1),f
  9917  0BA8  3DF1               	movlw	0
  9918  0BA9  3000               	addwfc	(___fladd@b+2),f
  9919  0BAA  3DF2               	movlw	0
  9920  0BAB  3000               	addwfc	(___fladd@b+3),f
  9921  0BAC  3DF3               	goto	l607
  9922  0BAD  2BB7               	line	159
  9923                           	
  9924                           l606:	
  9925  0BAE                     	line	160
  9926                           	goto	l607
  9927  0BAE  2BB7               	line	161
  9928                           	
  9929                           l605:	
  9930  0BAF                     	line	162
  9931                           	
  9932                           l2483:	
  9933  0BAF                     	movf	(___fladd@a),w
  9934  0BAF  0874               	subwf	(___fladd@b),f
  9935  0BB0  02F0               	movf	(___fladd@a+1),w
  9936  0BB1  0875               	subwfb	(___fladd@b+1),f
  9937  0BB2  3BF1               	movf	(___fladd@a+2),w
  9938  0BB3  0876               	subwfb	(___fladd@b+2),f
  9939  0BB4  3BF2               	movf	(___fladd@a+3),w
  9940  0BB5  0877               	subwfb	(___fladd@b+3),f
  9941  0BB6  3BF3               	line	163
  9942                           	
  9943                           l607:	
  9944  0BB7                     	line	166
  9945                           	movf	(___fladd@b+3),w
  9946  0BB7  0873               	iorwf	(___fladd@b+2),w
  9947  0BB8  0472               	iorwf	(___fladd@b+1),w
  9948  0BB9  0471               	iorwf	(___fladd@b),w
  9949  0BBA  0470               	skipz
  9950  0BBB  1D03               	goto	u3041
  9951  0BBC  2BBE               	goto	u3040
  9952  0BBD  2BBF               u3041:
  9953  0BBE                     	goto	l2505
  9954  0BBE  2BEE               u3040:
  9955  0BBF                     	
  9956                           l2485:	
  9957  0BBF                     	movf	((___fladd@grs)),w
  9958  0BBF  087B               	btfss	status,2
  9959  0BC0  1D03               	goto	u3051
  9960  0BC1  2BC3               	goto	u3050
  9961  0BC2  2BC4               u3051:
  9962  0BC3                     	goto	l2505
  9963  0BC3  2BEE               u3050:
  9964  0BC4                     	line	167
  9965                           	
  9966                           l2487:	
  9967  0BC4                     	movlw	0x0
  9968  0BC4  3000               	movwf	(?___fladd+3)
  9969  0BC5  00F3               	movlw	0x0
  9970  0BC6  3000               	movwf	(?___fladd+2)
  9971  0BC7  00F2               	movlw	0x0
  9972  0BC8  3000               	movwf	(?___fladd+1)
  9973  0BC9  00F1               	movlw	0x0
  9974  0BCA  3000               	movwf	(?___fladd)
  9975  0BCB  00F0               
  9976                           	goto	l599
  9977  0BCC  2C70               	
  9978                           l2489:	
  9979  0BCD                     	goto	l599
  9980  0BCD  2C70               	line	168
  9981                           	
  9982                           l608:	
  9983  0BCE                     	line	171
  9984                           	goto	l2505
  9985  0BCE  2BEE               	
  9986                           l610:	
  9987  0BCF                     	line	172
  9988                           	
  9989                           l2491:	
  9990  0BCF                     	movlw	01h
  9991  0BCF  3001               u3065:
  9992  0BD0                     	lslf	(___fladd@b),f
  9993  0BD0  35F0               	rlf	(___fladd@b+1),f
  9994  0BD1  0DF1               	rlf	(___fladd@b+2),f
  9995  0BD2  0DF2               	rlf	(___fladd@b+3),f
  9996  0BD3  0DF3               	decfsz	wreg,f
  9997  0BD4  0B89               	goto	u3065
  9998  0BD5  2BD0               	line	173
  9999                           	
 10000                           l2493:	
 10001  0BD6                     	btfss	(___fladd@grs),(7)&7
 10002  0BD6  1FFB               	goto	u3071
 10003  0BD7  2BD9               	goto	u3070
 10004  0BD8  2BDA               u3071:
 10005  0BD9                     	goto	l611
 10006  0BD9  2BDB               u3070:
 10007  0BDA                     	line	174
 10008                           	
 10009                           l2495:	
 10010  0BDA                     	bsf	(___fladd@b)+(0/8),(0)&7
 10011  0BDA  1470               	line	175
 10012                           	
 10013                           l611:	
 10014  0BDB                     	line	176
 10015                           	btfss	(___fladd@grs),(0)&7
 10016  0BDB  1C7B               	goto	u3081
 10017  0BDC  2BDE               	goto	u3080
 10018  0BDD  2BDF               u3081:
 10019  0BDE                     	goto	l2499
 10020  0BDE  2BE2               u3080:
 10021  0BDF                     	line	177
 10022                           	
 10023                           l2497:	
 10024  0BDF                     	setc
 10025  0BDF  1403               	rlf	(___fladd@grs),f
 10026  0BE0  0DFB               	line	178
 10027                           	goto	l2501
 10028  0BE1  2BE5               	line	179
 10029                           	
 10030                           l612:	
 10031  0BE2                     	line	180
 10032                           	
 10033                           l2499:	
 10034  0BE2                     	clrc
 10035  0BE2  1003               	rlf	(___fladd@grs),f
 10036  0BE3  0DFB               
 10037                           	goto	l2501
 10038  0BE4  2BE5               	line	181
 10039                           	
 10040                           l613:	
 10041  0BE5                     	line	182
 10042                           	
 10043                           l2501:	
 10044  0BE5                     	movf	((___fladd@bexp)),w
 10045  0BE5  087A               	btfsc	status,2
 10046  0BE6  1903               	goto	u3091
 10047  0BE7  2BE9               	goto	u3090
 10048  0BE8  2BEA               u3091:
 10049  0BE9                     	goto	l2505
 10050  0BE9  2BEE               u3090:
 10051  0BEA                     	line	183
 10052                           	
 10053                           l2503:	
 10054  0BEA                     	movlw	01h
 10055  0BEA  3001               	subwf	(___fladd@bexp),f
 10056  0BEB  02FA               	goto	l2505
 10057  0BEC  2BEE               	line	184
 10058                           	
 10059                           l614:	
 10060  0BED                     	goto	l2505
 10061  0BED  2BEE               	line	185
 10062                           	
 10063                           l609:	
 10064  0BEE                     	line	171
 10065                           	
 10066                           l2505:	
 10067  0BEE                     	btfss	(___fladd@b+2),(23)&7
 10068  0BEE  1FF2               	goto	u3101
 10069  0BEF  2BF1               	goto	u3100
 10070  0BF0  2BF2               u3101:
 10071  0BF1                     	goto	l2491
 10072  0BF1  2BCF               u3100:
 10073  0BF2                     	goto	l2507
 10074  0BF2  2BF4               	
 10075                           l615:	
 10076  0BF3                     	goto	l2507
 10077  0BF3  2BF4               	line	186
 10078                           	
 10079                           l604:	
 10080  0BF4                     	line	192
 10081                           	
 10082                           l2507:	
 10083  0BF4                     	clrf	(___fladd@aexp)
 10084  0BF4  01F9               	line	193
 10085                           	
 10086                           l2509:	
 10087  0BF5                     	btfss	(___fladd@grs),(7)&7
 10088  0BF5  1FFB               	goto	u3111
 10089  0BF6  2BF8               	goto	u3110
 10090  0BF7  2BF9               u3111:
 10091  0BF8                     	goto	l2517
 10092  0BF8  2C0B               u3110:
 10093  0BF9                     	line	194
 10094                           	
 10095                           l2511:	
 10096  0BF9                     	movf	(___fladd@grs),w
 10097  0BF9  087B               	andlw	07Fh
 10098  0BFA  397F               	btfsc	status,2
 10099  0BFB  1903               	goto	u3121
 10100  0BFC  2BFE               	goto	u3120
 10101  0BFD  2BFF               u3121:
 10102  0BFE                     	goto	l617
 10103  0BFE  2C02               u3120:
 10104  0BFF                     	line	195
 10105                           	
 10106                           l2513:	
 10107  0BFF                     	clrf	(___fladd@aexp)
 10108  0BFF  01F9               	incf	(___fladd@aexp),f
 10109  0C00  0AF9               	line	196
 10110                           	goto	l2517
 10111  0C01  2C0B               	line	197
 10112                           	
 10113                           l617:	
 10114  0C02                     	line	198
 10115                           	btfss	(___fladd@b),(0)&7
 10116  0C02  1C70               	goto	u3131
 10117  0C03  2C05               	goto	u3130
 10118  0C04  2C06               u3131:
 10119  0C05                     	goto	l2517
 10120  0C05  2C0B               u3130:
 10121  0C06                     	line	199
 10122                           	
 10123                           l2515:	
 10124  0C06                     	clrf	(___fladd@aexp)
 10125  0C06  01F9               	incf	(___fladd@aexp),f
 10126  0C07  0AF9               	goto	l2517
 10127  0C08  2C0B               	line	200
 10128                           	
 10129                           l619:	
 10130  0C09                     	goto	l2517
 10131  0C09  2C0B               	line	201
 10132                           	
 10133                           l618:	
 10134  0C0A                     	goto	l2517
 10135  0C0A  2C0B               	line	202
 10136                           	
 10137                           l616:	
 10138  0C0B                     	line	203
 10139                           	
 10140                           l2517:	
 10141  0C0B                     	movf	((___fladd@aexp)),w
 10142  0C0B  0879               	btfsc	status,2
 10143  0C0C  1903               	goto	u3141
 10144  0C0D  2C0F               	goto	u3140
 10145  0C0E  2C10               u3141:
 10146  0C0F                     	goto	l620
 10147  0C0F  2C40               u3140:
 10148  0C10                     	line	204
 10149                           	
 10150                           l2519:	
 10151  0C10                     	movlw	01h
 10152  0C10  3001               	addwf	(___fladd@b),f
 10153  0C11  07F0               	movlw	0
 10154  0C12  3000               	addwfc	(___fladd@b+1),f
 10155  0C13  3DF1               	movlw	0
 10156  0C14  3000               	addwfc	(___fladd@b+2),f
 10157  0C15  3DF2               	movlw	0
 10158  0C16  3000               	addwfc	(___fladd@b+3),f
 10159  0C17  3DF3               	line	205
 10160                           	
 10161                           l2521:	
 10162  0C18                     	btfss	(___fladd@b+3),(24)&7
 10163  0C18  1C73               	goto	u3151
 10164  0C19  2C1B               	goto	u3150
 10165  0C1A  2C1C               u3151:
 10166  0C1B                     	goto	l620
 10167  0C1B  2C40               u3150:
 10168  0C1C                     	line	206
 10169                           	
 10170                           l2523:	
 10171  0C1C                     	movf	(___fladd@b),w
 10172  0C1C  0870               	movlb 0	; select bank0
 10173  0C1D  0140               	movwf	(??___fladd+0)+0
 10174  0C1E  00A0               	movf	(___fladd@b+1),w
 10175  0C1F  0871               	movwf	((??___fladd+0)+0+1)
 10176  0C20  00A1               	movf	(___fladd@b+2),w
 10177  0C21  0872               	movwf	((??___fladd+0)+0+2)
 10178  0C22  00A2               	movf	(___fladd@b+3),w
 10179  0C23  0873               	movwf	((??___fladd+0)+0+3)
 10180  0C24  00A3               	movlw	01h
 10181  0C25  3001               	movwf	(??___fladd+4)+0
 10182  0C26  00A4               u3165:
 10183  0C27                     	asrf	(??___fladd+0)+3,f
 10184  0C27  37A3               	rrf	(??___fladd+0)+2,f
 10185  0C28  0CA2               	rrf	(??___fladd+0)+1,f
 10186  0C29  0CA1               	rrf	(??___fladd+0)+0,f
 10187  0C2A  0CA0               u3160:
 10188  0C2B                     	decfsz	(??___fladd+4)+0,f
 10189  0C2B  0BA4               	goto	u3165
 10190  0C2C  2C27               	movf	3+(??___fladd+0)+0,w
 10191  0C2D  0823               	movwf	(___fladd@b+3)
 10192  0C2E  00F3               	movf	2+(??___fladd+0)+0,w
 10193  0C2F  0822               	movwf	(___fladd@b+2)
 10194  0C30  00F2               	movf	1+(??___fladd+0)+0,w
 10195  0C31  0821               	movwf	(___fladd@b+1)
 10196  0C32  00F1               	movf	0+(??___fladd+0)+0,w
 10197  0C33  0820               	movwf	(___fladd@b)
 10198  0C34  00F0               
 10199                           	line	207
 10200                           		incf	((___fladd@bexp)),w
 10201  0C35  0A7A               	btfsc	status,2
 10202  0C36  1903               	goto	u3171
 10203  0C37  2C39               	goto	u3170
 10204  0C38  2C3A               u3171:
 10205  0C39                     	goto	l620
 10206  0C39  2C40               u3170:
 10207  0C3A                     	line	208
 10208                           	
 10209                           l2525:	
 10210  0C3A                     	movlw	low(01h)
 10211  0C3A  3001               	movwf	(??___fladd+0)+0
 10212  0C3B  00A0               	movf	(??___fladd+0)+0,w
 10213  0C3C  0820               	addwf	(___fladd@bexp),f
 10214  0C3D  07FA               	goto	l620
 10215  0C3E  2C40               	line	209
 10216                           	
 10217                           l622:	
 10218  0C3F                     	goto	l620
 10219  0C3F  2C40               	line	210
 10220                           	
 10221                           l621:	
 10222  0C40                     	line	211
 10223                           	
 10224                           l620:	
 10225  0C40                     	line	215
 10226                           		incf	((___fladd@bexp)),w
 10227  0C40  0A7A               	btfsc	status,2
 10228  0C41  1903               	goto	u3181
 10229  0C42  2C44               	goto	u3180
 10230  0C43  2C45               u3181:
 10231  0C44                     	goto	l2529
 10232  0C44  2C4B               u3180:
 10233  0C45                     	
 10234                           l2527:	
 10235  0C45                     	movf	((___fladd@bexp)),w
 10236  0C45  087A               	btfss	status,2
 10237  0C46  1D03               	goto	u3191
 10238  0C47  2C49               	goto	u3190
 10239  0C48  2C4A               u3191:
 10240  0C49                     	goto	l2535
 10241  0C49  2C5B               u3190:
 10242  0C4A                     	goto	l2529
 10243  0C4A  2C4B               	
 10244                           l625:	
 10245  0C4B                     	line	216
 10246                           	
 10247                           l2529:	
 10248  0C4B                     	movlw	high highword(0)
 10249  0C4B  3000               	movwf	(___fladd@b+3)
 10250  0C4C  00F3               	movlw	low highword(0)
 10251  0C4D  3000               	movwf	(___fladd@b+2)
 10252  0C4E  00F2               	movlw	high(0)
 10253  0C4F  3000               	movwf	(___fladd@b+1)
 10254  0C50  00F1               	movlw	low(0)
 10255  0C51  3000               	movwf	(___fladd@b)
 10256  0C52  00F0               
 10257                           	line	218
 10258                           	
 10259                           l2531:	
 10260  0C53                     	movf	((___fladd@bexp)),w
 10261  0C53  087A               	btfss	status,2
 10262  0C54  1D03               	goto	u3201
 10263  0C55  2C57               	goto	u3200
 10264  0C56  2C58               u3201:
 10265  0C57                     	goto	l2535
 10266  0C57  2C5B               u3200:
 10267  0C58                     	line	219
 10268                           	
 10269                           l2533:	
 10270  0C58                     	clrf	(___fladd@signs)
 10271  0C58  01F8               	goto	l2535
 10272  0C59  2C5B               	line	220
 10273                           	
 10274                           l626:	
 10275  0C5A                     	goto	l2535
 10276  0C5A  2C5B               	line	221
 10277                           	
 10278                           l623:	
 10279  0C5B                     	line	225
 10280                           	
 10281                           l2535:	
 10282  0C5B                     	btfss	(___fladd@bexp),(0)&7
 10283  0C5B  1C7A               	goto	u3211
 10284  0C5C  2C5E               	goto	u3210
 10285  0C5D  2C5F               u3211:
 10286  0C5E                     	goto	l2539
 10287  0C5E  2C61               u3210:
 10288  0C5F                     	line	226
 10289                           	
 10290                           l2537:	
 10291  0C5F                     	bsf	0+(___fladd@b)+02h+(7/8),(7)&7
 10292  0C5F  17F2               	line	227
 10293                           	goto	l628
 10294  0C60  2C66               	line	229
 10295                           	
 10296                           l627:	
 10297  0C61                     	line	230
 10298                           	
 10299                           l2539:	
 10300  0C61                     	movlw	low(07Fh)
 10301  0C61  307F               	movlb 0	; select bank0
 10302  0C62  0140               	movwf	(??___fladd+0)+0
 10303  0C63  00A0               	movf	(??___fladd+0)+0,w
 10304  0C64  0820               	andwf	0+(___fladd@b)+02h,f
 10305  0C65  05F2               	line	231
 10306                           	
 10307                           l628:	
 10308  0C66                     	line	232
 10309                           	lsrf	(___fladd@bexp),w
 10310  0C66  367A               	movlb 0	; select bank0
 10311  0C67  0140               	movwf	(??___fladd+0)+0
 10312  0C68  00A0               	movf	(??___fladd+0)+0,w
 10313  0C69  0820               	movwf	0+(___fladd@b)+03h
 10314  0C6A  00F3               	line	233
 10315                           	
 10316                           l2541:	
 10317  0C6B                     	btfss	(___fladd@signs),(7)&7
 10318  0C6B  1FF8               	goto	u3221
 10319  0C6C  2C6E               	goto	u3220
 10320  0C6D  2C6F               u3221:
 10321  0C6E                     	goto	l629
 10322  0C6E  2C70               u3220:
 10323  0C6F                     	line	234
 10324                           	
 10325                           l2543:	
 10326  0C6F                     	bsf	0+(___fladd@b)+03h+(7/8),(7)&7
 10327  0C6F  17F3               	line	235
 10328                           	
 10329                           l629:	
 10330  0C70                     	line	236
 10331                           	line	237
 10332                           	
 10333                           l599:	
 10334  0C70                     	return
 10335  0C70  0008               	opt stack 0
 10336                           GLOBAL	__end_of___fladd
 10337                           	__end_of___fladd:
 10338  0C71                     	signat	___fladd,8316
 10339                           	global	___flneg
 10340                           
 10341 ;; *************** function ___flneg *****************
 10342 ;; Defined at:
 10343 ;;		line 15 in file "C:\Program Files (x86)\Microchip\xc8\v2.00\pic\sources\c99\common\flneg.c"
 10344 ;; Parameters:    Size  Location     Type
 10345 ;;  f1              4    0[COMMON] unsigned char 
 10346 ;; Auto vars:     Size  Location     Type
 10347 ;;		None
 10348 ;; Return value:  Size  Location     Type
 10349 ;;                  4    0[COMMON] unsigned char 
 10350 ;; Registers used:
 10351 ;;		wreg
 10352 ;; Tracked objects:
 10353 ;;		On entry : 0/0
 10354 ;;		On exit  : 0/0
 10355 ;;		Unchanged: 0/0
 10356 ;; Data sizes:     COMMON   BANK0   BANK1   BANK2   BANK3   BANK4   BANK5   BANK6   BANK7   BANK8   BANK9  BANK10  BANK1
       1  BANK12
 10357 ;;      Params:         4       0       0       0       0       0       0       0       0       0       0       0       
       0       0
 10358 ;;      Locals:         0       0       0       0       0       0       0       0       0       0       0       0       
       0       0
 10359 ;;      Temps:          0       0       0       0       0       0       0       0       0       0       0       0       
       0       0
 10360 ;;      Totals:         4       0       0       0       0       0       0       0       0       0       0       0       
       0       0
 10361 ;;Total ram usage:        4 bytes
 10362 ;; Hardware stack levels used:    1
 10363 ;; Hardware stack levels required when called:    1
 10364 ;; This function calls:
 10365 ;;		Nothing
 10366 ;; This function is called by:
 10367 ;;		_efgtoa
 10368 ;; This function uses a non-reentrant model
 10369 ;;
 10370                           psect	text19,local,class=CODE,delta=2,merge=1,group=1
 10371                           	file	"C:\Program Files (x86)\Microchip\xc8\v2.00\pic\sources\c99\common\flneg.c"
 10372                           	line	15
 10373                           global __ptext19
 10374                           __ptext19:	;psect for function ___flneg
 10375  1E07                     psect	text19
 10376                           	file	"C:\Program Files (x86)\Microchip\xc8\v2.00\pic\sources\c99\common\flneg.c"
 10377                           	line	15
 10378                           	global	__size_of___flneg
 10379                           	__size_of___flneg	equ	__end_of___flneg-___flneg
 10380  000D                     	
 10381                           ___flneg:	
 10382  1E07                     ;incstack = 0
 10383                           	opt	stack 10
 10384                           ; Regs used in ___flneg: [wreg]
 10385                           	line	17
 10386                           	
 10387                           l2787:	
 10388  1E07                     	movf	(___flneg@f1+3),w
 10389  1E07  0873               	iorwf	(___flneg@f1+2),w
 10390  1E08  0472               	iorwf	(___flneg@f1+1),w
 10391  1E09  0471               	iorwf	(___flneg@f1),w
 10392  1E0A  0470               	skipnz
 10393  1E0B  1903               	goto	u3861
 10394  1E0C  2E0E               	goto	u3860
 10395  1E0D  2E0F               u3861:
 10396  1E0E                     	goto	l2791
 10397  1E0E  2E12               u3860:
 10398  1E0F                     	line	18
 10399                           	
 10400                           l2789:	
 10401  1E0F                     	movlw	080h
 10402  1E0F  3080               	xorwf	(___flneg@f1+3),f
 10403  1E10  06F3               	goto	l2791
 10404  1E11  2E12               	
 10405                           l474:	
 10406  1E12                     	line	19
 10407                           	
 10408                           l2791:	
 10409  1E12                     	goto	l475
 10410  1E12  2E13               	
 10411                           l2793:	
 10412  1E13                     	line	20
 10413                           	
 10414                           l475:	
 10415  1E13                     	return
 10416  1E13  0008               	opt stack 0
 10417                           GLOBAL	__end_of___flneg
 10418                           	__end_of___flneg:
 10419  1E14                     	signat	___flneg,4220
 10420                           	global	___flmul
 10421                           
 10422 ;; *************** function ___flmul *****************
 10423 ;; Defined at:
 10424 ;;		line 8 in file "C:\Program Files (x86)\Microchip\xc8\v2.00\pic\sources\c99\common\sprcmul.c"
 10425 ;; Parameters:    Size  Location     Type
 10426 ;;  b               4    0[BANK0 ] unsigned char 
 10427 ;;  a               4    4[BANK0 ] unsigned char 
 10428 ;; Auto vars:     Size  Location     Type
 10429 ;;  prod            4   15[BANK0 ] struct .
 10430 ;;  grs             4    9[BANK0 ] unsigned long 
 10431 ;;  temp            2   19[BANK0 ] struct .
 10432 ;;  bexp            1   14[BANK0 ] unsigned char 
 10433 ;;  aexp            1   13[BANK0 ] unsigned char 
 10434 ;;  sign            1    8[BANK0 ] unsigned char 
 10435 ;; Return value:  Size  Location     Type
 10436 ;;                  4    0[BANK0 ] unsigned char 
 10437 ;; Registers used:
 10438 ;;		wreg, status,2, status,0, pclath, cstack
 10439 ;; Tracked objects:
 10440 ;;		On entry : 0/0
 10441 ;;		On exit  : 0/0
 10442 ;;		Unchanged: 0/0
 10443 ;; Data sizes:     COMMON   BANK0   BANK1   BANK2   BANK3   BANK4   BANK5   BANK6   BANK7   BANK8   BANK9  BANK10  BANK1
       1  BANK12
 10444 ;;      Params:         0       8       0       0       0       0       0       0       0       0       0       0       
       0       0
 10445 ;;      Locals:         0      13       0       0       0       0       0       0       0       0       0       0       
       0       0
 10446 ;;      Temps:          5       0       0       0       0       0       0       0       0       0       0       0       
       0       0
 10447 ;;      Totals:         5      21       0       0       0       0       0       0       0       0       0       0       
       0       0
 10448 ;;Total ram usage:       26 bytes
 10449 ;; Hardware stack levels used:    1
 10450 ;; Hardware stack levels required when called:    2
 10451 ;; This function calls:
 10452 ;;		__Umul8_16
 10453 ;; This function is called by:
 10454 ;;		_efgtoa
 10455 ;; This function uses a non-reentrant model
 10456 ;;
 10457                           psect	text20,local,class=CODE,delta=2,merge=1,group=1
 10458                           	file	"C:\Program Files (x86)\Microchip\xc8\v2.00\pic\sources\c99\common\sprcmul.c"
 10459                           	line	8
 10460                           global __ptext20
 10461                           __ptext20:	;psect for function ___flmul
 10462  1595                     psect	text20
 10463                           	file	"C:\Program Files (x86)\Microchip\xc8\v2.00\pic\sources\c99\common\sprcmul.c"
 10464                           	line	8
 10465                           	global	__size_of___flmul
 10466                           	__size_of___flmul	equ	__end_of___flmul-___flmul
 10467  026B                     	
 10468                           ___flmul:	
 10469  1595                     ;incstack = 0
 10470                           	opt	stack 9
 10471                           ; Regs used in ___flmul: [wreg+status,2+status,0+pclath+cstack]
 10472                           	line	17
 10473                           	
 10474                           l2977:	
 10475  1595                     	movlb 0	; select bank0
 10476  1595  0140               	movf	0+(___flmul@b)+03h,w
 10477  1596  0823               	andlw	080h
 10478  1597  3980               	movwf	(??___flmul+0)+0
 10479  1598  00F9               	movf	(??___flmul+0)+0,w
 10480  1599  0879               	movwf	(___flmul@sign)
 10481  159A  00A8               	line	18
 10482                           	
 10483                           l2979:	
 10484  159B                     	lslf	0+(___flmul@b)+03h,w
 10485  159B  3523               	movwf	(??___flmul+0)+0
 10486  159C  00F9               	movf	(??___flmul+0)+0,w
 10487  159D  0879               	movwf	(___flmul@bexp)
 10488  159E  00AE               	line	19
 10489                           	
 10490                           l2981:	
 10491  159F                     	btfss	0+(___flmul@b)+02h,(7)&7
 10492  159F  1FA2               	goto	u4261
 10493  15A0  2DA2               	goto	u4260
 10494  15A1  2DA3               u4261:
 10495  15A2                     	goto	l2985
 10496  15A2  2DA5               u4260:
 10497  15A3                     	line	20
 10498                           	
 10499                           l2983:	
 10500  15A3                     	bsf	(___flmul@bexp)+(0/8),(0)&7
 10501  15A3  142E               	goto	l2985
 10502  15A4  2DA5               	line	21
 10503                           	
 10504                           l671:	
 10505  15A5                     	line	24
 10506                           	
 10507                           l2985:	
 10508  15A5                     	movf	((___flmul@bexp)),w
 10509  15A5  082E               	btfsc	status,2
 10510  15A6  1903               	goto	u4271
 10511  15A7  2DA9               	goto	u4270
 10512  15A8  2DAA               u4271:
 10513  15A9                     	goto	l2993
 10514  15A9  2DBA               u4270:
 10515  15AA                     	line	26
 10516                           	
 10517                           l2987:	
 10518  15AA                     		incf	((___flmul@bexp)),w
 10519  15AA  0A2E               	btfss	status,2
 10520  15AB  1D03               	goto	u4281
 10521  15AC  2DAE               	goto	u4280
 10522  15AD  2DAF               u4281:
 10523  15AE                     	goto	l2991
 10524  15AE  2DB8               u4280:
 10525  15AF                     	line	28
 10526                           	
 10527                           l2989:	
 10528  15AF                     	movlw	0x0
 10529  15AF  3000               	movwf	(___flmul@b+3)
 10530  15B0  00A3               	movlw	0x0
 10531  15B1  3000               	movwf	(___flmul@b+2)
 10532  15B2  00A2               	movlw	0x0
 10533  15B3  3000               	movwf	(___flmul@b+1)
 10534  15B4  00A1               	movlw	0x0
 10535  15B5  3000               	movwf	(___flmul@b)
 10536  15B6  00A0               
 10537                           	goto	l2991
 10538  15B7  2DB8               	line	29
 10539                           	
 10540                           l673:	
 10541  15B8                     	line	31
 10542                           	
 10543                           l2991:	
 10544  15B8                     	bsf	(___flmul@b)+(23/8),(23)&7
 10545  15B8  17A2               	line	33
 10546                           	goto	l2995
 10547  15B9  2DC3               	line	34
 10548                           	
 10549                           l672:	
 10550  15BA                     	line	36
 10551                           	
 10552                           l2993:	
 10553  15BA                     	movlw	0x0
 10554  15BA  3000               	movwf	(___flmul@b+3)
 10555  15BB  00A3               	movlw	0x0
 10556  15BC  3000               	movwf	(___flmul@b+2)
 10557  15BD  00A2               	movlw	0x0
 10558  15BE  3000               	movwf	(___flmul@b+1)
 10559  15BF  00A1               	movlw	0x0
 10560  15C0  3000               	movwf	(___flmul@b)
 10561  15C1  00A0               
 10562                           	goto	l2995
 10563  15C2  2DC3               	line	37
 10564                           	
 10565                           l674:	
 10566  15C3                     	line	39
 10567                           	
 10568                           l2995:	
 10569  15C3                     	movf	0+(___flmul@a)+03h,w
 10570  15C3  0827               	andlw	080h
 10571  15C4  3980               	movwf	(??___flmul+0)+0
 10572  15C5  00F9               	movf	(??___flmul+0)+0,w
 10573  15C6  0879               	xorwf	(___flmul@sign),f
 10574  15C7  06A8               	line	40
 10575                           	
 10576                           l2997:	
 10577  15C8                     	lslf	0+(___flmul@a)+03h,w
 10578  15C8  3527               	movwf	(??___flmul+0)+0
 10579  15C9  00F9               	movf	(??___flmul+0)+0,w
 10580  15CA  0879               	movwf	(___flmul@aexp)
 10581  15CB  00AD               	line	41
 10582                           	
 10583                           l2999:	
 10584  15CC                     	btfss	0+(___flmul@a)+02h,(7)&7
 10585  15CC  1FA6               	goto	u4291
 10586  15CD  2DCF               	goto	u4290
 10587  15CE  2DD0               u4291:
 10588  15CF                     	goto	l3003
 10589  15CF  2DD2               u4290:
 10590  15D0                     	line	42
 10591                           	
 10592                           l3001:	
 10593  15D0                     	bsf	(___flmul@aexp)+(0/8),(0)&7
 10594  15D0  142D               	goto	l3003
 10595  15D1  2DD2               	line	43
 10596                           	
 10597                           l675:	
 10598  15D2                     	line	45
 10599                           	
 10600                           l3003:	
 10601  15D2                     	movf	((___flmul@aexp)),w
 10602  15D2  082D               	btfsc	status,2
 10603  15D3  1903               	goto	u4301
 10604  15D4  2DD6               	goto	u4300
 10605  15D5  2DD7               u4301:
 10606  15D6                     	goto	l3011
 10607  15D6  2DE7               u4300:
 10608  15D7                     	line	48
 10609                           	
 10610                           l3005:	
 10611  15D7                     		incf	((___flmul@aexp)),w
 10612  15D7  0A2D               	btfss	status,2
 10613  15D8  1D03               	goto	u4311
 10614  15D9  2DDB               	goto	u4310
 10615  15DA  2DDC               u4311:
 10616  15DB                     	goto	l3009
 10617  15DB  2DE5               u4310:
 10618  15DC                     	line	50
 10619                           	
 10620                           l3007:	
 10621  15DC                     	movlw	0x0
 10622  15DC  3000               	movwf	(___flmul@a+3)
 10623  15DD  00A7               	movlw	0x0
 10624  15DE  3000               	movwf	(___flmul@a+2)
 10625  15DF  00A6               	movlw	0x0
 10626  15E0  3000               	movwf	(___flmul@a+1)
 10627  15E1  00A5               	movlw	0x0
 10628  15E2  3000               	movwf	(___flmul@a)
 10629  15E3  00A4               
 10630                           	goto	l3009
 10631  15E4  2DE5               	line	51
 10632                           	
 10633                           l677:	
 10634  15E5                     	line	53
 10635                           	
 10636                           l3009:	
 10637  15E5                     	bsf	(___flmul@a)+(23/8),(23)&7
 10638  15E5  17A6               	line	54
 10639                           	goto	l3013
 10640  15E6  2DF0               	line	55
 10641                           	
 10642                           l676:	
 10643  15E7                     	line	57
 10644                           	
 10645                           l3011:	
 10646  15E7                     	movlw	0x0
 10647  15E7  3000               	movwf	(___flmul@a+3)
 10648  15E8  00A7               	movlw	0x0
 10649  15E9  3000               	movwf	(___flmul@a+2)
 10650  15EA  00A6               	movlw	0x0
 10651  15EB  3000               	movwf	(___flmul@a+1)
 10652  15EC  00A5               	movlw	0x0
 10653  15ED  3000               	movwf	(___flmul@a)
 10654  15EE  00A4               
 10655                           	goto	l3013
 10656  15EF  2DF0               	line	58
 10657                           	
 10658                           l678:	
 10659  15F0                     	line	65
 10660                           	
 10661                           l3013:	
 10662  15F0                     	movf	((___flmul@aexp)),w
 10663  15F0  082D               	btfsc	status,2
 10664  15F1  1903               	goto	u4321
 10665  15F2  2DF4               	goto	u4320
 10666  15F3  2DF5               u4321:
 10667  15F4                     	goto	l3017
 10668  15F4  2DFB               u4320:
 10669  15F5                     	
 10670                           l3015:	
 10671  15F5                     	movf	((___flmul@bexp)),w
 10672  15F5  082E               	btfss	status,2
 10673  15F6  1D03               	goto	u4331
 10674  15F7  2DF9               	goto	u4330
 10675  15F8  2DFA               u4331:
 10676  15F9                     	goto	l3021
 10677  15F9  2E05               u4330:
 10678  15FA                     	goto	l3017
 10679  15FA  2DFB               	
 10680                           l681:	
 10681  15FB                     	line	66
 10682                           	
 10683                           l3017:	
 10684  15FB                     	movlw	0x0
 10685  15FB  3000               	movwf	(?___flmul+3)
 10686  15FC  00A3               	movlw	0x0
 10687  15FD  3000               	movwf	(?___flmul+2)
 10688  15FE  00A2               	movlw	0x0
 10689  15FF  3000               	movwf	(?___flmul+1)
 10690  1600  00A1               	movlw	0x0
 10691  1601  3000               	movwf	(?___flmul)
 10692  1602  00A0               
 10693                           	goto	l682
 10694  1603  2FFF               	
 10695                           l3019:	
 10696  1604                     	goto	l682
 10697  1604  2FFF               	line	67
 10698                           	
 10699                           l679:	
 10700  1605                     	line	119
 10701                           	
 10702                           l3021:	
 10703  1605                     	movf	(___flmul@b),w
 10704  1605  0820               	movwf	(??___flmul+0)+0
 10705  1606  00F9               	movf	(??___flmul+0)+0,w
 10706  1607  0879               	movwf	(__Umul8_16@multiplicand)
 10707  1608  00F0               	movf	0+(___flmul@a)+02h,w
 10708  1609  0826               	fcall	__Umul8_16
 10709  160A  319E  26B4  3195   	movf	(1+(?__Umul8_16)),w
 10710  160D  0871               	movlb 0	; select bank0
 10711  160E  0140               	movwf	(___flmul@temp+1)
 10712  160F  00B4               	movf	(0+(?__Umul8_16)),w
 10713  1610  0870               	movwf	(___flmul@temp)
 10714  1611  00B3               	line	120
 10715                           	
 10716                           l3023:	
 10717  1612                     	movf	(___flmul@temp),w
 10718  1612  0833               	movwf	(??___flmul+0)+0
 10719  1613  00F9               	clrf	(??___flmul+0)+0+1
 10720  1614  01FA               	clrf	(??___flmul+0)+0+2
 10721  1615  01FB               	clrf	(??___flmul+0)+0+3
 10722  1616  01FC               	movf	3+(??___flmul+0)+0,w
 10723  1617  087C               	movwf	(___flmul@grs+3)
 10724  1618  00AC               	movf	2+(??___flmul+0)+0,w
 10725  1619  087B               	movwf	(___flmul@grs+2)
 10726  161A  00AB               	movf	1+(??___flmul+0)+0,w
 10727  161B  087A               	movwf	(___flmul@grs+1)
 10728  161C  00AA               	movf	0+(??___flmul+0)+0,w
 10729  161D  0879               	movwf	(___flmul@grs)
 10730  161E  00A9               
 10731                           	line	121
 10732                           	
 10733                           l3025:	
 10734  161F                     	movf	0+(___flmul@temp)+01h,w
 10735  161F  0834               	movwf	(??___flmul+0)+0
 10736  1620  00F9               	clrf	(??___flmul+0)+0+1
 10737  1621  01FA               	clrf	(??___flmul+0)+0+2
 10738  1622  01FB               	clrf	(??___flmul+0)+0+3
 10739  1623  01FC               	movf	3+(??___flmul+0)+0,w
 10740  1624  087C               	movwf	(___flmul@prod+3)
 10741  1625  00B2               	movf	2+(??___flmul+0)+0,w
 10742  1626  087B               	movwf	(___flmul@prod+2)
 10743  1627  00B1               	movf	1+(??___flmul+0)+0,w
 10744  1628  087A               	movwf	(___flmul@prod+1)
 10745  1629  00B0               	movf	0+(??___flmul+0)+0,w
 10746  162A  0879               	movwf	(___flmul@prod)
 10747  162B  00AF               
 10748                           	line	122
 10749                           	movf	0+(___flmul@b)+01h,w
 10750  162C  0821               	movwf	(??___flmul+0)+0
 10751  162D  00F9               	movf	(??___flmul+0)+0,w
 10752  162E  0879               	movwf	(__Umul8_16@multiplicand)
 10753  162F  00F0               	movf	0+(___flmul@a)+01h,w
 10754  1630  0825               	fcall	__Umul8_16
 10755  1631  319E  26B4  3195   	movf	(1+(?__Umul8_16)),w
 10756  1634  0871               	movlb 0	; select bank0
 10757  1635  0140               	movwf	(___flmul@temp+1)
 10758  1636  00B4               	movf	(0+(?__Umul8_16)),w
 10759  1637  0870               	movwf	(___flmul@temp)
 10760  1638  00B3               	line	123
 10761                           	
 10762                           l3027:	
 10763  1639                     	movf	(___flmul@temp),w
 10764  1639  0833               	movwf	(??___flmul+0)+0
 10765  163A  00F9               	clrf	(??___flmul+0)+0+1
 10766  163B  01FA               	clrf	(??___flmul+0)+0+2
 10767  163C  01FB               	clrf	(??___flmul+0)+0+3
 10768  163D  01FC               	movf	0+(??___flmul+0)+0,w
 10769  163E  0879               	addwf	(___flmul@grs),f
 10770  163F  07A9               	movf	1+(??___flmul+0)+0,w
 10771  1640  087A               	addwfc	(___flmul@grs+1),f
 10772  1641  3DAA               	movf	2+(??___flmul+0)+0,w
 10773  1642  087B               	addwfc	(___flmul@grs+2),f
 10774  1643  3DAB               	movf	3+(??___flmul+0)+0,w
 10775  1644  087C               	addwfc	(___flmul@grs+3),f
 10776  1645  3DAC               	line	124
 10777                           	
 10778                           l3029:	
 10779  1646                     	movf	0+(___flmul@temp)+01h,w
 10780  1646  0834               	movwf	(??___flmul+0)+0
 10781  1647  00F9               	clrf	(??___flmul+0)+0+1
 10782  1648  01FA               	clrf	(??___flmul+0)+0+2
 10783  1649  01FB               	clrf	(??___flmul+0)+0+3
 10784  164A  01FC               	movf	0+(??___flmul+0)+0,w
 10785  164B  0879               	addwf	(___flmul@prod),f
 10786  164C  07AF               	movf	1+(??___flmul+0)+0,w
 10787  164D  087A               	addwfc	(___flmul@prod+1),f
 10788  164E  3DB0               	movf	2+(??___flmul+0)+0,w
 10789  164F  087B               	addwfc	(___flmul@prod+2),f
 10790  1650  3DB1               	movf	3+(??___flmul+0)+0,w
 10791  1651  087C               	addwfc	(___flmul@prod+3),f
 10792  1652  3DB2               	line	125
 10793                           	movf	0+(___flmul@b)+02h,w
 10794  1653  0822               	movwf	(??___flmul+0)+0
 10795  1654  00F9               	movf	(??___flmul+0)+0,w
 10796  1655  0879               	movwf	(__Umul8_16@multiplicand)
 10797  1656  00F0               	movf	(___flmul@a),w
 10798  1657  0824               	fcall	__Umul8_16
 10799  1658  319E  26B4  3195   	movf	(1+(?__Umul8_16)),w
 10800  165B  0871               	movlb 0	; select bank0
 10801  165C  0140               	movwf	(___flmul@temp+1)
 10802  165D  00B4               	movf	(0+(?__Umul8_16)),w
 10803  165E  0870               	movwf	(___flmul@temp)
 10804  165F  00B3               	line	126
 10805                           	
 10806                           l3031:	
 10807  1660                     	movf	(___flmul@temp),w
 10808  1660  0833               	movwf	(??___flmul+0)+0
 10809  1661  00F9               	clrf	(??___flmul+0)+0+1
 10810  1662  01FA               	clrf	(??___flmul+0)+0+2
 10811  1663  01FB               	clrf	(??___flmul+0)+0+3
 10812  1664  01FC               	movf	0+(??___flmul+0)+0,w
 10813  1665  0879               	addwf	(___flmul@grs),f
 10814  1666  07A9               	movf	1+(??___flmul+0)+0,w
 10815  1667  087A               	addwfc	(___flmul@grs+1),f
 10816  1668  3DAA               	movf	2+(??___flmul+0)+0,w
 10817  1669  087B               	addwfc	(___flmul@grs+2),f
 10818  166A  3DAB               	movf	3+(??___flmul+0)+0,w
 10819  166B  087C               	addwfc	(___flmul@grs+3),f
 10820  166C  3DAC               	line	127
 10821                           	
 10822                           l3033:	
 10823  166D                     	movf	0+(___flmul@temp)+01h,w
 10824  166D  0834               	movwf	(??___flmul+0)+0
 10825  166E  00F9               	clrf	(??___flmul+0)+0+1
 10826  166F  01FA               	clrf	(??___flmul+0)+0+2
 10827  1670  01FB               	clrf	(??___flmul+0)+0+3
 10828  1671  01FC               	movf	0+(??___flmul+0)+0,w
 10829  1672  0879               	addwf	(___flmul@prod),f
 10830  1673  07AF               	movf	1+(??___flmul+0)+0,w
 10831  1674  087A               	addwfc	(___flmul@prod+1),f
 10832  1675  3DB0               	movf	2+(??___flmul+0)+0,w
 10833  1676  087B               	addwfc	(___flmul@prod+2),f
 10834  1677  3DB1               	movf	3+(??___flmul+0)+0,w
 10835  1678  087C               	addwfc	(___flmul@prod+3),f
 10836  1679  3DB2               	line	128
 10837                           	
 10838                           l3035:	
 10839  167A                     	movlw	08h
 10840  167A  3008               u4345:
 10841  167B                     	lslf	(___flmul@grs),f
 10842  167B  35A9               	rlf	(___flmul@grs+1),f
 10843  167C  0DAA               	rlf	(___flmul@grs+2),f
 10844  167D  0DAB               	rlf	(___flmul@grs+3),f
 10845  167E  0DAC               	decfsz	wreg,f
 10846  167F  0B89               	goto	u4345
 10847  1680  2E7B               	line	129
 10848                           	
 10849                           l3037:	
 10850  1681                     	movf	0+(___flmul@b)+01h,w
 10851  1681  0821               	movwf	(??___flmul+0)+0
 10852  1682  00F9               	movf	(??___flmul+0)+0,w
 10853  1683  0879               	movwf	(__Umul8_16@multiplicand)
 10854  1684  00F0               	movf	(___flmul@a),w
 10855  1685  0824               	fcall	__Umul8_16
 10856  1686  319E  26B4  3195   	movf	(1+(?__Umul8_16)),w
 10857  1689  0871               	movlb 0	; select bank0
 10858  168A  0140               	movwf	(___flmul@temp+1)
 10859  168B  00B4               	movf	(0+(?__Umul8_16)),w
 10860  168C  0870               	movwf	(___flmul@temp)
 10861  168D  00B3               	line	130
 10862                           	
 10863                           l3039:	
 10864  168E                     	movf	(___flmul@temp),w
 10865  168E  0833               	addwf	(___flmul@grs),f
 10866  168F  07A9               	movf	(___flmul@temp+1),w
 10867  1690  0834               	addwfc	(___flmul@grs+1),f
 10868  1691  3DAA               	movlw	0
 10869  1692  3000               	addwfc	(___flmul@grs+2),f
 10870  1693  3DAB               	addwfc	(___flmul@grs+3),f
 10871  1694  3DAC               	line	131
 10872                           	
 10873                           l3041:	
 10874  1695                     	movf	(___flmul@b),w
 10875  1695  0820               	movwf	(??___flmul+0)+0
 10876  1696  00F9               	movf	(??___flmul+0)+0,w
 10877  1697  0879               	movwf	(__Umul8_16@multiplicand)
 10878  1698  00F0               	movf	0+(___flmul@a)+01h,w
 10879  1699  0825               	fcall	__Umul8_16
 10880  169A  319E  26B4  3195   	movf	(1+(?__Umul8_16)),w
 10881  169D  0871               	movlb 0	; select bank0
 10882  169E  0140               	movwf	(___flmul@temp+1)
 10883  169F  00B4               	movf	(0+(?__Umul8_16)),w
 10884  16A0  0870               	movwf	(___flmul@temp)
 10885  16A1  00B3               	line	132
 10886                           	
 10887                           l3043:	
 10888  16A2                     	movf	(___flmul@temp),w
 10889  16A2  0833               	addwf	(___flmul@grs),f
 10890  16A3  07A9               	movf	(___flmul@temp+1),w
 10891  16A4  0834               	addwfc	(___flmul@grs+1),f
 10892  16A5  3DAA               	movlw	0
 10893  16A6  3000               	addwfc	(___flmul@grs+2),f
 10894  16A7  3DAB               	addwfc	(___flmul@grs+3),f
 10895  16A8  3DAC               	line	133
 10896                           	
 10897                           l3045:	
 10898  16A9                     	movlw	08h
 10899  16A9  3008               u4355:
 10900  16AA                     	lslf	(___flmul@grs),f
 10901  16AA  35A9               	rlf	(___flmul@grs+1),f
 10902  16AB  0DAA               	rlf	(___flmul@grs+2),f
 10903  16AC  0DAB               	rlf	(___flmul@grs+3),f
 10904  16AD  0DAC               	decfsz	wreg,f
 10905  16AE  0B89               	goto	u4355
 10906  16AF  2EAA               	line	134
 10907                           	movf	(___flmul@b),w
 10908  16B0  0820               	movwf	(??___flmul+0)+0
 10909  16B1  00F9               	movf	(??___flmul+0)+0,w
 10910  16B2  0879               	movwf	(__Umul8_16@multiplicand)
 10911  16B3  00F0               	movf	(___flmul@a),w
 10912  16B4  0824               	fcall	__Umul8_16
 10913  16B5  319E  26B4  3195   	movf	(1+(?__Umul8_16)),w
 10914  16B8  0871               	movlb 0	; select bank0
 10915  16B9  0140               	movwf	(___flmul@temp+1)
 10916  16BA  00B4               	movf	(0+(?__Umul8_16)),w
 10917  16BB  0870               	movwf	(___flmul@temp)
 10918  16BC  00B3               	line	135
 10919                           	
 10920                           l3047:	
 10921  16BD                     	movf	(___flmul@temp),w
 10922  16BD  0833               	addwf	(___flmul@grs),f
 10923  16BE  07A9               	movf	(___flmul@temp+1),w
 10924  16BF  0834               	addwfc	(___flmul@grs+1),f
 10925  16C0  3DAA               	movlw	0
 10926  16C1  3000               	addwfc	(___flmul@grs+2),f
 10927  16C2  3DAB               	addwfc	(___flmul@grs+3),f
 10928  16C3  3DAC               	line	136
 10929                           	
 10930                           l3049:	
 10931  16C4                     	movf	0+(___flmul@b)+01h,w
 10932  16C4  0821               	movwf	(??___flmul+0)+0
 10933  16C5  00F9               	movf	(??___flmul+0)+0,w
 10934  16C6  0879               	movwf	(__Umul8_16@multiplicand)
 10935  16C7  00F0               	movf	0+(___flmul@a)+02h,w
 10936  16C8  0826               	fcall	__Umul8_16
 10937  16C9  319E  26B4  3195   	movf	(1+(?__Umul8_16)),w
 10938  16CC  0871               	movlb 0	; select bank0
 10939  16CD  0140               	movwf	(___flmul@temp+1)
 10940  16CE  00B4               	movf	(0+(?__Umul8_16)),w
 10941  16CF  0870               	movwf	(___flmul@temp)
 10942  16D0  00B3               	line	137
 10943                           	movf	(___flmul@temp),w
 10944  16D1  0833               	addwf	(___flmul@prod),f
 10945  16D2  07AF               	movf	(___flmul@temp+1),w
 10946  16D3  0834               	addwfc	(___flmul@prod+1),f
 10947  16D4  3DB0               	movlw	0
 10948  16D5  3000               	addwfc	(___flmul@prod+2),f
 10949  16D6  3DB1               	addwfc	(___flmul@prod+3),f
 10950  16D7  3DB2               	line	138
 10951                           	
 10952                           l3051:	
 10953  16D8                     	movf	0+(___flmul@b)+02h,w
 10954  16D8  0822               	movwf	(??___flmul+0)+0
 10955  16D9  00F9               	movf	(??___flmul+0)+0,w
 10956  16DA  0879               	movwf	(__Umul8_16@multiplicand)
 10957  16DB  00F0               	movf	0+(___flmul@a)+01h,w
 10958  16DC  0825               	fcall	__Umul8_16
 10959  16DD  319E  26B4  3195   	movf	(1+(?__Umul8_16)),w
 10960  16E0  0871               	movlb 0	; select bank0
 10961  16E1  0140               	movwf	(___flmul@temp+1)
 10962  16E2  00B4               	movf	(0+(?__Umul8_16)),w
 10963  16E3  0870               	movwf	(___flmul@temp)
 10964  16E4  00B3               	line	139
 10965                           	
 10966                           l3053:	
 10967  16E5                     	movf	(___flmul@temp),w
 10968  16E5  0833               	addwf	(___flmul@prod),f
 10969  16E6  07AF               	movf	(___flmul@temp+1),w
 10970  16E7  0834               	addwfc	(___flmul@prod+1),f
 10971  16E8  3DB0               	movlw	0
 10972  16E9  3000               	addwfc	(___flmul@prod+2),f
 10973  16EA  3DB1               	addwfc	(___flmul@prod+3),f
 10974  16EB  3DB2               	line	140
 10975                           	movf	0+(___flmul@b)+02h,w
 10976  16EC  0822               	movwf	(??___flmul+0)+0
 10977  16ED  00F9               	movf	(??___flmul+0)+0,w
 10978  16EE  0879               	movwf	(__Umul8_16@multiplicand)
 10979  16EF  00F0               	movf	0+(___flmul@a)+02h,w
 10980  16F0  0826               	fcall	__Umul8_16
 10981  16F1  319E  26B4  3195   	movf	(1+(?__Umul8_16)),w
 10982  16F4  0871               	movlb 0	; select bank0
 10983  16F5  0140               	movwf	(___flmul@temp+1)
 10984  16F6  00B4               	movf	(0+(?__Umul8_16)),w
 10985  16F7  0870               	movwf	(___flmul@temp)
 10986  16F8  00B3               	line	141
 10987                           	
 10988                           l3055:	
 10989  16F9                     	movf	(___flmul@temp),w
 10990  16F9  0833               	movwf	((??___flmul+0)+0)
 10991  16FA  00F9               	movf	(___flmul@temp+1),w
 10992  16FB  0834               	movwf	((??___flmul+0)+0+1)
 10993  16FC  00FA               	clrf	((??___flmul+0)+0+2)
 10994  16FD  01FB               	clrf	((??___flmul+0)+0+3)
 10995  16FE  01FC               	movlw	08h
 10996  16FF  3008               u4365:
 10997  1700                     	lslf	(??___flmul+0)+0,f
 10998  1700  35F9               	rlf	(??___flmul+0)+1,f
 10999  1701  0DFA               	rlf	(??___flmul+0)+2,f
 11000  1702  0DFB               	rlf	(??___flmul+0)+3,f
 11001  1703  0DFC               u4360:
 11002  1704                     	decfsz	wreg,f
 11003  1704  0B89               	goto	u4365
 11004  1705  2F00               	movf	0+(??___flmul+0)+0,w
 11005  1706  0879               	addwf	(___flmul@prod),f
 11006  1707  07AF               	movf	1+(??___flmul+0)+0,w
 11007  1708  087A               	addwfc	(___flmul@prod+1),f
 11008  1709  3DB0               	movf	2+(??___flmul+0)+0,w
 11009  170A  087B               	addwfc	(___flmul@prod+2),f
 11010  170B  3DB1               	movf	3+(??___flmul+0)+0,w
 11011  170C  087C               	addwfc	(___flmul@prod+3),f
 11012  170D  3DB2               	line	145
 11013                           	
 11014                           l3057:	
 11015  170E                     	movf	(___flmul@grs),w
 11016  170E  0829               	movwf	(??___flmul+0)+0
 11017  170F  00F9               	movf	(___flmul@grs+1),w
 11018  1710  082A               	movwf	((??___flmul+0)+0+1)
 11019  1711  00FA               	movf	(___flmul@grs+2),w
 11020  1712  082B               	movwf	((??___flmul+0)+0+2)
 11021  1713  00FB               	movf	(___flmul@grs+3),w
 11022  1714  082C               	movwf	((??___flmul+0)+0+3)
 11023  1715  00FC               	movlw	018h
 11024  1716  3018               u4375:
 11025  1717                     	lsrf	(??___flmul+0)+3,f
 11026  1717  36FC               	rrf	(??___flmul+0)+2,f
 11027  1718  0CFB               	rrf	(??___flmul+0)+1,f
 11028  1719  0CFA               	rrf	(??___flmul+0)+0,f
 11029  171A  0CF9               u4370:
 11030  171B                     	decfsz	wreg,f
 11031  171B  0B89               	goto	u4375
 11032  171C  2F17               	movf	0+(??___flmul+0)+0,w
 11033  171D  0879               	addwf	(___flmul@prod),f
 11034  171E  07AF               	movf	1+(??___flmul+0)+0,w
 11035  171F  087A               	addwfc	(___flmul@prod+1),f
 11036  1720  3DB0               	movf	2+(??___flmul+0)+0,w
 11037  1721  087B               	addwfc	(___flmul@prod+2),f
 11038  1722  3DB1               	movf	3+(??___flmul+0)+0,w
 11039  1723  087C               	addwfc	(___flmul@prod+3),f
 11040  1724  3DB2               	line	146
 11041                           	
 11042                           l3059:	
 11043  1725                     	movlw	08h
 11044  1725  3008               u4385:
 11045  1726                     	lslf	(___flmul@grs),f
 11046  1726  35A9               	rlf	(___flmul@grs+1),f
 11047  1727  0DAA               	rlf	(___flmul@grs+2),f
 11048  1728  0DAB               	rlf	(___flmul@grs+3),f
 11049  1729  0DAC               	decfsz	wreg,f
 11050  172A  0B89               	goto	u4385
 11051  172B  2F26               	line	149
 11052                           	
 11053                           l3061:	
 11054  172C                     	movf	(___flmul@bexp),w
 11055  172C  082E               	addwf	(___flmul@aexp),w
 11056  172D  072D               	movwf	(??___flmul+0)+0
 11057  172E  00F9               	clrf	(??___flmul+0)+0+1
 11058  172F  01FA               	rlf	1+(??___flmul+0)+0,f
 11059  1730  0DFA               	
 11060                           	movf	0+(??___flmul+0)+0,w
 11061  1731  0879               	addlw	082h
 11062  1732  3E82               	movwf	(___flmul@temp)
 11063  1733  00B3               	movlw	0FFh
 11064  1734  30FF               	addwfc	1+(??___flmul+0)+0,w
 11065  1735  3D7A               	movwf	1+(___flmul@temp)
 11066  1736  00B4               	line	152
 11067                           	goto	l3073
 11068  1737  2F51               	
 11069                           l684:	
 11070  1738                     	line	153
 11071                           	
 11072                           l3063:	
 11073  1738                     	movlw	01h
 11074  1738  3001               u4395:
 11075  1739                     	lslf	(___flmul@prod),f
 11076  1739  35AF               	rlf	(___flmul@prod+1),f
 11077  173A  0DB0               	rlf	(___flmul@prod+2),f
 11078  173B  0DB1               	rlf	(___flmul@prod+3),f
 11079  173C  0DB2               	decfsz	wreg,f
 11080  173D  0B89               	goto	u4395
 11081  173E  2F39               	line	154
 11082                           	
 11083                           l3065:	
 11084  173F                     	btfss	(___flmul@grs+3),(31)&7
 11085  173F  1FAC               	goto	u4401
 11086  1740  2F42               	goto	u4400
 11087  1741  2F43               u4401:
 11088  1742                     	goto	l3069
 11089  1742  2F45               u4400:
 11090  1743                     	line	155
 11091                           	
 11092                           l3067:	
 11093  1743                     	bsf	(___flmul@prod)+(0/8),(0)&7
 11094  1743  142F               	goto	l3069
 11095  1744  2F45               	line	156
 11096                           	
 11097                           l685:	
 11098  1745                     	line	157
 11099                           	
 11100                           l3069:	
 11101  1745                     	movlw	01h
 11102  1745  3001               u4415:
 11103  1746                     	lslf	(___flmul@grs),f
 11104  1746  35A9               	rlf	(___flmul@grs+1),f
 11105  1747  0DAA               	rlf	(___flmul@grs+2),f
 11106  1748  0DAB               	rlf	(___flmul@grs+3),f
 11107  1749  0DAC               	decfsz	wreg,f
 11108  174A  0B89               	goto	u4415
 11109  174B  2F46               	line	158
 11110                           	
 11111                           l3071:	
 11112  174C                     	movlw	0FFh
 11113  174C  30FF               	addwf	(___flmul@temp),f
 11114  174D  07B3               	movlw	0FFh
 11115  174E  30FF               	addwfc	(___flmul@temp+1),f
 11116  174F  3DB4               	goto	l3073
 11117  1750  2F51               	line	159
 11118                           	
 11119                           l683:	
 11120  1751                     	line	152
 11121                           	
 11122                           l3073:	
 11123  1751                     	btfss	(___flmul@prod+2),(23)&7
 11124  1751  1FB1               	goto	u4421
 11125  1752  2F54               	goto	u4420
 11126  1753  2F55               u4421:
 11127  1754                     	goto	l3063
 11128  1754  2F38               u4420:
 11129  1755                     	goto	l3075
 11130  1755  2F56               	
 11131                           l686:	
 11132  1756                     	line	163
 11133                           	
 11134                           l3075:	
 11135  1756                     	clrf	(___flmul@aexp)
 11136  1756  01AD               	line	164
 11137                           	
 11138                           l3077:	
 11139  1757                     	btfss	(___flmul@grs+3),(31)&7
 11140  1757  1FAC               	goto	u4431
 11141  1758  2F5A               	goto	u4430
 11142  1759  2F5B               u4431:
 11143  175A                     	goto	l3085
 11144  175A  2F7B               u4430:
 11145  175B                     	line	165
 11146                           	
 11147                           l3079:	
 11148  175B                     	movlw	0FFh
 11149  175B  30FF               	andwf	(___flmul@grs),w
 11150  175C  0529               	movwf	(??___flmul+0)+0
 11151  175D  00F9               	movlw	0FFh
 11152  175E  30FF               	andwf	(___flmul@grs+1),w
 11153  175F  052A               	movwf	((??___flmul+0)+0+1)
 11154  1760  00FA               	movlw	0FFh
 11155  1761  30FF               	andwf	(___flmul@grs+2),w
 11156  1762  052B               	movwf	((??___flmul+0)+0+2)
 11157  1763  00FB               	movlw	07Fh
 11158  1764  307F               	andwf	(___flmul@grs+3),w
 11159  1765  052C               	movwf	((??___flmul+0)+0+3)
 11160  1766  00FC               	movf	3+(??___flmul+0)+0,w
 11161  1767  087C               	iorwf	2+(??___flmul+0)+0,w
 11162  1768  047B               	iorwf	1+(??___flmul+0)+0,w
 11163  1769  047A               	iorwf	0+(??___flmul+0)+0,w
 11164  176A  0479               	skipnz
 11165  176B  1903               	goto	u4441
 11166  176C  2F6E               	goto	u4440
 11167  176D  2F6F               u4441:
 11168  176E                     	goto	l688
 11169  176E  2F72               u4440:
 11170  176F                     	line	166
 11171                           	
 11172                           l3081:	
 11173  176F                     	clrf	(___flmul@aexp)
 11174  176F  01AD               	incf	(___flmul@aexp),f
 11175  1770  0AAD               	line	167
 11176                           	goto	l3085
 11177  1771  2F7B               	line	168
 11178                           	
 11179                           l688:	
 11180  1772                     	line	169
 11181                           	btfss	(___flmul@prod),(0)&7
 11182  1772  1C2F               	goto	u4451
 11183  1773  2F75               	goto	u4450
 11184  1774  2F76               u4451:
 11185  1775                     	goto	l3085
 11186  1775  2F7B               u4450:
 11187  1776                     	line	170
 11188                           	
 11189                           l3083:	
 11190  1776                     	clrf	(___flmul@aexp)
 11191  1776  01AD               	incf	(___flmul@aexp),f
 11192  1777  0AAD               	goto	l3085
 11193  1778  2F7B               	line	171
 11194                           	
 11195                           l690:	
 11196  1779                     	goto	l3085
 11197  1779  2F7B               	line	172
 11198                           	
 11199                           l689:	
 11200  177A                     	goto	l3085
 11201  177A  2F7B               	line	173
 11202                           	
 11203                           l687:	
 11204  177B                     	line	174
 11205                           	
 11206                           l3085:	
 11207  177B                     	movf	((___flmul@aexp)),w
 11208  177B  082D               	btfsc	status,2
 11209  177C  1903               	goto	u4461
 11210  177D  2F7F               	goto	u4460
 11211  177E  2F80               u4461:
 11212  177F                     	goto	l3095
 11213  177F  2FAA               u4460:
 11214  1780                     	line	175
 11215                           	
 11216                           l3087:	
 11217  1780                     	movlw	01h
 11218  1780  3001               	addwf	(___flmul@prod),f
 11219  1781  07AF               	movlw	0
 11220  1782  3000               	addwfc	(___flmul@prod+1),f
 11221  1783  3DB0               	movlw	0
 11222  1784  3000               	addwfc	(___flmul@prod+2),f
 11223  1785  3DB1               	movlw	0
 11224  1786  3000               	addwfc	(___flmul@prod+3),f
 11225  1787  3DB2               	line	176
 11226                           	
 11227                           l3089:	
 11228  1788                     	btfss	(___flmul@prod+3),(24)&7
 11229  1788  1C32               	goto	u4471
 11230  1789  2F8B               	goto	u4470
 11231  178A  2F8C               u4471:
 11232  178B                     	goto	l3095
 11233  178B  2FAA               u4470:
 11234  178C                     	line	177
 11235                           	
 11236                           l3091:	
 11237  178C                     	movf	(___flmul@prod),w
 11238  178C  082F               	movwf	(??___flmul+0)+0
 11239  178D  00F9               	movf	(___flmul@prod+1),w
 11240  178E  0830               	movwf	((??___flmul+0)+0+1)
 11241  178F  00FA               	movf	(___flmul@prod+2),w
 11242  1790  0831               	movwf	((??___flmul+0)+0+2)
 11243  1791  00FB               	movf	(___flmul@prod+3),w
 11244  1792  0832               	movwf	((??___flmul+0)+0+3)
 11245  1793  00FC               	movlw	01h
 11246  1794  3001               	movwf	(??___flmul+4)+0
 11247  1795  00FD               u4485:
 11248  1796                     	asrf	(??___flmul+0)+3,f
 11249  1796  37FC               	rrf	(??___flmul+0)+2,f
 11250  1797  0CFB               	rrf	(??___flmul+0)+1,f
 11251  1798  0CFA               	rrf	(??___flmul+0)+0,f
 11252  1799  0CF9               u4480:
 11253  179A                     	decfsz	(??___flmul+4)+0,f
 11254  179A  0BFD               	goto	u4485
 11255  179B  2F96               	movf	3+(??___flmul+0)+0,w
 11256  179C  087C               	movwf	(___flmul@prod+3)
 11257  179D  00B2               	movf	2+(??___flmul+0)+0,w
 11258  179E  087B               	movwf	(___flmul@prod+2)
 11259  179F  00B1               	movf	1+(??___flmul+0)+0,w
 11260  17A0  087A               	movwf	(___flmul@prod+1)
 11261  17A1  00B0               	movf	0+(??___flmul+0)+0,w
 11262  17A2  0879               	movwf	(___flmul@prod)
 11263  17A3  00AF               
 11264                           	line	178
 11265                           	
 11266                           l3093:	
 11267  17A4                     	movlw	01h
 11268  17A4  3001               	addwf	(___flmul@temp),f
 11269  17A5  07B3               	movlw	0
 11270  17A6  3000               	addwfc	(___flmul@temp+1),f
 11271  17A7  3DB4               	goto	l3095
 11272  17A8  2FAA               	line	179
 11273                           	
 11274                           l692:	
 11275  17A9                     	goto	l3095
 11276  17A9  2FAA               	line	180
 11277                           	
 11278                           l691:	
 11279  17AA                     	line	183
 11280                           	
 11281                           l3095:	
 11282  17AA                     	movf	(___flmul@temp+1),w
 11283  17AA  0834               	xorlw	80h
 11284  17AB  3A80               	movwf	(??___flmul+0)+0
 11285  17AC  00F9               	movlw	(0)^80h
 11286  17AD  3080               	subwf	(??___flmul+0)+0,w
 11287  17AE  0279               	skipz
 11288  17AF  1D03               	goto	u4495
 11289  17B0  2FB3               	movlw	0FFh
 11290  17B1  30FF               	subwf	(___flmul@temp),w
 11291  17B2  0233               u4495:
 11292  17B3                     
 11293                           	skipc
 11294  17B3  1C03               	goto	u4491
 11295  17B4  2FB6               	goto	u4490
 11296  17B5  2FB7               u4491:
 11297  17B6                     	goto	l3099
 11298  17B6  2FC1               u4490:
 11299  17B7                     	line	184
 11300                           	
 11301                           l3097:	
 11302  17B7                     	movlw	07Fh
 11303  17B7  307F               	movlb 0	; select bank0
 11304  17B8  0140               	movwf	(___flmul@prod+3)
 11305  17B9  00B2               	movlw	080h
 11306  17BA  3080               	movwf	(___flmul@prod+2)
 11307  17BB  00B1               	movlw	0
 11308  17BC  3000               	movwf	(___flmul@prod+1)
 11309  17BD  00B0               	movlw	0
 11310  17BE  3000               	movwf	(___flmul@prod)
 11311  17BF  00AF               
 11312                           	line	185
 11313                           	goto	l694
 11314  17C0  2FF2               	line	187
 11315                           	
 11316                           l693:	
 11317  17C1                     	
 11318                           l3099:	
 11319  17C1                     	movlb 0	; select bank0
 11320  17C1  0140               	movf	(___flmul@temp+1),w
 11321  17C2  0834               	xorlw	80h
 11322  17C3  3A80               	movwf	(??___flmul+0)+0
 11323  17C4  00F9               	movlw	(0)^80h
 11324  17C5  3080               	subwf	(??___flmul+0)+0,w
 11325  17C6  0279               	skipz
 11326  17C7  1D03               	goto	u4505
 11327  17C8  2FCB               	movlw	01h
 11328  17C9  3001               	subwf	(___flmul@temp),w
 11329  17CA  0233               u4505:
 11330  17CB                     
 11331                           	skipnc
 11332  17CB  1803               	goto	u4501
 11333  17CC  2FCE               	goto	u4500
 11334  17CD  2FCF               u4501:
 11335  17CE                     	goto	l3105
 11336  17CE  2FDA               u4500:
 11337  17CF                     	line	188
 11338                           	
 11339                           l3101:	
 11340  17CF                     	movlw	high highword(0)
 11341  17CF  3000               	movlb 0	; select bank0
 11342  17D0  0140               	movwf	(___flmul@prod+3)
 11343  17D1  00B2               	movlw	low highword(0)
 11344  17D2  3000               	movwf	(___flmul@prod+2)
 11345  17D3  00B1               	movlw	high(0)
 11346  17D4  3000               	movwf	(___flmul@prod+1)
 11347  17D5  00B0               	movlw	low(0)
 11348  17D6  3000               	movwf	(___flmul@prod)
 11349  17D7  00AF               
 11350                           	line	190
 11351                           	
 11352                           l3103:	
 11353  17D8                     	clrf	(___flmul@sign)
 11354  17D8  01A8               	line	191
 11355                           	goto	l694
 11356  17D9  2FF2               	line	192
 11357                           	
 11358                           l695:	
 11359  17DA                     	line	194
 11360                           	
 11361                           l3105:	
 11362  17DA                     	movlb 0	; select bank0
 11363  17DA  0140               	movf	(___flmul@temp),w
 11364  17DB  0833               	movwf	(??___flmul+0)+0
 11365  17DC  00F9               	movf	(??___flmul+0)+0,w
 11366  17DD  0879               	movwf	(___flmul@bexp)
 11367  17DE  00AE               	line	195
 11368                           	movlw	0FFh
 11369  17DF  30FF               	andwf	(___flmul@prod),f
 11370  17E0  05AF               	movlw	0FFh
 11371  17E1  30FF               	andwf	(___flmul@prod+1),f
 11372  17E2  05B0               	movlw	07Fh
 11373  17E3  307F               	andwf	(___flmul@prod+2),f
 11374  17E4  05B1               	movlw	0
 11375  17E5  3000               	andwf	(___flmul@prod+3),f
 11376  17E6  05B2               	line	196
 11377                           	
 11378                           l3107:	
 11379  17E7                     	btfss	(___flmul@bexp),(0)&7
 11380  17E7  1C2E               	goto	u4511
 11381  17E8  2FEA               	goto	u4510
 11382  17E9  2FEB               u4511:
 11383  17EA                     	goto	l3111
 11384  17EA  2FED               u4510:
 11385  17EB                     	line	197
 11386                           	
 11387                           l3109:	
 11388  17EB                     	bsf	0+(___flmul@prod)+02h+(7/8),(7)&7
 11389  17EB  17B1               	goto	l3111
 11390  17EC  2FED               	line	198
 11391                           	
 11392                           l697:	
 11393  17ED                     	line	199
 11394                           	
 11395                           l3111:	
 11396  17ED                     	lsrf	(___flmul@bexp),w
 11397  17ED  362E               	movwf	(??___flmul+0)+0
 11398  17EE  00F9               	movf	(??___flmul+0)+0,w
 11399  17EF  0879               	movwf	0+(___flmul@prod)+03h
 11400  17F0  00B2               	goto	l694
 11401  17F1  2FF2               	line	200
 11402                           	
 11403                           l696:	
 11404  17F2                     	
 11405                           l694:	
 11406  17F2                     	line	201
 11407                           	movf	(___flmul@sign),w
 11408  17F2  0828               	movwf	(??___flmul+0)+0
 11409  17F3  00F9               	movf	(??___flmul+0)+0,w
 11410  17F4  0879               	iorwf	0+(___flmul@prod)+03h,f
 11411  17F5  04B2               	line	203
 11412                           	
 11413                           l3113:	
 11414  17F6                     	movf	(___flmul@prod+3),w
 11415  17F6  0832               	movwf	(?___flmul+3)
 11416  17F7  00A3               	movf	(___flmul@prod+2),w
 11417  17F8  0831               	movwf	(?___flmul+2)
 11418  17F9  00A2               	movf	(___flmul@prod+1),w
 11419  17FA  0830               	movwf	(?___flmul+1)
 11420  17FB  00A1               	movf	(___flmul@prod),w
 11421  17FC  082F               	movwf	(?___flmul)
 11422  17FD  00A0               
 11423                           	goto	l682
 11424  17FE  2FFF               	
 11425                           l3115:	
 11426  17FF                     	line	205
 11427                           	
 11428                           l682:	
 11429  17FF                     	return
 11430  17FF  0008               	opt stack 0
 11431                           GLOBAL	__end_of___flmul
 11432                           	__end_of___flmul:
 11433  1800                     	signat	___flmul,8316
 11434                           	global	__Umul8_16
 11435                           
 11436 ;; *************** function __Umul8_16 *****************
 11437 ;; Defined at:
 11438 ;;		line 4 in file "C:\Program Files (x86)\Microchip\xc8\v2.00\pic\sources\c99\common\Umul8_16.c"
 11439 ;; Parameters:    Size  Location     Type
 11440 ;;  multiplier      1    wreg     unsigned char 
 11441 ;;  multiplicand    1    0[COMMON] unsigned char 
 11442 ;; Auto vars:     Size  Location     Type
 11443 ;;  multiplier      1    8[COMMON] unsigned char 
 11444 ;;  word_mpld       2    6[COMMON] unsigned int 
 11445 ;;  product         2    4[COMMON] unsigned int 
 11446 ;; Return value:  Size  Location     Type
 11447 ;;                  2    0[COMMON] unsigned int 
 11448 ;; Registers used:
 11449 ;;		wreg, status,2, status,0
 11450 ;; Tracked objects:
 11451 ;;		On entry : 0/0
 11452 ;;		On exit  : 0/0
 11453 ;;		Unchanged: 0/0
 11454 ;; Data sizes:     COMMON   BANK0   BANK1   BANK2   BANK3   BANK4   BANK5   BANK6   BANK7   BANK8   BANK9  BANK10  BANK1
       1  BANK12
 11455 ;;      Params:         2       0       0       0       0       0       0       0       0       0       0       0       
       0       0
 11456 ;;      Locals:         5       0       0       0       0       0       0       0       0       0       0       0       
       0       0
 11457 ;;      Temps:          2       0       0       0       0       0       0       0       0       0       0       0       
       0       0
 11458 ;;      Totals:         9       0       0       0       0       0       0       0       0       0       0       0       
       0       0
 11459 ;;Total ram usage:        9 bytes
 11460 ;; Hardware stack levels used:    1
 11461 ;; Hardware stack levels required when called:    1
 11462 ;; This function calls:
 11463 ;;		Nothing
 11464 ;; This function is called by:
 11465 ;;		___flmul
 11466 ;; This function uses a non-reentrant model
 11467 ;;
 11468                           psect	text21,local,class=CODE,delta=2,merge=1,group=1
 11469                           	file	"C:\Program Files (x86)\Microchip\xc8\v2.00\pic\sources\c99\common\Umul8_16.c"
 11470                           	line	4
 11471                           global __ptext21
 11472                           __ptext21:	;psect for function __Umul8_16
 11473  1EB4                     psect	text21
 11474                           	file	"C:\Program Files (x86)\Microchip\xc8\v2.00\pic\sources\c99\common\Umul8_16.c"
 11475                           	line	4
 11476                           	global	__size_of__Umul8_16
 11477                           	__size_of__Umul8_16	equ	__end_of__Umul8_16-__Umul8_16
 11478  0026                     	
 11479                           __Umul8_16:	
 11480  1EB4                     ;incstack = 0
 11481                           	opt	stack 9
 11482                           ; Regs used in __Umul8_16: [wreg+status,2+status,0]
 11483                           ;__Umul8_16@multiplier stored from wreg
 11484                           	movwf	(__Umul8_16@multiplier)
 11485  1EB4  00F8               	line	5
 11486                           	
 11487                           l2545:	
 11488  1EB5                     	clrf	(__Umul8_16@product)
 11489  1EB5  01F4               	clrf	(__Umul8_16@product+1)
 11490  1EB6  01F5               	line	6
 11491                           	
 11492                           l2547:	
 11493  1EB7                     	movf	(__Umul8_16@multiplicand),w
 11494  1EB7  0870               	movwf	(??__Umul8_16+0)+0
 11495  1EB8  00F2               	clrf	(??__Umul8_16+0)+0+1
 11496  1EB9  01F3               	movf	0+(??__Umul8_16+0)+0,w
 11497  1EBA  0872               	movwf	(__Umul8_16@word_mpld)
 11498  1EBB  00F6               	movf	1+(??__Umul8_16+0)+0,w
 11499  1EBC  0873               	movwf	(__Umul8_16@word_mpld+1)
 11500  1EBD  00F7               	goto	l2549
 11501  1EBE  2EBF               	line	50
 11502                           	
 11503                           l858:	
 11504  1EBF                     	line	51
 11505                           	
 11506                           l2549:	
 11507  1EBF                     	btfss	(__Umul8_16@multiplier),(0)&7
 11508  1EBF  1C78               	goto	u3231
 11509  1EC0  2EC2               	goto	u3230
 11510  1EC1  2EC3               u3231:
 11511  1EC2                     	goto	l859
 11512  1EC2  2EC7               u3230:
 11513  1EC3                     	line	52
 11514                           	
 11515                           l2551:	
 11516  1EC3                     	movf	(__Umul8_16@word_mpld),w
 11517  1EC3  0876               	addwf	(__Umul8_16@product),f
 11518  1EC4  07F4               	movf	(__Umul8_16@word_mpld+1),w
 11519  1EC5  0877               	addwfc	(__Umul8_16@product+1),f
 11520  1EC6  3DF5               	line	53
 11521                           	
 11522                           l859:	
 11523  1EC7                     	line	54
 11524                           	movlw	01h
 11525  1EC7  3001               	
 11526                           u3245:
 11527  1EC8                     	lslf	(__Umul8_16@word_mpld),f
 11528  1EC8  35F6               	rlf	(__Umul8_16@word_mpld+1),f
 11529  1EC9  0DF7               	decfsz	wreg,f
 11530  1ECA  0B89               	goto	u3245
 11531  1ECB  2EC8               	line	55
 11532                           	clrc
 11533  1ECC  1003               	rrf	(__Umul8_16@multiplier),f
 11534  1ECD  0CF8               
 11535                           	line	56
 11536                           	
 11537                           l2553:	
 11538  1ECE                     	movf	((__Umul8_16@multiplier)),w
 11539  1ECE  0878               	btfss	status,2
 11540  1ECF  1D03               	goto	u3251
 11541  1ED0  2ED2               	goto	u3250
 11542  1ED1  2ED3               u3251:
 11543  1ED2                     	goto	l2549
 11544  1ED2  2EBF               u3250:
 11545  1ED3                     	goto	l2555
 11546  1ED3  2ED4               	
 11547                           l860:	
 11548  1ED4                     	line	59
 11549                           	
 11550                           l2555:	
 11551  1ED4                     	movf	(__Umul8_16@product+1),w
 11552  1ED4  0875               	movwf	(?__Umul8_16+1)
 11553  1ED5  00F1               	movf	(__Umul8_16@product),w
 11554  1ED6  0874               	movwf	(?__Umul8_16)
 11555  1ED7  00F0               	goto	l861
 11556  1ED8  2ED9               	
 11557                           l2557:	
 11558  1ED9                     	line	60
 11559                           	
 11560                           l861:	
 11561  1ED9                     	return
 11562  1ED9  0008               	opt stack 0
 11563                           GLOBAL	__end_of__Umul8_16
 11564                           	__end_of__Umul8_16:
 11565  1EDA                     	signat	__Umul8_16,8314
 11566                           	global	___flge
 11567                           
 11568 ;; *************** function ___flge *****************
 11569 ;; Defined at:
 11570 ;;		line 4 in file "C:\Program Files (x86)\Microchip\xc8\v2.00\pic\sources\c99\common\flge.c"
 11571 ;; Parameters:    Size  Location     Type
 11572 ;;  ff1             4   21[BANK0 ] unsigned int 
 11573 ;;  ff2             4   25[BANK0 ] unsigned int 
 11574 ;; Auto vars:     Size  Location     Type
 11575 ;;		None
 11576 ;; Return value:  Size  Location     Type
 11577 ;;		None               void
 11578 ;; Registers used:
 11579 ;;		wreg, status,2, status,0
 11580 ;; Tracked objects:
 11581 ;;		On entry : 0/0
 11582 ;;		On exit  : 0/0
 11583 ;;		Unchanged: 0/0
 11584 ;; Data sizes:     COMMON   BANK0   BANK1   BANK2   BANK3   BANK4   BANK5   BANK6   BANK7   BANK8   BANK9  BANK10  BANK1
       1  BANK12
 11585 ;;      Params:         0       8       0       0       0       0       0       0       0       0       0       0       
       0       0
 11586 ;;      Locals:         0       0       0       0       0       0       0       0       0       0       0       0       
       0       0
 11587 ;;      Temps:          0       8       0       0       0       0       0       0       0       0       0       0       
       0       0
 11588 ;;      Totals:         0      16       0       0       0       0       0       0       0       0       0       0       
       0       0
 11589 ;;Total ram usage:       16 bytes
 11590 ;; Hardware stack levels used:    1
 11591 ;; Hardware stack levels required when called:    1
 11592 ;; This function calls:
 11593 ;;		Nothing
 11594 ;; This function is called by:
 11595 ;;		_efgtoa
 11596 ;; This function uses a non-reentrant model
 11597 ;;
 11598                           psect	text22,local,class=CODE,delta=2,merge=1,group=1
 11599                           	file	"C:\Program Files (x86)\Microchip\xc8\v2.00\pic\sources\c99\common\flge.c"
 11600                           	line	4
 11601                           global __ptext22
 11602                           __ptext22:	;psect for function ___flge
 11603  130E                     psect	text22
 11604                           	file	"C:\Program Files (x86)\Microchip\xc8\v2.00\pic\sources\c99\common\flge.c"
 11605                           	line	4
 11606                           	global	__size_of___flge
 11607                           	__size_of___flge	equ	__end_of___flge-___flge
 11608  00AE                     	
 11609                           ___flge:	
 11610  130E                     ;incstack = 0
 11611                           	opt	stack 10
 11612                           ; Regs used in ___flge: [wreg+status,2+status,0]
 11613                           	line	7
 11614                           	
 11615                           l2761:	
 11616  130E                     	movlw	0
 11617  130E  3000               	movlb 0	; select bank0
 11618  130F  0140               	andwf	(___flge@ff1),w
 11619  1310  0535               	movwf	(??___flge+0)+0
 11620  1311  00BD               	movlw	0
 11621  1312  3000               	andwf	(___flge@ff1+1),w
 11622  1313  0536               	movwf	((??___flge+0)+0+1)
 11623  1314  00BE               	movlw	080h
 11624  1315  3080               	andwf	(___flge@ff1+2),w
 11625  1316  0537               	movwf	((??___flge+0)+0+2)
 11626  1317  00BF               	movlw	07Fh
 11627  1318  307F               	andwf	(___flge@ff1+3),w
 11628  1319  0538               	movwf	((??___flge+0)+0+3)
 11629  131A  00C0               	movf	3+(??___flge+0)+0,w
 11630  131B  0840               	iorwf	2+(??___flge+0)+0,w
 11631  131C  043F               	iorwf	1+(??___flge+0)+0,w
 11632  131D  043E               	iorwf	0+(??___flge+0)+0,w
 11633  131E  043D               	skipz
 11634  131F  1D03               	goto	u3811
 11635  1320  2B22               	goto	u3810
 11636  1321  2B23               u3811:
 11637  1322                     	goto	l463
 11638  1322  2B2B               u3810:
 11639  1323                     	line	8
 11640                           	
 11641                           l2763:	
 11642  1323                     	movlw	high highword(0)
 11643  1323  3000               	movwf	(___flge@ff1+3)
 11644  1324  00B8               	movlw	low highword(0)
 11645  1325  3000               	movwf	(___flge@ff1+2)
 11646  1326  00B7               	movlw	high(0)
 11647  1327  3000               	movwf	(___flge@ff1+1)
 11648  1328  00B6               	movlw	low(0)
 11649  1329  3000               	movwf	(___flge@ff1)
 11650  132A  00B5               
 11651                           	
 11652                           l463:	
 11653  132B                     	line	9
 11654                           	movlw	0
 11655  132B  3000               	andwf	(___flge@ff2),w
 11656  132C  0539               	movwf	(??___flge+0)+0
 11657  132D  00BD               	movlw	0
 11658  132E  3000               	andwf	(___flge@ff2+1),w
 11659  132F  053A               	movwf	((??___flge+0)+0+1)
 11660  1330  00BE               	movlw	080h
 11661  1331  3080               	andwf	(___flge@ff2+2),w
 11662  1332  053B               	movwf	((??___flge+0)+0+2)
 11663  1333  00BF               	movlw	07Fh
 11664  1334  307F               	andwf	(___flge@ff2+3),w
 11665  1335  053C               	movwf	((??___flge+0)+0+3)
 11666  1336  00C0               	movf	3+(??___flge+0)+0,w
 11667  1337  0840               	iorwf	2+(??___flge+0)+0,w
 11668  1338  043F               	iorwf	1+(??___flge+0)+0,w
 11669  1339  043E               	iorwf	0+(??___flge+0)+0,w
 11670  133A  043D               	skipz
 11671  133B  1D03               	goto	u3821
 11672  133C  2B3E               	goto	u3820
 11673  133D  2B3F               u3821:
 11674  133E                     	goto	l2767
 11675  133E  2B48               u3820:
 11676  133F                     	line	10
 11677                           	
 11678                           l2765:	
 11679  133F                     	movlw	high highword(0)
 11680  133F  3000               	movwf	(___flge@ff2+3)
 11681  1340  00BC               	movlw	low highword(0)
 11682  1341  3000               	movwf	(___flge@ff2+2)
 11683  1342  00BB               	movlw	high(0)
 11684  1343  3000               	movwf	(___flge@ff2+1)
 11685  1344  00BA               	movlw	low(0)
 11686  1345  3000               	movwf	(___flge@ff2)
 11687  1346  00B9               
 11688                           	goto	l2767
 11689  1347  2B48               	
 11690                           l464:	
 11691  1348                     	line	12
 11692                           	
 11693                           l2767:	
 11694  1348                     	btfss	(___flge@ff1+3),(31)&7
 11695  1348  1FB8               	goto	u3831
 11696  1349  2B4B               	goto	u3830
 11697  134A  2B4C               u3831:
 11698  134B                     	goto	l2771
 11699  134B  2B74               u3830:
 11700  134C                     	line	13
 11701                           	
 11702                           l2769:	
 11703  134C                     	movlw	0
 11704  134C  3000               	movwf	((??___flge+0)+0)
 11705  134D  00BD               	movlw	0
 11706  134E  3000               	movwf	((??___flge+0)+0+1)
 11707  134F  00BE               	movlw	0
 11708  1350  3000               	movwf	((??___flge+0)+0+2)
 11709  1351  00BF               	movlw	080h
 11710  1352  3080               	movwf	((??___flge+0)+0+3)
 11711  1353  00C0               	comf	(___flge@ff1),w
 11712  1354  0935               	movwf	(??___flge+4)+0
 11713  1355  00C1               	comf	(___flge@ff1+1),w
 11714  1356  0936               	movwf	((??___flge+4)+0+1)
 11715  1357  00C2               	comf	(___flge@ff1+2),w
 11716  1358  0937               	movwf	((??___flge+4)+0+2)
 11717  1359  00C3               	comf	(___flge@ff1+3),w
 11718  135A  0938               	movwf	((??___flge+4)+0+3)
 11719  135B  00C4               	incf	(??___flge+4)+0,f
 11720  135C  0AC1               	skipnz
 11721  135D  1903               	incf	((??___flge+4)+0+1),f
 11722  135E  0AC2               	skipnz
 11723  135F  1903               	incf	((??___flge+4)+0+2),f
 11724  1360  0AC3               	skipnz
 11725  1361  1903               	incf	((??___flge+4)+0+3),f
 11726  1362  0AC4               	movf	0+(??___flge+4)+0,w
 11727  1363  0841               	addwf	(??___flge+0)+0,f
 11728  1364  07BD               	movf	1+(??___flge+4)+0,w
 11729  1365  0842               	addwfc	(??___flge+0)+1,f
 11730  1366  3DBE               	movf	2+(??___flge+4)+0,w
 11731  1367  0843               	addwfc	(??___flge+0)+2,f
 11732  1368  3DBF               	movf	3+(??___flge+4)+0,w
 11733  1369  0844               	addwfc	(??___flge+0)+3,f
 11734  136A  3DC0               	movf	3+(??___flge+0)+0,w
 11735  136B  0840               	movwf	(___flge@ff1+3)
 11736  136C  00B8               	movf	2+(??___flge+0)+0,w
 11737  136D  083F               	movwf	(___flge@ff1+2)
 11738  136E  00B7               	movf	1+(??___flge+0)+0,w
 11739  136F  083E               	movwf	(___flge@ff1+1)
 11740  1370  00B6               	movf	0+(??___flge+0)+0,w
 11741  1371  083D               	movwf	(___flge@ff1)
 11742  1372  00B5               
 11743                           	goto	l2771
 11744  1373  2B74               	
 11745                           l465:	
 11746  1374                     	line	14
 11747                           	
 11748                           l2771:	
 11749  1374                     	btfss	(___flge@ff2+3),(31)&7
 11750  1374  1FBC               	goto	u3841
 11751  1375  2B77               	goto	u3840
 11752  1376  2B78               u3841:
 11753  1377                     	goto	l2775
 11754  1377  2BA0               u3840:
 11755  1378                     	line	15
 11756                           	
 11757                           l2773:	
 11758  1378                     	movlw	0
 11759  1378  3000               	movwf	((??___flge+0)+0)
 11760  1379  00BD               	movlw	0
 11761  137A  3000               	movwf	((??___flge+0)+0+1)
 11762  137B  00BE               	movlw	0
 11763  137C  3000               	movwf	((??___flge+0)+0+2)
 11764  137D  00BF               	movlw	080h
 11765  137E  3080               	movwf	((??___flge+0)+0+3)
 11766  137F  00C0               	comf	(___flge@ff2),w
 11767  1380  0939               	movwf	(??___flge+4)+0
 11768  1381  00C1               	comf	(___flge@ff2+1),w
 11769  1382  093A               	movwf	((??___flge+4)+0+1)
 11770  1383  00C2               	comf	(___flge@ff2+2),w
 11771  1384  093B               	movwf	((??___flge+4)+0+2)
 11772  1385  00C3               	comf	(___flge@ff2+3),w
 11773  1386  093C               	movwf	((??___flge+4)+0+3)
 11774  1387  00C4               	incf	(??___flge+4)+0,f
 11775  1388  0AC1               	skipnz
 11776  1389  1903               	incf	((??___flge+4)+0+1),f
 11777  138A  0AC2               	skipnz
 11778  138B  1903               	incf	((??___flge+4)+0+2),f
 11779  138C  0AC3               	skipnz
 11780  138D  1903               	incf	((??___flge+4)+0+3),f
 11781  138E  0AC4               	movf	0+(??___flge+4)+0,w
 11782  138F  0841               	addwf	(??___flge+0)+0,f
 11783  1390  07BD               	movf	1+(??___flge+4)+0,w
 11784  1391  0842               	addwfc	(??___flge+0)+1,f
 11785  1392  3DBE               	movf	2+(??___flge+4)+0,w
 11786  1393  0843               	addwfc	(??___flge+0)+2,f
 11787  1394  3DBF               	movf	3+(??___flge+4)+0,w
 11788  1395  0844               	addwfc	(??___flge+0)+3,f
 11789  1396  3DC0               	movf	3+(??___flge+0)+0,w
 11790  1397  0840               	movwf	(___flge@ff2+3)
 11791  1398  00BC               	movf	2+(??___flge+0)+0,w
 11792  1399  083F               	movwf	(___flge@ff2+2)
 11793  139A  00BB               	movf	1+(??___flge+0)+0,w
 11794  139B  083E               	movwf	(___flge@ff2+1)
 11795  139C  00BA               	movf	0+(??___flge+0)+0,w
 11796  139D  083D               	movwf	(___flge@ff2)
 11797  139E  00B9               
 11798                           	goto	l2775
 11799  139F  2BA0               	
 11800                           l466:	
 11801  13A0                     	line	16
 11802                           	
 11803                           l2775:	
 11804  13A0                     	movlw	080h
 11805  13A0  3080               	xorwf	(___flge@ff1+3),f
 11806  13A1  06B8               	line	17
 11807                           	
 11808                           l2777:	
 11809  13A2                     	movlw	080h
 11810  13A2  3080               	xorwf	(___flge@ff2+3),f
 11811  13A3  06BC               	line	18
 11812                           	
 11813                           l2779:	
 11814  13A4                     	movf	(___flge@ff2+3),w
 11815  13A4  083C               	subwf	(___flge@ff1+3),w
 11816  13A5  0238               	skipz
 11817  13A6  1D03               	goto	u3855
 11818  13A7  2BB2               	movf	(___flge@ff2+2),w
 11819  13A8  083B               	subwf	(___flge@ff1+2),w
 11820  13A9  0237               	skipz
 11821  13AA  1D03               	goto	u3855
 11822  13AB  2BB2               	movf	(___flge@ff2+1),w
 11823  13AC  083A               	subwf	(___flge@ff1+1),w
 11824  13AD  0236               	skipz
 11825  13AE  1D03               	goto	u3855
 11826  13AF  2BB2               	movf	(___flge@ff2),w
 11827  13B0  0839               	subwf	(___flge@ff1),w
 11828  13B1  0235               u3855:
 11829  13B2                     	skipnc
 11830  13B2  1803               	goto	u3851
 11831  13B3  2BB5               	goto	u3850
 11832  13B4  2BB6               u3851:
 11833  13B5                     	goto	l2783
 11834  13B5  2BB8               u3850:
 11835  13B6                     	
 11836                           l2781:	
 11837  13B6                     	clrc
 11838  13B6  1003               	
 11839                           	goto	l471
 11840  13B7  2BBB               	
 11841                           l468:	
 11842  13B8                     	
 11843                           l2783:	
 11844  13B8                     	setc
 11845  13B8  1403               	
 11846                           	goto	l471
 11847  13B9  2BBB               	
 11848                           l470:	
 11849  13BA                     	goto	l471
 11850  13BA  2BBB               	
 11851                           l2785:	
 11852  13BB                     	line	19
 11853                           	
 11854                           l471:	
 11855  13BB                     	return
 11856  13BB  0008               	opt stack 0
 11857                           GLOBAL	__end_of___flge
 11858                           	__end_of___flge:
 11859  13BC                     	signat	___flge,8312
 11860                           	global	___fleq
 11861                           
 11862 ;; *************** function ___fleq *****************
 11863 ;; Defined at:
 11864 ;;		line 4 in file "C:\Program Files (x86)\Microchip\xc8\v2.00\pic\sources\c99\common\fleq.c"
 11865 ;; Parameters:    Size  Location     Type
 11866 ;;  ff1             4    0[COMMON] unsigned int 
 11867 ;;  ff2             4    4[COMMON] unsigned int 
 11868 ;; Auto vars:     Size  Location     Type
 11869 ;;		None
 11870 ;; Return value:  Size  Location     Type
 11871 ;;		None               void
 11872 ;; Registers used:
 11873 ;;		wreg, status,2, status,0
 11874 ;; Tracked objects:
 11875 ;;		On entry : 0/0
 11876 ;;		On exit  : 0/0
 11877 ;;		Unchanged: 0/0
 11878 ;; Data sizes:     COMMON   BANK0   BANK1   BANK2   BANK3   BANK4   BANK5   BANK6   BANK7   BANK8   BANK9  BANK10  BANK1
       1  BANK12
 11879 ;;      Params:         8       0       0       0       0       0       0       0       0       0       0       0       
       0       0
 11880 ;;      Locals:         0       0       0       0       0       0       0       0       0       0       0       0       
       0       0
 11881 ;;      Temps:          4       0       0       0       0       0       0       0       0       0       0       0       
       0       0
 11882 ;;      Totals:        12       0       0       0       0       0       0       0       0       0       0       0       
       0       0
 11883 ;;Total ram usage:       12 bytes
 11884 ;; Hardware stack levels used:    1
 11885 ;; Hardware stack levels required when called:    1
 11886 ;; This function calls:
 11887 ;;		Nothing
 11888 ;; This function is called by:
 11889 ;;		_efgtoa
 11890 ;; This function uses a non-reentrant model
 11891 ;;
 11892                           psect	text23,local,class=CODE,delta=2,merge=1,group=1
 11893                           	file	"C:\Program Files (x86)\Microchip\xc8\v2.00\pic\sources\c99\common\fleq.c"
 11894                           	line	4
 11895                           global __ptext23
 11896                           __ptext23:	;psect for function ___fleq
 11897  105C                     psect	text23
 11898                           	file	"C:\Program Files (x86)\Microchip\xc8\v2.00\pic\sources\c99\common\fleq.c"
 11899                           	line	4
 11900                           	global	__size_of___fleq
 11901                           	__size_of___fleq	equ	__end_of___fleq-___fleq
 11902  0050                     	
 11903                           ___fleq:	
 11904  105C                     ;incstack = 0
 11905                           	opt	stack 10
 11906                           ; Regs used in ___fleq: [wreg+status,2+status,0]
 11907                           	line	7
 11908                           	
 11909                           l2749:	
 11910  105C                     	movlw	0
 11911  105C  3000               	andwf	(___fleq@ff1),w
 11912  105D  0570               	movwf	(??___fleq+0)+0
 11913  105E  00F8               	movlw	0
 11914  105F  3000               	andwf	(___fleq@ff1+1),w
 11915  1060  0571               	movwf	((??___fleq+0)+0+1)
 11916  1061  00F9               	movlw	080h
 11917  1062  3080               	andwf	(___fleq@ff1+2),w
 11918  1063  0572               	movwf	((??___fleq+0)+0+2)
 11919  1064  00FA               	movlw	07Fh
 11920  1065  307F               	andwf	(___fleq@ff1+3),w
 11921  1066  0573               	movwf	((??___fleq+0)+0+3)
 11922  1067  00FB               	movf	3+(??___fleq+0)+0,w
 11923  1068  087B               	iorwf	2+(??___fleq+0)+0,w
 11924  1069  047A               	iorwf	1+(??___fleq+0)+0,w
 11925  106A  0479               	iorwf	0+(??___fleq+0)+0,w
 11926  106B  0478               	skipz
 11927  106C  1D03               	goto	u3781
 11928  106D  286F               	goto	u3780
 11929  106E  2870               u3781:
 11930  106F                     	goto	l454
 11931  106F  2878               u3780:
 11932  1070                     	line	8
 11933                           	
 11934                           l2751:	
 11935  1070                     	movlw	high highword(0)
 11936  1070  3000               	movwf	(___fleq@ff1+3)
 11937  1071  00F3               	movlw	low highword(0)
 11938  1072  3000               	movwf	(___fleq@ff1+2)
 11939  1073  00F2               	movlw	high(0)
 11940  1074  3000               	movwf	(___fleq@ff1+1)
 11941  1075  00F1               	movlw	low(0)
 11942  1076  3000               	movwf	(___fleq@ff1)
 11943  1077  00F0               
 11944                           	
 11945                           l454:	
 11946  1078                     	line	9
 11947                           	movlw	0
 11948  1078  3000               	andwf	(___fleq@ff2),w
 11949  1079  0574               	movwf	(??___fleq+0)+0
 11950  107A  00F8               	movlw	0
 11951  107B  3000               	andwf	(___fleq@ff2+1),w
 11952  107C  0575               	movwf	((??___fleq+0)+0+1)
 11953  107D  00F9               	movlw	080h
 11954  107E  3080               	andwf	(___fleq@ff2+2),w
 11955  107F  0576               	movwf	((??___fleq+0)+0+2)
 11956  1080  00FA               	movlw	07Fh
 11957  1081  307F               	andwf	(___fleq@ff2+3),w
 11958  1082  0577               	movwf	((??___fleq+0)+0+3)
 11959  1083  00FB               	movf	3+(??___fleq+0)+0,w
 11960  1084  087B               	iorwf	2+(??___fleq+0)+0,w
 11961  1085  047A               	iorwf	1+(??___fleq+0)+0,w
 11962  1086  0479               	iorwf	0+(??___fleq+0)+0,w
 11963  1087  0478               	skipz
 11964  1088  1D03               	goto	u3791
 11965  1089  288B               	goto	u3790
 11966  108A  288C               u3791:
 11967  108B                     	goto	l455
 11968  108B  2894               u3790:
 11969  108C                     	line	10
 11970                           	
 11971                           l2753:	
 11972  108C                     	movlw	high highword(0)
 11973  108C  3000               	movwf	(___fleq@ff2+3)
 11974  108D  00F7               	movlw	low highword(0)
 11975  108E  3000               	movwf	(___fleq@ff2+2)
 11976  108F  00F6               	movlw	high(0)
 11977  1090  3000               	movwf	(___fleq@ff2+1)
 11978  1091  00F5               	movlw	low(0)
 11979  1092  3000               	movwf	(___fleq@ff2)
 11980  1093  00F4               
 11981                           	
 11982                           l455:	
 11983  1094                     	line	11
 11984                           	movf	(___fleq@ff2+3),w
 11985  1094  0877               	xorwf	(___fleq@ff1+3),w
 11986  1095  0673               	skipz
 11987  1096  1D03               	goto	u3805
 11988  1097  28A2               	movf	(___fleq@ff2+2),w
 11989  1098  0876               	xorwf	(___fleq@ff1+2),w
 11990  1099  0672               	skipz
 11991  109A  1D03               	goto	u3805
 11992  109B  28A2               	movf	(___fleq@ff2+1),w
 11993  109C  0875               	xorwf	(___fleq@ff1+1),w
 11994  109D  0671               	skipz
 11995  109E  1D03               	goto	u3805
 11996  109F  28A2               	movf	(___fleq@ff2),w
 11997  10A0  0874               	xorwf	(___fleq@ff1),w
 11998  10A1  0670               u3805:
 11999  10A2                     	skipnz
 12000  10A2  1903               	goto	u3801
 12001  10A3  28A5               	goto	u3800
 12002  10A4  28A6               u3801:
 12003  10A5                     	goto	l2757
 12004  10A5  28A8               u3800:
 12005  10A6                     	
 12006                           l2755:	
 12007  10A6                     	clrc
 12008  10A6  1003               	
 12009                           	goto	l460
 12010  10A7  28AB               	
 12011                           l457:	
 12012  10A8                     	
 12013                           l2757:	
 12014  10A8                     	setc
 12015  10A8  1403               	
 12016                           	goto	l460
 12017  10A9  28AB               	
 12018                           l459:	
 12019  10AA                     	goto	l460
 12020  10AA  28AB               	
 12021                           l2759:	
 12022  10AB                     	line	12
 12023                           	
 12024                           l460:	
 12025  10AB                     	return
 12026  10AB  0008               	opt stack 0
 12027                           GLOBAL	__end_of___fleq
 12028                           	__end_of___fleq:
 12029  10AC                     	signat	___fleq,8312
 12030                           	global	___fldiv
 12031                           
 12032 ;; *************** function ___fldiv *****************
 12033 ;; Defined at:
 12034 ;;		line 8 in file "C:\Program Files (x86)\Microchip\xc8\v2.00\pic\sources\c99\common\sprcdiv.c"
 12035 ;; Parameters:    Size  Location     Type
 12036 ;;  a               4    0[COMMON] unsigned int 
 12037 ;;  b               4    4[COMMON] unsigned int 
 12038 ;; Auto vars:     Size  Location     Type
 12039 ;;  grs             4    7[BANK0 ] unsigned long 
 12040 ;;  rem             4    0[BANK0 ] unsigned long 
 12041 ;;  new_exp         2    5[BANK0 ] int 
 12042 ;;  aexp            1   12[BANK0 ] unsigned char 
 12043 ;;  bexp            1   11[BANK0 ] unsigned char 
 12044 ;;  sign            1    4[BANK0 ] unsigned char 
 12045 ;; Return value:  Size  Location     Type
 12046 ;;                  4    0[COMMON] unsigned char 
 12047 ;; Registers used:
 12048 ;;		wreg, status,2, status,0
 12049 ;; Tracked objects:
 12050 ;;		On entry : 0/0
 12051 ;;		On exit  : 0/0
 12052 ;;		Unchanged: 0/0
 12053 ;; Data sizes:     COMMON   BANK0   BANK1   BANK2   BANK3   BANK4   BANK5   BANK6   BANK7   BANK8   BANK9  BANK10  BANK1
       1  BANK12
 12054 ;;      Params:         8       0       0       0       0       0       0       0       0       0       0       0       
       0       0
 12055 ;;      Locals:         0      13       0       0       0       0       0       0       0       0       0       0       
       0       0
 12056 ;;      Temps:          5       0       0       0       0       0       0       0       0       0       0       0       
       0       0
 12057 ;;      Totals:        13      13       0       0       0       0       0       0       0       0       0       0       
       0       0
 12058 ;;Total ram usage:       26 bytes
 12059 ;; Hardware stack levels used:    1
 12060 ;; Hardware stack levels required when called:    1
 12061 ;; This function calls:
 12062 ;;		Nothing
 12063 ;; This function is called by:
 12064 ;;		_efgtoa
 12065 ;; This function uses a non-reentrant model
 12066 ;;
 12067                           psect	text24,local,class=CODE,delta=2,merge=1,group=1
 12068                           	file	"C:\Program Files (x86)\Microchip\xc8\v2.00\pic\sources\c99\common\sprcdiv.c"
 12069                           	line	8
 12070                           global __ptext24
 12071                           __ptext24:	;psect for function ___fldiv
 12072  0819                     psect	text24
 12073                           	file	"C:\Program Files (x86)\Microchip\xc8\v2.00\pic\sources\c99\common\sprcdiv.c"
 12074                           	line	8
 12075                           	global	__size_of___fldiv
 12076                           	__size_of___fldiv	equ	__end_of___fldiv-___fldiv
 12077  01DF                     	
 12078                           ___fldiv:	
 12079  0819                     ;incstack = 0
 12080                           	opt	stack 10
 12081                           ; Regs used in ___fldiv: [wreg+status,2+status,0]
 12082                           	line	26
 12083                           	
 12084                           l2837:	
 12085  0819                     	movf	0+(___fldiv@b)+03h,w
 12086  0819  0877               	andlw	080h
 12087  081A  3980               	movwf	(??___fldiv+0)+0
 12088  081B  00F8               	movf	(??___fldiv+0)+0,w
 12089  081C  0878               	movlb 0	; select bank0
 12090  081D  0140               	movwf	(___fldiv@sign)
 12091  081E  00A4               	line	27
 12092                           	
 12093                           l2839:	
 12094  081F                     	lslf	0+(___fldiv@b)+03h,w
 12095  081F  3577               	movwf	(??___fldiv+0)+0
 12096  0820  00F8               	movf	(??___fldiv+0)+0,w
 12097  0821  0878               	movwf	(___fldiv@bexp)
 12098  0822  00AB               	line	28
 12099                           	
 12100                           l2841:	
 12101  0823                     	btfss	0+(___fldiv@b)+02h,(7)&7
 12102  0823  1FF6               	goto	u3971
 12103  0824  2826               	goto	u3970
 12104  0825  2827               u3971:
 12105  0826                     	goto	l2845
 12106  0826  2829               u3970:
 12107  0827                     	line	29
 12108                           	
 12109                           l2843:	
 12110  0827                     	bsf	(___fldiv@bexp)+(0/8),(0)&7
 12111  0827  142B               	goto	l2845
 12112  0828  2829               	line	30
 12113                           	
 12114                           l635:	
 12115  0829                     	line	33
 12116                           	
 12117                           l2845:	
 12118  0829                     	movf	((___fldiv@bexp)),w
 12119  0829  082B               	btfsc	status,2
 12120  082A  1903               	goto	u3981
 12121  082B  282D               	goto	u3980
 12122  082C  282E               u3981:
 12123  082D                     	goto	l2855
 12124  082D  283F               u3980:
 12125  082E                     	line	35
 12126                           	
 12127                           l2847:	
 12128  082E                     		incf	((___fldiv@bexp)),w
 12129  082E  0A2B               	btfss	status,2
 12130  082F  1D03               	goto	u3991
 12131  0830  2832               	goto	u3990
 12132  0831  2833               u3991:
 12133  0832                     	goto	l2851
 12134  0832  283C               u3990:
 12135  0833                     	line	37
 12136                           	
 12137                           l2849:	
 12138  0833                     	movlw	0x0
 12139  0833  3000               	movwf	(___fldiv@b+3)
 12140  0834  00F7               	movlw	0x0
 12141  0835  3000               	movwf	(___fldiv@b+2)
 12142  0836  00F6               	movlw	0x0
 12143  0837  3000               	movwf	(___fldiv@b+1)
 12144  0838  00F5               	movlw	0x0
 12145  0839  3000               	movwf	(___fldiv@b)
 12146  083A  00F4               
 12147                           	goto	l2851
 12148  083B  283C               	line	38
 12149                           	
 12150                           l637:	
 12151  083C                     	line	40
 12152                           	
 12153                           l2851:	
 12154  083C                     	bsf	(___fldiv@b)+(23/8),(23)&7
 12155  083C  17F6               	line	42
 12156                           	
 12157                           l2853:	
 12158  083D                     	clrf	0+(___fldiv@b)+03h
 12159  083D  01F7               	line	43
 12160                           	goto	l2857
 12161  083E  2848               	line	44
 12162                           	
 12163                           l636:	
 12164  083F                     	line	46
 12165                           	
 12166                           l2855:	
 12167  083F                     	movlw	0x0
 12168  083F  3000               	movwf	(___fldiv@b+3)
 12169  0840  00F7               	movlw	0x0
 12170  0841  3000               	movwf	(___fldiv@b+2)
 12171  0842  00F6               	movlw	0x0
 12172  0843  3000               	movwf	(___fldiv@b+1)
 12173  0844  00F5               	movlw	0x0
 12174  0845  3000               	movwf	(___fldiv@b)
 12175  0846  00F4               
 12176                           	goto	l2857
 12177  0847  2848               	line	47
 12178                           	
 12179                           l638:	
 12180  0848                     	line	49
 12181                           	
 12182                           l2857:	
 12183  0848                     	movf	0+(___fldiv@a)+03h,w
 12184  0848  0873               	andlw	080h
 12185  0849  3980               	movwf	(??___fldiv+0)+0
 12186  084A  00F8               	movf	(??___fldiv+0)+0,w
 12187  084B  0878               	xorwf	(___fldiv@sign),f
 12188  084C  06A4               	line	50
 12189                           	
 12190                           l2859:	
 12191  084D                     	lslf	0+(___fldiv@a)+03h,w
 12192  084D  3573               	movwf	(??___fldiv+0)+0
 12193  084E  00F8               	movf	(??___fldiv+0)+0,w
 12194  084F  0878               	movwf	(___fldiv@aexp)
 12195  0850  00AC               	line	51
 12196                           	
 12197                           l2861:	
 12198  0851                     	btfss	0+(___fldiv@a)+02h,(7)&7
 12199  0851  1FF2               	goto	u4001
 12200  0852  2854               	goto	u4000
 12201  0853  2855               u4001:
 12202  0854                     	goto	l2865
 12203  0854  2857               u4000:
 12204  0855                     	line	52
 12205                           	
 12206                           l2863:	
 12207  0855                     	bsf	(___fldiv@aexp)+(0/8),(0)&7
 12208  0855  142C               	goto	l2865
 12209  0856  2857               	line	53
 12210                           	
 12211                           l639:	
 12212  0857                     	line	56
 12213                           	
 12214                           l2865:	
 12215  0857                     	movf	((___fldiv@aexp)),w
 12216  0857  082C               	btfsc	status,2
 12217  0858  1903               	goto	u4011
 12218  0859  285B               	goto	u4010
 12219  085A  285C               u4011:
 12220  085B                     	goto	l2875
 12221  085B  286D               u4010:
 12222  085C                     	line	58
 12223                           	
 12224                           l2867:	
 12225  085C                     		incf	((___fldiv@aexp)),w
 12226  085C  0A2C               	btfss	status,2
 12227  085D  1D03               	goto	u4021
 12228  085E  2860               	goto	u4020
 12229  085F  2861               u4021:
 12230  0860                     	goto	l2871
 12231  0860  286A               u4020:
 12232  0861                     	line	60
 12233                           	
 12234                           l2869:	
 12235  0861                     	movlw	0x0
 12236  0861  3000               	movwf	(___fldiv@a+3)
 12237  0862  00F3               	movlw	0x0
 12238  0863  3000               	movwf	(___fldiv@a+2)
 12239  0864  00F2               	movlw	0x0
 12240  0865  3000               	movwf	(___fldiv@a+1)
 12241  0866  00F1               	movlw	0x0
 12242  0867  3000               	movwf	(___fldiv@a)
 12243  0868  00F0               
 12244                           	goto	l2871
 12245  0869  286A               	line	61
 12246                           	
 12247                           l641:	
 12248  086A                     	line	63
 12249                           	
 12250                           l2871:	
 12251  086A                     	bsf	(___fldiv@a)+(23/8),(23)&7
 12252  086A  17F2               	line	65
 12253                           	
 12254                           l2873:	
 12255  086B                     	clrf	0+(___fldiv@a)+03h
 12256  086B  01F3               	line	66
 12257                           	goto	l642
 12258  086C  2875               	line	67
 12259                           	
 12260                           l640:	
 12261  086D                     	line	69
 12262                           	
 12263                           l2875:	
 12264  086D                     	movlw	0x0
 12265  086D  3000               	movwf	(___fldiv@a+3)
 12266  086E  00F3               	movlw	0x0
 12267  086F  3000               	movwf	(___fldiv@a+2)
 12268  0870  00F2               	movlw	0x0
 12269  0871  3000               	movwf	(___fldiv@a+1)
 12270  0872  00F1               	movlw	0x0
 12271  0873  3000               	movwf	(___fldiv@a)
 12272  0874  00F0               
 12273                           	line	70
 12274                           	
 12275                           l642:	
 12276  0875                     	line	75
 12277                           	movf	(___fldiv@a+3),w
 12278  0875  0873               	iorwf	(___fldiv@a+2),w
 12279  0876  0472               	iorwf	(___fldiv@a+1),w
 12280  0877  0471               	iorwf	(___fldiv@a),w
 12281  0878  0470               	skipz
 12282  0879  1D03               	goto	u4031
 12283  087A  287C               	goto	u4030
 12284  087B  287D               u4031:
 12285  087C                     	goto	l2885
 12286  087C  2897               u4030:
 12287  087D                     	line	76
 12288                           	
 12289                           l2877:	
 12290  087D                     	movlw	high highword(0)
 12291  087D  3000               	movwf	(___fldiv@b+3)
 12292  087E  00F7               	movlw	low highword(0)
 12293  087F  3000               	movwf	(___fldiv@b+2)
 12294  0880  00F6               	movlw	high(0)
 12295  0881  3000               	movwf	(___fldiv@b+1)
 12296  0882  00F5               	movlw	low(0)
 12297  0883  3000               	movwf	(___fldiv@b)
 12298  0884  00F4               
 12299                           	line	77
 12300                           	movlw	080h
 12301  0885  3080               	iorwf	0+(___fldiv@b)+02h,f
 12302  0886  04F6               	movlw	07Fh
 12303  0887  307F               	iorwf	1+(___fldiv@b)+02h,f
 12304  0888  04F7               	line	78
 12305                           	
 12306                           l2879:	
 12307  0889                     	movf	(___fldiv@sign),w
 12308  0889  0824               	movwf	(??___fldiv+0)+0
 12309  088A  00F8               	movf	(??___fldiv+0)+0,w
 12310  088B  0878               	iorwf	0+(___fldiv@b)+03h,f
 12311  088C  04F7               	line	79
 12312                           	
 12313                           l2881:	
 12314  088D                     	movf	(___fldiv@b+3),w
 12315  088D  0877               	movwf	(?___fldiv+3)
 12316  088E  00F3               	movf	(___fldiv@b+2),w
 12317  088F  0876               	movwf	(?___fldiv+2)
 12318  0890  00F2               	movf	(___fldiv@b+1),w
 12319  0891  0875               	movwf	(?___fldiv+1)
 12320  0892  00F1               	movf	(___fldiv@b),w
 12321  0893  0874               	movwf	(?___fldiv)
 12322  0894  00F0               
 12323                           	goto	l644
 12324  0895  29F7               	
 12325                           l2883:	
 12326  0896                     	goto	l644
 12327  0896  29F7               	line	80
 12328                           	
 12329                           l643:	
 12330  0897                     	line	83
 12331                           	
 12332                           l2885:	
 12333  0897                     	movf	((___fldiv@bexp)),w
 12334  0897  082B               	btfss	status,2
 12335  0898  1D03               	goto	u4041
 12336  0899  289B               	goto	u4040
 12337  089A  289C               u4041:
 12338  089B                     	goto	l2891
 12339  089B  28AE               u4040:
 12340  089C                     	line	84
 12341                           	
 12342                           l2887:	
 12343  089C                     	movlw	high highword(0)
 12344  089C  3000               	movwf	(___fldiv@b+3)
 12345  089D  00F7               	movlw	low highword(0)
 12346  089E  3000               	movwf	(___fldiv@b+2)
 12347  089F  00F6               	movlw	high(0)
 12348  08A0  3000               	movwf	(___fldiv@b+1)
 12349  08A1  00F5               	movlw	low(0)
 12350  08A2  3000               	movwf	(___fldiv@b)
 12351  08A3  00F4               
 12352                           	line	85
 12353                           	movf	(___fldiv@b+3),w
 12354  08A4  0877               	movwf	(?___fldiv+3)
 12355  08A5  00F3               	movf	(___fldiv@b+2),w
 12356  08A6  0876               	movwf	(?___fldiv+2)
 12357  08A7  00F2               	movf	(___fldiv@b+1),w
 12358  08A8  0875               	movwf	(?___fldiv+1)
 12359  08A9  00F1               	movf	(___fldiv@b),w
 12360  08AA  0874               	movwf	(?___fldiv)
 12361  08AB  00F0               
 12362                           	goto	l644
 12363  08AC  29F7               	
 12364                           l2889:	
 12365  08AD                     	goto	l644
 12366  08AD  29F7               	line	86
 12367                           	
 12368                           l645:	
 12369  08AE                     	line	89
 12370                           	
 12371                           l2891:	
 12372  08AE                     	movf	(___fldiv@aexp),w
 12373  08AE  082C               	movwf	(??___fldiv+0)+0
 12374  08AF  00F8               	clrf	(??___fldiv+0)+0+1
 12375  08B0  01F9               	comf	(??___fldiv+0)+0,f
 12376  08B1  09F8               	comf	(??___fldiv+0)+1,f
 12377  08B2  09F9               	incf	(??___fldiv+0)+0,f
 12378  08B3  0AF8               	skipnz
 12379  08B4  1903               	incf	(??___fldiv+0)+1,f
 12380  08B5  0AF9               	movf	(___fldiv@bexp),w
 12381  08B6  082B               	addwf	0+(??___fldiv+0)+0,w
 12382  08B7  0778               	movwf	(??___fldiv+2)+0
 12383  08B8  00FA               	movf	1+(??___fldiv+0)+0,w
 12384  08B9  0879               	skipnc
 12385  08BA  1803               	incf	1+(??___fldiv+0)+0,w
 12386  08BB  0A79               	movwf	((??___fldiv+2)+0)+1
 12387  08BC  00FB               	movf	0+(??___fldiv+2)+0,w
 12388  08BD  087A               	addlw	07Fh
 12389  08BE  3E7F               	movwf	(___fldiv@new_exp)
 12390  08BF  00A5               	movlw	0
 12391  08C0  3000               	addwfc	1+(??___fldiv+2)+0,w
 12392  08C1  3D7B               	movwf	1+(___fldiv@new_exp)
 12393  08C2  00A6               	line	92
 12394                           	
 12395                           l2893:	
 12396  08C3                     	movf	(___fldiv@b+3),w
 12397  08C3  0877               	movwf	(___fldiv@rem+3)
 12398  08C4  00A3               	movf	(___fldiv@b+2),w
 12399  08C5  0876               	movwf	(___fldiv@rem+2)
 12400  08C6  00A2               	movf	(___fldiv@b+1),w
 12401  08C7  0875               	movwf	(___fldiv@rem+1)
 12402  08C8  00A1               	movf	(___fldiv@b),w
 12403  08C9  0874               	movwf	(___fldiv@rem)
 12404  08CA  00A0               
 12405                           	line	93
 12406                           	
 12407                           l2895:	
 12408  08CB                     	movlw	high highword(0)
 12409  08CB  3000               	movwf	(___fldiv@b+3)
 12410  08CC  00F7               	movlw	low highword(0)
 12411  08CD  3000               	movwf	(___fldiv@b+2)
 12412  08CE  00F6               	movlw	high(0)
 12413  08CF  3000               	movwf	(___fldiv@b+1)
 12414  08D0  00F5               	movlw	low(0)
 12415  08D1  3000               	movwf	(___fldiv@b)
 12416  08D2  00F4               
 12417                           	line	94
 12418                           	
 12419                           l2897:	
 12420  08D3                     	movlw	high highword(0)
 12421  08D3  3000               	movwf	(___fldiv@grs+3)
 12422  08D4  00AA               	movlw	low highword(0)
 12423  08D5  3000               	movwf	(___fldiv@grs+2)
 12424  08D6  00A9               	movlw	high(0)
 12425  08D7  3000               	movwf	(___fldiv@grs+1)
 12426  08D8  00A8               	movlw	low(0)
 12427  08D9  3000               	movwf	(___fldiv@grs)
 12428  08DA  00A7               
 12429                           	line	96
 12430                           	
 12431                           l2899:	
 12432  08DB                     	clrf	(___fldiv@aexp)
 12433  08DB  01AC               	line	97
 12434                           	goto	l2919
 12435  08DC  291F               	
 12436                           l647:	
 12437  08DD                     	line	100
 12438                           	
 12439                           l2901:	
 12440  08DD                     	movf	((___fldiv@aexp)),w
 12441  08DD  082C               	btfsc	status,2
 12442  08DE  1903               	goto	u4051
 12443  08DF  28E1               	goto	u4050
 12444  08E0  28E2               u4051:
 12445  08E1                     	goto	l2911
 12446  08E1  28FE               u4050:
 12447  08E2                     	line	101
 12448                           	
 12449                           l2903:	
 12450  08E2                     	movlw	01h
 12451  08E2  3001               u4065:
 12452  08E3                     	lslf	(___fldiv@rem),f
 12453  08E3  35A0               	rlf	(___fldiv@rem+1),f
 12454  08E4  0DA1               	rlf	(___fldiv@rem+2),f
 12455  08E5  0DA2               	rlf	(___fldiv@rem+3),f
 12456  08E6  0DA3               	decfsz	wreg,f
 12457  08E7  0B89               	goto	u4065
 12458  08E8  28E3               	line	102
 12459                           	movlw	01h
 12460  08E9  3001               u4075:
 12461  08EA                     	lslf	(___fldiv@b),f
 12462  08EA  35F4               	rlf	(___fldiv@b+1),f
 12463  08EB  0DF5               	rlf	(___fldiv@b+2),f
 12464  08EC  0DF6               	rlf	(___fldiv@b+3),f
 12465  08ED  0DF7               	decfsz	wreg,f
 12466  08EE  0B89               	goto	u4075
 12467  08EF  28EA               	line	103
 12468                           	
 12469                           l2905:	
 12470  08F0                     	btfss	(___fldiv@grs+3),(31)&7
 12471  08F0  1FAA               	goto	u4081
 12472  08F1  28F3               	goto	u4080
 12473  08F2  28F4               u4081:
 12474  08F3                     	goto	l2909
 12475  08F3  28F6               u4080:
 12476  08F4                     	line	104
 12477                           	
 12478                           l2907:	
 12479  08F4                     	bsf	(___fldiv@b)+(0/8),(0)&7
 12480  08F4  1474               	goto	l2909
 12481  08F5  28F6               	line	105
 12482                           	
 12483                           l649:	
 12484  08F6                     	line	106
 12485                           	
 12486                           l2909:	
 12487  08F6                     	movlw	01h
 12488  08F6  3001               u4095:
 12489  08F7                     	lslf	(___fldiv@grs),f
 12490  08F7  35A7               	rlf	(___fldiv@grs+1),f
 12491  08F8  0DA8               	rlf	(___fldiv@grs+2),f
 12492  08F9  0DA9               	rlf	(___fldiv@grs+3),f
 12493  08FA  0DAA               	decfsz	wreg,f
 12494  08FB  0B89               	goto	u4095
 12495  08FC  28F7               	goto	l2911
 12496  08FD  28FE               	line	107
 12497                           	
 12498                           l648:	
 12499  08FE                     	line	112
 12500                           	
 12501                           l2911:	
 12502  08FE                     	movf	(___fldiv@a+3),w
 12503  08FE  0873               	subwf	(___fldiv@rem+3),w
 12504  08FF  0223               	skipz
 12505  0900  1D03               	goto	u4105
 12506  0901  290C               	movf	(___fldiv@a+2),w
 12507  0902  0872               	subwf	(___fldiv@rem+2),w
 12508  0903  0222               	skipz
 12509  0904  1D03               	goto	u4105
 12510  0905  290C               	movf	(___fldiv@a+1),w
 12511  0906  0871               	subwf	(___fldiv@rem+1),w
 12512  0907  0221               	skipz
 12513  0908  1D03               	goto	u4105
 12514  0909  290C               	movf	(___fldiv@a),w
 12515  090A  0870               	subwf	(___fldiv@rem),w
 12516  090B  0220               u4105:
 12517  090C                     	skipc
 12518  090C  1C03               	goto	u4101
 12519  090D  290F               	goto	u4100
 12520  090E  2910               u4101:
 12521  090F                     	goto	l2917
 12522  090F  291A               u4100:
 12523  0910                     	line	115
 12524                           	
 12525                           l2913:	
 12526  0910                     	bsf	(___fldiv@grs)+(30/8),(30)&7
 12527  0910  172A               	line	116
 12528                           	
 12529                           l2915:	
 12530  0911                     	movf	(___fldiv@a),w
 12531  0911  0870               	subwf	(___fldiv@rem),f
 12532  0912  02A0               	movf	(___fldiv@a+1),w
 12533  0913  0871               	subwfb	(___fldiv@rem+1),f
 12534  0914  3BA1               	movf	(___fldiv@a+2),w
 12535  0915  0872               	subwfb	(___fldiv@rem+2),f
 12536  0916  3BA2               	movf	(___fldiv@a+3),w
 12537  0917  0873               	subwfb	(___fldiv@rem+3),f
 12538  0918  3BA3               	goto	l2917
 12539  0919  291A               	line	117
 12540                           	
 12541                           l650:	
 12542  091A                     	line	118
 12543                           	
 12544                           l2917:	
 12545  091A                     	movlw	low(01h)
 12546  091A  3001               	movwf	(??___fldiv+0)+0
 12547  091B  00F8               	movf	(??___fldiv+0)+0,w
 12548  091C  0878               	addwf	(___fldiv@aexp),f
 12549  091D  07AC               	goto	l2919
 12550  091E  291F               	line	119
 12551                           	
 12552                           l646:	
 12553  091F                     	line	97
 12554                           	
 12555                           l2919:	
 12556  091F                     	movlw	low(01Ah)
 12557  091F  301A               	subwf	(___fldiv@aexp),w
 12558  0920  022C               	skipc
 12559  0921  1C03               	goto	u4111
 12560  0922  2924               	goto	u4110
 12561  0923  2925               u4111:
 12562  0924                     	goto	l2901
 12563  0924  28DD               u4110:
 12564  0925                     	goto	l2921
 12565  0925  2926               	
 12566                           l651:	
 12567  0926                     	line	122
 12568                           	
 12569                           l2921:	
 12570  0926                     	movf	(___fldiv@rem+3),w
 12571  0926  0823               	iorwf	(___fldiv@rem+2),w
 12572  0927  0422               	iorwf	(___fldiv@rem+1),w
 12573  0928  0421               	iorwf	(___fldiv@rem),w
 12574  0929  0420               	skipnz
 12575  092A  1903               	goto	u4121
 12576  092B  292D               	goto	u4120
 12577  092C  292E               u4121:
 12578  092D                     	goto	l2935
 12579  092D  294A               u4120:
 12580  092E                     	line	123
 12581                           	
 12582                           l2923:	
 12583  092E                     	bsf	(___fldiv@grs)+(0/8),(0)&7
 12584  092E  1427               	goto	l2935
 12585  092F  294A               	line	124
 12586                           	
 12587                           l652:	
 12588  0930                     	line	127
 12589                           	goto	l2935
 12590  0930  294A               	
 12591                           l654:	
 12592  0931                     	line	128
 12593                           	
 12594                           l2925:	
 12595  0931                     	movlw	01h
 12596  0931  3001               u4135:
 12597  0932                     	lslf	(___fldiv@b),f
 12598  0932  35F4               	rlf	(___fldiv@b+1),f
 12599  0933  0DF5               	rlf	(___fldiv@b+2),f
 12600  0934  0DF6               	rlf	(___fldiv@b+3),f
 12601  0935  0DF7               	decfsz	wreg,f
 12602  0936  0B89               	goto	u4135
 12603  0937  2932               	line	129
 12604                           	
 12605                           l2927:	
 12606  0938                     	btfss	(___fldiv@grs+3),(31)&7
 12607  0938  1FAA               	goto	u4141
 12608  0939  293B               	goto	u4140
 12609  093A  293C               u4141:
 12610  093B                     	goto	l2931
 12611  093B  293E               u4140:
 12612  093C                     	line	130
 12613                           	
 12614                           l2929:	
 12615  093C                     	bsf	(___fldiv@b)+(0/8),(0)&7
 12616  093C  1474               	goto	l2931
 12617  093D  293E               	line	131
 12618                           	
 12619                           l655:	
 12620  093E                     	line	132
 12621                           	
 12622                           l2931:	
 12623  093E                     	movlw	01h
 12624  093E  3001               u4155:
 12625  093F                     	lslf	(___fldiv@grs),f
 12626  093F  35A7               	rlf	(___fldiv@grs+1),f
 12627  0940  0DA8               	rlf	(___fldiv@grs+2),f
 12628  0941  0DA9               	rlf	(___fldiv@grs+3),f
 12629  0942  0DAA               	decfsz	wreg,f
 12630  0943  0B89               	goto	u4155
 12631  0944  293F               	line	133
 12632                           	
 12633                           l2933:	
 12634  0945                     	movlw	0FFh
 12635  0945  30FF               	addwf	(___fldiv@new_exp),f
 12636  0946  07A5               	movlw	0FFh
 12637  0947  30FF               	addwfc	(___fldiv@new_exp+1),f
 12638  0948  3DA6               	goto	l2935
 12639  0949  294A               	line	134
 12640                           	
 12641                           l653:	
 12642  094A                     	line	127
 12643                           	
 12644                           l2935:	
 12645  094A                     	btfss	(___fldiv@b+2),(23)&7
 12646  094A  1FF6               	goto	u4161
 12647  094B  294D               	goto	u4160
 12648  094C  294E               u4161:
 12649  094D                     	goto	l2925
 12650  094D  2931               u4160:
 12651  094E                     	goto	l2937
 12652  094E  294F               	
 12653                           l656:	
 12654  094F                     	line	139
 12655                           	
 12656                           l2937:	
 12657  094F                     	clrf	(___fldiv@aexp)
 12658  094F  01AC               	line	140
 12659                           	
 12660                           l2939:	
 12661  0950                     	btfss	(___fldiv@grs+3),(31)&7
 12662  0950  1FAA               	goto	u4171
 12663  0951  2953               	goto	u4170
 12664  0952  2954               u4171:
 12665  0953                     	goto	l2947
 12666  0953  2974               u4170:
 12667  0954                     	line	141
 12668                           	
 12669                           l2941:	
 12670  0954                     	movlw	0FFh
 12671  0954  30FF               	andwf	(___fldiv@grs),w
 12672  0955  0527               	movwf	(??___fldiv+0)+0
 12673  0956  00F8               	movlw	0FFh
 12674  0957  30FF               	andwf	(___fldiv@grs+1),w
 12675  0958  0528               	movwf	((??___fldiv+0)+0+1)
 12676  0959  00F9               	movlw	0FFh
 12677  095A  30FF               	andwf	(___fldiv@grs+2),w
 12678  095B  0529               	movwf	((??___fldiv+0)+0+2)
 12679  095C  00FA               	movlw	07Fh
 12680  095D  307F               	andwf	(___fldiv@grs+3),w
 12681  095E  052A               	movwf	((??___fldiv+0)+0+3)
 12682  095F  00FB               	movf	3+(??___fldiv+0)+0,w
 12683  0960  087B               	iorwf	2+(??___fldiv+0)+0,w
 12684  0961  047A               	iorwf	1+(??___fldiv+0)+0,w
 12685  0962  0479               	iorwf	0+(??___fldiv+0)+0,w
 12686  0963  0478               	skipnz
 12687  0964  1903               	goto	u4181
 12688  0965  2967               	goto	u4180
 12689  0966  2968               u4181:
 12690  0967                     	goto	l658
 12691  0967  296B               u4180:
 12692  0968                     	line	142
 12693                           	
 12694                           l2943:	
 12695  0968                     	clrf	(___fldiv@aexp)
 12696  0968  01AC               	incf	(___fldiv@aexp),f
 12697  0969  0AAC               	line	143
 12698                           	goto	l2947
 12699  096A  2974               	line	144
 12700                           	
 12701                           l658:	
 12702  096B                     	line	145
 12703                           	btfss	(___fldiv@b),(0)&7
 12704  096B  1C74               	goto	u4191
 12705  096C  296E               	goto	u4190
 12706  096D  296F               u4191:
 12707  096E                     	goto	l2947
 12708  096E  2974               u4190:
 12709  096F                     	line	146
 12710                           	
 12711                           l2945:	
 12712  096F                     	clrf	(___fldiv@aexp)
 12713  096F  01AC               	incf	(___fldiv@aexp),f
 12714  0970  0AAC               	goto	l2947
 12715  0971  2974               	line	147
 12716                           	
 12717                           l660:	
 12718  0972                     	goto	l2947
 12719  0972  2974               	line	148
 12720                           	
 12721                           l659:	
 12722  0973                     	goto	l2947
 12723  0973  2974               	line	149
 12724                           	
 12725                           l657:	
 12726  0974                     	line	150
 12727                           	
 12728                           l2947:	
 12729  0974                     	movf	((___fldiv@aexp)),w
 12730  0974  082C               	btfsc	status,2
 12731  0975  1903               	goto	u4201
 12732  0976  2978               	goto	u4200
 12733  0977  2979               u4201:
 12734  0978                     	goto	l2957
 12735  0978  29A3               u4200:
 12736  0979                     	line	151
 12737                           	
 12738                           l2949:	
 12739  0979                     	movlw	01h
 12740  0979  3001               	addwf	(___fldiv@b),f
 12741  097A  07F4               	movlw	0
 12742  097B  3000               	addwfc	(___fldiv@b+1),f
 12743  097C  3DF5               	movlw	0
 12744  097D  3000               	addwfc	(___fldiv@b+2),f
 12745  097E  3DF6               	movlw	0
 12746  097F  3000               	addwfc	(___fldiv@b+3),f
 12747  0980  3DF7               	line	152
 12748                           	
 12749                           l2951:	
 12750  0981                     	btfss	(___fldiv@b+3),(24)&7
 12751  0981  1C77               	goto	u4211
 12752  0982  2984               	goto	u4210
 12753  0983  2985               u4211:
 12754  0984                     	goto	l2957
 12755  0984  29A3               u4210:
 12756  0985                     	line	153
 12757                           	
 12758                           l2953:	
 12759  0985                     	movf	(___fldiv@b),w
 12760  0985  0874               	movwf	(??___fldiv+0)+0
 12761  0986  00F8               	movf	(___fldiv@b+1),w
 12762  0987  0875               	movwf	((??___fldiv+0)+0+1)
 12763  0988  00F9               	movf	(___fldiv@b+2),w
 12764  0989  0876               	movwf	((??___fldiv+0)+0+2)
 12765  098A  00FA               	movf	(___fldiv@b+3),w
 12766  098B  0877               	movwf	((??___fldiv+0)+0+3)
 12767  098C  00FB               	movlw	01h
 12768  098D  3001               	movwf	(??___fldiv+4)+0
 12769  098E  00FC               u4225:
 12770  098F                     	asrf	(??___fldiv+0)+3,f
 12771  098F  37FB               	rrf	(??___fldiv+0)+2,f
 12772  0990  0CFA               	rrf	(??___fldiv+0)+1,f
 12773  0991  0CF9               	rrf	(??___fldiv+0)+0,f
 12774  0992  0CF8               u4220:
 12775  0993                     	decfsz	(??___fldiv+4)+0,f
 12776  0993  0BFC               	goto	u4225
 12777  0994  298F               	movf	3+(??___fldiv+0)+0,w
 12778  0995  087B               	movwf	(___fldiv@b+3)
 12779  0996  00F7               	movf	2+(??___fldiv+0)+0,w
 12780  0997  087A               	movwf	(___fldiv@b+2)
 12781  0998  00F6               	movf	1+(??___fldiv+0)+0,w
 12782  0999  0879               	movwf	(___fldiv@b+1)
 12783  099A  00F5               	movf	0+(??___fldiv+0)+0,w
 12784  099B  0878               	movwf	(___fldiv@b)
 12785  099C  00F4               
 12786                           	line	154
 12787                           	
 12788                           l2955:	
 12789  099D                     	movlw	01h
 12790  099D  3001               	addwf	(___fldiv@new_exp),f
 12791  099E  07A5               	movlw	0
 12792  099F  3000               	addwfc	(___fldiv@new_exp+1),f
 12793  09A0  3DA6               	goto	l2957
 12794  09A1  29A3               	line	155
 12795                           	
 12796                           l662:	
 12797  09A2                     	goto	l2957
 12798  09A2  29A3               	line	156
 12799                           	
 12800                           l661:	
 12801  09A3                     	line	159
 12802                           	
 12803                           l2957:	
 12804  09A3                     	movf	(___fldiv@new_exp+1),w
 12805  09A3  0826               	xorlw	80h
 12806  09A4  3A80               	movwf	(??___fldiv+0)+0
 12807  09A5  00F8               	movlw	(0)^80h
 12808  09A6  3080               	subwf	(??___fldiv+0)+0,w
 12809  09A7  0278               	skipz
 12810  09A8  1D03               	goto	u4235
 12811  09A9  29AC               	movlw	0FFh
 12812  09AA  30FF               	subwf	(___fldiv@new_exp),w
 12813  09AB  0225               u4235:
 12814  09AC                     
 12815                           	skipc
 12816  09AC  1C03               	goto	u4231
 12817  09AD  29AF               	goto	u4230
 12818  09AE  29B0               u4231:
 12819  09AF                     	goto	l663
 12820  09AF  29BD               u4230:
 12821  09B0                     	line	160
 12822                           	
 12823                           l2959:	
 12824  09B0                     	movlw	0FFh
 12825  09B0  30FF               	movlb 0	; select bank0
 12826  09B1  0140               	movwf	(___fldiv@new_exp)
 12827  09B2  00A5               	movlw	0
 12828  09B3  3000               	movwf	((___fldiv@new_exp))+1
 12829  09B4  00A6               	line	161
 12830                           	movlw	high highword(0)
 12831  09B5  3000               	movwf	(___fldiv@b+3)
 12832  09B6  00F7               	movlw	low highword(0)
 12833  09B7  3000               	movwf	(___fldiv@b+2)
 12834  09B8  00F6               	movlw	high(0)
 12835  09B9  3000               	movwf	(___fldiv@b+1)
 12836  09BA  00F5               	movlw	low(0)
 12837  09BB  3000               	movwf	(___fldiv@b)
 12838  09BC  00F4               
 12839                           	line	162
 12840                           	
 12841                           l663:	
 12842  09BD                     	line	165
 12843                           	movlb 0	; select bank0
 12844  09BD  0140               	movf	(___fldiv@new_exp+1),w
 12845  09BE  0826               	xorlw	80h
 12846  09BF  3A80               	movwf	(??___fldiv+0)+0
 12847  09C0  00F8               	movlw	(0)^80h
 12848  09C1  3080               	subwf	(??___fldiv+0)+0,w
 12849  09C2  0278               	skipz
 12850  09C3  1D03               	goto	u4245
 12851  09C4  29C7               	movlw	01h
 12852  09C5  3001               	subwf	(___fldiv@new_exp),w
 12853  09C6  0225               u4245:
 12854  09C7                     
 12855                           	skipnc
 12856  09C7  1803               	goto	u4241
 12857  09C8  29CA               	goto	u4240
 12858  09C9  29CB               u4241:
 12859  09CA                     	goto	l664
 12860  09CA  29D7               u4240:
 12861  09CB                     	line	166
 12862                           	
 12863                           l2961:	
 12864  09CB                     	movlb 0	; select bank0
 12865  09CB  0140               	clrf	(___fldiv@new_exp)
 12866  09CC  01A5               	clrf	(___fldiv@new_exp+1)
 12867  09CD  01A6               	line	167
 12868                           	
 12869                           l2963:	
 12870  09CE                     	movlw	high highword(0)
 12871  09CE  3000               	movwf	(___fldiv@b+3)
 12872  09CF  00F7               	movlw	low highword(0)
 12873  09D0  3000               	movwf	(___fldiv@b+2)
 12874  09D1  00F6               	movlw	high(0)
 12875  09D2  3000               	movwf	(___fldiv@b+1)
 12876  09D3  00F5               	movlw	low(0)
 12877  09D4  3000               	movwf	(___fldiv@b)
 12878  09D5  00F4               
 12879                           	line	169
 12880                           	
 12881                           l2965:	
 12882  09D6                     	clrf	(___fldiv@sign)
 12883  09D6  01A4               	line	170
 12884                           	
 12885                           l664:	
 12886  09D7                     	line	173
 12887                           	movlb 0	; select bank0
 12888  09D7  0140               	movf	(___fldiv@new_exp),w
 12889  09D8  0825               	movwf	(??___fldiv+0)+0
 12890  09D9  00F8               	movf	(??___fldiv+0)+0,w
 12891  09DA  0878               	movwf	(___fldiv@bexp)
 12892  09DB  00AB               	line	175
 12893                           	
 12894                           l2967:	
 12895  09DC                     	btfss	(___fldiv@bexp),(0)&7
 12896  09DC  1C2B               	goto	u4251
 12897  09DD  29DF               	goto	u4250
 12898  09DE  29E0               u4251:
 12899  09DF                     	goto	l2971
 12900  09DF  29E2               u4250:
 12901  09E0                     	line	176
 12902                           	
 12903                           l2969:	
 12904  09E0                     	bsf	0+(___fldiv@b)+02h+(7/8),(7)&7
 12905  09E0  17F6               	line	177
 12906                           	goto	l666
 12907  09E1  29E6               	line	179
 12908                           	
 12909                           l665:	
 12910  09E2                     	line	180
 12911                           	
 12912                           l2971:	
 12913  09E2                     	movlw	low(07Fh)
 12914  09E2  307F               	movwf	(??___fldiv+0)+0
 12915  09E3  00F8               	movf	(??___fldiv+0)+0,w
 12916  09E4  0878               	andwf	0+(___fldiv@b)+02h,f
 12917  09E5  05F6               	line	181
 12918                           	
 12919                           l666:	
 12920  09E6                     	line	182
 12921                           	lsrf	(___fldiv@bexp),w
 12922  09E6  362B               	movwf	(??___fldiv+0)+0
 12923  09E7  00F8               	movf	(??___fldiv+0)+0,w
 12924  09E8  0878               	movwf	0+(___fldiv@b)+03h
 12925  09E9  00F7               	line	183
 12926                           	movf	(___fldiv@sign),w
 12927  09EA  0824               	movwf	(??___fldiv+0)+0
 12928  09EB  00F8               	movf	(??___fldiv+0)+0,w
 12929  09EC  0878               	iorwf	0+(___fldiv@b)+03h,f
 12930  09ED  04F7               	line	184
 12931                           	
 12932                           l2973:	
 12933  09EE                     	movf	(___fldiv@b+3),w
 12934  09EE  0877               	movwf	(?___fldiv+3)
 12935  09EF  00F3               	movf	(___fldiv@b+2),w
 12936  09F0  0876               	movwf	(?___fldiv+2)
 12937  09F1  00F2               	movf	(___fldiv@b+1),w
 12938  09F2  0875               	movwf	(?___fldiv+1)
 12939  09F3  00F1               	movf	(___fldiv@b),w
 12940  09F4  0874               	movwf	(?___fldiv)
 12941  09F5  00F0               
 12942                           	goto	l644
 12943  09F6  29F7               	
 12944                           l2975:	
 12945  09F7                     	line	185
 12946                           	
 12947                           l644:	
 12948  09F7                     	return
 12949  09F7  0008               	opt stack 0
 12950                           GLOBAL	__end_of___fldiv
 12951                           	__end_of___fldiv:
 12952  09F8                     	signat	___fldiv,8316
 12953                           	global	___awmod
 12954                           
 12955 ;; *************** function ___awmod *****************
 12956 ;; Defined at:
 12957 ;;		line 5 in file "C:\Program Files (x86)\Microchip\xc8\v2.00\pic\sources\c99\common\awmod.c"
 12958 ;; Parameters:    Size  Location     Type
 12959 ;;  divisor         2    0[COMMON] int 
 12960 ;;  dividend        2    2[COMMON] int 
 12961 ;; Auto vars:     Size  Location     Type
 12962 ;;  sign            1    6[COMMON] unsigned char 
 12963 ;;  counter         1    5[COMMON] unsigned char 
 12964 ;; Return value:  Size  Location     Type
 12965 ;;                  2    0[COMMON] int 
 12966 ;; Registers used:
 12967 ;;		wreg, status,2, status,0
 12968 ;; Tracked objects:
 12969 ;;		On entry : 0/0
 12970 ;;		On exit  : 0/0
 12971 ;;		Unchanged: 0/0
 12972 ;; Data sizes:     COMMON   BANK0   BANK1   BANK2   BANK3   BANK4   BANK5   BANK6   BANK7   BANK8   BANK9  BANK10  BANK1
       1  BANK12
 12973 ;;      Params:         4       0       0       0       0       0       0       0       0       0       0       0       
       0       0
 12974 ;;      Locals:         2       0       0       0       0       0       0       0       0       0       0       0       
       0       0
 12975 ;;      Temps:          1       0       0       0       0       0       0       0       0       0       0       0       
       0       0
 12976 ;;      Totals:         7       0       0       0       0       0       0       0       0       0       0       0       
       0       0
 12977 ;;Total ram usage:        7 bytes
 12978 ;; Hardware stack levels used:    1
 12979 ;; Hardware stack levels required when called:    1
 12980 ;; This function calls:
 12981 ;;		Nothing
 12982 ;; This function is called by:
 12983 ;;		_efgtoa
 12984 ;; This function uses a non-reentrant model
 12985 ;;
 12986                           psect	text25,local,class=CODE,delta=2,merge=1,group=1
 12987                           	file	"C:\Program Files (x86)\Microchip\xc8\v2.00\pic\sources\c99\common\awmod.c"
 12988                           	line	5
 12989                           global __ptext25
 12990                           __ptext25:	;psect for function ___awmod
 12991  1101                     psect	text25
 12992                           	file	"C:\Program Files (x86)\Microchip\xc8\v2.00\pic\sources\c99\common\awmod.c"
 12993                           	line	5
 12994                           	global	__size_of___awmod
 12995                           	__size_of___awmod	equ	__end_of___awmod-___awmod
 12996  005D                     	
 12997                           ___awmod:	
 12998  1101                     ;incstack = 0
 12999                           	opt	stack 10
 13000                           ; Regs used in ___awmod: [wreg+status,2+status,0]
 13001                           	line	12
 13002                           	
 13003                           l2711:	
 13004  1101                     	clrf	(___awmod@sign)
 13005  1101  01F6               	line	13
 13006                           	
 13007                           l2713:	
 13008  1102                     	btfss	(___awmod@dividend+1),7
 13009  1102  1FF3               	goto	u3691
 13010  1103  2905               	goto	u3690
 13011  1104  2906               u3691:
 13012  1105                     	goto	l2719
 13013  1105  290E               u3690:
 13014  1106                     	line	14
 13015                           	
 13016                           l2715:	
 13017  1106                     	comf	(___awmod@dividend),f
 13018  1106  09F2               	comf	(___awmod@dividend+1),f
 13019  1107  09F3               	incf	(___awmod@dividend),f
 13020  1108  0AF2               	skipnz
 13021  1109  1903               	incf	(___awmod@dividend+1),f
 13022  110A  0AF3               	line	15
 13023                           	
 13024                           l2717:	
 13025  110B                     	clrf	(___awmod@sign)
 13026  110B  01F6               	incf	(___awmod@sign),f
 13027  110C  0AF6               	goto	l2719
 13028  110D  290E               	line	16
 13029                           	
 13030                           l441:	
 13031  110E                     	line	17
 13032                           	
 13033                           l2719:	
 13034  110E                     	btfss	(___awmod@divisor+1),7
 13035  110E  1FF1               	goto	u3701
 13036  110F  2911               	goto	u3700
 13037  1110  2912               u3701:
 13038  1111                     	goto	l2723
 13039  1111  2918               u3700:
 13040  1112                     	line	18
 13041                           	
 13042                           l2721:	
 13043  1112                     	comf	(___awmod@divisor),f
 13044  1112  09F0               	comf	(___awmod@divisor+1),f
 13045  1113  09F1               	incf	(___awmod@divisor),f
 13046  1114  0AF0               	skipnz
 13047  1115  1903               	incf	(___awmod@divisor+1),f
 13048  1116  0AF1               	goto	l2723
 13049  1117  2918               	
 13050                           l442:	
 13051  1118                     	line	19
 13052                           	
 13053                           l2723:	
 13054  1118                     	movf	((___awmod@divisor)),w
 13055  1118  0870               iorwf	((___awmod@divisor+1)),w
 13056  1119  0471               	btfsc	status,2
 13057  111A  1903               	goto	u3711
 13058  111B  291D               	goto	u3710
 13059  111C  291E               u3711:
 13060  111D                     	goto	l2741
 13061  111D  294D               u3710:
 13062  111E                     	line	20
 13063                           	
 13064                           l2725:	
 13065  111E                     	clrf	(___awmod@counter)
 13066  111E  01F5               	incf	(___awmod@counter),f
 13067  111F  0AF5               	line	21
 13068                           	goto	l2731
 13069  1120  292B               	
 13070                           l445:	
 13071  1121                     	line	22
 13072                           	
 13073                           l2727:	
 13074  1121                     	movlw	01h
 13075  1121  3001               	
 13076                           u3725:
 13077  1122                     	lslf	(___awmod@divisor),f
 13078  1122  35F0               	rlf	(___awmod@divisor+1),f
 13079  1123  0DF1               	decfsz	wreg,f
 13080  1124  0B89               	goto	u3725
 13081  1125  2922               	line	23
 13082                           	
 13083                           l2729:	
 13084  1126                     	movlw	low(01h)
 13085  1126  3001               	movwf	(??___awmod+0)+0
 13086  1127  00F4               	movf	(??___awmod+0)+0,w
 13087  1128  0874               	addwf	(___awmod@counter),f
 13088  1129  07F5               	goto	l2731
 13089  112A  292B               	line	24
 13090                           	
 13091                           l444:	
 13092  112B                     	line	21
 13093                           	
 13094                           l2731:	
 13095  112B                     	btfss	(___awmod@divisor+1),(15)&7
 13096  112B  1FF1               	goto	u3731
 13097  112C  292E               	goto	u3730
 13098  112D  292F               u3731:
 13099  112E                     	goto	l2727
 13100  112E  2921               u3730:
 13101  112F                     	goto	l2733
 13102  112F  2931               	
 13103                           l446:	
 13104  1130                     	goto	l2733
 13105  1130  2931               	line	25
 13106                           	
 13107                           l447:	
 13108  1131                     	line	26
 13109                           	
 13110                           l2733:	
 13111  1131                     	movf	(___awmod@divisor+1),w
 13112  1131  0871               	subwf	(___awmod@dividend+1),w
 13113  1132  0273               	skipz
 13114  1133  1D03               	goto	u3745
 13115  1134  2937               	movf	(___awmod@divisor),w
 13116  1135  0870               	subwf	(___awmod@dividend),w
 13117  1136  0272               u3745:
 13118  1137                     	skipc
 13119  1137  1C03               	goto	u3741
 13120  1138  293A               	goto	u3740
 13121  1139  293B               u3741:
 13122  113A                     	goto	l2737
 13123  113A  2940               u3740:
 13124  113B                     	line	27
 13125                           	
 13126                           l2735:	
 13127  113B                     	movf	(___awmod@divisor),w
 13128  113B  0870               	subwf	(___awmod@dividend),f
 13129  113C  02F2               	movf	(___awmod@divisor+1),w
 13130  113D  0871               	subwfb	(___awmod@dividend+1),f
 13131  113E  3BF3               	goto	l2737
 13132  113F  2940               	
 13133                           l448:	
 13134  1140                     	line	28
 13135                           	
 13136                           l2737:	
 13137  1140                     	movlw	01h
 13138  1140  3001               	
 13139                           u3755:
 13140  1141                     	lsrf	(___awmod@divisor+1),f
 13141  1141  36F1               	rrf	(___awmod@divisor),f
 13142  1142  0CF0               	decfsz	wreg,f
 13143  1143  0B89               	goto	u3755
 13144  1144  2941               	line	29
 13145                           	
 13146                           l2739:	
 13147  1145                     	movlw	01h
 13148  1145  3001               	subwf	(___awmod@counter),f
 13149  1146  02F5               	btfss	status,2
 13150  1147  1D03               	goto	u3761
 13151  1148  294A               	goto	u3760
 13152  1149  294B               u3761:
 13153  114A                     	goto	l2733
 13154  114A  2931               u3760:
 13155  114B                     	goto	l2741
 13156  114B  294D               	
 13157                           l449:	
 13158  114C                     	goto	l2741
 13159  114C  294D               	line	30
 13160                           	
 13161                           l443:	
 13162  114D                     	line	31
 13163                           	
 13164                           l2741:	
 13165  114D                     	movf	((___awmod@sign)),w
 13166  114D  0876               	btfsc	status,2
 13167  114E  1903               	goto	u3771
 13168  114F  2951               	goto	u3770
 13169  1150  2952               u3771:
 13170  1151                     	goto	l2745
 13171  1151  2958               u3770:
 13172  1152                     	line	32
 13173                           	
 13174                           l2743:	
 13175  1152                     	comf	(___awmod@dividend),f
 13176  1152  09F2               	comf	(___awmod@dividend+1),f
 13177  1153  09F3               	incf	(___awmod@dividend),f
 13178  1154  0AF2               	skipnz
 13179  1155  1903               	incf	(___awmod@dividend+1),f
 13180  1156  0AF3               	goto	l2745
 13181  1157  2958               	
 13182                           l450:	
 13183  1158                     	line	33
 13184                           	
 13185                           l2745:	
 13186  1158                     	movf	(___awmod@dividend+1),w
 13187  1158  0873               	movwf	(?___awmod+1)
 13188  1159  00F1               	movf	(___awmod@dividend),w
 13189  115A  0872               	movwf	(?___awmod)
 13190  115B  00F0               	goto	l451
 13191  115C  295D               	
 13192                           l2747:	
 13193  115D                     	line	34
 13194                           	
 13195                           l451:	
 13196  115D                     	return
 13197  115D  0008               	opt stack 0
 13198                           GLOBAL	__end_of___awmod
 13199                           	__end_of___awmod:
 13200  115E                     	signat	___awmod,8314
 13201                           	global	___awdiv
 13202                           
 13203 ;; *************** function ___awdiv *****************
 13204 ;; Defined at:
 13205 ;;		line 5 in file "C:\Program Files (x86)\Microchip\xc8\v2.00\pic\sources\c99\common\awdiv.c"
 13206 ;; Parameters:    Size  Location     Type
 13207 ;;  divisor         2    0[COMMON] int 
 13208 ;;  dividend        2    2[COMMON] int 
 13209 ;; Auto vars:     Size  Location     Type
 13210 ;;  quotient        2    7[COMMON] int 
 13211 ;;  sign            1    6[COMMON] unsigned char 
 13212 ;;  counter         1    5[COMMON] unsigned char 
 13213 ;; Return value:  Size  Location     Type
 13214 ;;                  2    0[COMMON] int 
 13215 ;; Registers used:
 13216 ;;		wreg, status,2, status,0
 13217 ;; Tracked objects:
 13218 ;;		On entry : 0/0
 13219 ;;		On exit  : 0/0
 13220 ;;		Unchanged: 0/0
 13221 ;; Data sizes:     COMMON   BANK0   BANK1   BANK2   BANK3   BANK4   BANK5   BANK6   BANK7   BANK8   BANK9  BANK10  BANK1
       1  BANK12
 13222 ;;      Params:         4       0       0       0       0       0       0       0       0       0       0       0       
       0       0
 13223 ;;      Locals:         4       0       0       0       0       0       0       0       0       0       0       0       
       0       0
 13224 ;;      Temps:          1       0       0       0       0       0       0       0       0       0       0       0       
       0       0
 13225 ;;      Totals:         9       0       0       0       0       0       0       0       0       0       0       0       
       0       0
 13226 ;;Total ram usage:        9 bytes
 13227 ;; Hardware stack levels used:    1
 13228 ;; Hardware stack levels required when called:    1
 13229 ;; This function calls:
 13230 ;;		Nothing
 13231 ;; This function is called by:
 13232 ;;		_efgtoa
 13233 ;; This function uses a non-reentrant model
 13234 ;;
 13235                           psect	text26,local,class=CODE,delta=2,merge=1,group=1
 13236                           	file	"C:\Program Files (x86)\Microchip\xc8\v2.00\pic\sources\c99\common\awdiv.c"
 13237                           	line	5
 13238                           global __ptext26
 13239                           __ptext26:	;psect for function ___awdiv
 13240  1222                     psect	text26
 13241                           	file	"C:\Program Files (x86)\Microchip\xc8\v2.00\pic\sources\c99\common\awdiv.c"
 13242                           	line	5
 13243                           	global	__size_of___awdiv
 13244                           	__size_of___awdiv	equ	__end_of___awdiv-___awdiv
 13245  0069                     	
 13246                           ___awdiv:	
 13247  1222                     ;incstack = 0
 13248                           	opt	stack 10
 13249                           ; Regs used in ___awdiv: [wreg+status,2+status,0]
 13250                           	line	13
 13251                           	
 13252                           l2667:	
 13253  1222                     	clrf	(___awdiv@sign)
 13254  1222  01F6               	line	14
 13255                           	
 13256                           l2669:	
 13257  1223                     	btfss	(___awdiv@divisor+1),7
 13258  1223  1FF1               	goto	u3591
 13259  1224  2A26               	goto	u3590
 13260  1225  2A27               u3591:
 13261  1226                     	goto	l2675
 13262  1226  2A2F               u3590:
 13263  1227                     	line	15
 13264                           	
 13265                           l2671:	
 13266  1227                     	comf	(___awdiv@divisor),f
 13267  1227  09F0               	comf	(___awdiv@divisor+1),f
 13268  1228  09F1               	incf	(___awdiv@divisor),f
 13269  1229  0AF0               	skipnz
 13270  122A  1903               	incf	(___awdiv@divisor+1),f
 13271  122B  0AF1               	line	16
 13272                           	
 13273                           l2673:	
 13274  122C                     	clrf	(___awdiv@sign)
 13275  122C  01F6               	incf	(___awdiv@sign),f
 13276  122D  0AF6               	goto	l2675
 13277  122E  2A2F               	line	17
 13278                           	
 13279                           l428:	
 13280  122F                     	line	18
 13281                           	
 13282                           l2675:	
 13283  122F                     	btfss	(___awdiv@dividend+1),7
 13284  122F  1FF3               	goto	u3601
 13285  1230  2A32               	goto	u3600
 13286  1231  2A33               u3601:
 13287  1232                     	goto	l2681
 13288  1232  2A3D               u3600:
 13289  1233                     	line	19
 13290                           	
 13291                           l2677:	
 13292  1233                     	comf	(___awdiv@dividend),f
 13293  1233  09F2               	comf	(___awdiv@dividend+1),f
 13294  1234  09F3               	incf	(___awdiv@dividend),f
 13295  1235  0AF2               	skipnz
 13296  1236  1903               	incf	(___awdiv@dividend+1),f
 13297  1237  0AF3               	line	20
 13298                           	
 13299                           l2679:	
 13300  1238                     	movlw	low(01h)
 13301  1238  3001               	movwf	(??___awdiv+0)+0
 13302  1239  00F4               	movf	(??___awdiv+0)+0,w
 13303  123A  0874               	xorwf	(___awdiv@sign),f
 13304  123B  06F6               	goto	l2681
 13305  123C  2A3D               	line	21
 13306                           	
 13307                           l429:	
 13308  123D                     	line	22
 13309                           	
 13310                           l2681:	
 13311  123D                     	clrf	(___awdiv@quotient)
 13312  123D  01F7               	clrf	(___awdiv@quotient+1)
 13313  123E  01F8               	line	23
 13314                           	
 13315                           l2683:	
 13316  123F                     	movf	((___awdiv@divisor)),w
 13317  123F  0870               iorwf	((___awdiv@divisor+1)),w
 13318  1240  0471               	btfsc	status,2
 13319  1241  1903               	goto	u3611
 13320  1242  2A44               	goto	u3610
 13321  1243  2A45               u3611:
 13322  1244                     	goto	l2703
 13323  1244  2A7A               u3610:
 13324  1245                     	line	24
 13325                           	
 13326                           l2685:	
 13327  1245                     	clrf	(___awdiv@counter)
 13328  1245  01F5               	incf	(___awdiv@counter),f
 13329  1246  0AF5               	line	25
 13330                           	goto	l2691
 13331  1247  2A52               	
 13332                           l432:	
 13333  1248                     	line	26
 13334                           	
 13335                           l2687:	
 13336  1248                     	movlw	01h
 13337  1248  3001               	
 13338                           u3625:
 13339  1249                     	lslf	(___awdiv@divisor),f
 13340  1249  35F0               	rlf	(___awdiv@divisor+1),f
 13341  124A  0DF1               	decfsz	wreg,f
 13342  124B  0B89               	goto	u3625
 13343  124C  2A49               	line	27
 13344                           	
 13345                           l2689:	
 13346  124D                     	movlw	low(01h)
 13347  124D  3001               	movwf	(??___awdiv+0)+0
 13348  124E  00F4               	movf	(??___awdiv+0)+0,w
 13349  124F  0874               	addwf	(___awdiv@counter),f
 13350  1250  07F5               	goto	l2691
 13351  1251  2A52               	line	28
 13352                           	
 13353                           l431:	
 13354  1252                     	line	25
 13355                           	
 13356                           l2691:	
 13357  1252                     	btfss	(___awdiv@divisor+1),(15)&7
 13358  1252  1FF1               	goto	u3631
 13359  1253  2A55               	goto	u3630
 13360  1254  2A56               u3631:
 13361  1255                     	goto	l2687
 13362  1255  2A48               u3630:
 13363  1256                     	goto	l2693
 13364  1256  2A58               	
 13365                           l433:	
 13366  1257                     	goto	l2693
 13367  1257  2A58               	line	29
 13368                           	
 13369                           l434:	
 13370  1258                     	line	30
 13371                           	
 13372                           l2693:	
 13373  1258                     	movlw	01h
 13374  1258  3001               	
 13375                           u3645:
 13376  1259                     	lslf	(___awdiv@quotient),f
 13377  1259  35F7               	rlf	(___awdiv@quotient+1),f
 13378  125A  0DF8               	decfsz	wreg,f
 13379  125B  0B89               	goto	u3645
 13380  125C  2A59               	line	31
 13381                           	movf	(___awdiv@divisor+1),w
 13382  125D  0871               	subwf	(___awdiv@dividend+1),w
 13383  125E  0273               	skipz
 13384  125F  1D03               	goto	u3655
 13385  1260  2A63               	movf	(___awdiv@divisor),w
 13386  1261  0870               	subwf	(___awdiv@dividend),w
 13387  1262  0272               u3655:
 13388  1263                     	skipc
 13389  1263  1C03               	goto	u3651
 13390  1264  2A66               	goto	u3650
 13391  1265  2A67               u3651:
 13392  1266                     	goto	l2699
 13393  1266  2A6D               u3650:
 13394  1267                     	line	32
 13395                           	
 13396                           l2695:	
 13397  1267                     	movf	(___awdiv@divisor),w
 13398  1267  0870               	subwf	(___awdiv@dividend),f
 13399  1268  02F2               	movf	(___awdiv@divisor+1),w
 13400  1269  0871               	subwfb	(___awdiv@dividend+1),f
 13401  126A  3BF3               	line	33
 13402                           	
 13403                           l2697:	
 13404  126B                     	bsf	(___awdiv@quotient)+(0/8),(0)&7
 13405  126B  1477               	goto	l2699
 13406  126C  2A6D               	line	34
 13407                           	
 13408                           l435:	
 13409  126D                     	line	35
 13410                           	
 13411                           l2699:	
 13412  126D                     	movlw	01h
 13413  126D  3001               	
 13414                           u3665:
 13415  126E                     	lsrf	(___awdiv@divisor+1),f
 13416  126E  36F1               	rrf	(___awdiv@divisor),f
 13417  126F  0CF0               	decfsz	wreg,f
 13418  1270  0B89               	goto	u3665
 13419  1271  2A6E               	line	36
 13420                           	
 13421                           l2701:	
 13422  1272                     	movlw	01h
 13423  1272  3001               	subwf	(___awdiv@counter),f
 13424  1273  02F5               	btfss	status,2
 13425  1274  1D03               	goto	u3671
 13426  1275  2A77               	goto	u3670
 13427  1276  2A78               u3671:
 13428  1277                     	goto	l2693
 13429  1277  2A58               u3670:
 13430  1278                     	goto	l2703
 13431  1278  2A7A               	
 13432                           l436:	
 13433  1279                     	goto	l2703
 13434  1279  2A7A               	line	37
 13435                           	
 13436                           l430:	
 13437  127A                     	line	38
 13438                           	
 13439                           l2703:	
 13440  127A                     	movf	((___awdiv@sign)),w
 13441  127A  0876               	btfsc	status,2
 13442  127B  1903               	goto	u3681
 13443  127C  2A7E               	goto	u3680
 13444  127D  2A7F               u3681:
 13445  127E                     	goto	l2707
 13446  127E  2A85               u3680:
 13447  127F                     	line	39
 13448                           	
 13449                           l2705:	
 13450  127F                     	comf	(___awdiv@quotient),f
 13451  127F  09F7               	comf	(___awdiv@quotient+1),f
 13452  1280  09F8               	incf	(___awdiv@quotient),f
 13453  1281  0AF7               	skipnz
 13454  1282  1903               	incf	(___awdiv@quotient+1),f
 13455  1283  0AF8               	goto	l2707
 13456  1284  2A85               	
 13457                           l437:	
 13458  1285                     	line	40
 13459                           	
 13460                           l2707:	
 13461  1285                     	movf	(___awdiv@quotient+1),w
 13462  1285  0878               	movwf	(?___awdiv+1)
 13463  1286  00F1               	movf	(___awdiv@quotient),w
 13464  1287  0877               	movwf	(?___awdiv)
 13465  1288  00F0               	goto	l438
 13466  1289  2A8A               	
 13467                           l2709:	
 13468  128A                     	line	41
 13469                           	
 13470                           l438:	
 13471  128A                     	return
 13472  128A  0008               	opt stack 0
 13473                           GLOBAL	__end_of___awdiv
 13474                           	__end_of___awdiv:
 13475  128B                     	signat	___awdiv,8314
 13476                           	global	_atoi
 13477                           
 13478 ;; *************** function _atoi *****************
 13479 ;; Defined at:
 13480 ;;		line 4 in file "C:\Program Files (x86)\Microchip\xc8\v2.00\pic\sources\c99\common\atoi.c"
 13481 ;; Parameters:    Size  Location     Type
 13482 ;;  s               2    6[COMMON] PTR const unsigned char 
 13483 ;;		 -> STR_1(22), 
 13484 ;; Auto vars:     Size  Location     Type
 13485 ;;  n               2    7[BANK0 ] int 
 13486 ;;  neg             2    0[BANK0 ] int 
 13487 ;; Return value:  Size  Location     Type
 13488 ;;                  2    6[COMMON] int 
 13489 ;; Registers used:
 13490 ;;		wreg, fsr0l, fsr0h, status,2, status,0, pclath, cstack
 13491 ;; Tracked objects:
 13492 ;;		On entry : 0/0
 13493 ;;		On exit  : 0/0
 13494 ;;		Unchanged: 0/0
 13495 ;; Data sizes:     COMMON   BANK0   BANK1   BANK2   BANK3   BANK4   BANK5   BANK6   BANK7   BANK8   BANK9  BANK10  BANK1
       1  BANK12
 13496 ;;      Params:         2       0       0       0       0       0       0       0       0       0       0       0       
       0       0
 13497 ;;      Locals:         0       9       0       0       0       0       0       0       0       0       0       0       
       0       0
 13498 ;;      Temps:          4       0       0       0       0       0       0       0       0       0       0       0       
       0       0
 13499 ;;      Totals:         6       9       0       0       0       0       0       0       0       0       0       0       
       0       0
 13500 ;;Total ram usage:       15 bytes
 13501 ;; Hardware stack levels used:    1
 13502 ;; Hardware stack levels required when called:    2
 13503 ;; This function calls:
 13504 ;;		___wmul
 13505 ;;		_isdigit
 13506 ;;		_isspace
 13507 ;; This function is called by:
 13508 ;;		_vfpfcnvrt
 13509 ;; This function uses a non-reentrant model
 13510 ;;
 13511                           psect	text27,local,class=CODE,delta=2,merge=1,group=2
 13512                           	file	"C:\Program Files (x86)\Microchip\xc8\v2.00\pic\sources\c99\common\atoi.c"
 13513                           	line	4
 13514                           global __ptext27
 13515                           __ptext27:	;psect for function _atoi
 13516  13BC                     psect	text27
 13517                           	file	"C:\Program Files (x86)\Microchip\xc8\v2.00\pic\sources\c99\common\atoi.c"
 13518                           	line	4
 13519                           	global	__size_of_atoi
 13520                           	__size_of_atoi	equ	__end_of_atoi-_atoi
 13521  00EA                     	
 13522                           _atoi:	
 13523  13BC                     ;incstack = 0
 13524                           	opt	stack 10
 13525                           ; Regs used in _atoi: [wreg-fsr0h+status,2+status,0+pclath+cstack]
 13526                           	line	6
 13527                           	
 13528                           l3421:	
 13529  13BC                     	movlb 0	; select bank0
 13530  13BC  0140               	clrf	(atoi@n)
 13531  13BD  01A7               	clrf	(atoi@n+1)
 13532  13BE  01A8               	clrf	(atoi@neg)
 13533  13BF  01A0               	clrf	(atoi@neg+1)
 13534  13C0  01A1               	line	7
 13535                           	goto	l3425
 13536  13C1  2BC7               	
 13537                           l735:	
 13538  13C2                     	
 13539                           l3423:	
 13540  13C2                     	movlw	01h
 13541  13C2  3001               	addwf	(atoi@s),f
 13542  13C3  07F6               	movlw	0
 13543  13C4  3000               	addwfc	(atoi@s+1),f
 13544  13C5  3DF7               	goto	l3425
 13545  13C6  2BC7               	
 13546                           l734:	
 13547  13C7                     	
 13548                           l3425:	
 13549  13C7                     	clrf	(_atoi$588)
 13550  13C7  01A6               	incf	(_atoi$588),f
 13551  13C8  0AA6               	
 13552                           l3427:	
 13553  13C9                     	movf	(atoi@s),w
 13554  13C9  0876               	movwf	fsr0l
 13555  13CA  0084               	movf	((atoi@s+1)),w
 13556  13CB  0877               	movwf	fsr0h
 13557  13CC  0085               	moviw	fsr0++
 13558  13CD  0012               xorlw	32
 13559  13CE  3A20               	btfsc	status,2
 13560  13CF  1903               	goto	u5061
 13561  13D0  2BD2               	goto	u5060
 13562  13D1  2BD3               u5061:
 13563  13D2                     	goto	l3433
 13564  13D2  2BE9               u5060:
 13565  13D3                     	
 13566                           l3429:	
 13567  13D3                     	movf	(atoi@s),w
 13568  13D3  0876               	movwf	fsr0l
 13569  13D4  0084               	movf	((atoi@s+1)),w
 13570  13D5  0877               	movwf	fsr0h
 13571  13D6  0085               	movf	indf0,w ;code access
 13572  13D7  0800               	addlw	low(0FFF7h)
 13573  13D8  3EF7               	movwf	(??_atoi+0)+0
 13574  13D9  00F8               	movlw	high(0FFF7h)
 13575  13DA  30FF               	skipnc
 13576  13DB  1803               	movlw	(high(0FFF7h)+1)&0ffh
 13577  13DC  3000               	movwf	((??_atoi+0)+0)+1
 13578  13DD  00F9               	movlw	0
 13579  13DE  3000               	subwf	1+(??_atoi+0)+0,w
 13580  13DF  0279               	movlw	05h
 13581  13E0  3005               	skipnz
 13582  13E1  1903               	subwf	0+(??_atoi+0)+0,w
 13583  13E2  0278               	skipc
 13584  13E3  1C03               	goto	u5071
 13585  13E4  2BE6               	goto	u5070
 13586  13E5  2BE7               u5071:
 13587  13E6                     	goto	l3433
 13588  13E6  2BE9               u5070:
 13589  13E7                     	
 13590                           l3431:	
 13591  13E7                     	clrf	(_atoi$588)
 13592  13E7  01A6               	goto	l3433
 13593  13E8  2BE9               	
 13594                           l741:	
 13595  13E9                     	
 13596                           l3433:	
 13597  13E9                     	movf	(_atoi$588),w
 13598  13E9  0826               	movwf	(??_atoi+0)+0
 13599  13EA  00F8               	clrf	(??_atoi+0)+0+1
 13600  13EB  01F9               	movf	0+(??_atoi+0)+0,w
 13601  13EC  0878               	movwf	(_atoi$587)
 13602  13ED  00A2               	movf	1+(??_atoi+0)+0,w
 13603  13EE  0879               	movwf	(_atoi$587+1)
 13604  13EF  00A3               	goto	l3437
 13605  13F0  2C05               	
 13606                           l737:	
 13607  13F1                     	
 13608                           l3435:	
 13609  13F1                     	movf	(atoi@s),w
 13610  13F1  0876               	movwf	fsr0l
 13611  13F2  0084               	movf	((atoi@s+1)),w
 13612  13F3  0877               	movwf	fsr0h
 13613  13F4  0085               	movf	indf0,w ;code access
 13614  13F5  0800               	movwf	(??_atoi+0)+0
 13615  13F6  00F8               	clrf	(??_atoi+0)+0+1
 13616  13F7  01F9               	movf	0+(??_atoi+0)+0,w
 13617  13F8  0878               	movwf	(isspace@c)
 13618  13F9  00F0               	movf	1+(??_atoi+0)+0,w
 13619  13FA  0879               	movwf	(isspace@c+1)
 13620  13FB  00F1               	fcall	_isspace
 13621  13FC  319E  266D  3193   	movf	(1+(?_isspace)),w
 13622  13FF  0871               	movlb 0	; select bank0
 13623  1400  0140               	movwf	(_atoi$587+1)
 13624  1401  00A3               	movf	(0+(?_isspace)),w
 13625  1402  0870               	movwf	(_atoi$587)
 13626  1403  00A2               	goto	l3437
 13627  1404  2C05               	
 13628                           l739:	
 13629  1405                     	
 13630                           l3437:	
 13631  1405                     	movf	((_atoi$587)),w
 13632  1405  0822               iorwf	((_atoi$587+1)),w
 13633  1406  0423               	btfss	status,2
 13634  1407  1D03               	goto	u5081
 13635  1408  2C0A               	goto	u5080
 13636  1409  2C0B               u5081:
 13637  140A                     	goto	l3423
 13638  140A  2BC2               u5080:
 13639  140B                     	goto	l3441
 13640  140B  2C17               	
 13641                           l742:	
 13642  140C                     	line	8
 13643                           	goto	l3441
 13644  140C  2C17               	line	9
 13645                           	
 13646                           l744:	
 13647  140D                     	
 13648                           l3439:	
 13649  140D                     	movlw	01h
 13650  140D  3001               	movlb 0	; select bank0
 13651  140E  0140               	movwf	(atoi@neg)
 13652  140F  00A0               	movlw	0
 13653  1410  3000               	movwf	((atoi@neg))+1
 13654  1411  00A1               	line	10
 13655                           	
 13656                           l745:	
 13657  1412                     	movlw	01h
 13658  1412  3001               	addwf	(atoi@s),f
 13659  1413  07F6               	movlw	0
 13660  1414  3000               	addwfc	(atoi@s+1),f
 13661  1415  3DF7               	line	11
 13662                           	goto	l3447
 13663  1416  2C54               	
 13664                           l743:	
 13665  1417                     	
 13666                           l3441:	
 13667  1417                     	movf	(atoi@s),w
 13668  1417  0876               	movwf	fsr0l
 13669  1418  0084               	movf	((atoi@s+1)),w
 13670  1419  0877               	movwf	fsr0h
 13671  141A  0085               	movf	indf0,w ;code access
 13672  141B  0800               	movwf	(??_atoi+0)+0
 13673  141C  00F8               	clrf	(??_atoi+0)+0+1
 13674  141D  01F9               	; Switch on 2 bytes has been partitioned into a top level switch of size 1, and 1 sub-s
                                 witches
 13675                           ; Switch size 1, requested type "space"
 13676                           ; Number of cases is 1, Range of values is 0 to 0
 13677                           ; switch strategies available:
 13678                           ; Name         Instructions Cycles
 13679                           ; simple_byte            4     3 (average)
 13680                           ; direct_byte            8     6 (fixed)
 13681                           ; jumptable            260     6 (fixed)
 13682                           ;	Chosen strategy is simple_byte
 13683                           
 13684                           	movf 1+(??_atoi+0)+0,w
 13685  141E  0879               	opt asmopt_push
 13686                           	opt asmopt_off
 13687                           	xorlw	0^0	; case 0
 13688  141F  3A00               	skipnz
 13689  1420  1903               	goto	l3765
 13690  1421  2C23               	goto	l3447
 13691  1422  2C54               	opt asmopt_pop
 13692                           	
 13693                           l3765:	
 13694  1423                     ; Switch size 1, requested type "space"
 13695                           ; Number of cases is 2, Range of values is 43 to 45
 13696                           ; switch strategies available:
 13697                           ; Name         Instructions Cycles
 13698                           ; simple_byte            7     4 (average)
 13699                           ; direct_byte           15     9 (fixed)
 13700                           ; jumptable            263     9 (fixed)
 13701                           ;	Chosen strategy is simple_byte
 13702                           
 13703                           	movf 0+(??_atoi+0)+0,w
 13704  1423  0878               	opt asmopt_push
 13705                           	opt asmopt_off
 13706                           	xorlw	43^0	; case 43
 13707  1424  3A2B               	skipnz
 13708  1425  1903               	goto	l745
 13709  1426  2C12               	xorlw	45^43	; case 45
 13710  1427  3A06               	skipnz
 13711  1428  1903               	goto	l3439
 13712  1429  2C0D               	goto	l3447
 13713  142A  2C54               	opt asmopt_pop
 13714                           
 13715                           	
 13716                           l746:	
 13717  142B                     	line	13
 13718                           	goto	l3447
 13719  142B  2C54               	
 13720                           l748:	
 13721  142C                     	line	14
 13722                           	
 13723                           l3443:	
 13724  142C                     	movf	(atoi@s),w
 13725  142C  0876               	movwf	fsr0l
 13726  142D  0084               	movf	((atoi@s+1)),w
 13727  142E  0877               	movwf	fsr0h
 13728  142F  0085               	movf	indf0,w ;code access
 13729  1430  0800               	addlw	low(0FFD0h)
 13730  1431  3ED0               	movwf	(??_atoi+0)+0
 13731  1432  00F8               	movlw	high(0FFD0h)
 13732  1433  30FF               	skipnc
 13733  1434  1803               	movlw	(high(0FFD0h)+1)&0ffh
 13734  1435  3000               	movwf	((??_atoi+0)+0)+1
 13735  1436  00F9               	comf	(??_atoi+0)+0,f
 13736  1437  09F8               	comf	(??_atoi+0)+1,f
 13737  1438  09F9               	incf	(??_atoi+0)+0,f
 13738  1439  0AF8               	skipnz
 13739  143A  1903               	incf	(??_atoi+0)+1,f
 13740  143B  0AF9               	movlb 0	; select bank0
 13741  143C  0140               	movf	(atoi@n+1),w
 13742  143D  0828               	movwf	(___wmul@multiplier+1)
 13743  143E  00F1               	movf	(atoi@n),w
 13744  143F  0827               	movwf	(___wmul@multiplier)
 13745  1440  00F0               	movlw	0Ah
 13746  1441  300A               	movwf	(___wmul@multiplicand)
 13747  1442  00F2               	movlw	0
 13748  1443  3000               	movwf	((___wmul@multiplicand))+1
 13749  1444  00F3               	fcall	___wmul
 13750  1445  3190  2000  3193   	movf	0+(??_atoi+0)+0,w
 13751  1448  0878               	addwf	(0+(?___wmul)),w
 13752  1449  0770               	movlb 0	; select bank0
 13753  144A  0140               	movwf	(atoi@n)
 13754  144B  00A7               	movf	1+(??_atoi+0)+0,w
 13755  144C  0879               	addwfc	(1+(?___wmul)),w
 13756  144D  3D71               	movwf	1+(atoi@n)
 13757  144E  00A8               	
 13758                           l3445:	
 13759  144F                     	movlw	01h
 13760  144F  3001               	addwf	(atoi@s),f
 13761  1450  07F6               	movlw	0
 13762  1451  3000               	addwfc	(atoi@s+1),f
 13763  1452  3DF7               	goto	l3447
 13764  1453  2C54               	
 13765                           l747:	
 13766  1454                     	line	13
 13767                           	
 13768                           l3447:	
 13769  1454                     	movf	(atoi@s),w
 13770  1454  0876               	movwf	fsr0l
 13771  1455  0084               	movf	((atoi@s+1)),w
 13772  1456  0877               	movwf	fsr0h
 13773  1457  0085               	movf	indf0,w ;code access
 13774  1458  0800               	addlw	low(0FFD0h)
 13775  1459  3ED0               	movwf	(??_atoi+0)+0
 13776  145A  00F8               	movlw	high(0FFD0h)
 13777  145B  30FF               	skipnc
 13778  145C  1803               	movlw	(high(0FFD0h)+1)&0ffh
 13779  145D  3000               	movwf	((??_atoi+0)+0)+1
 13780  145E  00F9               	movlw	0
 13781  145F  3000               	subwf	1+(??_atoi+0)+0,w
 13782  1460  0279               	movlw	0Ah
 13783  1461  300A               	skipnz
 13784  1462  1903               	subwf	0+(??_atoi+0)+0,w
 13785  1463  0278               	skipc
 13786  1464  1C03               	goto	u5091
 13787  1465  2C67               	goto	u5090
 13788  1466  2C69               u5091:
 13789  1467                     	movlw	1
 13790  1467  3001               	goto	u5100
 13791  1468  2C6A               u5090:
 13792  1469                     	movlw	0
 13793  1469  3000               u5100:
 13794  146A                     	movwf	(??_atoi+2)+0
 13795  146A  00FA               	clrf	(??_atoi+2)+0+1
 13796  146B  01FB               	movf	0+(??_atoi+2)+0,w
 13797  146C  087A               	movlb 0	; select bank0
 13798  146D  0140               	movwf	(_atoi$589)
 13799  146E  00A4               	movf	1+(??_atoi+2)+0,w
 13800  146F  087B               	movwf	(_atoi$589+1)
 13801  1470  00A5               	goto	l3451
 13802  1471  2C86               	
 13803                           l750:	
 13804  1472                     	
 13805                           l3449:	
 13806  1472                     	movf	(atoi@s),w
 13807  1472  0876               	movwf	fsr0l
 13808  1473  0084               	movf	((atoi@s+1)),w
 13809  1474  0877               	movwf	fsr0h
 13810  1475  0085               	movf	indf0,w ;code access
 13811  1476  0800               	movwf	(??_atoi+0)+0
 13812  1477  00F8               	clrf	(??_atoi+0)+0+1
 13813  1478  01F9               	movf	0+(??_atoi+0)+0,w
 13814  1479  0878               	movwf	(isdigit@c)
 13815  147A  00F0               	movf	1+(??_atoi+0)+0,w
 13816  147B  0879               	movwf	(isdigit@c+1)
 13817  147C  00F1               	fcall	_isdigit
 13818  147D  319E  2614  3193   	movf	(1+(?_isdigit)),w
 13819  1480  0871               	movlb 0	; select bank0
 13820  1481  0140               	movwf	(_atoi$589+1)
 13821  1482  00A5               	movf	(0+(?_isdigit)),w
 13822  1483  0870               	movwf	(_atoi$589)
 13823  1484  00A4               	goto	l3451
 13824  1485  2C86               	
 13825                           l752:	
 13826  1486                     	
 13827                           l3451:	
 13828  1486                     	movf	((_atoi$589)),w
 13829  1486  0824               iorwf	((_atoi$589+1)),w
 13830  1487  0425               	btfss	status,2
 13831  1488  1D03               	goto	u5111
 13832  1489  2C8B               	goto	u5110
 13833  148A  2C8C               u5111:
 13834  148B                     	goto	l3443
 13835  148B  2C2C               u5110:
 13836  148C                     	goto	l3453
 13837  148C  2C8D               	
 13838                           l753:	
 13839  148D                     	line	15
 13840                           	
 13841                           l3453:	
 13842  148D                     	movf	((atoi@neg)),w
 13843  148D  0820               iorwf	((atoi@neg+1)),w
 13844  148E  0421               	btfss	status,2
 13845  148F  1D03               	goto	u5121
 13846  1490  2C92               	goto	u5120
 13847  1491  2C93               u5121:
 13848  1492                     	goto	l3457
 13849  1492  2C9F               u5120:
 13850  1493                     	
 13851                           l3455:	
 13852  1493                     	comf	(atoi@n),w
 13853  1493  0927               	movwf	(??_atoi+0)+0
 13854  1494  00F8               	comf	(atoi@n+1),w
 13855  1495  0928               	movwf	((??_atoi+0)+0+1)
 13856  1496  00F9               	incf	(??_atoi+0)+0,f
 13857  1497  0AF8               	skipnz
 13858  1498  1903               	incf	((??_atoi+0)+0+1),f
 13859  1499  0AF9               	movf	0+(??_atoi+0)+0,w
 13860  149A  0878               	movwf	(?_atoi)
 13861  149B  00F6               	movf	1+(??_atoi+0)+0,w
 13862  149C  0879               	movwf	(?_atoi+1)
 13863  149D  00F7               	goto	l758
 13864  149E  2CA5               	
 13865                           l755:	
 13866  149F                     	
 13867                           l3457:	
 13868  149F                     	movf	(atoi@n+1),w
 13869  149F  0828               	movwf	(?_atoi+1)
 13870  14A0  00F7               	movf	(atoi@n),w
 13871  14A1  0827               	movwf	(?_atoi)
 13872  14A2  00F6               	goto	l758
 13873  14A3  2CA5               	
 13874                           l757:	
 13875  14A4                     	goto	l758
 13876  14A4  2CA5               	
 13877                           l3459:	
 13878  14A5                     	line	16
 13879                           	
 13880                           l758:	
 13881  14A5                     	return
 13882  14A5  0008               	opt stack 0
 13883                           GLOBAL	__end_of_atoi
 13884                           	__end_of_atoi:
 13885  14A6                     	signat	_atoi,4218
 13886                           	global	_isspace
 13887                           
 13888 ;; *************** function _isspace *****************
 13889 ;; Defined at:
 13890 ;;		line 5 in file "C:\Program Files (x86)\Microchip\xc8\v2.00\pic\sources\c99\common\isspace.c"
 13891 ;; Parameters:    Size  Location     Type
 13892 ;;  c               2    0[COMMON] int 
 13893 ;; Auto vars:     Size  Location     Type
 13894 ;;		None
 13895 ;; Return value:  Size  Location     Type
 13896 ;;                  2    0[COMMON] int 
 13897 ;; Registers used:
 13898 ;;		wreg, status,2, status,0
 13899 ;; Tracked objects:
 13900 ;;		On entry : 0/0
 13901 ;;		On exit  : 0/0
 13902 ;;		Unchanged: 0/0
 13903 ;; Data sizes:     COMMON   BANK0   BANK1   BANK2   BANK3   BANK4   BANK5   BANK6   BANK7   BANK8   BANK9  BANK10  BANK1
       1  BANK12
 13904 ;;      Params:         2       0       0       0       0       0       0       0       0       0       0       0       
       0       0
 13905 ;;      Locals:         1       0       0       0       0       0       0       0       0       0       0       0       
       0       0
 13906 ;;      Temps:          2       0       0       0       0       0       0       0       0       0       0       0       
       0       0
 13907 ;;      Totals:         5       0       0       0       0       0       0       0       0       0       0       0       
       0       0
 13908 ;;Total ram usage:        5 bytes
 13909 ;; Hardware stack levels used:    1
 13910 ;; Hardware stack levels required when called:    1
 13911 ;; This function calls:
 13912 ;;		Nothing
 13913 ;; This function is called by:
 13914 ;;		_atoi
 13915 ;; This function uses a non-reentrant model
 13916 ;;
 13917                           psect	text28,local,class=CODE,delta=2,merge=1,group=2
 13918                           	file	"C:\Program Files (x86)\Microchip\xc8\v2.00\pic\sources\c99\common\isspace.c"
 13919                           	line	5
 13920                           global __ptext28
 13921                           __ptext28:	;psect for function _isspace
 13922  1E6D                     psect	text28
 13923                           	file	"C:\Program Files (x86)\Microchip\xc8\v2.00\pic\sources\c99\common\isspace.c"
 13924                           	line	5
 13925                           	global	__size_of_isspace
 13926                           	__size_of_isspace	equ	__end_of_isspace-_isspace
 13927  0023                     	
 13928                           _isspace:	
 13929  1E6D                     ;incstack = 0
 13930                           	opt	stack 10
 13931                           ; Regs used in _isspace: [wreg+status,2+status,0]
 13932                           	line	7
 13933                           	
 13934                           l3117:	
 13935  1E6D                     	clrf	(_isspace$618)
 13936  1E6D  01F4               	incf	(_isspace$618),f
 13937  1E6E  0AF4               	
 13938                           l3119:	
 13939  1E6F                     		movlw	32
 13940  1E6F  3020               	xorwf	((isspace@c)),w
 13941  1E70  0670               iorwf	((isspace@c+1)),w
 13942  1E71  0471               	btfsc	status,2
 13943  1E72  1903               	goto	u4521
 13944  1E73  2E75               	goto	u4520
 13945  1E74  2E76               u4521:
 13946  1E75                     	goto	l3125
 13947  1E75  2E87               u4520:
 13948  1E76                     	
 13949                           l3121:	
 13950  1E76                     	movf	(isspace@c),w
 13951  1E76  0870               	addlw	0F7h
 13952  1E77  3EF7               	movwf	(??_isspace+0)+0
 13953  1E78  00F2               	movlw	0FFh
 13954  1E79  30FF               	addwfc	(isspace@c+1),w
 13955  1E7A  3D71               	movwf	1+(??_isspace+0)+0
 13956  1E7B  00F3               	movlw	0
 13957  1E7C  3000               	subwf	1+(??_isspace+0)+0,w
 13958  1E7D  0273               	movlw	05h
 13959  1E7E  3005               	skipnz
 13960  1E7F  1903               	subwf	0+(??_isspace+0)+0,w
 13961  1E80  0272               	skipc
 13962  1E81  1C03               	goto	u4531
 13963  1E82  2E84               	goto	u4530
 13964  1E83  2E85               u4531:
 13965  1E84                     	goto	l3125
 13966  1E84  2E87               u4530:
 13967  1E85                     	
 13968                           l3123:	
 13969  1E85                     	clrf	(_isspace$618)
 13970  1E85  01F4               	goto	l3125
 13971  1E86  2E87               	
 13972                           l781:	
 13973  1E87                     	
 13974                           l3125:	
 13975  1E87                     	movf	(_isspace$618),w
 13976  1E87  0874               	movwf	(??_isspace+0)+0
 13977  1E88  00F2               	clrf	(??_isspace+0)+0+1
 13978  1E89  01F3               	movf	0+(??_isspace+0)+0,w
 13979  1E8A  0872               	movwf	(?_isspace)
 13980  1E8B  00F0               	movf	1+(??_isspace+0)+0,w
 13981  1E8C  0873               	movwf	(?_isspace+1)
 13982  1E8D  00F1               	goto	l782
 13983  1E8E  2E8F               	
 13984                           l3127:	
 13985  1E8F                     	line	8
 13986                           	
 13987                           l782:	
 13988  1E8F                     	return
 13989  1E8F  0008               	opt stack 0
 13990                           GLOBAL	__end_of_isspace
 13991                           	__end_of_isspace:
 13992  1E90                     	signat	_isspace,4218
 13993                           	global	_isdigit
 13994                           
 13995 ;; *************** function _isdigit *****************
 13996 ;; Defined at:
 13997 ;;		line 5 in file "C:\Program Files (x86)\Microchip\xc8\v2.00\pic\sources\c99\common\isdigit.c"
 13998 ;; Parameters:    Size  Location     Type
 13999 ;;  c               2    0[COMMON] int 
 14000 ;; Auto vars:     Size  Location     Type
 14001 ;;		None
 14002 ;; Return value:  Size  Location     Type
 14003 ;;                  2    0[COMMON] int 
 14004 ;; Registers used:
 14005 ;;		wreg, status,2, status,0
 14006 ;; Tracked objects:
 14007 ;;		On entry : 0/0
 14008 ;;		On exit  : 0/0
 14009 ;;		Unchanged: 0/0
 14010 ;; Data sizes:     COMMON   BANK0   BANK1   BANK2   BANK3   BANK4   BANK5   BANK6   BANK7   BANK8   BANK9  BANK10  BANK1
       1  BANK12
 14011 ;;      Params:         2       0       0       0       0       0       0       0       0       0       0       0       
       0       0
 14012 ;;      Locals:         0       0       0       0       0       0       0       0       0       0       0       0       
       0       0
 14013 ;;      Temps:          4       0       0       0       0       0       0       0       0       0       0       0       
       0       0
 14014 ;;      Totals:         6       0       0       0       0       0       0       0       0       0       0       0       
       0       0
 14015 ;;Total ram usage:        6 bytes
 14016 ;; Hardware stack levels used:    1
 14017 ;; Hardware stack levels required when called:    1
 14018 ;; This function calls:
 14019 ;;		Nothing
 14020 ;; This function is called by:
 14021 ;;		_vfpfcnvrt
 14022 ;;		_atoi
 14023 ;; This function uses a non-reentrant model
 14024 ;;
 14025                           psect	text29,local,class=CODE,delta=2,merge=1,group=2
 14026                           	file	"C:\Program Files (x86)\Microchip\xc8\v2.00\pic\sources\c99\common\isdigit.c"
 14027                           	line	5
 14028                           global __ptext29
 14029                           __ptext29:	;psect for function _isdigit
 14030  1E14                     psect	text29
 14031                           	file	"C:\Program Files (x86)\Microchip\xc8\v2.00\pic\sources\c99\common\isdigit.c"
 14032                           	line	5
 14033                           	global	__size_of_isdigit
 14034                           	__size_of_isdigit	equ	__end_of_isdigit-_isdigit
 14035  0019                     	
 14036                           _isdigit:	
 14037  1E14                     ;incstack = 0
 14038                           	opt	stack 11
 14039                           ; Regs used in _isdigit: [wreg+status,2+status,0]
 14040                           	line	7
 14041                           	
 14042                           l2649:	
 14043  1E14                     	movf	(isdigit@c),w
 14044  1E14  0870               	addlw	0D0h
 14045  1E15  3ED0               	movwf	(??_isdigit+0)+0
 14046  1E16  00F2               	movlw	0FFh
 14047  1E17  30FF               	addwfc	(isdigit@c+1),w
 14048  1E18  3D71               	movwf	1+(??_isdigit+0)+0
 14049  1E19  00F3               	movlw	0
 14050  1E1A  3000               	subwf	1+(??_isdigit+0)+0,w
 14051  1E1B  0273               	movlw	0Ah
 14052  1E1C  300A               	skipnz
 14053  1E1D  1903               	subwf	0+(??_isdigit+0)+0,w
 14054  1E1E  0272               	skipc
 14055  1E1F  1C03               	goto	u3531
 14056  1E20  2E22               	goto	u3530
 14057  1E21  2E24               u3531:
 14058  1E22                     	movlw	1
 14059  1E22  3001               	goto	u3540
 14060  1E23  2E25               u3530:
 14061  1E24                     	movlw	0
 14062  1E24  3000               u3540:
 14063  1E25                     	movwf	(??_isdigit+2)+0
 14064  1E25  00F4               	clrf	(??_isdigit+2)+0+1
 14065  1E26  01F5               	movf	0+(??_isdigit+2)+0,w
 14066  1E27  0874               	movwf	(?_isdigit)
 14067  1E28  00F0               	movf	1+(??_isdigit+2)+0,w
 14068  1E29  0875               	movwf	(?_isdigit+1)
 14069  1E2A  00F1               	goto	l774
 14070  1E2B  2E2C               	
 14071                           l2651:	
 14072  1E2C                     	line	8
 14073                           	
 14074                           l774:	
 14075  1E2C                     	return
 14076  1E2C  0008               	opt stack 0
 14077                           GLOBAL	__end_of_isdigit
 14078                           	__end_of_isdigit:
 14079  1E2D                     	signat	_isdigit,4218
 14080                           	global	___wmul
 14081                           
 14082 ;; *************** function ___wmul *****************
 14083 ;; Defined at:
 14084 ;;		line 15 in file "C:\Program Files (x86)\Microchip\xc8\v2.00\pic\sources\c99\common\Umul16.c"
 14085 ;; Parameters:    Size  Location     Type
 14086 ;;  multiplier      2    0[COMMON] unsigned int 
 14087 ;;  multiplicand    2    2[COMMON] unsigned int 
 14088 ;; Auto vars:     Size  Location     Type
 14089 ;;  product         2    4[COMMON] unsigned int 
 14090 ;; Return value:  Size  Location     Type
 14091 ;;                  2    0[COMMON] unsigned int 
 14092 ;; Registers used:
 14093 ;;		wreg, status,2, status,0
 14094 ;; Tracked objects:
 14095 ;;		On entry : 0/0
 14096 ;;		On exit  : 0/0
 14097 ;;		Unchanged: 0/0
 14098 ;; Data sizes:     COMMON   BANK0   BANK1   BANK2   BANK3   BANK4   BANK5   BANK6   BANK7   BANK8   BANK9  BANK10  BANK1
       1  BANK12
 14099 ;;      Params:         4       0       0       0       0       0       0       0       0       0       0       0       
       0       0
 14100 ;;      Locals:         2       0       0       0       0       0       0       0       0       0       0       0       
       0       0
 14101 ;;      Temps:          0       0       0       0       0       0       0       0       0       0       0       0       
       0       0
 14102 ;;      Totals:         6       0       0       0       0       0       0       0       0       0       0       0       
       0       0
 14103 ;;Total ram usage:        6 bytes
 14104 ;; Hardware stack levels used:    1
 14105 ;; Hardware stack levels required when called:    1
 14106 ;; This function calls:
 14107 ;;		Nothing
 14108 ;; This function is called by:
 14109 ;;		_atoi
 14110 ;; This function uses a non-reentrant model
 14111 ;;
 14112                           psect	text30,local,class=CODE,delta=2,merge=1,group=1
 14113                           	file	"C:\Program Files (x86)\Microchip\xc8\v2.00\pic\sources\c99\common\Umul16.c"
 14114                           	line	15
 14115                           global __ptext30
 14116                           __ptext30:	;psect for function ___wmul
 14117  1000                     psect	text30
 14118                           	file	"C:\Program Files (x86)\Microchip\xc8\v2.00\pic\sources\c99\common\Umul16.c"
 14119                           	line	15
 14120                           	global	__size_of___wmul
 14121                           	__size_of___wmul	equ	__end_of___wmul-___wmul
 14122  0022                     	
 14123                           ___wmul:	
 14124  1000                     ;incstack = 0
 14125                           	opt	stack 10
 14126                           ; Regs used in ___wmul: [wreg+status,2+status,0]
 14127                           	line	43
 14128                           	
 14129                           l2653:	
 14130  1000                     	clrf	(___wmul@product)
 14131  1000  01F4               	clrf	(___wmul@product+1)
 14132  1001  01F5               	goto	l2655
 14133  1002  2803               	line	44
 14134                           	
 14135                           l284:	
 14136  1003                     	line	45
 14137                           	
 14138                           l2655:	
 14139  1003                     	btfss	(___wmul@multiplier),(0)&7
 14140  1003  1C70               	goto	u3551
 14141  1004  2806               	goto	u3550
 14142  1005  2807               u3551:
 14143  1006                     	goto	l285
 14144  1006  280B               u3550:
 14145  1007                     	line	46
 14146                           	
 14147                           l2657:	
 14148  1007                     	movf	(___wmul@multiplicand),w
 14149  1007  0872               	addwf	(___wmul@product),f
 14150  1008  07F4               	movf	(___wmul@multiplicand+1),w
 14151  1009  0873               	addwfc	(___wmul@product+1),f
 14152  100A  3DF5               	
 14153                           l285:	
 14154  100B                     	line	47
 14155                           	movlw	01h
 14156  100B  3001               	
 14157                           u3565:
 14158  100C                     	lslf	(___wmul@multiplicand),f
 14159  100C  35F2               	rlf	(___wmul@multiplicand+1),f
 14160  100D  0DF3               	decfsz	wreg,f
 14161  100E  0B89               	goto	u3565
 14162  100F  280C               	line	48
 14163                           	
 14164                           l2659:	
 14165  1010                     	movlw	01h
 14166  1010  3001               	
 14167                           u3575:
 14168  1011                     	lsrf	(___wmul@multiplier+1),f
 14169  1011  36F1               	rrf	(___wmul@multiplier),f
 14170  1012  0CF0               	decfsz	wreg,f
 14171  1013  0B89               	goto	u3575
 14172  1014  2811               	line	49
 14173                           	
 14174                           l2661:	
 14175  1015                     	movf	((___wmul@multiplier)),w
 14176  1015  0870               iorwf	((___wmul@multiplier+1)),w
 14177  1016  0471               	btfss	status,2
 14178  1017  1D03               	goto	u3581
 14179  1018  281A               	goto	u3580
 14180  1019  281B               u3581:
 14181  101A                     	goto	l2655
 14182  101A  2803               u3580:
 14183  101B                     	goto	l2663
 14184  101B  281C               	
 14185                           l286:	
 14186  101C                     	line	52
 14187                           	
 14188                           l2663:	
 14189  101C                     	movf	(___wmul@product+1),w
 14190  101C  0875               	movwf	(?___wmul+1)
 14191  101D  00F1               	movf	(___wmul@product),w
 14192  101E  0874               	movwf	(?___wmul)
 14193  101F  00F0               	goto	l287
 14194  1020  2821               	
 14195                           l2665:	
 14196  1021                     	line	53
 14197                           	
 14198                           l287:	
 14199  1021                     	return
 14200  1021  0008               	opt stack 0
 14201                           GLOBAL	__end_of___wmul
 14202                           	__end_of___wmul:
 14203  1022                     	signat	___wmul,8314
 14204                           	global	_initialize
 14205                           
 14206 ;; *************** function _initialize *****************
 14207 ;; Defined at:
 14208 ;;		line 88 in file "main.c"
 14209 ;; Parameters:    Size  Location     Type
 14210 ;;		None
 14211 ;; Auto vars:     Size  Location     Type
 14212 ;;		None
 14213 ;; Return value:  Size  Location     Type
 14214 ;;                  1    wreg      void 
 14215 ;; Registers used:
 14216 ;;		wreg, status,2
 14217 ;; Tracked objects:
 14218 ;;		On entry : 0/0
 14219 ;;		On exit  : 0/0
 14220 ;;		Unchanged: 0/0
 14221 ;; Data sizes:     COMMON   BANK0   BANK1   BANK2   BANK3   BANK4   BANK5   BANK6   BANK7   BANK8   BANK9  BANK10  BANK1
       1  BANK12
 14222 ;;      Params:         0       0       0       0       0       0       0       0       0       0       0       0       
       0       0
 14223 ;;      Locals:         0       0       0       0       0       0       0       0       0       0       0       0       
       0       0
 14224 ;;      Temps:          0       0       0       0       0       0       0       0       0       0       0       0       
       0       0
 14225 ;;      Totals:         0       0       0       0       0       0       0       0       0       0       0       0       
       0       0
 14226 ;;Total ram usage:        0 bytes
 14227 ;; Hardware stack levels used:    1
 14228 ;; Hardware stack levels required when called:    1
 14229 ;; This function calls:
 14230 ;;		Nothing
 14231 ;; This function is called by:
 14232 ;;		_main
 14233 ;; This function uses a non-reentrant model
 14234 ;;
 14235                           psect	text31,local,class=CODE,delta=2,merge=1,group=0
 14236                           	file	"main.c"
 14237                           	line	88
 14238                           global __ptext31
 14239                           __ptext31:	;psect for function _initialize
 14240  1F96                     psect	text31
 14241                           	file	"main.c"
 14242                           	line	88
 14243                           	global	__size_of_initialize
 14244                           	__size_of_initialize	equ	__end_of_initialize-_initialize
 14245  0035                     	
 14246                           _initialize:	
 14247  1F96                     ;incstack = 0
 14248                           	opt	stack 14
 14249                           ; Regs used in _initialize: [wreg+status,2]
 14250                           	line	90
 14251                           	
 14252                           l3647:	
 14253  1F96                     ;main.c: 90:     OSCFRQ = 0b00000010;
 14254                           	movlw	low(02h)
 14255  1F96  3002               	movlb 17	; select bank17
 14256  1F97  0151               	movwf	(2195)^0880h	;volatile
 14257  1F98  0093               	line	91
 14258                           ;main.c: 91:     OSCCON1 = 0b01100000;
 14259                           	movlw	low(060h)
 14260  1F99  3060               	movwf	(2189)^0880h	;volatile
 14261  1F9A  008D               	line	92
 14262                           ;main.c: 92:     while(!OSCCON3bits.ORDY);
 14263                           	goto	l83
 14264  1F9B  2F9C               	
 14265                           l84:	
 14266  1F9C                     	
 14267                           l83:	
 14268  1F9C                     	btfss	(2191)^0880h,4	;volatile
 14269  1F9C  1E0F               	goto	u5401
 14270  1F9D  2F9F               	goto	u5400
 14271  1F9E  2FA0               u5401:
 14272  1F9F                     	goto	l83
 14273  1F9F  2F9C               u5400:
 14274  1FA0                     	goto	l3649
 14275  1FA0  2FA1               	
 14276                           l85:	
 14277  1FA1                     	line	95
 14278                           	
 14279                           l3649:	
 14280  1FA1                     ;main.c: 95:     RC4PPS = 0x0F;
 14281                           	movlw	low(0Fh)
 14282  1FA1  300F               	movlb 62	; select bank62
 14283  1FA2  017E               	movwf	(7972)^01F00h	;volatile
 14284  1FA3  00A4               	line	98
 14285                           	
 14286                           l3651:	
 14287  1FA4                     ;main.c: 98:     ANSELA = 0;
 14288                           	clrf	(7992)^01F00h	;volatile
 14289  1FA4  01B8               	line	99
 14290                           	
 14291                           l3653:	
 14292  1FA5                     ;main.c: 99:     ANSELC = 0;
 14293                           	clrf	(8014)^01F00h	;volatile
 14294  1FA5  01CE               	line	102
 14295                           	
 14296                           l3655:	
 14297  1FA6                     ;main.c: 102:     TRISA = 0;
 14298                           	movlb 0	; select bank0
 14299  1FA6  0140               	clrf	(18)	;volatile
 14300  1FA7  0192               	line	103
 14301                           	
 14302                           l3657:	
 14303  1FA8                     ;main.c: 103:     TRISC = 0b00100000;
 14304                           	movlw	low(020h)
 14305  1FA8  3020               	movwf	(20)	;volatile
 14306  1FA9  0094               	line	106
 14307                           	
 14308                           l3659:	
 14309  1FAA                     ;main.c: 106:     T0CON0 = 0b10000000;
 14310                           	movlw	low(080h)
 14311  1FAA  3080               	movlb 11	; select bank11
 14312  1FAB  014B               	movwf	(1438)^0580h	;volatile
 14313  1FAC  009E               	line	107
 14314                           	
 14315                           l3661:	
 14316  1FAD                     ;main.c: 107:     T0CON1 = 0b01000111;
 14317                           	movlw	low(047h)
 14318  1FAD  3047               	movwf	(1439)^0580h	;volatile
 14319  1FAE  009F               	line	108
 14320                           	
 14321                           l3663:	
 14322  1FAF                     ;main.c: 108:     TMR0 = 178;
 14323                           	movlw	low(0B2h)
 14324  1FAF  30B2               	movwf	(1436)^0580h	;volatile
 14325  1FB0  009C               	line	111
 14326                           	
 14327                           l3665:	
 14328  1FB1                     ;main.c: 111:     T1CON = 0b00110011;
 14329                           	movlw	low(033h)
 14330  1FB1  3033               	movlb 4	; select bank4
 14331  1FB2  0144               	movwf	(526)^0200h	;volatile
 14332  1FB3  008E               	line	112
 14333                           	
 14334                           l3667:	
 14335  1FB4                     ;main.c: 112:     T1CLK = 0b00000001;
 14336                           	movlw	low(01h)
 14337  1FB4  3001               	movwf	(529)^0200h	;volatile
 14338  1FB5  0091               	line	113
 14339                           	
 14340                           l3669:	
 14341  1FB6                     ;main.c: 113:     TMR1 = 53035;
 14342                           	movlw	0CFh
 14343  1FB6  30CF               	movwf	(524+1)^0200h	;volatile
 14344  1FB7  008D               	movlw	02Bh
 14345  1FB8  302B               	movwf	(524)^0200h	;volatile
 14346  1FB9  008C               	line	116
 14347                           	
 14348                           l3671:	
 14349  1FBA                     ;main.c: 116:     PIE0 = 0b00110000;
 14350                           	movlw	low(030h)
 14351  1FBA  3030               	movlb 14	; select bank14
 14352  1FBB  014E               	movwf	(1814)^0700h	;volatile
 14353  1FBC  0096               	line	117
 14354                           	
 14355                           l3673:	
 14356  1FBD                     ;main.c: 117:     PIE3 = 0b00100000;
 14357                           	movlw	low(020h)
 14358  1FBD  3020               	movwf	(1817)^0700h	;volatile
 14359  1FBE  0099               	line	118
 14360                           	
 14361                           l3675:	
 14362  1FBF                     ;main.c: 118:     PIE4 = 0b00000001;
 14363                           	movlw	low(01h)
 14364  1FBF  3001               	movwf	(1818)^0700h	;volatile
 14365  1FC0  009A               	line	123
 14366                           	
 14367                           l3677:	
 14368  1FC1                     ;main.c: 123:     BAUD1CON = 0b00001000;
 14369                           	movlw	low(08h)
 14370  1FC1  3008               	movlb 2	; select bank2
 14371  1FC2  0142               	movwf	(287)^0100h	;volatile
 14372  1FC3  009F               	line	124
 14373                           	
 14374                           l3679:	
 14375  1FC4                     ;main.c: 124:     SPBRGL = 25;
 14376                           	movlw	low(019h)
 14377  1FC4  3019               	movwf	(283)^0100h	;volatile
 14378  1FC5  009B               	line	125
 14379                           	
 14380                           l3681:	
 14381  1FC6                     ;main.c: 125:     RC1STA = 0b10010000;
 14382                           	movlw	low(090h)
 14383  1FC6  3090               	movwf	(285)^0100h	;volatile
 14384  1FC7  009D               	line	126
 14385                           	
 14386                           l3683:	
 14387  1FC8                     ;main.c: 126:     TX1STA = 0b00100000;
 14388                           	movlw	low(020h)
 14389  1FC8  3020               	movwf	(286)^0100h	;volatile
 14390  1FC9  009E               	line	127
 14391                           	
 14392                           l86:	
 14393  1FCA                     	return
 14394  1FCA  0008               	opt stack 0
 14395                           GLOBAL	__end_of_initialize
 14396                           	__end_of_initialize:
 14397  1FCB                     	signat	_initialize,89
 14398                           	global	_eusartTransmit
 14399                           
 14400 ;; *************** function _eusartTransmit *****************
 14401 ;; Defined at:
 14402 ;;		line 74 in file "main.c"
 14403 ;; Parameters:    Size  Location     Type
 14404 ;;  s               1    wreg     PTR unsigned char 
 14405 ;;		 -> main@s(20), 
 14406 ;; Auto vars:     Size  Location     Type
 14407 ;;  s               1    1[COMMON] PTR unsigned char 
 14408 ;;		 -> main@s(20), 
 14409 ;; Return value:  Size  Location     Type
 14410 ;;                  1    wreg      void 
 14411 ;; Registers used:
 14412 ;;		wreg, fsr1l, fsr1h, status,2, status,0
 14413 ;; Tracked objects:
 14414 ;;		On entry : 0/0
 14415 ;;		On exit  : 0/0
 14416 ;;		Unchanged: 0/0
 14417 ;; Data sizes:     COMMON   BANK0   BANK1   BANK2   BANK3   BANK4   BANK5   BANK6   BANK7   BANK8   BANK9  BANK10  BANK1
       1  BANK12
 14418 ;;      Params:         0       0       0       0       0       0       0       0       0       0       0       0       
       0       0
 14419 ;;      Locals:         1       0       0       0       0       0       0       0       0       0       0       0       
       0       0
 14420 ;;      Temps:          1       0       0       0       0       0       0       0       0       0       0       0       
       0       0
 14421 ;;      Totals:         2       0       0       0       0       0       0       0       0       0       0       0       
       0       0
 14422 ;;Total ram usage:        2 bytes
 14423 ;; Hardware stack levels used:    1
 14424 ;; Hardware stack levels required when called:    1
 14425 ;; This function calls:
 14426 ;;		Nothing
 14427 ;; This function is called by:
 14428 ;;		_main
 14429 ;; This function uses a non-reentrant model
 14430 ;;
 14431                           psect	text32,local,class=CODE,delta=2,merge=1,group=0
 14432                           	line	74
 14433                           global __ptext32
 14434                           __ptext32:	;psect for function _eusartTransmit
 14435  1E2D                     psect	text32
 14436                           	file	"main.c"
 14437                           	line	74
 14438                           	global	__size_of_eusartTransmit
 14439                           	__size_of_eusartTransmit	equ	__end_of_eusartTransmit-_eusartTransmit
 14440  001F                     	
 14441                           _eusartTransmit:	
 14442  1E2D                     ;incstack = 0
 14443                           	opt	stack 14
 14444                           ; Regs used in _eusartTransmit: [wreg+fsr1l+fsr1h+status,2+status,0]
 14445                           ;eusartTransmit@s stored from wreg
 14446                           	movwf	(eusartTransmit@s)
 14447  1E2D  00F1               	line	76
 14448                           ;main.c: 74: void eusartTransmit(char *s);main.c: 75: {;main.c: 76:     do
 14449                           	
 14450                           l75:	
 14451  1E2E                     	line	78
 14452                           	
 14453                           l3697:	
 14454  1E2E                     ;main.c: 77:     {;main.c: 78:         TX1REG = *s++;
 14455                           	movf	(eusartTransmit@s),w
 14456  1E2E  0871               	movwf	fsr1l
 14457  1E2F  0086               	movlw 1	; select bank2/3
 14458  1E30  3001               	movwf fsr1h	
 14459  1E31  0087               	
 14460                           	movf	indf1,w
 14461  1E32  0801               	movlb 2	; select bank2
 14462  1E33  0142               	movwf	(282)^0100h	;volatile
 14463  1E34  009A               	
 14464                           l3699:	
 14465  1E35                     	movlw	low(01h)
 14466  1E35  3001               	movwf	(??_eusartTransmit+0)+0
 14467  1E36  00F0               	movf	(??_eusartTransmit+0)+0,w
 14468  1E37  0870               	addwf	(eusartTransmit@s),f
 14469  1E38  07F1               	line	79
 14470                           	
 14471                           l3701:	
 14472  1E39                     ;main.c: 79:         __nop();
 14473                           	opt	asmopt_push
 14474                           	opt	asmopt_off
 14475                           	nop
 14476  1E39  0000               	opt	asmopt_pop
 14477                           	line	80
 14478                           ;main.c: 80:         while(!PIR3bits.TX1IF);
 14479                           	goto	l76
 14480  1E3A  2E3B               	
 14481                           l77:	
 14482  1E3B                     	
 14483                           l76:	
 14484  1E3B                     	movlb 14	; select bank14
 14485  1E3B  014E               	btfss	(1807)^0700h,4	;volatile
 14486  1E3C  1E0F               	goto	u5411
 14487  1E3D  2E3F               	goto	u5410
 14488  1E3E  2E40               u5411:
 14489  1E3F                     	goto	l76
 14490  1E3F  2E3B               u5410:
 14491  1E40                     	goto	l3703
 14492  1E40  2E41               	
 14493                           l78:	
 14494  1E41                     	line	81
 14495                           	
 14496                           l3703:	
 14497  1E41                     ;main.c: 81:     } while(*s != (char)((void*)0));
 14498                           	movf	(eusartTransmit@s),w
 14499  1E41  0871               	movwf	fsr1l
 14500  1E42  0086               	movlw 1	; select bank2/3
 14501  1E43  3001               	movwf fsr1h	
 14502  1E44  0087               	
 14503                           	movf	(indf1),w
 14504  1E45  0801               	btfss	status,2
 14505  1E46  1D03               	goto	u5421
 14506  1E47  2E49               	goto	u5420
 14507  1E48  2E4A               u5421:
 14508  1E49                     	goto	l75
 14509  1E49  2E2E               u5420:
 14510  1E4A                     	goto	l80
 14511  1E4A  2E4B               	
 14512                           l79:	
 14513  1E4B                     	line	82
 14514                           	
 14515                           l80:	
 14516  1E4B                     	return
 14517  1E4B  0008               	opt stack 0
 14518                           GLOBAL	__end_of_eusartTransmit
 14519                           	__end_of_eusartTransmit:
 14520  1E4C                     	signat	_eusartTransmit,4217
 14521                           	global	_ISR
 14522                           
 14523 ;; *************** function _ISR *****************
 14524 ;; Defined at:
 14525 ;;		line 133 in file "main.c"
 14526 ;; Parameters:    Size  Location     Type
 14527 ;;		None
 14528 ;; Auto vars:     Size  Location     Type
 14529 ;;		None
 14530 ;; Return value:  Size  Location     Type
 14531 ;;                  1    wreg      void 
 14532 ;; Registers used:
 14533 ;;		None
 14534 ;; Tracked objects:
 14535 ;;		On entry : 0/0
 14536 ;;		On exit  : 0/0
 14537 ;;		Unchanged: 0/0
 14538 ;; Data sizes:     COMMON   BANK0   BANK1   BANK2   BANK3   BANK4   BANK5   BANK6   BANK7   BANK8   BANK9  BANK10  BANK1
       1  BANK12
 14539 ;;      Params:         0       0       0       0       0       0       0       0       0       0       0       0       
       0       0
 14540 ;;      Locals:         0       0       0       0       0       0       0       0       0       0       0       0       
       0       0
 14541 ;;      Temps:          0       0       0       0       0       0       0       0       0       0       0       0       
       0       0
 14542 ;;      Totals:         0       0       0       0       0       0       0       0       0       0       0       0       
       0       0
 14543 ;;Total ram usage:        0 bytes
 14544 ;; Hardware stack levels used:    1
 14545 ;; This function calls:
 14546 ;;		Nothing
 14547 ;; This function is called by:
 14548 ;;		Interrupt level 1
 14549 ;; This function uses a non-reentrant model
 14550 ;;
 14551                           psect	intentry,class=CODE,delta=2
 14552                           global __pintentry
 14553                           __pintentry:
 14554  0004                     psect	intentry
 14555                           	file	"main.c"
 14556                           	line	133
 14557                           	global	__size_of_ISR
 14558                           	__size_of_ISR	equ	__end_of_ISR-_ISR
 14559  0004                     	
 14560                           _ISR:	
 14561  0004                     ;incstack = 0
 14562                           	opt	stack 7
 14563                           	bsf int$flags,0 ;set compiler interrupt flag (level 1)
 14564  0004  147E               ; Regs used in _ISR: []
 14565                           psect	intentry
 14566                           	pagesel	$
 14567  0005  3180               	line	161
 14568                           	
 14569                           i1l91:	
 14570  0006                     	bcf int$flags,0 ;clear compiler interrupt flag (level 1)
 14571  0006  107E               	retfie
 14572  0007  0009               	opt stack 0
 14573                           GLOBAL	__end_of_ISR
 14574                           	__end_of_ISR:
 14575  0008                     	signat	_ISR,89
 14576                           global	___latbits
 14577                           ___latbits	equ	2
 14578  0002                     	global	btemp
 14579                           	btemp set 07Eh
 14580  007E                     
 14581                           	DABS	1,126,2	;btemp
 14582                           	global	int$flags
 14583                           	int$flags	set btemp
 14584  007E                     	global	wtemp0
 14585                           	wtemp0 set btemp+0
 14586  007E                     	end


Data Sizes:
    Strings     41
    Constant    0
    Data        0
    BSS         114
    Persistent  0
    Stack       0

Auto Spaces:
    Space          Size  Autos    Used
    COMMON           14     14      14
    BANK0            80     80      80
    BANK1            80     80      80
    BANK2            80     22      56
    BANK3            80      0      80
    BANK4            80      0       0
    BANK5            80      0       0
    BANK6            80      0       0
    BANK7            80      0       0
    BANK8            80      0       0
    BANK9            80      0       0
    BANK10           80      0       0
    BANK11           80      0       0
    BANK12           48      0       0

Pointer List with Targets:

    strncmp@_r	PTR const unsigned char  size(2) Largest target is 3
		 -> STR_12(CODE[3]), 

    strncmp@r	PTR const unsigned char  size(2) Largest target is 3
		 -> STR_12(CODE[3]), 

    strncmp@_l	PTR const unsigned char  size(1) Largest target is 3
		 -> vfpfcnvrt@ct(BANK0[3]), 

    strncmp@l	PTR const unsigned char  size(1) Largest target is 3
		 -> vfpfcnvrt@ct(BANK0[3]), 

    strlen@s	PTR const unsigned char  size(1) Largest target is 80
		 -> dbuf(BANK3[80]), 

    strlen@a	PTR const unsigned char  size(1) Largest target is 80
		 -> dbuf(BANK3[80]), 

    strcpy@dest	PTR unsigned char  size(1) Largest target is 80
		 -> dbuf(BANK3[80]), 

    strcpy@d	PTR unsigned char  size(1) Largest target is 80
		 -> dbuf(BANK3[80]), 

    strcpy@src	PTR const unsigned char  size(2) Largest target is 80
		 -> STR_7(CODE[4]), STR_6(CODE[4]), STR_3(CODE[4]), STR_2(CODE[4]), 
		 -> dbuf(BANK3[80]), 

    strcpy@s	PTR const unsigned char  size(2) Largest target is 80
		 -> STR_7(CODE[4]), STR_6(CODE[4]), STR_3(CODE[4]), STR_2(CODE[4]), 
		 -> dbuf(BANK3[80]), 

    sprintf@fmt	PTR const unsigned char  size(2) Largest target is 22
		 -> STR_1(CODE[22]), 

    sprintf@s	PTR unsigned char  size(1) Largest target is 20
		 -> main@s(BANK2[20]), 

    sprintf@ap	PTR void [1] size(1) Largest target is 2
		 -> ?_sprintf(BANK1[2]), 

    f.buffer	PTR unsigned char  size(1) Largest target is 20
		 -> main@s(BANK2[20]), 

    fputs@s	PTR const unsigned char  size(1) Largest target is 80
		 -> dbuf(BANK3[80]), 

    fputs@fp	PTR struct _IO_FILE size(1) Largest target is 6
		 -> sprintf@f(BANK1[5]), 

    S631_IO_FILE$buffer	PTR unsigned char  size(1) Largest target is 20
		 -> main@s(BANK2[20]), 

    fputc@fp.buffer	PTR unsigned char  size(1) Largest target is 20
		 -> main@s(BANK2[20]), 

    fputc@fp	PTR struct _IO_FILE size(1) Largest target is 6
		 -> sprintf@f(BANK1[5]), 

    atoi@s	PTR const unsigned char  size(2) Largest target is 22
		 -> STR_1(CODE[22]), 

    vfprintf@ap	PTR PTR void  size(1) Largest target is 1
		 -> sprintf@ap(BANK1[1]), 

    vfprintf@fp	PTR struct _IO_FILE size(1) Largest target is 6
		 -> sprintf@f(BANK1[5]), 

    vfprintf@fmt	PTR const unsigned char  size(2) Largest target is 22
		 -> STR_1(CODE[22]), 

    vfprintf@cfmt	PTR unsigned char  size(2) Largest target is 22
		 -> STR_1(CODE[22]), 

    vfpfcnvrt@fp	PTR struct _IO_FILE size(1) Largest target is 6
		 -> sprintf@f(BANK1[5]), 

    vfpfcnvrt@ap	PTR PTR void  size(1) Largest target is 1
		 -> sprintf@ap(BANK1[1]), 

    vfpfcnvrt@fmt	PTR PTR unsigned char  size(1) Largest target is 2
		 -> vfprintf@cfmt(BANK0[2]), 

    efgtoa@fp	PTR struct _IO_FILE size(1) Largest target is 6
		 -> sprintf@f(BANK1[5]), 

    sp__strcpy	PTR unsigned char  size(1) Largest target is 80
		 -> dbuf(BANK3[80]), 

    pad@fp	PTR struct _IO_FILE size(1) Largest target is 6
		 -> sprintf@f(BANK1[5]), 

    pad@buf	PTR unsigned char  size(1) Largest target is 80
		 -> dbuf(BANK3[80]), 

    eusartTransmit@s	PTR unsigned char  size(1) Largest target is 20
		 -> main@s(BANK2[20]), 


Critical Paths under _main in COMMON

    _vfpfcnvrt->_tolower
    _efgtoa->___flmul
    _efgtoa->_tolower
    _tolower->_isupper
    _pad->_fputs
    _fputs->_fputc
    _floorf->___fldiv
    ___flsub->___flmul
    ___flmul->__Umul8_16
    ___flge->___flmul
    _atoi->___wmul
    _atoi->_isdigit

Critical Paths under _ISR in COMMON

    None.

Critical Paths under _main in BANK0

    _main->_sprintf
    _sprintf->_vfprintf
    _vfprintf->_vfpfcnvrt
    _vfpfcnvrt->_efgtoa
    _efgtoa->___flge
    _pad->_fputs
    _floorf->___fldiv
    ___flsub->___flmul
    ___flge->___flmul

Critical Paths under _ISR in BANK0

    None.

Critical Paths under _main in BANK1

    _main->_sprintf
    _vfpfcnvrt->_efgtoa

Critical Paths under _ISR in BANK1

    None.

Critical Paths under _main in BANK2

    None.

Critical Paths under _ISR in BANK2

    None.

Critical Paths under _main in BANK3

    None.

Critical Paths under _ISR in BANK3

    None.

Critical Paths under _main in BANK4

    None.

Critical Paths under _ISR in BANK4

    None.

Critical Paths under _main in BANK5

    None.

Critical Paths under _ISR in BANK5

    None.

Critical Paths under _main in BANK6

    None.

Critical Paths under _ISR in BANK6

    None.

Critical Paths under _main in BANK7

    None.

Critical Paths under _ISR in BANK7

    None.

Critical Paths under _main in BANK8

    None.

Critical Paths under _ISR in BANK8

    None.

Critical Paths under _main in BANK9

    None.

Critical Paths under _ISR in BANK9

    None.

Critical Paths under _main in BANK10

    None.

Critical Paths under _ISR in BANK10

    None.

Critical Paths under _main in BANK11

    None.

Critical Paths under _ISR in BANK11

    None.

Critical Paths under _main in BANK12

    None.

Critical Paths under _ISR in BANK12

    None.

Call Graph Tables:

 ---------------------------------------------------------------------------------
 (Depth) Function   	        Calls       Base Space   Used Autos Params    Refs
 ---------------------------------------------------------------------------------
 (0) _main                                                22    22      0   27551
                                              0 BANK2     22    22      0
                     _eusartTransmit
                         _initialize
                            _sprintf
 ---------------------------------------------------------------------------------
 (1) _sprintf                                             24    10     14   27423
                                             79 BANK0      1     1      0
                                             57 BANK1     23     9     14
                           _vfprintf
 ---------------------------------------------------------------------------------
 (2) _vfprintf                                             8     5      3   27107
                                             71 BANK0      8     5      3
                          _vfpfcnvrt
 ---------------------------------------------------------------------------------
 (3) _vfpfcnvrt                                           39    37      2   26759
                                             46 BANK0     25    23      2
                               _atoi
                             _efgtoa
                              _fputc
                            _isdigit
                            _isupper
                            _strncmp
                            _tolower
 ---------------------------------------------------------------------------------
 (4) _strncmp                                             10     6      4     410
                                              0 COMMON    10     6      4
 ---------------------------------------------------------------------------------
 (4) _efgtoa                                              66    61      5   21051
                                             37 BANK0      9     4      5
                                              0 BANK1     57    57      0
                            ___awdiv
                            ___awmod
                            ___fladd
                            ___fldiv
                             ___fleq
                             ___flge
                            ___flmul
                            ___flneg
                            ___flsub
                            ___fltol
                      ___fpclassifyf
                             _floorf
                            _isupper
                                _pad
                             _strcpy
                            _tolower
 ---------------------------------------------------------------------------------
 (4) _tolower                                              8     6      2     944
                                              6 COMMON     8     6      2
                            _isupper
 ---------------------------------------------------------------------------------
 (5) _isupper                                              6     4      2     465
                                              0 COMMON     6     4      2
 ---------------------------------------------------------------------------------
 (5) _strcpy                                               8     6      2     641
                                              0 COMMON     8     6      2
 ---------------------------------------------------------------------------------
 (5) _pad                                                  9     6      3    2907
                                             12 COMMON     1     1      0
                                              4 BANK0      8     5      3
                              _fputc
                              _fputs
                             _strlen
 ---------------------------------------------------------------------------------
 (6) _strlen                                               8     6      2     123
                                              0 COMMON     8     6      2
 ---------------------------------------------------------------------------------
 (6) _fputs                                                8     7      1    1149
                                              8 COMMON     4     3      1
                                              0 BANK0      4     4      0
                              _fputc
 ---------------------------------------------------------------------------------
 (4) _fputc                                                8     5      3     834
                                              0 COMMON     8     5      3
                              _putch
 ---------------------------------------------------------------------------------
 (5) _putch                                                1     1      0       0
 ---------------------------------------------------------------------------------
 (5) _floorf                                              20    16      4     490
                                             13 BANK0     20    16      4
                            ___fldiv (ARG)
 ---------------------------------------------------------------------------------
 (5) ___fpclassifyf                                       16    12      4     287
                                              0 COMMON    10     6      4
                                              0 BANK0      6     6      0
 ---------------------------------------------------------------------------------
 (5) ___fltol                                             11     7      4     381
                                              0 COMMON    11     7      4
 ---------------------------------------------------------------------------------
 (5) ___flsub                                              8     0      8    2637
                                             21 BANK0      8     0      8
                            ___fladd
                            ___flmul (ARG)
 ---------------------------------------------------------------------------------
 (6) ___fladd                                             24    16      8    2288
                                              0 COMMON    12     4      8
                                              0 BANK0     12    12      0
 ---------------------------------------------------------------------------------
 (5) ___flneg                                              4     0      4     121
                                              0 COMMON     4     0      4
 ---------------------------------------------------------------------------------
 (5) ___flmul                                             26    18      8    3025
                                              9 COMMON     5     5      0
                                              0 BANK0     21    13      8
                          __Umul8_16
 ---------------------------------------------------------------------------------
 (6) __Umul8_16                                            9     7      2     799
                                              0 COMMON     9     7      2
 ---------------------------------------------------------------------------------
 (5) ___flge                                              16     8      8     790
                                             21 BANK0     16     8      8
                            ___flmul (ARG)
 ---------------------------------------------------------------------------------
 (5) ___fleq                                              12     4      8     394
                                              0 COMMON    12     4      8
 ---------------------------------------------------------------------------------
 (5) ___fldiv                                             26    18      8    1881
                                              0 COMMON    13     5      8
                                              0 BANK0     13    13      0
 ---------------------------------------------------------------------------------
 (5) ___awmod                                              7     3      4     448
                                              0 COMMON     7     3      4
 ---------------------------------------------------------------------------------
 (5) ___awdiv                                              9     5      4     452
                                              0 COMMON     9     5      4
 ---------------------------------------------------------------------------------
 (4) _atoi                                                15    13      2    1237
                                              6 COMMON     6     4      2
                                              0 BANK0      9     9      0
                             ___wmul
                            _isdigit
                            _isspace
 ---------------------------------------------------------------------------------
 (5) _isspace                                              5     3      2     207
                                              0 COMMON     5     3      2
 ---------------------------------------------------------------------------------
 (4) _isdigit                                              6     4      2     313
                                              0 COMMON     6     4      2
 ---------------------------------------------------------------------------------
 (5) ___wmul                                               6     2      4     244
                                              0 COMMON     6     2      4
 ---------------------------------------------------------------------------------
 (1) _initialize                                           0     0      0       0
 ---------------------------------------------------------------------------------
 (1) _eusartTransmit                                       2     2      0      78
                                              0 COMMON     2     2      0
 ---------------------------------------------------------------------------------
 Estimated maximum stack depth 6
 ---------------------------------------------------------------------------------
 (Depth) Function   	        Calls       Base Space   Used Autos Params    Refs
 ---------------------------------------------------------------------------------
 (9) _ISR                                                  0     0      0       0
 ---------------------------------------------------------------------------------
 Estimated maximum stack depth 9
 ---------------------------------------------------------------------------------

 Call Graph Graphs:

 _main (ROOT)
   _eusartTransmit
   _initialize
   _sprintf
     _vfprintf
       _vfpfcnvrt
         _atoi
           ___wmul
           _isdigit
           _isspace
         _efgtoa
           ___awdiv
           ___awmod
           ___fladd
           ___fldiv
           ___fleq
           ___flge
             ___flmul (ARG)
               __Umul8_16
           ___flmul
             __Umul8_16
           ___flneg
           ___flsub
             ___fladd
             ___flmul (ARG)
               __Umul8_16
           ___fltol
           ___fpclassifyf
           _floorf
             ___fldiv (ARG)
           _isupper
           _pad
             _fputc
               _putch
             _fputs
               _fputc
                 _putch
             _strlen
           _strcpy
           _tolower
             _isupper
         _fputc
           _putch
         _isdigit
         _isupper
         _strncmp
         _tolower
           _isupper

 _ISR (ROOT)

 Address spaces:
Name               Size   Autos  Total    Cost      Usage
BIGRAM             3F0      0       0       0        0.0%
NULL                 0      0       0       0        0.0%
CODE                 0      0       0       0        0.0%
BITCOMMON            E      0       0       1        0.0%
BITSFR0              0      0       0       1        0.0%
SFR0                 0      0       0       1        0.0%
COMMON               E      E       E       2      100.0%
BITSFR1              0      0       0       2        0.0%
SFR1                 0      0       0       2        0.0%
BITSFR2              0      0       0       3        0.0%
SFR2                 0      0       0       3        0.0%
STACK                0      0       0       3        0.0%
BITSFR3              0      0       0       4        0.0%
SFR3                 0      0       0       4        0.0%
ABS                  0      0     136       4        0.0%
BITBANK0            50      0       0       5        0.0%
BITSFR4              0      0       0       5        0.0%
SFR4                 0      0       0       5        0.0%
BANK0               50     50      50       6      100.0%
BITSFR5              0      0       0       6        0.0%
SFR5                 0      0       0       6        0.0%
BITBANK1            50      0       0       7        0.0%
BITSFR6              0      0       0       7        0.0%
SFR6                 0      0       0       7        0.0%
BANK1               50     50      50       8      100.0%
BITSFR7              0      0       0       8        0.0%
SFR7                 0      0       0       8        0.0%
BITBANK2            50      0       0       9        0.0%
BITSFR8              0      0       0       9        0.0%
SFR8                 0      0       0       9        0.0%
BANK2               50     16      38      10       70.0%
BITSFR9              0      0       0      10        0.0%
SFR9                 0      0       0      10        0.0%
BITBANK3            50      0       0      11        0.0%
BITSFR10             0      0       0      11        0.0%
SFR10                0      0       0      11        0.0%
BANK3               50      0      50      12      100.0%
BITSFR11             0      0       0      12        0.0%
SFR11                0      0       0      12        0.0%
BITBANK4            50      0       0      13        0.0%
BITSFR12             0      0       0      13        0.0%
SFR12                0      0       0      13        0.0%
BANK4               50      0       0      14        0.0%
BITSFR13             0      0       0      14        0.0%
SFR13                0      0       0      14        0.0%
BITBANK5            50      0       0      15        0.0%
BITSFR14             0      0       0      15        0.0%
SFR14                0      0       0      15        0.0%
BANK5               50      0       0      16        0.0%
BITSFR15             0      0       0      16        0.0%
SFR15                0      0       0      16        0.0%
BITBANK6            50      0       0      17        0.0%
BITSFR16             0      0       0      17        0.0%
SFR16                0      0       0      17        0.0%
BANK6               50      0       0      18        0.0%
BITSFR17             0      0       0      18        0.0%
SFR17                0      0       0      18        0.0%
BITBANK7            50      0       0      19        0.0%
BITSFR18             0      0       0      19        0.0%
SFR18                0      0       0      19        0.0%
BANK7               50      0       0      20        0.0%
BITSFR19             0      0       0      20        0.0%
SFR19                0      0       0      20        0.0%
BITBANK8            50      0       0      21        0.0%
BITSFR20             0      0       0      21        0.0%
SFR20                0      0       0      21        0.0%
BANK8               50      0       0      22        0.0%
BITSFR21             0      0       0      22        0.0%
SFR21                0      0       0      22        0.0%
BITBANK9            50      0       0      23        0.0%
BITSFR22             0      0       0      23        0.0%
SFR22                0      0       0      23        0.0%
BANK9               50      0       0      24        0.0%
BITSFR23             0      0       0      24        0.0%
SFR23                0      0       0      24        0.0%
BITBANK10           50      0       0      25        0.0%
BITSFR24             0      0       0      25        0.0%
SFR24                0      0       0      25        0.0%
BANK10              50      0       0      26        0.0%
BITSFR25             0      0       0      26        0.0%
SFR25                0      0       0      26        0.0%
BITBANK11           50      0       0      27        0.0%
BITSFR26             0      0       0      27        0.0%
SFR26                0      0       0      27        0.0%
BANK11              50      0       0      28        0.0%
BITSFR27             0      0       0      28        0.0%
SFR27                0      0       0      28        0.0%
BITBANK12           30      0       0      29        0.0%
BITSFR28             0      0       0      29        0.0%
SFR28                0      0       0      29        0.0%
BANK12              30      0       0      30        0.0%
BITSFR29             0      0       0      30        0.0%
SFR29                0      0       0      30        0.0%
BITSFR30             0      0       0      31        0.0%
SFR30                0      0       0      31        0.0%
DATA                 0      0     136      31        0.0%
BITSFR31             0      0       0      32        0.0%
SFR31                0      0       0      32        0.0%
BITSFR32             0      0       0      33        0.0%
SFR32                0      0       0      33        0.0%
BITSFR33             0      0       0      34        0.0%
SFR33                0      0       0      34        0.0%
BITSFR34             0      0       0      35        0.0%
SFR34                0      0       0      35        0.0%
BITSFR35             0      0       0      36        0.0%
SFR35                0      0       0      36        0.0%
BITSFR36             0      0       0      37        0.0%
SFR36                0      0       0      37        0.0%
BITSFR37             0      0       0      38        0.0%
SFR37                0      0       0      38        0.0%
BITSFR38             0      0       0      39        0.0%
SFR38                0      0       0      39        0.0%
BITSFR39             0      0       0      40        0.0%
SFR39                0      0       0      40        0.0%
BITSFR40             0      0       0      41        0.0%
SFR40                0      0       0      41        0.0%
BITSFR41             0      0       0      42        0.0%
SFR41                0      0       0      42        0.0%
BITSFR42             0      0       0      43        0.0%
SFR42                0      0       0      43        0.0%
BITSFR43             0      0       0      44        0.0%
SFR43                0      0       0      44        0.0%
BITSFR44             0      0       0      45        0.0%
SFR44                0      0       0      45        0.0%
BITSFR45             0      0       0      46        0.0%
SFR45                0      0       0      46        0.0%
BITSFR46             0      0       0      47        0.0%
SFR46                0      0       0      47        0.0%
BITSFR47             0      0       0      48        0.0%
SFR47                0      0       0      48        0.0%
BITSFR48             0      0       0      49        0.0%
SFR48                0      0       0      49        0.0%
BITSFR49             0      0       0      50        0.0%
SFR49                0      0       0      50        0.0%
BITSFR50             0      0       0      51        0.0%
SFR50                0      0       0      51        0.0%
BITSFR51             0      0       0      52        0.0%
SFR51                0      0       0      52        0.0%
BITSFR52             0      0       0      53        0.0%
SFR52                0      0       0      53        0.0%
BITSFR53             0      0       0      54        0.0%
SFR53                0      0       0      54        0.0%
BITSFR54             0      0       0      55        0.0%
SFR54                0      0       0      55        0.0%
BITSFR55             0      0       0      56        0.0%
SFR55                0      0       0      56        0.0%
BITSFR56             0      0       0      57        0.0%
SFR56                0      0       0      57        0.0%
BITSFR57             0      0       0      58        0.0%
SFR57                0      0       0      58        0.0%
BITSFR58             0      0       0      59        0.0%
SFR58                0      0       0      59        0.0%
BITSFR59             0      0       0      60        0.0%
SFR59                0      0       0      60        0.0%
BITSFR60             0      0       0      61        0.0%
SFR60                0      0       0      61        0.0%
BITSFR61             0      0       0      62        0.0%
SFR61                0      0       0      62        0.0%
BITSFR62             0      0       0      63        0.0%
SFR62                0      0       0      63        0.0%
BITSFR63             0      0       0      64        0.0%
SFR63                0      0       0      64        0.0%


Microchip Technology PIC Macro Assembler V2.00 build -1524193055 
Symbol Table                                                                                   Tue Jan 14 20:56:36 2020

           ___fldiv@aexp 002C             ___fldiv@bexp 002B             ___fldiv@sign 0024  
                     l70 1059                       l71 105A                       l80 1E4B  
                     l72 105A                       l75 1E2E                       l83 1F9C  
                     l76 1E3B                       l84 1F9C                       l77 1E3B  
                     l85 1FA1                       l69 1046                       l78 1E41  
                     l86 1FCA                       l79 1E4B             ___awdiv@sign 0076  
    ___wmul@multiplicand 0072      __Umul8_16@word_mpld 0076                      l200 0609  
                    l201 04DD                      l130 1179                      l210 062D  
                    l202 0538                      l211 064B                      l203 0596  
                    l132 117B                      l212 0748                      l220 06D9  
                    l204 055D                      l140 006A                      l133 1190  
                    l213 0672                      l205 0578                      l141 00A8  
                    l134 117E                      l222 0727                      l214 06AE  
                    l206 055E                      l135 119E                      l215 0677  
                    l207 057F                      l151 00D7                      l143 0081  
                    l231 0FD8                      l136 11AD                      l128 116F  
                    l224 072C                      l216 06C4                      l232 0D01  
                    l240 0CCA                      l137 11BA                      l209 062C  
                    l161 0161                      l153 00E8                      l145 008D  
                    l241 0CD6                      l233 0C99                      l226 070B  
                    l218 06D4                      l170 02BE                      l162 017C  
                    l154 0103                      l250 0D84                      l242 0D07  
                    l234 0CDC                      l171 029F                      l163 0277  
                    l155 0760                      l147 0092                      l243 0D11  
                    l235 0C9A                      l228 071C                      l180 02D1  
                    l164 01EF                      l156 019A                      l148 0121  
                    l260 0E2C                      l252 0D9F                      l244 0D44  
                    l236 0D00                      l181 0311                      l173 02B4  
                    l165 01BE                      l157 0171                      l149 00F8  
                    l253 0DA6                      l245 0D43                      l237 0CA6  
                    l430 127A                      l190 040E                      l182 030A  
                    l166 022B                      l254 0E50                      l262 0E47  
                    l246 0DA7                      l238 0CB2                      l431 1252  
                    l191 035F                      l183 0311                      l175 02BD  
                    l167 024E                      l159 0150                      l271 0F3E  
                    l263 0E4E                      l255 0DEC                      l247 0D5F  
                    l239 0CBE                      l432 1248                      l600 0B4B  
                    l192 0421                      l184 032B                      l176 02D2  
                    l168 022C                      l264 0EB1                      l256 0E4F  
                    l248 0D55                      l280 1FF6                      l433 1257  
                    l441 110E                      l601 0B34                      l193 047D  
                    l169 0276                      l273 0F59                      l265 0EB0  
                    l257 0E07                      l281 1FFF                      l434 1258  
                    l450 1158                      l442 1118                      l610 0BCF  
                    l602 0B37                      l194 04A4                      l186 0326  
                    l178 02CB                      l274 0F81                      l266 0EF5  
                    l258 0DFD                      l435 126D                      l451 115D  
                    l443 114D                      l611 0BDB                      l603 0B3D  
                    l195 04A3                      l187 034C                      l275 0FCC  
                    l267 0FFF                      l284 1003                      l436 1279  
                    l428 122F                      l444 112B                      l460 10AB  
                    l620 0C40                      l604 0BF4                      l612 0BE2  
                    l188 0340                      l268 0FA0                      l285 100B  
                    l437 1285                      l429 123D                      l445 1121  
                    l621 0C40                      l613 0BE5                      l605 0BAF  
                    l197 04D4                      l189 034B                      l269 0F70  
                    l286 101C                      l438 128A                      l446 1130  
                    l454 1078                      l470 13BA                      l622 0C3F  
                    l614 0BED                      l606 0BAE                      l278 1FEB  
                    l287 1021                      l447 1131                      l455 1094  
                    l471 13BB                      l463 132B                      l623 0C5B  
                    l615 0BF3                      l607 0BB7                      l199 04D6  
                    l279 1FD5                      l448 1140                      l640 086D  
                    l464 1348                      l616 0C0B                      l608 0BCE  
                    l632 1E6C                      l480 07C3                      l800 10FE  
                    l449 114C                      l641 086A                      l457 10A8  
                    l465 1374                      l625 0C4B                      l617 0C02  
                    l609 0BEE                      l481 07B1                      l721 12E1  
                    l650 091A                      l642 0875                      l466 13A0  
                    l474 1E12                      l626 0C5A                      l618 0C0A  
                    l482 07B2                      l802 10E4                      l810 1F2E  
                    l651 0926                      l643 0897                      l635 0829  
                    l459 10AA                      l475 1E13                      l627 0C61  
                    l619 0C09                      l483 07C2                      l723 12DA  
                    l803 1100                      l811 1F2E                      l660 0972  
                    l652 0930                      l644 09F7                      l636 083F  
                    l468 13B8                      l628 0C66                      l580 0A1B  
                    l484 07E4                      l741 13E9                      l661 09A3  
                    l653 094A                      l645 08AE                      l637 083C  
                    l629 0C70                      l581 0A27                      l485 07D3  
                    l725 12DF                      l821 07FB                      l750 1472  
                    l742 140C                      l734 13C7                      l662 09A2  
                    l654 0931                      l646 091F                      l638 0848  
                    l590 0B0A                      l582 0A34                      l486 07DD  
                    l478 077E                      l726 130D                      l830 1EE5  
                    l743 1417                      l735 13C2                      l663 09BD  
                    l655 093E                      l647 08DD                      l639 0857  
                    l671 15A5                      l591 0B03                      l583 0A3E  
                    l487 07D4                      l479 07F4                      l727 1308  
                    l831 1EE0                      l752 1486                      l744 140D  
                    l664 09D7                      l656 094F                      l648 08FE  
                    l672 15BA                      l592 0AE1                      l584 0A54  
                    l488 07E3                      l808 1F1D                      l832 1EEF  
                    l824 1E9B                      l753 148D                      l745 1412  
                    l737 13F1                      l665 09E2                      l657 0974  
                    l649 08F6                      l681 15FB                      l673 15B8  
                    l593 0AEC                      l585 0A51                      l489 07F4  
                    l809 1F09                      l833 1F03                      l825 1E9A  
                    l841 1209                      l746 142B                      l666 09E6  
                    l658 096B                      l690 1779                      l682 17FF  
                    l674 15C3                      l594 0AEF                      l586 0A5C  
                    l578 0A08                      l770 158B                      l826 1EB3  
                    l842 120A                      l818 1F95                      l755 149F  
                    l747 1454                      l739 1405                      l659 0973  
                    l691 17AA                      l683 1751                      l675 15D2  
                    l595 0AF5                      l587 0AA8                      l579 0A1E  
                    l771 158A                      l763 14E7                      l827 1EB3  
                    l851 1F53                      l748 142C                      l860 1ED4  
                    l692 17A9                      l684 1738                      l676 15E7  
                    l596 0B0A                      l588 0A6B                      l764 1594  
                    l852 1F61                      l836 11D4                      l781 1E87  
                    l757 14A4                      l861 1ED9                      l693 17C1  
                    l685 1745                      l677 15E5                      l597 0B4C  
                    l589 0AE0                      l765 154A                      l837 1221  
                    l774 1E2C                      l782 1E8F                      l758 14A5  
                    l694 17F2                      l686 1756                      l678 15F0  
                    l598 0B1D                      l766 1519                      l838 11E2  
                    l695 17DA                      l687 177B                      l679 1605  
                    l599 0C70                      l767 1539                      l847 1F61  
                    l839 11D5                      l696 17F2                      l688 1772  
                    l768 158B                      l697 17ED                      l689 177A  
                    l769 156A                      l849 1F47                      l858 1EBF  
                    l859 1EC7                      l796 10BC                      l788 0818  
                    l798 10B7                      l799 10FF                      _ISR 0004  
                    _pad 115E             ___awmod@sign 0076                      wreg 0009  
           ___flmul@aexp 002D             ___flmul@bexp 002E              _tolower$702 007C  
           ___flmul@sign 0028             ___flmul@temp 0033             ___flmul@prod 002F  
                   ?_ISR 0070             ___fltol@exp1 007A                     l3001 15D0  
                   l3011 15E7                     l3003 15D2                     l3101 17CF  
                   l3021 1605                     l3013 15F0                     l3005 15D7  
                   l3111 17ED                     l3103 17D8                     l3031 1660  
                   l3023 1612                     l3015 15F5                     l3007 15DC  
                   l3121 1E76                     l3113 17F6                     l3105 17DA  
                   l3041 1695                     l3033 166D                     l3025 161F  
                   l3017 15FB                     l3009 15E5                     l2401 0A6F  
                   l2321 10C6                     l2313 10AC                     l3201 01BD  
                   l3123 1E85                     l3115 17FF                     l3107 17E7  
                   l3051 16D8                     l3043 16A2                     l3035 167A  
                   l3027 1639                     l3019 1604                     l2411 0A83  
                   l2403 0A73                     l2323 10E4                     l2315 10B1  
                   l2331 1F09                     l3211 0249                     l3203 01BE  
                   l3131 0022                     l3125 1E87                     l3117 1E6D  
                   l3109 17EB                     l3061 172C                     l3053 16E5  
                   l3045 16A9                     l3037 1681                     l3029 1646  
                   l2501 0BE5                     l2421 0A97                     l2413 0A87  
                   l2405 0A77                     l2325 10F5                     l2317 10B7  
                   l2333 1F17                     l2341 1EE5                     l3301 0529  
                   l3221 0294                     l3213 024E                     l3205 01EA  
                   l3141 006D                     l3133 0032                     l3127 1E8F  
                   l3119 1E6F                     l3071 174C                     l3063 1738  
                   l3055 16F9                     l3047 16BD                     l3039 168E  
                   l2511 0BF9                     l2503 0BEA                     l2431 0AA9  
                   l2423 0A9B                     l2415 0A8B                     l2407 0A7B  
                   l2351 09F8                     l2327 1100                     l2319 10BC  
                   l2335 1F1D                     l2343 1EEF                     l3311 0543  
                   l3303 052F                     l3231 02CB                     l3223 029B  
                   l3207 01EF                     l3215 0277                     l3151 008D  
                   l3143 0075                     l3135 0050                     l3081 176F  
                   l3065 173F                     l3073 1751                     l3057 170E  
                   l3049 16C4                     l2521 0C18                     l2513 0BFF  
                   l2505 0BEE                     l2441 0AF3                     l2433 0AC5  
                   l2425 0A9F                     l2417 0A8F                     l2409 0A7F  
                   l2361 0A0D                     l2353 09FE                     l2601 1308  
                   l2329 1F06                     l2345 1F03                     l2337 1EDB  
                   l3401 06EE                     l3321 056A                     l3313 054F  
                   l3305 0533                     l3241 030A                     l3233 02D2  
                   l3225 02AE                     l3217 0288                     l3209 022C  
                   l3161 00BA                     l3153 0092                     l3145 007B  
                   l3137 0055                     l3129 0020                     l3091 178C  
                   l3083 1776                     l3075 1756                     l3067 1743  
                   l3059 1725                     l2531 0C53                     l2523 0C1C  
                   l2515 0C06                     l2507 0BF4                     l2451 0B13  
                   l2443 0AF5                     l2435 0AE5                     l2427 0AA3  
                   l2419 0A93                     l2371 0A27                     l2363 0A12  
                   l2355 0A02                     l2603 130D                     l2339 1EE0  
                   l2347 0800                     l2611 1F47                     l3411 072C  
                   l3403 070B                     l3331 058C                     l3323 056F  
                   l3315 0554                     l3307 0538                     l3251 032B  
                   l3243 0315                     l3235 02D8                     l3227 02B4  
                   l3219 028E                     l3171 0103                     l3163 00D7  
                   l3155 009E                     l3147 0081                     l3139 006A  
                   l3421 13BC                     l2701 1272                     l3093 17A4  
                   l3085 177B                     l3077 1757                     l3069 1745  
                   l2541 0C6B                     l2533 0C58                     l2525 0C3A  
                   l2517 0C0B                     l2509 0BF5                     l2461 0B2D  
                   l2453 0B1C                     l2445 0AFE                     l2437 0AEC  
                   l2429 0AA8                     l2381 0A3C                     l2373 0A2C  
                   l2365 0A1B                     l2357 0A06                     l2621 14BE  
                   l2605 1E91                     l2349 0818                     l2613 1F53  
                   l3413 0738                     l3405 071C                     l3341 0604  
                   l3333 0591                     l3325 0573                     l3317 0558  
                   l3309 053F                     l3261 0346                     l3253 0331  
                   l3245 031B                     l3237 02E7                     l3229 02C3  
                   l3181 0150                     l3173 0108                     l3165 00E8  
                   l3157 00A3                     l3149 0088                     l3501 0C95  
                   l3431 13E7                     l3423 13C2                     l2703 127A  
                   l2711 1101                     l2551 1EC3                     l3087 1780  
                   l3095 17AA                     l3079 175B                     l2543 0C6F  
                   l2535 0C5B                     l2527 0C45                     l2519 0C10  
                   l2471 0B46                     l2463 0B34                     l2455 0B1D  
                   l2439 0AEF                     l2447 0B03                     l2391 0A52  
                   l2383 0A3E                     l2375 0A32                     l2367 0A1C  
                   l2359 0A08                     l2631 1518                     l2623 14D9  
                   l2607 1E9B                     l2615 1F59                     l3415 073D  
                   l3407 0722                     l3351 0639                     l3319 055E  
                   l3327 0578                     l3335 0596                     l3343 0609  
                   l3271 0409                     l3255 0335                     l3263 034C  
                   l3247 0321                     l3239 0303                     l3191 0181  
                   l3183 0161                     l3175 0120                     l3167 00EE  
                   l3159 00A8                     l3511 0CCC                     l3503 0C9C  
                   l3441 1417                     l3433 13E9                     l3425 13C7  
                   l2705 127F                     l2721 1112                     l2713 1102  
                   l2553 1ECE                     l2545 1EB5                     l3097 17B7  
                   l3089 1788                     l2537 0C5F                     l2529 0C4B  
                   l2481 0BA5                     l2465 0B37                     l2457 0B25  
                   l2449 0B0E                     l2473 0B4C                     l2385 0A43  
                   l2393 0A54                     l2377 0A34                     l2369 0A1E  
                   l2801 077E                     l2641 1561                     l2633 1519  
                   l2625 14E6                     l2561 1165                     l2617 1F60  
                   l2609 1F2F                     l3409 0727                     l3361 065C  
                   l3417 0748                     l3353 0645                     l3345 061B  
                   l3337 05E4                     l3329 057F                     l3281 0495  
                   l3273 040E                     l3265 034E                     l3257 033D  
                   l3249 0326                     l3193 0199                     l3185 0167  
                   l3169 00F8                     l3177 0121                     l3601 0F81  
                   l3521 0D0C                     l3513 0CD6                     l3505 0CA8  
                   l2651 1E2C                     l3451 1486                     l3443 142C  
                   l3435 13F1                     l3427 13C9                     l2707 1285  
                   l2731 112B                     l2723 1118                     l2715 1106  
                   l2555 1ED4                     l2547 1EB7                     l3099 17C1  
                   l2539 0C61                     l2491 0BCF                     l2475 0B63  
                   l2483 0BAF                     l2467 0B3B                     l2459 0B29  
                   l2395 0A62                     l2387 0A48                     l2379 0A38  
                   l2811 07A0                     l2803 0791                     l2643 156A  
                   l2635 1530                     l2627 14EC                     l2619 14A6  
                   l2571 118A                     l2563 116F                     l3419 0760  
                   l3371 0672                     l3363 0662                     l3355 064B  
                   l3347 062D                     l3339 0600                     l3291 04CF  
                   l3283 049A                     l3275 0421                     l3267 0356  
                   l3259 0340                     l3187 0171                     l3179 0133  
                   l3195 019A                     l3611 0FBA                     l3603 0F89  
                   l3531 0D3C                     l3523 0D11                     l3515 0CDB  
                   l3507 0CB4                     l3701 1E39                     l2661 1015  
                   l2653 1000                     l3453 148D                     l3445 144F  
                   l3437 1405                     l3429 13D3                     l2709 128A  
                   l2733 1131                     l2725 111E                     l2741 114D  
                   l2717 110B                     l2901 08DD                     l2557 1ED9  
                   l2549 1EBF                     l2493 0BD6                     l2485 0BBF  
                   l2477 0B9E                     l2469 0B3D                     l2397 0A66  
                   l2389 0A51                     l2821 07C9                     l2813 07A7  
                   l2805 0792                     l2581 128B                     l2645 1581  
                   l2637 1539                     l2629 1504                     l2573 1190  
                   l2565 1174                     l3381 06A9                     l3373 0677  
                   l3365 0664                     l3357 0652                     l3349 0634  
                   l3293 04D4                     l3285 04A4                     l3277 0473  
                   l3269 035F                     l3197 01A3                     l3189 017C  
                   l3621 0FD7                     l3613 0FC5                     l3605 0F9F  
                   l3541 0D84                     l3533 0D3D                     l3525 0D23  
                   l3509 0CC0                     l3517 0CDC                     l3703 1E41  
                   l2663 101C                     l2655 1003                     l3455 1493  
                   l3447 1454                     l3439 140D                     l2671 1227  
                   l2743 1152                     l2735 113B                     l2727 1121  
                   l2719 110E                     l2903 08E2                     l2911 08FE  
                   l2751 1070                     l2495 0BDA                     l2487 0BC4  
                   l2479 0BA0                     l2399 0A6B                     l2831 1E4C  
                   l2823 07D2                     l2815 07B0                     l2807 079A  
                   l2591 12DA                     l2583 12A3                     l2647 1594  
                   l2639 154A                     l2575 11A3                     l2567 1179  
                   l2559 1160                     l3391 06CF                     l3375 067C  
                   l3383 06AE                     l3367 0668                     l3359 0658  
                   l3295 04DD                     l3287 04C1                     l3279 047D  
                   l3199 01A5                     l3471 11D0                     l3615 0FCB  
                   l3607 0FA0                     l3551 0DC5                     l3543 0D9F  
                   l3527 0D2B                     l3535 0D44                     l3519 0D01  
                   l3623 0FD8                     l3711 104B                     l2665 1021  
                   l2657 1007                     l2649 1E14                     l3457 149F  
                   l3449 1472                     l2681 123D                     l2673 122C  
                   l2745 1158                     l2737 1140                     l2729 1126  
                   l2921 0926                     l2913 0910                     l2905 08F0  
                   l2841 0823                     l2753 108C                     l2761 130E  
                   l2497 0BDF                     l2489 0BCD                     l2833 1E4F  
                   l2825 07D4                     l2817 07B2                     l2809 079C  
                   l2593 12E0                     l2585 12B8                     l2577 11AD  
                   l2569 117E                     l3393 06D4                     l3385 06B4  
                   l3377 0694                     l3369 066C                     l3297 051D  
                   l3289 04C9                     l3473 11D3                     l3481 11E2  
                   l3625 0FF1                     l3609 0FB2                     l3617 0FCC  
                   l3561 0E07                     l3553 0DD6                     l3537 0D55  
                   l3545 0DA7                     l3529 0D38                     l3641 1FEB  
                   l3705 1022                     l3651 1FA4                     l2659 1010  
                   l3459 14A5                     l2691 1252                     l2683 123F  
                   l2675 122F                     l2667 1222                     l2747 115D  
                   l2739 1145                     l2931 093E                     l2923 092E  
                   l2915 0911                     l2907 08F4                     l2851 083C  
                   l2843 0827                     l2755 10A6                     l2771 1374  
                   l2763 1323                     l2499 0BE2                     l2835 1E6C  
                   l2827 07E4                     l2819 07C3                     l2587 12BE  
                   l2595 12E1                     l2579 11BA                     l3395 06D9  
                   l3387 06C4                     l3379 06A5                     l3299 0522  
                   l3491 1221                     l3483 11EA                     l3475 11D5  
                   l3467 11BC                     l3627 0FFA                     l3619 0FD4  
                   l3571 0E70                     l3563 0E2C                     l3555 0DDE  
                   l3547 0DB9                     l3539 0D5F                     l3643 1FF6  
                   l3635 1FCD                     l3707 1025                     l3661 1FAD  
                   l3653 1FA5                     l2693 1258                     l2685 1245  
                   l2677 1233                     l2669 1223                     l2941 0954  
                   l2933 0945                     l2925 0931                     l2917 091A  
                   l2909 08F6                     l2861 0851                     l2853 083D  
                   l2845 0829                     l2837 0819                     l2757 10A8  
                   l2749 105C                     l2781 13B6                     l2773 1378  
                   l2765 133F                     l2829 07E9                     l2597 12E7  
                   l2589 12D5                     l3397 06E5                     l3389 06C9  
                   l3485 11F3                     l3477 11D9                     l3469 11C4  
                   l3629 0FFF                     l3581 0EC6                     l3573 0E8D  
                   l3565 0E47                     l3557 0DEC                     l3549 0DBC  
                   l3493 0C73                     l3645 1FFF                     l3637 1FD1  
                   l3709 1047                     ?_pad 0024                     l3671 1FBA  
                   l3663 1FAF                     l3655 1FA6                     l3647 1F96  
                   l2695 1267                     l2687 1248                     l2679 1238  
                   l2951 0981                     l2943 0968                     l2927 0938  
                   l2935 094A                     l2919 091F                     l2871 086A  
                   l2863 0855                     l2847 082E                     l2855 083F  
                   l2839 081F                     l2759 10AB                     l2783 13B8  
                   l2775 13A0                     l2767 1348                     l2791 1E12  
                   l2599 1307                     l3399 06EA                     l3487 11F9  
                   l3479 11DD                     l3591 0F07                     l3583 0ECE  
                   l3575 0E92                     l3559 0DFD                     l3567 0E50  
                   l3495 0C84                     l3639 1FD5                     l3681 1FC6  
                   l3673 1FBD                     l3665 1FB1                     l3657 1FA8  
                   l3649 1FA1                     l2697 126B                     l2689 124D  
                   l2961 09CB                     l2953 0985                     l2945 096F  
                   l2937 094F                     l2929 093C                     l2881 088D  
                   l2873 086B                     l2865 0857                     l2857 0848  
                   l2849 0833                     l2785 13BB                     l2777 13A2  
                   l2769 134C                     l2793 1E13                     l3489 120A  
                   l3593 0F3E                     l3585 0EDE                     l3577 0EB1  
                   l3569 0E6B                     l3497 0C8C                     l3683 1FC8  
                   l3675 1FBF                     l3667 1FB4                     l3659 1FAA  
                   l2699 126D                     l2971 09E2                     l2963 09CE  
                   l2955 099D                     l2947 0974                     l2939 0950  
                   l2891 08AE                     l2883 0896                     l2867 085C  
                   l2875 086D                     l2859 084D                     l2779 13A4  
                   l2787 1E07                     l2795 0761                     l3595 0F59  
                   l3587 0EF4                     l3579 0EB7                     l3763 0CEF  
                   l3499 0C91                     l3691 1F74                     l3677 1FC1  
                   l3669 1FB6                     l3765 1423                     l2973 09EE  
                   l2965 09D6                     l2949 0979                     l2957 09A3  
                   l2893 08C3                     l2877 087D                     l2885 0897  
                   l2869 0861                     l2981 159F                     l2789 1E0F  
                   l2797 0774                     l3597 0F5F                     l3589 0EF5  
                   l3693 1F8B                     l3685 1F64                     l3679 1FC4  
                   l2975 09F7                     l2967 09DC                     l2959 09B0  
                   l2895 08CB                     l2887 089C                     l2879 0889  
                   l2991 15B8                     l2983 15A3                     l2799 077D  
                   l3599 0F70                     l3695 1F95                     l3687 1F70  
                   l3697 1E2E                     l2969 09E0                     l2897 08D3  
                   l2889 08AD                     l2993 15BA                     l2985 15A5  
                   l2977 1595                     l3689 1F72                     l3699 1E35  
                   l2899 08DB                     l2995 15C3                     l2987 15AA  
                   l2979 159B                     l2997 15C8                     l2989 15AF  
                   l2999 15CC                     STR_1 1800                     STR_2 1816  
                   STR_3 181E                     STR_6 181A                     STR_7 1822  
                   u3000 0B3B                     u3001 0B3A                     u3100 0BF2  
                   u3020 0B63                     u3101 0BF1                     u3021 0B62  
                   u3110 0BF9                     u3030 0BA5                     u3111 0BF8  
                   u3031 0BA4                     u3023 0B5F                     u3015 0B40  
                   u4000 0855                     u3200 0C58                     u3120 0BFF  
                   u3040 0BBF                     u4001 0854                     u3201 0C57  
                   u3121 0BFE                     u3041 0BBE                     u4010 085C  
                   u3210 0C5F                     u3130 0C06                     u3050 0BC4  
                   u4011 085B                     u3211 0C5E                     u3131 0C05  
                   u3051 0BC3                     u4100 0910                     u4020 0861  
                   u3220 0C6F                     u3140 0C10                     u3300 12B0  
                   u4101 090F                     u4021 0860                     u3221 0C6E  
                   u3141 0C0F                     u4110 0925                     u4030 087D  
                   u3230 1EC3                     u3150 0C1C                     u3070 0BDA  
                   u3310 12BE                     u4111 0924                     u4031 087C  
                   u3231 1EC2                     u3151 0C1B                     u3071 0BD9  
                   u3311 12BD                     u4200 0979                     u4120 092E  
                   u4040 089C                     u3160 0C2B                     u3080 0BDF  
                   u3320 12CB                     u3400 1F40                     u5000 06B4  
                   u4201 0978                     u4121 092D                     u4105 090C  
                   u4041 089B                     u3081 0BDE                     u3065 0BD0  
                   u3305 12AC                     u5001 06B3                     u4210 0985  
                   u4050 08E2                     u3250 1ED3                     u3170 0C3A  
                   u3090 0BEA                     u3330 12D5                     u3410 1F59  
                   u5010 06C3                     u4211 0984                     u4051 08E1  
                   u3251 1ED2                     u3171 0C39                     u3091 0BE9  
                   u3331 12D4                     u3411 1F58                     u5011 06C2  
                   u5100 146A                     u4220 0993                     u4140 093C  
                   u4300 15D7                     u3180 0C45                     u3340 12E7  
                   u3500 1561                     u3420 14CB                     u3260 1165  
                   u5020 06CF                     u4141 093B                     u3245 1EC8  
                   u4301 15D6                     u3181 0C44                     u3165 0C27  
                   u3341 12E6                     u3325 12C7                     u3501 1560  
                   u3261 1164                     u5021 06CE                     u5110 148C  
                   u4230 09B0                     u4310 15DC                     u3190 0C4A  
                   u3350 12F4                     u3510 1577                     u3430 14E6  
                   u3270 1174                     u5030 0700                     _PIE0 0716  
                   u5111 148B                     u4231 09AF                     u4135 0932  
                   u4311 15DB                     u3191 0C49                     u3431 14E5  
                   u3271 1173                     u5031 06FE                     u5015 06BF  
                   u5120 1493                     u3600 1233                     u4240 09CB  
                   u4160 094E                     u4080 08F4                     u4400 1743  
                   u4320 15F5                     u2800 0A06                     u3360 12FF  
                   u3520 1581                     u3440 14EC                     u2720 10B1  
                   u3280 119E                     u5040 0701                     u5200 0D0C  
                   u5121 1492                     u3601 1232                     u4241 09CA  
                   u4225 098F                     u4161 094D                     u4081 08F3  
                   u4065 08E3                     u4401 1742                     u4321 15F4  
                   u2801 0A05                     u3361 12FD                     u3521 1580  
                   u3441 14EB                     u3425 14C7                     u2721 10B0  
                   u3281 119D                     u5201 0D0B                     _PIE3 0719  
                   u3530 1E24                     u3610 1245                     u4250 09E0  
                   u4170 0954                     u4330 15FA                     u2810 0A0D  
                   u3370 1300                     u3450 14FA                     u2730 10B6  
                   u3290 11A3                     u5050 0722                     u5130 11D0  
                   u5210 0D23                     _PIE4 071A                     u3531 1E22  
                   u3611 1244                     u4251 09DF                     u4235 09AC  
                   u4171 0953                     u4155 093F                     u4075 08EA  
                   u4331 15F9                     u2811 0A0C                     u3355 12F0  
                   u3515 1573                     u3435 14E2                     u2731 10B5  
                   u3291 11A2                     u5051 0721                     u5131 11CF  
                   u5211 0D22                     u3540 1E25                     u5060 13D3  
                   u3700 1112                     u4180 0968                     u4500 17CF  
                   u4420 1755                     u4260 15A3                     u2900 0ACE  
                   u2820 0A12                     u3460 1518                     u2740 10C6  
                   u3380 1EB2                     u5140 11EA                     u5300 0E4D  
                   u5220 0D3C                     u5061 13D2                     u3701 1111  
                   u4245 09C7                     u4181 0967                     u4501 17CE  
                   u4421 1754                     u4261 15A2                     u2901 0ACC  
                   u2821 0A11                     u3461 1517                     u2741 10C5  
                   u3285 119A                     u3381 1EB1                     u5141 11E9  
                   u5301 0E4C                     u5221 0D3B                     u3550 1007  
                   u5070 13E7                     u3630 1256                     u3710 111E  
                   u4190 096F                     u4510 17EB                     u4430 175B  
                   u4270 15AA                     u2910 0ACF                     u2830 0A32  
                   u3470 1526                     u2750 10E3                     u3390 1F3F  
                   u5150 11F3                     u5310 0E70                     u5230 0D7C  
                   u3551 1006                     u5071 13E6                     u3631 1255  
                   u3711 111D                     u4191 096E                     u4095 08F7  
                   u4511 17EA                     u4431 175A                     u4415 1746  
                   u4271 15A9                     u2831 0A31                     u3455 14F6  
                   u2751 10E2                     u3391 1F3D                     u5151 11F2  
                   u5311 0E6F                     u5231 0D7A                     u5400 1FA0  
                   u4520 1E76                     u5080 140B                     u3800 10A6  
                   u4440 176F                     u4360 1704                     u4280 15AF  
                   u2920 0AE5                     u2840 0A3C                     u3480 1530  
                   u2760 1F2D                     u4600 00CD                     u5160 11F9  
                   u5320 0E92                     u5240 0D7D                     u5401 1F9F  
                   u4521 1E75                     u5081 140A                     u3625 1249  
                   u3801 10A5                     u4505 17CB                     u4441 176E  
                   u4345 167B                     u4281 15AE                     u2921 0AE4  
                   u2841 0A3B                     u3481 152F                     u2761 1F2C  
                   u5161 11F8                     u5321 0E91                     u5410 1E40  
                   u4530 1E85                     u5090 1469                     u3650 1267  
                   u3730 112F                     u3810 1323                     u4450 1776  
                   u4370 171B                     u4290 15D0                     u2930 0AF3  
                   u2850 0A43                     u3490 1557                     u2770 1EEE  
                   u4610 00EE                     u5170 1208                     u5330 0EB7  
                   u5250 0DA5                     u5411 1E3F                     u4531 1E84  
                   u5091 1467                     u3651 1266                     u3731 112E  
                   u3811 1322                     u4451 1775                     u4355 16AA  
                   u4291 15CF                     u2931 0AF2                     u2851 0A42  
                   u3475 1522                     u2755 10DF                     u2771 1EED  
                   u4611 00ED                     u5171 1207                     u5331 0EB6  
                   u5251 0DA4                     u5420 1E4A                     u3580 101B  
                   u3740 113B                     u3820 133F                     u4460 1780  
                   u2860 0A48                     u3900 07A7                     u2780 0810  
                   u4700 029B                     u4620 0133                     u4540 0050  
                   u5340 0F07                     u5260 0DB9                     u5180 0C84  
                   u5421 1E49                     u3581 101A                     u3565 100C  
                   u3645 1259                     u3741 113A                     u3725 1122  
                   u3805 10A2                     u3821 133E                     u4461 177F  
                   u4365 1700                     u2861 0A47                     u3901 07A6  
                   u2781 080E                     u4701 029A                     u4621 0132  
                   u4541 004F                     u5341 0F06                     u5261 0DB8  
                   u5181 0C83                     u3670 1278                     u3590 1227  
                   u3830 134C                     u4470 178C                     u2950 0B09  
                   u2870 0A62                     u2790 0811                     u4710 02AE  
                   u4630 0145                     u4550 007B                     u5350 0F36  
                   u5270 0DD6                     u5190 0D07                     u3575 1011  
                   u3671 1277                     u3655 1263                     u3591 1226  
                   u3831 134B                     u4471 178B                     u4375 1717  
                   u2951 0B08                     u2871 0A61                     u3495 1553  
                   u4711 02AD                     u4631 0143                     u4551 007A  
                   u5351 0F34                     u5271 0DD5                     u5191 0D06  
                   u3680 127F                     u3760 114B                     u3840 1378  
                   u4480 179A                     u2960 0B0E                     u2880 0A66  
                   u3920 07C1                     u4800 0335                     u4720 02C3  
                   u4640 0146                     u4560 0080                     u5360 0F37  
                   u5280 0E24                     u3681 127E                     u3665 126E  
                   u3761 114A                     u3745 1137                     u3841 1377  
                   u4385 1726                     u2961 0B0D                     u2945 0AF8  
                   u2881 0A65                     u3921 07C0                     u4801 0334  
                   u4721 02C2                     u4561 007F                     u5281 0E22  
                   u3770 1152                     u3690 1106                     u3850 13B6  
                   u4490 17B7                     u2970 0B13                     u2890 0AC5  
                   u3930 07C9                     u4810 0346                     u4730 02D8  
                   u4650 0167                     u4570 0088                     u5370 0F5F  
                   u5290 0E25                     u3771 1151                     u3755 1141  
                   u3691 1105                     u3851 13B5                     u4491 17B6  
                   u4395 1739                     u2971 0B12                     u2891 0AC4  
                   u3931 07C8                     u3915 07B3                     u4811 0345  
                   u4731 02D7                     u4715 02AA                     u4651 0166  
                   u4571 0087                     u5371 0F5E                     u3780 1070  
                   u3860 1E0F                     u2980 0B29                     u4900 0533  
                   u4820 0420                     u4740 02E7                     u4660 01BC  
                   u4580 00BA                     u5380 0FB2                     u3781 106F  
                   u4485 1796                     u3861 1E0E                     u2981 0B28  
                   u4901 0532                     u4821 041F                     u4741 02E6  
                   u4661 01BB                     u4581 00B9                     u5381 0FB1  
                   u5437 1051                     u3790 108C                     u2990 0B2D  
                   u3950 07E2                     u3870 0774                     u4910 053F  
                   u4830 0473                     u4750 0303                     u4670 022A  
                   u4590 00CC                     u5390 1FF5                     u3791 108B  
                   u3855 13B2                     u4495 17B3                     u2991 0B2C  
                   u2895 0AC1                     u3951 07E1                     u3871 0773  
                   u4911 053E                     u4831 0472                     u4751 0302  
                   u4671 0229                     u4591 00CA                     u5391 1FF4  
                   u3960 07E9                     u3880 078B                     u4920 0543  
                   u4840 0495                     u4760 031B                     u4680 0275  
                   u3961 07E8                     u3945 07D5                     u4921 0542  
                   u4841 0494                     u4825 041C                     u4761 031A  
                   u4745 02E3                     u4681 0274                     u3970 0827  
                   u3890 07A0                     u4930 057E                     u4850 049A  
                   u4770 0321                     u4690 0294                     i1l91 0006  
                   u3971 0826                     u3891 079F                     u4931 057D  
                   u4851 0499                     u4771 0320                     u4755 02FF  
                   u4691 0293                     u3980 082E                     u4940 061B  
                   u4860 04CF                     u4780 0325                     u3981 082D  
                   u3885 0787                     u4941 061A                     u4861 04CE  
                   u4781 0324                     u3990 0833                     u4950 062B  
                   u4870 0522                     u4790 0331                     u3991 0832  
                   u4951 062A                     u4871 0521                     u4791 0330  
                   u4960 0634                     u4880 0529                     u4961 0633  
                   u4945 0617                     u4881 0528                     u4970 0639  
                   u4890 052F                     u4971 0638                     u4955 0627  
                   u4891 052E                     u4980 0658                     u4981 0657  
                   u4990 0668                     u4991 0667                     _TMR0 059C  
                   _TMR1 020C                     _dbuf 01A0                     _atoi 13BC  
                   _main 1022                     _prec 013C                     _nout 0138  
                   pad@i 0027                     pad@p 0025                     fsr0h 0005  
                   fsr1h 0007                     indf0 0000                     fsr0l 0004  
                   indf1 0001                     fsr1l 0006                     pad@w 0029  
                   btemp 007E            ___fpclassifyf 128B                     start 0008  
        ___fldiv@new_exp 0025                    ??_ISR 0070                    ??_pad 007C  
          ___fltol@sign1 0079                    ?_atoi 0076          __end_of___fladd 0C71  
                  ?_main 0070          __end_of___fldiv 09F8          __end_of___awdiv 128B  
        __end_of___flneg 1E14                    STR_10 1826                    STR_12 1826  
        __end_of___awmod 115E          __end_of___flmul 1800          __end_of___flsub 1E6D  
        __end_of___fltol 07F5                    _T1CLK 0211          ___awdiv@divisor 0070  
                  _T1CON 020E          ___awdiv@counter 0075             vfpfcnvrt@fmt 004E  
                  _TRISA 0012                    _TRISC 0014                    _flags 013E  
       ??_eusartTransmit 0070                    _fputc 10AC                    _fputs 1F04  
        __end_of_isdigit 1E2D                    atoi@n 0027                    pad@fp 002B  
                  atoi@s 0076                    _width 013A                    _putch 07FB  
                  main@s 0144          __end_of_isspace 1E90          __end_of_isupper 0819  
                  status 0003                    wtemp0 007E          __end_of_sprintf 1F96  
         ?___fpclassifyf 0070          __end_of_tolower 1F62          __end_of_strncmp 1222  
        __initialization 000A             __end_of_atoi 14A6             __end_of_main 105C  
                 ??_atoi 0078                   ??_main 0142                   ?_fputc 0070  
                 ?_fputs 0078         ___awdiv@dividend 0072                   _ANSELA 1F38  
                 ?_putch 0070                   _ANSELC 1F4E                   _T0CON0 059E  
                 _T0CON1 059F          _g_sensorVersion 0134                   _RC1STA 011D  
                 _RC4PPS 1F24                   _OSCFRQ 0893            vfpfcnvrt@done 0056  
                 _SPBRGL 011B                   _TX1REG 011A                   _TX1STA 011E  
           vfprintf@cfmt 006D                   ___flge 130E                   ___fleq 105C  
              ??___fladd 0020                   ___wmul 1000                ??___fldiv 0078  
              ??___awdiv 0074                ??___flneg 0074                ??___awmod 0074  
              ??___flmul 0079                ??___flsub 007E                ??___fltol 0074  
                 _efgtoa 001E                   _floorf 14A6         ___awdiv@quotient 0077  
        ___awmod@divisor 0070          ___awmod@counter 0075                   pad@buf 0024  
                 _strcpy 1E90                   _strlen 1EDA                   fputc@c 0070  
                 fputs@c 0020                   fputs@i 0021                   fputs@s 0023  
              ??_isdigit 0072       __size_of__Umul8_16 0026          ___fpclassifyf@e 0020  
        ___fpclassifyf@u 0022          ___fpclassifyf@x 0070                ??_isspace 0072  
              ??_isupper 0072                   putch@c 0070         __end_of_vfprintf 2000  
              ??_sprintf 006F                ??_tolower 0078                ??_strncmp 0074  
             ___flge@ff1 0035               ___flge@ff2 0039          ??___fpclassifyf 0074  
             ___fleq@ff1 0070               ___fleq@ff2 0074  __end_of__initialization 001A  
             ___flneg@f1 0070               ___fltol@f1 0070           __pcstackCOMMON 0070  
          __end_of_fputc 1101            __end_of_fputs 1F2F            __end_of_putch 07FC  
                ??_fputc 0073                  ??_fputs 0079                  ??_putch 0070  
             __pbssBANK2 0120               __pbssBANK3 01A0        __end_of__Umul8_16 1EDA  
             _efgtoa$252 00A4               _efgtoa$253 00A6               _efgtoa$262 00AA  
             _efgtoa$263 00AC               _efgtoa$264 00AE               _efgtoa$258 00A8  
             __pmaintext 1022                  ?___flge 0035                  ?___fleq 0070  
                ?___wmul 0070               __pintentry 0004                  ?_efgtoa 0045  
                ?_floorf 002D                  ?_strcpy 0070                  ?_strlen 0070  
                _OSCCON1 088D       __size_of_vfpfcnvrt 038F             _g_sensorData 0120  
        __size_of___flge 00AE          __size_of___fleq 0050                  ___fladd 09F8  
                ___fldiv 0819                  ___awdiv 1222                  ___flneg 1E07  
                ___awmod 1101                  ___flmul 1595                  ___flsub 1E4C  
                ___fltol 0761          __size_of___wmul 0022                ?_vfprintf 0067  
        __size_of_efgtoa 0743          __size_of_floorf 00EF               _initialize 1F96  
                __ptext1 1F62                  __ptext2 1FCB                  __ptext3 0C71  
                __ptext4 11BB                  __ptext5 001E                  __ptext6 1F2F  
                __ptext7 0800                  __ptext8 1E90                  __ptext9 115E  
        __size_of_strcpy 0024          __size_of_strlen 002A             __size_of_ISR 0004  
           __size_of_pad 005D                  _isdigit 1E14         ___awmod@dividend 0072  
                _isspace 1E6D                  _isupper 0800                  efgtoa@c 0049  
                efgtoa@d 00B8                  efgtoa@e 00D1                  efgtoa@f 0045  
                efgtoa@g 00CD                  efgtoa@h 00C3                  efgtoa@i 00CB  
                efgtoa@l 00C7                  efgtoa@m 00B4                  efgtoa@n 00D3  
                efgtoa@p 00BD                  efgtoa@t 00B0                  efgtoa@u 00D5  
                efgtoa@w 00C0                  atoi@neg 0020                  _sprintf 1F62  
                _tolower 1F2F                  clrloop0 07F6                  _strncmp 11BB  
   end_of_initialization 001A                  floorf@e 003B                  floorf@m 0037  
                floorf@u 003D                  floorf@x 002D                  fputc@fp 0072  
                fputs@fp 0078        __end_of_vfpfcnvrt 1000               efgtoa@mode 00C2  
             efgtoa@sign 00BA               ??_vfprintf 006A                  strcpy@d 0076  
                strlen@a 0076                  strcpy@s 0074                  strlen@s 0077  
            ___fladd@grs 007B              ___fldiv@grs 0027              ___fldiv@rem 0020  
            ___flmul@grs 0029  __size_of_eusartTransmit 001F           __end_of___flge 13BC  
         __end_of___fleq 10AC              vfpfcnvrt@ap 004F              vfpfcnvrt@ct 0062  
            vfpfcnvrt@fp 0066           __end_of___wmul 1022           __end_of_efgtoa 0761  
            ?_initialize 0070           __end_of_floorf 1595               floorf@F514 012C  
         __end_of_strcpy 1EB4           __end_of_strlen 1F04      start_initialization 000A  
            __end_of_ISR 0008              __end_of_pad 11BB    __end_of___fpclassifyf 130E  
            vfprintf@fmt 0067                 ??___flge 003D                 ??___fleq 0078  
               ??___wmul 0074                 ??_efgtoa 004A                __Umul8_16 1EB4  
               ??_floorf 0031                 ??_strcpy 0072                 ??_strlen 0072  
              ___fladd@a 0074                ___fladd@b 0070                ___fldiv@a 0070  
              ___fldiv@b 0074                ___flmul@a 0024                ___flmul@b 0020  
              ___flsub@a 0035                ___flsub@b 0039                ___latbits 0002  
          __pcstackBANK0 0020            __pcstackBANK1 00A0            __pcstackBANK2 0142  
    __size_of_initialize 0035            _g_rxFErrCount 0141                 ?___fladd 0070  
               ?___fldiv 0070                 ?___awdiv 0070                 ?___flneg 0070  
               ?___awmod 0070                 ?___flmul 0020                 ?___flsub 0035  
               ?___fltol 0070               ?__Umul8_16 0070        __size_of_vfprintf 0035  
               _BAUD1CON 011F                 ?_isdigit 0070                 ?_isspace 0070  
               ?_isupper 0070                 ?_sprintf 00D9                 ?_tolower 0076  
         __size_of_fputc 0055           __size_of_fputs 002B                 ?_strncmp 0070  
          _g_rxOErrCount 0140           __size_of_putch 0001           ___wmul@product 0074  
              clear_ram0 07F5           _eusartTransmit 1E2D                 _PIR3bits 070F  
              _vfpfcnvrt 0C71        ___wmul@multiplier 0070               vfpfcnvrt@c 0065  
             vfpfcnvrt@f 005E   __end_of_eusartTransmit 1E4C               vfprintf@ap 0069  
             vfprintf@fp 006C              ??__Umul8_16 0072         __size_of___fladd 0279  
       __size_of___fldiv 01DF         __size_of___awdiv 0069         __size_of___flneg 000D  
       __size_of___awmod 005D         __size_of___flmul 026B         __size_of___flsub 0021  
       __size_of___fltol 0094               ?_vfpfcnvrt 004E             ??_initialize 0070  
     ___fpclassifyf@F453 0130               sprintf@fmt 00D9               sprintf@ret 00E7  
               _atoi$587 0022                 _atoi$588 0026                 _atoi$589 0024  
       __size_of_isdigit 0019         __size_of_isspace 0023                 __ptext10 1EDA  
               __ptext11 1F04                 __ptext20 1595                 __ptext12 10AC  
               __ptext21 1EB4                 __ptext13 07FB                 __ptext30 1000  
               __ptext22 130E                 __ptext14 14A6                 __ptext31 1F96  
               __ptext23 105C                 __ptext15 128B                 __ptext32 1E2D  
               __ptext24 0819                 __ptext16 0761                 __ptext25 1101  
               __ptext17 1E4C                 __ptext26 1222                 __ptext18 09F8  
               __ptext27 13BC                 __ptext19 1E07                 __ptext28 1E6D  
               __ptext29 1E14         __size_of_isupper 0019         __size_of_sprintf 0034  
       __size_of_tolower 0033              _OSCCON3bits 088F               strcpy@dest 0077  
       __size_of_strncmp 0067            __size_of_atoi 00EA            __size_of_main 003A  
        ?_eusartTransmit 0070       __end_of_initialize 1FCB                 efgtoa@fp 00BC  
               efgtoa@ne 00B6                 efgtoa@pp 00B2                 efgtoa@ou 00A0  
               int$flags 007E                 _vfprintf 1FCB              _isspace$618 0074  
               isdigit@c 0070                 intlevel1 0000                sprintf@ap 00EA  
               isspace@c 0070                strcpy@src 0070                 isupper@c 0070  
              strncmp@_l 0076                strncmp@_r 0070              efgtoa@nmode 00BF  
            ??_vfpfcnvrt 0050            _vfpfcnvrt$283 005C            _vfpfcnvrt$278 0058  
          _vfpfcnvrt$279 005A            __pstringtext1 1800            __pstringtext2 1816  
          __pstringtext3 181A            __pstringtext4 181E            __pstringtext5 1822  
          __pstringtext6 1826            __pstringtext7 0000   __Umul8_16@multiplicand 0070  
               sprintf@f 00EB                 tolower@c 0076                 sprintf@s 00E9  
 __size_of___fpclassifyf 0083                 strncmp@l 0079                 strncmp@n 0072  
               strncmp@r 0077            ___fladd@signs 0078             ___fladd@aexp 0079  
           ___fladd@bexp 007A     __Umul8_16@multiplier 0078          eusartTransmit@s 0071  
      __Umul8_16@product 0074  
