

Microchip Technology PIC LITE Macro Assembler V2.00 build -1524193055 
                                                                                               Sat Jan 18 21:53:21 2020

Microchip Technology Omniscient Code Generator v2.00 (Free mode) build 20180527130849
     1  0000                     
      + 0000                     
     2                           ; Version 2.00
     3                           ; Generated 27/05/2018 GMT
     4                           
     5                           ; 
     6                           ; Copyright © 2018, Microchip Technology Inc. and its subsidiaries ("Microchip")
     7                           ; All rights reserved.
     8                           ; 
     9                           ; This software is developed by Microchip Technology Inc. and its subsidiaries ("Microch
                                 ip").
    10                           ; 
    11                           ; Redistribution and use in source and binary forms, with or without modification, are
    12                           ; permitted provided that the following conditions are met:
    13                           ; 
    14                           ;     1. Redistributions of source code must retain the above copyright notice, this lis
                                 t of
    15                           ;        conditions and the following disclaimer.
    16                           ; 
    17                           ;     2. Redistributions in binary form must reproduce the above copyright notice, this 
                                 list
    18                           ;        of conditions and the following disclaimer in the documentation and/or other
    19                           ;        materials provided with the distribution.
    20                           ; 
    21                           ;     3. Microchip's name may not be used to endorse or promote products derived from th
                                 is
    22                           ;        software without specific prior written permission.
    23                           ; 
    24                           ; THIS SOFTWARE IS PROVIDED BY MICROCHIP "AS IS" AND ANY EXPRESS OR IMPLIED WARRANTIES,

    25                           ; INCLUDING, BUT NOT LIMITED TO, THE IMPLIED WARRANTIES OF MERCHANTABILITY AND FITNESS F
                                 OR
    26                           ; PURPOSE ARE DISCLAIMED.  IN NO EVENT SHALL MICROCHIP BE LIABLE FOR ANY DIRECT, INDIREC
                                 T,
    27                           ; INCIDENTAL, SPECIAL, EXEMPLARY, OR CONSEQUENTIAL DAMAGES (INCLUDING BUT NOT LIMITED TO
                                 
    28                           ; PROCUREMENT OF SUBSTITUTE GOODS OR SERVICES; LOSS OF USE, DATA OR PROFITS; OR BUSINESS
                                 
    29                           ; INTERRUPTION) HOWSOEVER CAUSED AND ON ANY THEORY OF LIABILITY, WHETHER IN CONTRACT, ST
                                 RICT
    30                           ; LIABILITY, OR TORT (INCLUDING NEGLIGENCE OR OTHERWISE) ARISING IN ANY WAY OUT OF THE U
                                 SE OF
    31                           ; THIS SOFTWARE, EVEN IF ADVISED OF THE POSSIBILITY OF SUCH DAMAGE.
    32                           ; 
    33                           
    34                           
    35                           ; 
    36                           ; Code-generator required, PIC16F15325 Definitions
    37                           ; 
    38  0008                     fsr0h equ 05h
    39  0005                     fsr0l equ 04h
    40  0004                     fsr1h equ 07h
    41  0007                     fsr1l equ 06h
    42  0006                     indf equ 00h
    43  0000                     indf0 equ 00h
    44  0000                     indf1 equ 01h
    45  0001                     intcon equ 0Bh
    46  000B                     pc equ 02h
    47  0002                     pcl equ 02h
    48  0002                     pclath equ 0Ah
    49  000A                     status equ 03h
    50  0003                     wreg equ 09h
    51  0009                     
     2                           opt pagewidth 120
     3  0000                     byte0	macro	val
     4                           	(getbyte(val,0))
     5                           endm
     6  0000                     byte1	macro	val
     7                           	(getbyte(val,1))
     8                           endm
     9  0000                     byte2	macro	val
    10                           	(getbyte(val,2))
    11                           endm
    12  0000                     byte3	macro	val
    13                           	(getbyte(val,3))
    14                           endm
    15  0000                     byte4	macro	val
    16                           	(getbyte(val,4))
    17                           endm
    18  0000                     byte5	macro	val
    19                           	(getbyte(val,5))
    20                           endm
    21  0000                     byte6	macro	val
    22                           	(getbyte(val,6))
    23                           endm
    24  0000                     byte7	macro	val
    25                           	(getbyte(val,7))
    26                           endm
    27  0000                     getword	macro	val,pos
    28                           	(((val) >> (8 * pos)) and 0xffff)
    29                           endm
    30  0000                     word0	macro	val
    31                           	(getword(val,0))
    32                           endm
    33  0000                     word1	macro	val
    34                           	(getword(val,2))
    35                           endm
    36  0000                     word2	macro	val
    37                           	(getword(val,4))
    38                           endm
    39  0000                     word3	macro	val
    40                           	(getword(val,6))
    41                           endm
    42  0000                     gettword	macro	val,pos
    43                           	(((val) >> (8 * pos)) and 0xffffff)
    44                           endm
    45  0000                     tword0	macro	val
    46                           	(gettword(val,0))
    47                           endm
    48  0000                     tword1	macro	val
    49                           	(gettword(val,3))
    50                           endm
    51  0000                     tword2	macro	val
    52                           	(gettword(val,6))
    53                           endm
    54  0000                     getdword	macro	val,pos
    55                           	(((val) >> (8 * pos)) and 0xffffffff)
    56                           endm
    57  0000                     dword0	macro	val
    58                           	(getdword(val,0))
    59                           endm
    60  0000                     dword1	macro	val
    61                           	(getdword(val,4))
    62                           endm
    63  0000                     clrc	macro
    64                           	bcf	3,0
    65                           	endm
    66  0000                     clrz	macro
    67                           	bcf	3,2
    68                           	endm
    69  0000                     setc	macro
    70                           	bsf	3,0
    71                           	endm
    72  0000                     setz	macro
    73                           	bsf	3,2
    74                           	endm
    75  0000                     skipc	macro
    76                           	btfss	3,0
    77                           	endm
    78  0000                     skipz	macro
    79                           	btfss	3,2
    80                           	endm
    81  0000                     skipnc	macro
    82                           	btfsc	3,0
    83                           	endm
    84  0000                     skipnz	macro
    85                           	btfsc	3,2
    86                           	endm
    87  0000                     pushw	macro
    88                           	movwi fsr1++
    89                           	endm
    90  0000                     popw	macro
    91                           	moviw --fsr1
    92                           	endm
    93  0000                     # 110 "C:\Program Files (x86)\Microchip\xc8\v2.00\pic\include\pic16f15325.h"
    94                           INDF0 equ 00h ;# 
    95  0000                     # 130 "C:\Program Files (x86)\Microchip\xc8\v2.00\pic\include\pic16f15325.h"
    96                           INDF1 equ 01h ;# 
    97  0001                     # 150 "C:\Program Files (x86)\Microchip\xc8\v2.00\pic\include\pic16f15325.h"
    98                           PCL equ 02h ;# 
    99  0002                     # 170 "C:\Program Files (x86)\Microchip\xc8\v2.00\pic\include\pic16f15325.h"
   100                           STATUS equ 03h ;# 
   101  0003                     # 233 "C:\Program Files (x86)\Microchip\xc8\v2.00\pic\include\pic16f15325.h"
   102                           FSR0L equ 04h ;# 
   103  0004                     # 253 "C:\Program Files (x86)\Microchip\xc8\v2.00\pic\include\pic16f15325.h"
   104                           FSR0H equ 05h ;# 
   105  0005                     # 277 "C:\Program Files (x86)\Microchip\xc8\v2.00\pic\include\pic16f15325.h"
   106                           FSR1L equ 06h ;# 
   107  0006                     # 297 "C:\Program Files (x86)\Microchip\xc8\v2.00\pic\include\pic16f15325.h"
   108                           FSR1H equ 07h ;# 
   109  0007                     # 317 "C:\Program Files (x86)\Microchip\xc8\v2.00\pic\include\pic16f15325.h"
   110                           BSR equ 08h ;# 
   111  0008                     # 375 "C:\Program Files (x86)\Microchip\xc8\v2.00\pic\include\pic16f15325.h"
   112                           WREG equ 09h ;# 
   113  0009                     # 395 "C:\Program Files (x86)\Microchip\xc8\v2.00\pic\include\pic16f15325.h"
   114                           PCLATH equ 0Ah ;# 
   115  000A                     # 415 "C:\Program Files (x86)\Microchip\xc8\v2.00\pic\include\pic16f15325.h"
   116                           INTCON equ 0Bh ;# 
   117  000B                     # 448 "C:\Program Files (x86)\Microchip\xc8\v2.00\pic\include\pic16f15325.h"
   118                           PORTA equ 0Ch ;# 
   119  000C                     # 498 "C:\Program Files (x86)\Microchip\xc8\v2.00\pic\include\pic16f15325.h"
   120                           PORTC equ 0Eh ;# 
   121  000E                     # 548 "C:\Program Files (x86)\Microchip\xc8\v2.00\pic\include\pic16f15325.h"
   122                           TRISA equ 012h ;# 
   123  0012                     # 593 "C:\Program Files (x86)\Microchip\xc8\v2.00\pic\include\pic16f15325.h"
   124                           TRISC equ 014h ;# 
   125  0014                     # 643 "C:\Program Files (x86)\Microchip\xc8\v2.00\pic\include\pic16f15325.h"
   126                           LATA equ 018h ;# 
   127  0018                     # 688 "C:\Program Files (x86)\Microchip\xc8\v2.00\pic\include\pic16f15325.h"
   128                           LATC equ 01Ah ;# 
   129  001A                     # 738 "C:\Program Files (x86)\Microchip\xc8\v2.00\pic\include\pic16f15325.h"
   130                           ADRES equ 09Bh ;# 
   131  009B                     # 745 "C:\Program Files (x86)\Microchip\xc8\v2.00\pic\include\pic16f15325.h"
   132                           ADRESL equ 09Bh ;# 
   133  009B                     # 815 "C:\Program Files (x86)\Microchip\xc8\v2.00\pic\include\pic16f15325.h"
   134                           ADRESH equ 09Ch ;# 
   135  009C                     # 885 "C:\Program Files (x86)\Microchip\xc8\v2.00\pic\include\pic16f15325.h"
   136                           ADCON0 equ 09Dh ;# 
   137  009D                     # 956 "C:\Program Files (x86)\Microchip\xc8\v2.00\pic\include\pic16f15325.h"
   138                           ADCON1 equ 09Eh ;# 
   139  009E                     # 1022 "C:\Program Files (x86)\Microchip\xc8\v2.00\pic\include\pic16f15325.h"
   140                           ADACT equ 09Fh ;# 
   141  009F                     # 1074 "C:\Program Files (x86)\Microchip\xc8\v2.00\pic\include\pic16f15325.h"
   142                           RC1REG equ 0119h ;# 
   143  0119                     # 1079 "C:\Program Files (x86)\Microchip\xc8\v2.00\pic\include\pic16f15325.h"
   144                           RCREG equ 0119h ;# 
   145  0119                     # 1083 "C:\Program Files (x86)\Microchip\xc8\v2.00\pic\include\pic16f15325.h"
   146                           RCREG1 equ 0119h ;# 
   147  0119                     # 1128 "C:\Program Files (x86)\Microchip\xc8\v2.00\pic\include\pic16f15325.h"
   148                           TX1REG equ 011Ah ;# 
   149  011A                     # 1133 "C:\Program Files (x86)\Microchip\xc8\v2.00\pic\include\pic16f15325.h"
   150                           TXREG1 equ 011Ah ;# 
   151  011A                     # 1137 "C:\Program Files (x86)\Microchip\xc8\v2.00\pic\include\pic16f15325.h"
   152                           TXREG equ 011Ah ;# 
   153  011A                     # 1182 "C:\Program Files (x86)\Microchip\xc8\v2.00\pic\include\pic16f15325.h"
   154                           SP1BRG equ 011Bh ;# 
   155  011B                     # 1189 "C:\Program Files (x86)\Microchip\xc8\v2.00\pic\include\pic16f15325.h"
   156                           SP1BRGL equ 011Bh ;# 
   157  011B                     # 1194 "C:\Program Files (x86)\Microchip\xc8\v2.00\pic\include\pic16f15325.h"
   158                           SPBRG equ 011Bh ;# 
   159  011B                     # 1198 "C:\Program Files (x86)\Microchip\xc8\v2.00\pic\include\pic16f15325.h"
   160                           SPBRG1 equ 011Bh ;# 
   161  011B                     # 1202 "C:\Program Files (x86)\Microchip\xc8\v2.00\pic\include\pic16f15325.h"
   162                           SPBRGL equ 011Bh ;# 
   163  011B                     # 1259 "C:\Program Files (x86)\Microchip\xc8\v2.00\pic\include\pic16f15325.h"
   164                           SP1BRGH equ 011Ch ;# 
   165  011C                     # 1264 "C:\Program Files (x86)\Microchip\xc8\v2.00\pic\include\pic16f15325.h"
   166                           SPBRGH equ 011Ch ;# 
   167  011C                     # 1268 "C:\Program Files (x86)\Microchip\xc8\v2.00\pic\include\pic16f15325.h"
   168                           SPBRGH1 equ 011Ch ;# 
   169  011C                     # 1313 "C:\Program Files (x86)\Microchip\xc8\v2.00\pic\include\pic16f15325.h"
   170                           RC1STA equ 011Dh ;# 
   171  011D                     # 1318 "C:\Program Files (x86)\Microchip\xc8\v2.00\pic\include\pic16f15325.h"
   172                           RCSTA1 equ 011Dh ;# 
   173  011D                     # 1322 "C:\Program Files (x86)\Microchip\xc8\v2.00\pic\include\pic16f15325.h"
   174                           RCSTA equ 011Dh ;# 
   175  011D                     # 1493 "C:\Program Files (x86)\Microchip\xc8\v2.00\pic\include\pic16f15325.h"
   176                           TX1STA equ 011Eh ;# 
   177  011E                     # 1498 "C:\Program Files (x86)\Microchip\xc8\v2.00\pic\include\pic16f15325.h"
   178                           TXSTA1 equ 011Eh ;# 
   179  011E                     # 1502 "C:\Program Files (x86)\Microchip\xc8\v2.00\pic\include\pic16f15325.h"
   180                           TXSTA equ 011Eh ;# 
   181  011E                     # 1673 "C:\Program Files (x86)\Microchip\xc8\v2.00\pic\include\pic16f15325.h"
   182                           BAUD1CON equ 011Fh ;# 
   183  011F                     # 1678 "C:\Program Files (x86)\Microchip\xc8\v2.00\pic\include\pic16f15325.h"
   184                           BAUDCON1 equ 011Fh ;# 
   185  011F                     # 1682 "C:\Program Files (x86)\Microchip\xc8\v2.00\pic\include\pic16f15325.h"
   186                           BAUDCTL1 equ 011Fh ;# 
   187  011F                     # 1686 "C:\Program Files (x86)\Microchip\xc8\v2.00\pic\include\pic16f15325.h"
   188                           BAUDCON equ 011Fh ;# 
   189  011F                     # 1690 "C:\Program Files (x86)\Microchip\xc8\v2.00\pic\include\pic16f15325.h"
   190                           BAUDCTL equ 011Fh ;# 
   191  011F                     # 1919 "C:\Program Files (x86)\Microchip\xc8\v2.00\pic\include\pic16f15325.h"
   192                           SSP1BUF equ 018Ch ;# 
   193  018C                     # 1939 "C:\Program Files (x86)\Microchip\xc8\v2.00\pic\include\pic16f15325.h"
   194                           SSP1ADD equ 018Dh ;# 
   195  018D                     # 2059 "C:\Program Files (x86)\Microchip\xc8\v2.00\pic\include\pic16f15325.h"
   196                           SSP1MSK equ 018Eh ;# 
   197  018E                     # 2129 "C:\Program Files (x86)\Microchip\xc8\v2.00\pic\include\pic16f15325.h"
   198                           SSP1STAT equ 018Fh ;# 
   199  018F                     # 2493 "C:\Program Files (x86)\Microchip\xc8\v2.00\pic\include\pic16f15325.h"
   200                           SSP1CON1 equ 0190h ;# 
   201  0190                     # 2613 "C:\Program Files (x86)\Microchip\xc8\v2.00\pic\include\pic16f15325.h"
   202                           SSP1CON2 equ 0191h ;# 
   203  0191                     # 2800 "C:\Program Files (x86)\Microchip\xc8\v2.00\pic\include\pic16f15325.h"
   204                           SSP1CON3 equ 0192h ;# 
   205  0192                     # 2862 "C:\Program Files (x86)\Microchip\xc8\v2.00\pic\include\pic16f15325.h"
   206                           TMR1 equ 020Ch ;# 
   207  020C                     # 2869 "C:\Program Files (x86)\Microchip\xc8\v2.00\pic\include\pic16f15325.h"
   208                           TMR1L equ 020Ch ;# 
   209  020C                     # 3039 "C:\Program Files (x86)\Microchip\xc8\v2.00\pic\include\pic16f15325.h"
   210                           TMR1H equ 020Dh ;# 
   211  020D                     # 3159 "C:\Program Files (x86)\Microchip\xc8\v2.00\pic\include\pic16f15325.h"
   212                           T1CON equ 020Eh ;# 
   213  020E                     # 3255 "C:\Program Files (x86)\Microchip\xc8\v2.00\pic\include\pic16f15325.h"
   214                           T1GCON equ 020Fh ;# 
   215  020F                     # 3260 "C:\Program Files (x86)\Microchip\xc8\v2.00\pic\include\pic16f15325.h"
   216                           PR1 equ 020Fh ;# 
   217  020F                     # 3451 "C:\Program Files (x86)\Microchip\xc8\v2.00\pic\include\pic16f15325.h"
   218                           T1GATE equ 0210h ;# 
   219  0210                     # 3456 "C:\Program Files (x86)\Microchip\xc8\v2.00\pic\include\pic16f15325.h"
   220                           TMR1GATE equ 0210h ;# 
   221  0210                     # 3617 "C:\Program Files (x86)\Microchip\xc8\v2.00\pic\include\pic16f15325.h"
   222                           T1CLK equ 0211h ;# 
   223  0211                     # 3622 "C:\Program Files (x86)\Microchip\xc8\v2.00\pic\include\pic16f15325.h"
   224                           TMR1CLK equ 0211h ;# 
   225  0211                     # 3759 "C:\Program Files (x86)\Microchip\xc8\v2.00\pic\include\pic16f15325.h"
   226                           T2TMR equ 028Ch ;# 
   227  028C                     # 3764 "C:\Program Files (x86)\Microchip\xc8\v2.00\pic\include\pic16f15325.h"
   228                           TMR2 equ 028Ch ;# 
   229  028C                     # 3813 "C:\Program Files (x86)\Microchip\xc8\v2.00\pic\include\pic16f15325.h"
   230                           T2PR equ 028Dh ;# 
   231  028D                     # 3818 "C:\Program Files (x86)\Microchip\xc8\v2.00\pic\include\pic16f15325.h"
   232                           PR2 equ 028Dh ;# 
   233  028D                     # 3867 "C:\Program Files (x86)\Microchip\xc8\v2.00\pic\include\pic16f15325.h"
   234                           T2CON equ 028Eh ;# 
   235  028E                     # 4013 "C:\Program Files (x86)\Microchip\xc8\v2.00\pic\include\pic16f15325.h"
   236                           T2HLT equ 028Fh ;# 
   237  028F                     # 4141 "C:\Program Files (x86)\Microchip\xc8\v2.00\pic\include\pic16f15325.h"
   238                           T2CLKCON equ 0290h ;# 
   239  0290                     # 4221 "C:\Program Files (x86)\Microchip\xc8\v2.00\pic\include\pic16f15325.h"
   240                           T2RST equ 0291h ;# 
   241  0291                     # 4301 "C:\Program Files (x86)\Microchip\xc8\v2.00\pic\include\pic16f15325.h"
   242                           CCPR1 equ 030Ch ;# 
   243  030C                     # 4308 "C:\Program Files (x86)\Microchip\xc8\v2.00\pic\include\pic16f15325.h"
   244                           CCPR1L equ 030Ch ;# 
   245  030C                     # 4328 "C:\Program Files (x86)\Microchip\xc8\v2.00\pic\include\pic16f15325.h"
   246                           CCPR1H equ 030Dh ;# 
   247  030D                     # 4348 "C:\Program Files (x86)\Microchip\xc8\v2.00\pic\include\pic16f15325.h"
   248                           CCP1CON equ 030Eh ;# 
   249  030E                     # 4475 "C:\Program Files (x86)\Microchip\xc8\v2.00\pic\include\pic16f15325.h"
   250                           CCP1CAP equ 030Fh ;# 
   251  030F                     # 4543 "C:\Program Files (x86)\Microchip\xc8\v2.00\pic\include\pic16f15325.h"
   252                           CCPR2 equ 0310h ;# 
   253  0310                     # 4550 "C:\Program Files (x86)\Microchip\xc8\v2.00\pic\include\pic16f15325.h"
   254                           CCPR2L equ 0310h ;# 
   255  0310                     # 4570 "C:\Program Files (x86)\Microchip\xc8\v2.00\pic\include\pic16f15325.h"
   256                           CCPR2H equ 0311h ;# 
   257  0311                     # 4590 "C:\Program Files (x86)\Microchip\xc8\v2.00\pic\include\pic16f15325.h"
   258                           CCP2CON equ 0312h ;# 
   259  0312                     # 4717 "C:\Program Files (x86)\Microchip\xc8\v2.00\pic\include\pic16f15325.h"
   260                           CCP2CAP equ 0313h ;# 
   261  0313                     # 4785 "C:\Program Files (x86)\Microchip\xc8\v2.00\pic\include\pic16f15325.h"
   262                           PWM3DC equ 0314h ;# 
   263  0314                     # 4792 "C:\Program Files (x86)\Microchip\xc8\v2.00\pic\include\pic16f15325.h"
   264                           PWM3DCL equ 0314h ;# 
   265  0314                     # 4858 "C:\Program Files (x86)\Microchip\xc8\v2.00\pic\include\pic16f15325.h"
   266                           PWM3DCH equ 0315h ;# 
   267  0315                     # 5028 "C:\Program Files (x86)\Microchip\xc8\v2.00\pic\include\pic16f15325.h"
   268                           PWM3CON equ 0316h ;# 
   269  0316                     # 5084 "C:\Program Files (x86)\Microchip\xc8\v2.00\pic\include\pic16f15325.h"
   270                           PWM4DC equ 0318h ;# 
   271  0318                     # 5091 "C:\Program Files (x86)\Microchip\xc8\v2.00\pic\include\pic16f15325.h"
   272                           PWM4DCL equ 0318h ;# 
   273  0318                     # 5157 "C:\Program Files (x86)\Microchip\xc8\v2.00\pic\include\pic16f15325.h"
   274                           PWM4DCH equ 0319h ;# 
   275  0319                     # 5327 "C:\Program Files (x86)\Microchip\xc8\v2.00\pic\include\pic16f15325.h"
   276                           PWM4CON equ 031Ah ;# 
   277  031A                     # 5383 "C:\Program Files (x86)\Microchip\xc8\v2.00\pic\include\pic16f15325.h"
   278                           PWM5DC equ 031Ch ;# 
   279  031C                     # 5390 "C:\Program Files (x86)\Microchip\xc8\v2.00\pic\include\pic16f15325.h"
   280                           PWM5DCL equ 031Ch ;# 
   281  031C                     # 5456 "C:\Program Files (x86)\Microchip\xc8\v2.00\pic\include\pic16f15325.h"
   282                           PWM5DCH equ 031Dh ;# 
   283  031D                     # 5626 "C:\Program Files (x86)\Microchip\xc8\v2.00\pic\include\pic16f15325.h"
   284                           PWM5CON equ 031Eh ;# 
   285  031E                     # 5682 "C:\Program Files (x86)\Microchip\xc8\v2.00\pic\include\pic16f15325.h"
   286                           PWM6DC equ 038Ch ;# 
   287  038C                     # 5689 "C:\Program Files (x86)\Microchip\xc8\v2.00\pic\include\pic16f15325.h"
   288                           PWM6DCL equ 038Ch ;# 
   289  038C                     # 5755 "C:\Program Files (x86)\Microchip\xc8\v2.00\pic\include\pic16f15325.h"
   290                           PWM6DCH equ 038Dh ;# 
   291  038D                     # 5925 "C:\Program Files (x86)\Microchip\xc8\v2.00\pic\include\pic16f15325.h"
   292                           PWM6CON equ 038Eh ;# 
   293  038E                     # 5983 "C:\Program Files (x86)\Microchip\xc8\v2.00\pic\include\pic16f15325.h"
   294                           NCO1ACC equ 058Ch ;# 
   295  058C                     # 5990 "C:\Program Files (x86)\Microchip\xc8\v2.00\pic\include\pic16f15325.h"
   296                           NCO1ACCL equ 058Ch ;# 
   297  058C                     # 6060 "C:\Program Files (x86)\Microchip\xc8\v2.00\pic\include\pic16f15325.h"
   298                           NCO1ACCH equ 058Dh ;# 
   299  058D                     # 6130 "C:\Program Files (x86)\Microchip\xc8\v2.00\pic\include\pic16f15325.h"
   300                           NCO1ACCU equ 058Eh ;# 
   301  058E                     # 6178 "C:\Program Files (x86)\Microchip\xc8\v2.00\pic\include\pic16f15325.h"
   302                           NCO1INC equ 058Fh ;# 
   303  058F                     # 6185 "C:\Program Files (x86)\Microchip\xc8\v2.00\pic\include\pic16f15325.h"
   304                           NCO1INCL equ 058Fh ;# 
   305  058F                     # 6255 "C:\Program Files (x86)\Microchip\xc8\v2.00\pic\include\pic16f15325.h"
   306                           NCO1INCH equ 0590h ;# 
   307  0590                     # 6325 "C:\Program Files (x86)\Microchip\xc8\v2.00\pic\include\pic16f15325.h"
   308                           NCO1INCU equ 0591h ;# 
   309  0591                     # 6371 "C:\Program Files (x86)\Microchip\xc8\v2.00\pic\include\pic16f15325.h"
   310                           NCO1CON equ 0592h ;# 
   311  0592                     # 6411 "C:\Program Files (x86)\Microchip\xc8\v2.00\pic\include\pic16f15325.h"
   312                           NCO1CLK equ 0593h ;# 
   313  0593                     # 6483 "C:\Program Files (x86)\Microchip\xc8\v2.00\pic\include\pic16f15325.h"
   314                           TMR0L equ 059Ch ;# 
   315  059C                     # 6488 "C:\Program Files (x86)\Microchip\xc8\v2.00\pic\include\pic16f15325.h"
   316                           TMR0 equ 059Ch ;# 
   317  059C                     # 6621 "C:\Program Files (x86)\Microchip\xc8\v2.00\pic\include\pic16f15325.h"
   318                           TMR0H equ 059Dh ;# 
   319  059D                     # 6626 "C:\Program Files (x86)\Microchip\xc8\v2.00\pic\include\pic16f15325.h"
   320                           PR0 equ 059Dh ;# 
   321  059D                     # 6875 "C:\Program Files (x86)\Microchip\xc8\v2.00\pic\include\pic16f15325.h"
   322                           T0CON0 equ 059Eh ;# 
   323  059E                     # 6940 "C:\Program Files (x86)\Microchip\xc8\v2.00\pic\include\pic16f15325.h"
   324                           T0CON1 equ 059Fh ;# 
   325  059F                     # 7051 "C:\Program Files (x86)\Microchip\xc8\v2.00\pic\include\pic16f15325.h"
   326                           CWG1CLKCON equ 060Ch ;# 
   327  060C                     # 7079 "C:\Program Files (x86)\Microchip\xc8\v2.00\pic\include\pic16f15325.h"
   328                           CWG1DAT equ 060Dh ;# 
   329  060D                     # 7125 "C:\Program Files (x86)\Microchip\xc8\v2.00\pic\include\pic16f15325.h"
   330                           CWG1DBR equ 060Eh ;# 
   331  060E                     # 7229 "C:\Program Files (x86)\Microchip\xc8\v2.00\pic\include\pic16f15325.h"
   332                           CWG1DBF equ 060Fh ;# 
   333  060F                     # 7333 "C:\Program Files (x86)\Microchip\xc8\v2.00\pic\include\pic16f15325.h"
   334                           CWG1CON0 equ 0610h ;# 
   335  0610                     # 7434 "C:\Program Files (x86)\Microchip\xc8\v2.00\pic\include\pic16f15325.h"
   336                           CWG1CON1 equ 0611h ;# 
   337  0611                     # 7512 "C:\Program Files (x86)\Microchip\xc8\v2.00\pic\include\pic16f15325.h"
   338                           CWG1AS0 equ 0612h ;# 
   339  0612                     # 7632 "C:\Program Files (x86)\Microchip\xc8\v2.00\pic\include\pic16f15325.h"
   340                           CWG1AS1 equ 0613h ;# 
   341  0613                     # 7676 "C:\Program Files (x86)\Microchip\xc8\v2.00\pic\include\pic16f15325.h"
   342                           CWG1STR equ 0614h ;# 
   343  0614                     # 7788 "C:\Program Files (x86)\Microchip\xc8\v2.00\pic\include\pic16f15325.h"
   344                           PIR0 equ 070Ch ;# 
   345  070C                     # 7821 "C:\Program Files (x86)\Microchip\xc8\v2.00\pic\include\pic16f15325.h"
   346                           PIR1 equ 070Dh ;# 
   347  070D                     # 7860 "C:\Program Files (x86)\Microchip\xc8\v2.00\pic\include\pic16f15325.h"
   348                           PIR2 equ 070Eh ;# 
   349  070E                     # 7893 "C:\Program Files (x86)\Microchip\xc8\v2.00\pic\include\pic16f15325.h"
   350                           PIR3 equ 070Fh ;# 
   351  070F                     # 7944 "C:\Program Files (x86)\Microchip\xc8\v2.00\pic\include\pic16f15325.h"
   352                           PIR4 equ 0710h ;# 
   353  0710                     # 7970 "C:\Program Files (x86)\Microchip\xc8\v2.00\pic\include\pic16f15325.h"
   354                           PIR5 equ 0711h ;# 
   355  0711                     # 8015 "C:\Program Files (x86)\Microchip\xc8\v2.00\pic\include\pic16f15325.h"
   356                           PIR6 equ 0712h ;# 
   357  0712                     # 8041 "C:\Program Files (x86)\Microchip\xc8\v2.00\pic\include\pic16f15325.h"
   358                           PIR7 equ 0713h ;# 
   359  0713                     # 8083 "C:\Program Files (x86)\Microchip\xc8\v2.00\pic\include\pic16f15325.h"
   360                           PIE0 equ 0716h ;# 
   361  0716                     # 8116 "C:\Program Files (x86)\Microchip\xc8\v2.00\pic\include\pic16f15325.h"
   362                           PIE1 equ 0717h ;# 
   363  0717                     # 8149 "C:\Program Files (x86)\Microchip\xc8\v2.00\pic\include\pic16f15325.h"
   364                           PIE2 equ 0718h ;# 
   365  0718                     # 8182 "C:\Program Files (x86)\Microchip\xc8\v2.00\pic\include\pic16f15325.h"
   366                           PIE3 equ 0719h ;# 
   367  0719                     # 8233 "C:\Program Files (x86)\Microchip\xc8\v2.00\pic\include\pic16f15325.h"
   368                           PIE4 equ 071Ah ;# 
   369  071A                     # 8259 "C:\Program Files (x86)\Microchip\xc8\v2.00\pic\include\pic16f15325.h"
   370                           PIE5 equ 071Bh ;# 
   371  071B                     # 8304 "C:\Program Files (x86)\Microchip\xc8\v2.00\pic\include\pic16f15325.h"
   372                           PIE6 equ 071Ch ;# 
   373  071C                     # 8330 "C:\Program Files (x86)\Microchip\xc8\v2.00\pic\include\pic16f15325.h"
   374                           PIE7 equ 071Dh ;# 
   375  071D                     # 8372 "C:\Program Files (x86)\Microchip\xc8\v2.00\pic\include\pic16f15325.h"
   376                           PMD0 equ 0796h ;# 
   377  0796                     # 8417 "C:\Program Files (x86)\Microchip\xc8\v2.00\pic\include\pic16f15325.h"
   378                           PMD1 equ 0797h ;# 
   379  0797                     # 8465 "C:\Program Files (x86)\Microchip\xc8\v2.00\pic\include\pic16f15325.h"
   380                           PMD2 equ 0798h ;# 
   381  0798                     # 8510 "C:\Program Files (x86)\Microchip\xc8\v2.00\pic\include\pic16f15325.h"
   382                           PMD3 equ 0799h ;# 
   383  0799                     # 8560 "C:\Program Files (x86)\Microchip\xc8\v2.00\pic\include\pic16f15325.h"
   384                           PMD4 equ 079Ah ;# 
   385  079A                     # 8600 "C:\Program Files (x86)\Microchip\xc8\v2.00\pic\include\pic16f15325.h"
   386                           PMD5 equ 079Bh ;# 
   387  079B                     # 8639 "C:\Program Files (x86)\Microchip\xc8\v2.00\pic\include\pic16f15325.h"
   388                           WDTCON0 equ 080Ch ;# 
   389  080C                     # 8714 "C:\Program Files (x86)\Microchip\xc8\v2.00\pic\include\pic16f15325.h"
   390                           WDTCON1 equ 080Dh ;# 
   391  080D                     # 8808 "C:\Program Files (x86)\Microchip\xc8\v2.00\pic\include\pic16f15325.h"
   392                           WDTPSL equ 080Eh ;# 
   393  080E                     # 8936 "C:\Program Files (x86)\Microchip\xc8\v2.00\pic\include\pic16f15325.h"
   394                           WDTPSH equ 080Fh ;# 
   395  080F                     # 9064 "C:\Program Files (x86)\Microchip\xc8\v2.00\pic\include\pic16f15325.h"
   396                           WDTTMR equ 0810h ;# 
   397  0810                     # 9152 "C:\Program Files (x86)\Microchip\xc8\v2.00\pic\include\pic16f15325.h"
   398                           BORCON equ 0811h ;# 
   399  0811                     # 9179 "C:\Program Files (x86)\Microchip\xc8\v2.00\pic\include\pic16f15325.h"
   400                           VREGCON equ 0812h ;# 
   401  0812                     # 9200 "C:\Program Files (x86)\Microchip\xc8\v2.00\pic\include\pic16f15325.h"
   402                           PCON0 equ 0813h ;# 
   403  0813                     # 9262 "C:\Program Files (x86)\Microchip\xc8\v2.00\pic\include\pic16f15325.h"
   404                           PCON1 equ 0814h ;# 
   405  0814                     # 9283 "C:\Program Files (x86)\Microchip\xc8\v2.00\pic\include\pic16f15325.h"
   406                           NVMADR equ 081Ah ;# 
   407  081A                     # 9290 "C:\Program Files (x86)\Microchip\xc8\v2.00\pic\include\pic16f15325.h"
   408                           NVMADRL equ 081Ah ;# 
   409  081A                     # 9352 "C:\Program Files (x86)\Microchip\xc8\v2.00\pic\include\pic16f15325.h"
   410                           NVMADRH equ 081Bh ;# 
   411  081B                     # 9408 "C:\Program Files (x86)\Microchip\xc8\v2.00\pic\include\pic16f15325.h"
   412                           NVMDAT equ 081Ch ;# 
   413  081C                     # 9415 "C:\Program Files (x86)\Microchip\xc8\v2.00\pic\include\pic16f15325.h"
   414                           NVMDATL equ 081Ch ;# 
   415  081C                     # 9477 "C:\Program Files (x86)\Microchip\xc8\v2.00\pic\include\pic16f15325.h"
   416                           NVMDATH equ 081Dh ;# 
   417  081D                     # 9527 "C:\Program Files (x86)\Microchip\xc8\v2.00\pic\include\pic16f15325.h"
   418                           NVMCON1 equ 081Eh ;# 
   419  081E                     # 9583 "C:\Program Files (x86)\Microchip\xc8\v2.00\pic\include\pic16f15325.h"
   420                           NVMCON2 equ 081Fh ;# 
   421  081F                     # 9603 "C:\Program Files (x86)\Microchip\xc8\v2.00\pic\include\pic16f15325.h"
   422                           CPUDOZE equ 088Ch ;# 
   423  088C                     # 9668 "C:\Program Files (x86)\Microchip\xc8\v2.00\pic\include\pic16f15325.h"
   424                           OSCCON1 equ 088Dh ;# 
   425  088D                     # 9738 "C:\Program Files (x86)\Microchip\xc8\v2.00\pic\include\pic16f15325.h"
   426                           OSCCON2 equ 088Eh ;# 
   427  088E                     # 9808 "C:\Program Files (x86)\Microchip\xc8\v2.00\pic\include\pic16f15325.h"
   428                           OSCCON3 equ 088Fh ;# 
   429  088F                     # 9848 "C:\Program Files (x86)\Microchip\xc8\v2.00\pic\include\pic16f15325.h"
   430                           OSCSTAT equ 0890h ;# 
   431  0890                     # 9905 "C:\Program Files (x86)\Microchip\xc8\v2.00\pic\include\pic16f15325.h"
   432                           OSCEN equ 0891h ;# 
   433  0891                     # 9956 "C:\Program Files (x86)\Microchip\xc8\v2.00\pic\include\pic16f15325.h"
   434                           OSCTUNE equ 0892h ;# 
   435  0892                     # 10014 "C:\Program Files (x86)\Microchip\xc8\v2.00\pic\include\pic16f15325.h"
   436                           OSCFRQ equ 0893h ;# 
   437  0893                     # 10054 "C:\Program Files (x86)\Microchip\xc8\v2.00\pic\include\pic16f15325.h"
   438                           CLKRCON equ 0895h ;# 
   439  0895                     # 10119 "C:\Program Files (x86)\Microchip\xc8\v2.00\pic\include\pic16f15325.h"
   440                           CLKRCLK equ 0896h ;# 
   441  0896                     # 10165 "C:\Program Files (x86)\Microchip\xc8\v2.00\pic\include\pic16f15325.h"
   442                           FVRCON equ 090Ch ;# 
   443  090C                     # 10241 "C:\Program Files (x86)\Microchip\xc8\v2.00\pic\include\pic16f15325.h"
   444                           DAC1CON0 equ 090Eh ;# 
   445  090E                     # 10342 "C:\Program Files (x86)\Microchip\xc8\v2.00\pic\include\pic16f15325.h"
   446                           DAC1CON1 equ 090Fh ;# 
   447  090F                     # 10394 "C:\Program Files (x86)\Microchip\xc8\v2.00\pic\include\pic16f15325.h"
   448                           ZCDCON equ 091Fh ;# 
   449  091F                     # 10440 "C:\Program Files (x86)\Microchip\xc8\v2.00\pic\include\pic16f15325.h"
   450                           CMOUT equ 098Fh ;# 
   451  098F                     # 10445 "C:\Program Files (x86)\Microchip\xc8\v2.00\pic\include\pic16f15325.h"
   452                           CMSTAT equ 098Fh ;# 
   453  098F                     # 10518 "C:\Program Files (x86)\Microchip\xc8\v2.00\pic\include\pic16f15325.h"
   454                           CM1CON0 equ 0990h ;# 
   455  0990                     # 10598 "C:\Program Files (x86)\Microchip\xc8\v2.00\pic\include\pic16f15325.h"
   456                           CM1CON1 equ 0991h ;# 
   457  0991                     # 10638 "C:\Program Files (x86)\Microchip\xc8\v2.00\pic\include\pic16f15325.h"
   458                           CM1NCH equ 0992h ;# 
   459  0992                     # 10698 "C:\Program Files (x86)\Microchip\xc8\v2.00\pic\include\pic16f15325.h"
   460                           CM1PCH equ 0993h ;# 
   461  0993                     # 10758 "C:\Program Files (x86)\Microchip\xc8\v2.00\pic\include\pic16f15325.h"
   462                           CM2CON0 equ 0994h ;# 
   463  0994                     # 10838 "C:\Program Files (x86)\Microchip\xc8\v2.00\pic\include\pic16f15325.h"
   464                           CM2CON1 equ 0995h ;# 
   465  0995                     # 10878 "C:\Program Files (x86)\Microchip\xc8\v2.00\pic\include\pic16f15325.h"
   466                           CM2NCH equ 0996h ;# 
   467  0996                     # 10938 "C:\Program Files (x86)\Microchip\xc8\v2.00\pic\include\pic16f15325.h"
   468                           CM2PCH equ 0997h ;# 
   469  0997                     # 10998 "C:\Program Files (x86)\Microchip\xc8\v2.00\pic\include\pic16f15325.h"
   470                           RC2REG equ 0A19h ;# 
   471  0A19                     # 11003 "C:\Program Files (x86)\Microchip\xc8\v2.00\pic\include\pic16f15325.h"
   472                           RCREG2 equ 0A19h ;# 
   473  0A19                     # 11036 "C:\Program Files (x86)\Microchip\xc8\v2.00\pic\include\pic16f15325.h"
   474                           TX2REG equ 0A1Ah ;# 
   475  0A1A                     # 11041 "C:\Program Files (x86)\Microchip\xc8\v2.00\pic\include\pic16f15325.h"
   476                           TXREG2 equ 0A1Ah ;# 
   477  0A1A                     # 11074 "C:\Program Files (x86)\Microchip\xc8\v2.00\pic\include\pic16f15325.h"
   478                           SP2BRG equ 0A1Bh ;# 
   479  0A1B                     # 11081 "C:\Program Files (x86)\Microchip\xc8\v2.00\pic\include\pic16f15325.h"
   480                           SP2BRGL equ 0A1Bh ;# 
   481  0A1B                     # 11086 "C:\Program Files (x86)\Microchip\xc8\v2.00\pic\include\pic16f15325.h"
   482                           SPBRG2 equ 0A1Bh ;# 
   483  0A1B                     # 11119 "C:\Program Files (x86)\Microchip\xc8\v2.00\pic\include\pic16f15325.h"
   484                           SP2BRGH equ 0A1Ch ;# 
   485  0A1C                     # 11124 "C:\Program Files (x86)\Microchip\xc8\v2.00\pic\include\pic16f15325.h"
   486                           SPBRGH2 equ 0A1Ch ;# 
   487  0A1C                     # 11157 "C:\Program Files (x86)\Microchip\xc8\v2.00\pic\include\pic16f15325.h"
   488                           RC2STA equ 0A1Dh ;# 
   489  0A1D                     # 11162 "C:\Program Files (x86)\Microchip\xc8\v2.00\pic\include\pic16f15325.h"
   490                           RCSTA2 equ 0A1Dh ;# 
   491  0A1D                     # 11279 "C:\Program Files (x86)\Microchip\xc8\v2.00\pic\include\pic16f15325.h"
   492                           TX2STA equ 0A1Eh ;# 
   493  0A1E                     # 11284 "C:\Program Files (x86)\Microchip\xc8\v2.00\pic\include\pic16f15325.h"
   494                           TXSTA2 equ 0A1Eh ;# 
   495  0A1E                     # 11401 "C:\Program Files (x86)\Microchip\xc8\v2.00\pic\include\pic16f15325.h"
   496                           BAUD2CON equ 0A1Fh ;# 
   497  0A1F                     # 11406 "C:\Program Files (x86)\Microchip\xc8\v2.00\pic\include\pic16f15325.h"
   498                           BAUDCON2 equ 0A1Fh ;# 
   499  0A1F                     # 11410 "C:\Program Files (x86)\Microchip\xc8\v2.00\pic\include\pic16f15325.h"
   500                           BAUDCTL2 equ 0A1Fh ;# 
   501  0A1F                     # 11551 "C:\Program Files (x86)\Microchip\xc8\v2.00\pic\include\pic16f15325.h"
   502                           CLCDATA equ 01E0Fh ;# 
   503  1E0F                     # 11589 "C:\Program Files (x86)\Microchip\xc8\v2.00\pic\include\pic16f15325.h"
   504                           CLC1CON equ 01E10h ;# 
   505  1E10                     # 11707 "C:\Program Files (x86)\Microchip\xc8\v2.00\pic\include\pic16f15325.h"
   506                           CLC1POL equ 01E11h ;# 
   507  1E11                     # 11785 "C:\Program Files (x86)\Microchip\xc8\v2.00\pic\include\pic16f15325.h"
   508                           CLC1SEL0 equ 01E12h ;# 
   509  1E12                     # 11889 "C:\Program Files (x86)\Microchip\xc8\v2.00\pic\include\pic16f15325.h"
   510                           CLC1SEL1 equ 01E13h ;# 
   511  1E13                     # 11993 "C:\Program Files (x86)\Microchip\xc8\v2.00\pic\include\pic16f15325.h"
   512                           CLC1SEL2 equ 01E14h ;# 
   513  1E14                     # 12097 "C:\Program Files (x86)\Microchip\xc8\v2.00\pic\include\pic16f15325.h"
   514                           CLC1SEL3 equ 01E15h ;# 
   515  1E15                     # 12201 "C:\Program Files (x86)\Microchip\xc8\v2.00\pic\include\pic16f15325.h"
   516                           CLC1GLS0 equ 01E16h ;# 
   517  1E16                     # 12313 "C:\Program Files (x86)\Microchip\xc8\v2.00\pic\include\pic16f15325.h"
   518                           CLC1GLS1 equ 01E17h ;# 
   519  1E17                     # 12425 "C:\Program Files (x86)\Microchip\xc8\v2.00\pic\include\pic16f15325.h"
   520                           CLC1GLS2 equ 01E18h ;# 
   521  1E18                     # 12537 "C:\Program Files (x86)\Microchip\xc8\v2.00\pic\include\pic16f15325.h"
   522                           CLC1GLS3 equ 01E19h ;# 
   523  1E19                     # 12649 "C:\Program Files (x86)\Microchip\xc8\v2.00\pic\include\pic16f15325.h"
   524                           CLC2CON equ 01E1Ah ;# 
   525  1E1A                     # 12767 "C:\Program Files (x86)\Microchip\xc8\v2.00\pic\include\pic16f15325.h"
   526                           CLC2POL equ 01E1Bh ;# 
   527  1E1B                     # 12845 "C:\Program Files (x86)\Microchip\xc8\v2.00\pic\include\pic16f15325.h"
   528                           CLC2SEL0 equ 01E1Ch ;# 
   529  1E1C                     # 12949 "C:\Program Files (x86)\Microchip\xc8\v2.00\pic\include\pic16f15325.h"
   530                           CLC2SEL1 equ 01E1Dh ;# 
   531  1E1D                     # 13053 "C:\Program Files (x86)\Microchip\xc8\v2.00\pic\include\pic16f15325.h"
   532                           CLC2SEL2 equ 01E1Eh ;# 
   533  1E1E                     # 13157 "C:\Program Files (x86)\Microchip\xc8\v2.00\pic\include\pic16f15325.h"
   534                           CLC2SEL3 equ 01E1Fh ;# 
   535  1E1F                     # 13261 "C:\Program Files (x86)\Microchip\xc8\v2.00\pic\include\pic16f15325.h"
   536                           CLC2GLS0 equ 01E20h ;# 
   537  1E20                     # 13373 "C:\Program Files (x86)\Microchip\xc8\v2.00\pic\include\pic16f15325.h"
   538                           CLC2GLS1 equ 01E21h ;# 
   539  1E21                     # 13485 "C:\Program Files (x86)\Microchip\xc8\v2.00\pic\include\pic16f15325.h"
   540                           CLC2GLS2 equ 01E22h ;# 
   541  1E22                     # 13597 "C:\Program Files (x86)\Microchip\xc8\v2.00\pic\include\pic16f15325.h"
   542                           CLC2GLS3 equ 01E23h ;# 
   543  1E23                     # 13709 "C:\Program Files (x86)\Microchip\xc8\v2.00\pic\include\pic16f15325.h"
   544                           CLC3CON equ 01E24h ;# 
   545  1E24                     # 13827 "C:\Program Files (x86)\Microchip\xc8\v2.00\pic\include\pic16f15325.h"
   546                           CLC3POL equ 01E25h ;# 
   547  1E25                     # 13905 "C:\Program Files (x86)\Microchip\xc8\v2.00\pic\include\pic16f15325.h"
   548                           CLC3SEL0 equ 01E26h ;# 
   549  1E26                     # 14009 "C:\Program Files (x86)\Microchip\xc8\v2.00\pic\include\pic16f15325.h"
   550                           CLC3SEL1 equ 01E27h ;# 
   551  1E27                     # 14113 "C:\Program Files (x86)\Microchip\xc8\v2.00\pic\include\pic16f15325.h"
   552                           CLC3SEL2 equ 01E28h ;# 
   553  1E28                     # 14217 "C:\Program Files (x86)\Microchip\xc8\v2.00\pic\include\pic16f15325.h"
   554                           CLC3SEL3 equ 01E29h ;# 
   555  1E29                     # 14321 "C:\Program Files (x86)\Microchip\xc8\v2.00\pic\include\pic16f15325.h"
   556                           CLC3GLS0 equ 01E2Ah ;# 
   557  1E2A                     # 14433 "C:\Program Files (x86)\Microchip\xc8\v2.00\pic\include\pic16f15325.h"
   558                           CLC3GLS1 equ 01E2Bh ;# 
   559  1E2B                     # 14545 "C:\Program Files (x86)\Microchip\xc8\v2.00\pic\include\pic16f15325.h"
   560                           CLC3GLS2 equ 01E2Ch ;# 
   561  1E2C                     # 14657 "C:\Program Files (x86)\Microchip\xc8\v2.00\pic\include\pic16f15325.h"
   562                           CLC3GLS3 equ 01E2Dh ;# 
   563  1E2D                     # 14769 "C:\Program Files (x86)\Microchip\xc8\v2.00\pic\include\pic16f15325.h"
   564                           CLC4CON equ 01E2Eh ;# 
   565  1E2E                     # 14887 "C:\Program Files (x86)\Microchip\xc8\v2.00\pic\include\pic16f15325.h"
   566                           CLC4POL equ 01E2Fh ;# 
   567  1E2F                     # 14965 "C:\Program Files (x86)\Microchip\xc8\v2.00\pic\include\pic16f15325.h"
   568                           CLC4SEL0 equ 01E30h ;# 
   569  1E30                     # 15069 "C:\Program Files (x86)\Microchip\xc8\v2.00\pic\include\pic16f15325.h"
   570                           CLC4SEL1 equ 01E31h ;# 
   571  1E31                     # 15173 "C:\Program Files (x86)\Microchip\xc8\v2.00\pic\include\pic16f15325.h"
   572                           CLC4SEL2 equ 01E32h ;# 
   573  1E32                     # 15277 "C:\Program Files (x86)\Microchip\xc8\v2.00\pic\include\pic16f15325.h"
   574                           CLC4SEL3 equ 01E33h ;# 
   575  1E33                     # 15381 "C:\Program Files (x86)\Microchip\xc8\v2.00\pic\include\pic16f15325.h"
   576                           CLC4GLS0 equ 01E34h ;# 
   577  1E34                     # 15493 "C:\Program Files (x86)\Microchip\xc8\v2.00\pic\include\pic16f15325.h"
   578                           CLC4GLS1 equ 01E35h ;# 
   579  1E35                     # 15605 "C:\Program Files (x86)\Microchip\xc8\v2.00\pic\include\pic16f15325.h"
   580                           CLC4GLS2 equ 01E36h ;# 
   581  1E36                     # 15717 "C:\Program Files (x86)\Microchip\xc8\v2.00\pic\include\pic16f15325.h"
   582                           CLC4GLS3 equ 01E37h ;# 
   583  1E37                     # 15829 "C:\Program Files (x86)\Microchip\xc8\v2.00\pic\include\pic16f15325.h"
   584                           PPSLOCK equ 01E8Fh ;# 
   585  1E8F                     # 15849 "C:\Program Files (x86)\Microchip\xc8\v2.00\pic\include\pic16f15325.h"
   586                           INTPPS equ 01E90h ;# 
   587  1E90                     # 15907 "C:\Program Files (x86)\Microchip\xc8\v2.00\pic\include\pic16f15325.h"
   588                           T0CKIPPS equ 01E91h ;# 
   589  1E91                     # 15965 "C:\Program Files (x86)\Microchip\xc8\v2.00\pic\include\pic16f15325.h"
   590                           T1CKIPPS equ 01E92h ;# 
   591  1E92                     # 16023 "C:\Program Files (x86)\Microchip\xc8\v2.00\pic\include\pic16f15325.h"
   592                           T1GPPS equ 01E93h ;# 
   593  1E93                     # 16081 "C:\Program Files (x86)\Microchip\xc8\v2.00\pic\include\pic16f15325.h"
   594                           T2INPPS equ 01E9Ch ;# 
   595  1E9C                     # 16139 "C:\Program Files (x86)\Microchip\xc8\v2.00\pic\include\pic16f15325.h"
   596                           CCP1PPS equ 01EA1h ;# 
   597  1EA1                     # 16197 "C:\Program Files (x86)\Microchip\xc8\v2.00\pic\include\pic16f15325.h"
   598                           CCP2PPS equ 01EA2h ;# 
   599  1EA2                     # 16255 "C:\Program Files (x86)\Microchip\xc8\v2.00\pic\include\pic16f15325.h"
   600                           CWG1PPS equ 01EB1h ;# 
   601  1EB1                     # 16313 "C:\Program Files (x86)\Microchip\xc8\v2.00\pic\include\pic16f15325.h"
   602                           CLCIN0PPS equ 01EBBh ;# 
   603  1EBB                     # 16371 "C:\Program Files (x86)\Microchip\xc8\v2.00\pic\include\pic16f15325.h"
   604                           CLCIN1PPS equ 01EBCh ;# 
   605  1EBC                     # 16429 "C:\Program Files (x86)\Microchip\xc8\v2.00\pic\include\pic16f15325.h"
   606                           CLCIN2PPS equ 01EBDh ;# 
   607  1EBD                     # 16487 "C:\Program Files (x86)\Microchip\xc8\v2.00\pic\include\pic16f15325.h"
   608                           CLCIN3PPS equ 01EBEh ;# 
   609  1EBE                     # 16545 "C:\Program Files (x86)\Microchip\xc8\v2.00\pic\include\pic16f15325.h"
   610                           ADACTPPS equ 01EC3h ;# 
   611  1EC3                     # 16603 "C:\Program Files (x86)\Microchip\xc8\v2.00\pic\include\pic16f15325.h"
   612                           SSP1CLKPPS equ 01EC5h ;# 
   613  1EC5                     # 16661 "C:\Program Files (x86)\Microchip\xc8\v2.00\pic\include\pic16f15325.h"
   614                           SSP1DATPPS equ 01EC6h ;# 
   615  1EC6                     # 16719 "C:\Program Files (x86)\Microchip\xc8\v2.00\pic\include\pic16f15325.h"
   616                           SSP1SSPPS equ 01EC7h ;# 
   617  1EC7                     # 16777 "C:\Program Files (x86)\Microchip\xc8\v2.00\pic\include\pic16f15325.h"
   618                           RX1DTPPS equ 01ECBh ;# 
   619  1ECB                     # 16835 "C:\Program Files (x86)\Microchip\xc8\v2.00\pic\include\pic16f15325.h"
   620                           TX1CKPPS equ 01ECCh ;# 
   621  1ECC                     # 16893 "C:\Program Files (x86)\Microchip\xc8\v2.00\pic\include\pic16f15325.h"
   622                           RX2DTPPS equ 01ECDh ;# 
   623  1ECD                     # 16951 "C:\Program Files (x86)\Microchip\xc8\v2.00\pic\include\pic16f15325.h"
   624                           TX2CKPPS equ 01ECEh ;# 
   625  1ECE                     # 17009 "C:\Program Files (x86)\Microchip\xc8\v2.00\pic\include\pic16f15325.h"
   626                           RA0PPS equ 01F10h ;# 
   627  1F10                     # 17053 "C:\Program Files (x86)\Microchip\xc8\v2.00\pic\include\pic16f15325.h"
   628                           RA1PPS equ 01F11h ;# 
   629  1F11                     # 17097 "C:\Program Files (x86)\Microchip\xc8\v2.00\pic\include\pic16f15325.h"
   630                           RA2PPS equ 01F12h ;# 
   631  1F12                     # 17141 "C:\Program Files (x86)\Microchip\xc8\v2.00\pic\include\pic16f15325.h"
   632                           RA3PPS equ 01F13h ;# 
   633  1F13                     # 17185 "C:\Program Files (x86)\Microchip\xc8\v2.00\pic\include\pic16f15325.h"
   634                           RA4PPS equ 01F14h ;# 
   635  1F14                     # 17229 "C:\Program Files (x86)\Microchip\xc8\v2.00\pic\include\pic16f15325.h"
   636                           RA5PPS equ 01F15h ;# 
   637  1F15                     # 17273 "C:\Program Files (x86)\Microchip\xc8\v2.00\pic\include\pic16f15325.h"
   638                           RC0PPS equ 01F20h ;# 
   639  1F20                     # 17317 "C:\Program Files (x86)\Microchip\xc8\v2.00\pic\include\pic16f15325.h"
   640                           RC1PPS equ 01F21h ;# 
   641  1F21                     # 17361 "C:\Program Files (x86)\Microchip\xc8\v2.00\pic\include\pic16f15325.h"
   642                           RC2PPS equ 01F22h ;# 
   643  1F22                     # 17405 "C:\Program Files (x86)\Microchip\xc8\v2.00\pic\include\pic16f15325.h"
   644                           RC3PPS equ 01F23h ;# 
   645  1F23                     # 17449 "C:\Program Files (x86)\Microchip\xc8\v2.00\pic\include\pic16f15325.h"
   646                           RC4PPS equ 01F24h ;# 
   647  1F24                     # 17493 "C:\Program Files (x86)\Microchip\xc8\v2.00\pic\include\pic16f15325.h"
   648                           RC5PPS equ 01F25h ;# 
   649  1F25                     # 17537 "C:\Program Files (x86)\Microchip\xc8\v2.00\pic\include\pic16f15325.h"
   650                           ANSELA equ 01F38h ;# 
   651  1F38                     # 17582 "C:\Program Files (x86)\Microchip\xc8\v2.00\pic\include\pic16f15325.h"
   652                           WPUA equ 01F39h ;# 
   653  1F39                     # 17632 "C:\Program Files (x86)\Microchip\xc8\v2.00\pic\include\pic16f15325.h"
   654                           ODCONA equ 01F3Ah ;# 
   655  1F3A                     # 17677 "C:\Program Files (x86)\Microchip\xc8\v2.00\pic\include\pic16f15325.h"
   656                           SLRCONA equ 01F3Bh ;# 
   657  1F3B                     # 17722 "C:\Program Files (x86)\Microchip\xc8\v2.00\pic\include\pic16f15325.h"
   658                           INLVLA equ 01F3Ch ;# 
   659  1F3C                     # 17772 "C:\Program Files (x86)\Microchip\xc8\v2.00\pic\include\pic16f15325.h"
   660                           IOCAP equ 01F3Dh ;# 
   661  1F3D                     # 17822 "C:\Program Files (x86)\Microchip\xc8\v2.00\pic\include\pic16f15325.h"
   662                           IOCAN equ 01F3Eh ;# 
   663  1F3E                     # 17872 "C:\Program Files (x86)\Microchip\xc8\v2.00\pic\include\pic16f15325.h"
   664                           IOCAF equ 01F3Fh ;# 
   665  1F3F                     # 17922 "C:\Program Files (x86)\Microchip\xc8\v2.00\pic\include\pic16f15325.h"
   666                           ANSELC equ 01F4Eh ;# 
   667  1F4E                     # 17972 "C:\Program Files (x86)\Microchip\xc8\v2.00\pic\include\pic16f15325.h"
   668                           WPUC equ 01F4Fh ;# 
   669  1F4F                     # 18022 "C:\Program Files (x86)\Microchip\xc8\v2.00\pic\include\pic16f15325.h"
   670                           ODCONC equ 01F50h ;# 
   671  1F50                     # 18072 "C:\Program Files (x86)\Microchip\xc8\v2.00\pic\include\pic16f15325.h"
   672                           SLRCONC equ 01F51h ;# 
   673  1F51                     # 18122 "C:\Program Files (x86)\Microchip\xc8\v2.00\pic\include\pic16f15325.h"
   674                           INLVLC equ 01F52h ;# 
   675  1F52                     # 18172 "C:\Program Files (x86)\Microchip\xc8\v2.00\pic\include\pic16f15325.h"
   676                           IOCCP equ 01F53h ;# 
   677  1F53                     # 18222 "C:\Program Files (x86)\Microchip\xc8\v2.00\pic\include\pic16f15325.h"
   678                           IOCCN equ 01F54h ;# 
   679  1F54                     # 18272 "C:\Program Files (x86)\Microchip\xc8\v2.00\pic\include\pic16f15325.h"
   680                           IOCCF equ 01F55h ;# 
   681  1F55                     # 18322 "C:\Program Files (x86)\Microchip\xc8\v2.00\pic\include\pic16f15325.h"
   682                           STATUS_SHAD equ 01FE4h ;# 
   683  1FE4                     # 18362 "C:\Program Files (x86)\Microchip\xc8\v2.00\pic\include\pic16f15325.h"
   684                           WREG_SHAD equ 01FE5h ;# 
   685  1FE5                     # 18382 "C:\Program Files (x86)\Microchip\xc8\v2.00\pic\include\pic16f15325.h"
   686                           BSR_SHAD equ 01FE6h ;# 
   687  1FE6                     # 18402 "C:\Program Files (x86)\Microchip\xc8\v2.00\pic\include\pic16f15325.h"
   688                           PCLATH_SHAD equ 01FE7h ;# 
   689  1FE7                     # 18422 "C:\Program Files (x86)\Microchip\xc8\v2.00\pic\include\pic16f15325.h"
   690                           FSR0_SHAD equ 01FE8h ;# 
   691  1FE8                     # 18429 "C:\Program Files (x86)\Microchip\xc8\v2.00\pic\include\pic16f15325.h"
   692                           FSR0L_SHAD equ 01FE8h ;# 
   693  1FE8                     # 18449 "C:\Program Files (x86)\Microchip\xc8\v2.00\pic\include\pic16f15325.h"
   694                           FSR0H_SHAD equ 01FE9h ;# 
   695  1FE9                     # 18469 "C:\Program Files (x86)\Microchip\xc8\v2.00\pic\include\pic16f15325.h"
   696                           FSR1_SHAD equ 01FEAh ;# 
   697  1FEA                     # 18476 "C:\Program Files (x86)\Microchip\xc8\v2.00\pic\include\pic16f15325.h"
   698                           FSR1L_SHAD equ 01FEAh ;# 
   699  1FEA                     # 18496 "C:\Program Files (x86)\Microchip\xc8\v2.00\pic\include\pic16f15325.h"
   700                           FSR1H_SHAD equ 01FEBh ;# 
   701  1FEB                     # 18516 "C:\Program Files (x86)\Microchip\xc8\v2.00\pic\include\pic16f15325.h"
   702                           STKPTR equ 01FEDh ;# 
   703  1FED                     # 18560 "C:\Program Files (x86)\Microchip\xc8\v2.00\pic\include\pic16f15325.h"
   704                           TOSL equ 01FEEh ;# 
   705  1FEE                     # 18630 "C:\Program Files (x86)\Microchip\xc8\v2.00\pic\include\pic16f15325.h"
   706                           TOSH equ 01FEFh ;# 
   707  1FEF                     	FNCALL	_main,_initialize
   708                           	FNCALL	_main,_readSI7006
   709                           	FNCALL	_main,_uartSendByte
   710                           	FNCALL	_readSI7006,___fladd
   711                           	FNCALL	_readSI7006,___fldiv
   712                           	FNCALL	_readSI7006,___flmul
   713                           	FNCALL	_readSI7006,___flneg
   714                           	FNCALL	_readSI7006,___xxtofl
   715                           	FNCALL	_readSI7006,_i2cRead
   716                           	FNCALL	_readSI7006,_i2cRepeat
   717                           	FNCALL	_readSI7006,_i2cStart
   718                           	FNCALL	_readSI7006,_i2cStop
   719                           	FNCALL	_readSI7006,_i2cWrite
   720                           	FNCALL	_readSI7006,_logf
   721                           	FNCALL	_logf,___fladd
   722                           	FNCALL	_logf,___fldiv
   723                           	FNCALL	_logf,___flmul
   724                           	FNCALL	_logf,___flneg
   725                           	FNCALL	_logf,___xxtofl
   726                           	FNCALL	___flmul,__Umul8_16
   727                           	FNROOT	_main
   728                           	FNCALL	_ISR,_uartReceiveISR
   729                           	FNCALL	intlevel1,_ISR
   730                           	global	intlevel1
   731                           	FNROOT	intlevel1
   732                           	global	_Lg4
   733                           psect	stringtext1,class=STRCODE,delta=2,noexec
   734                           global __pstringtext1
   735                           __pstringtext1:
   736  1800                     	file	"C:\Program Files (x86)\Microchip\xc8\v2.00\pic\sources\c99\common\logf.c"
   737                           	line	26
   738                           _Lg4:
   739  1800                     	retlw	0x26
   740  1800  3426               	retlw	0x9e
   741  1801  349E               	retlw	0x78
   742  1802  3478               	retlw	0x3e
   743  1803  343E               
   744                           	global __end_of_Lg4
   745                           __end_of_Lg4:
   746  1804                     	global	_Lg3
   747                           psect	stringtext2,class=STRCODE,delta=2,noexec
   748                           global __pstringtext2
   749                           __pstringtext2:
   750  1804                     	file	"C:\Program Files (x86)\Microchip\xc8\v2.00\pic\sources\c99\common\logf.c"
   751                           	line	25
   752                           _Lg3:
   753  1804                     	retlw	0xee
   754  1804  34EE               	retlw	0xe9
   755  1805  34E9               	retlw	0x91
   756  1806  3491               	retlw	0x3e
   757  1807  343E               
   758                           	global __end_of_Lg3
   759                           __end_of_Lg3:
   760  1808                     	global	_Lg2
   761                           psect	stringtext3,class=STRCODE,delta=2,noexec
   762                           global __pstringtext3
   763                           __pstringtext3:
   764  1808                     	file	"C:\Program Files (x86)\Microchip\xc8\v2.00\pic\sources\c99\common\logf.c"
   765                           	line	24
   766                           _Lg2:
   767  1808                     	retlw	0x13
   768  1808  3413               	retlw	0xce
   769  1809  34CE               	retlw	0xcc
   770  180A  34CC               	retlw	0x3e
   771  180B  343E               
   772                           	global __end_of_Lg2
   773                           __end_of_Lg2:
   774  180C                     	global	_Lg1
   775                           psect	stringtext4,class=STRCODE,delta=2,noexec
   776                           global __pstringtext4
   777                           __pstringtext4:
   778  180C                     	file	"C:\Program Files (x86)\Microchip\xc8\v2.00\pic\sources\c99\common\logf.c"
   779                           	line	23
   780                           _Lg1:
   781  180C                     	retlw	0xaa
   782  180C  34AA               	retlw	0xaa
   783  180D  34AA               	retlw	0x2a
   784  180E  342A               	retlw	0x3f
   785  180F  343F               
   786                           	global __end_of_Lg1
   787                           __end_of_Lg1:
   788  1810                     	global	_ln2_lo
   789                           psect	stringtext5,class=STRCODE,delta=2,noexec
   790                           global __pstringtext5
   791                           __pstringtext5:
   792  1810                     	file	"C:\Program Files (x86)\Microchip\xc8\v2.00\pic\sources\c99\common\logf.c"
   793                           	line	21
   794                           _ln2_lo:
   795  1810                     	retlw	0xd1
   796  1810  34D1               	retlw	0xf7
   797  1811  34F7               	retlw	0x17
   798  1812  3417               	retlw	0x37
   799  1813  3437               
   800                           	global __end_of_ln2_lo
   801                           __end_of_ln2_lo:
   802  1814                     	global	_ln2_hi
   803                           psect	stringtext6,class=STRCODE,delta=2,noexec
   804                           global __pstringtext6
   805                           __pstringtext6:
   806  1814                     	file	"C:\Program Files (x86)\Microchip\xc8\v2.00\pic\sources\c99\common\logf.c"
   807                           	line	20
   808                           _ln2_hi:
   809  1814                     	retlw	0x80
   810  1814  3480               	retlw	0x71
   811  1815  3471               	retlw	0x31
   812  1816  3431               	retlw	0x3f
   813  1817  343F               
   814                           	global __end_of_ln2_hi
   815                           __end_of_ln2_hi:
   816  1818                     	global	_Lg4
   817                           	global	_Lg3
   818                           	global	_Lg2
   819                           	global	_Lg1
   820                           	global	_ln2_lo
   821                           	global	_ln2_hi
   822                           	global	_g_rxOErrCount
   823                           	global	_g_rxFErrCount
   824                           	global	logf@F459
   825                           	global	_g_command
   826                           	global	_INTCONbits
   827                           _INTCONbits	set	0xB
   828  000B                     	global	_INTCON
   829                           _INTCON	set	0xB
   830  000B                     	global	_TRISC
   831                           _TRISC	set	0x14
   832  0014                     	global	_TRISA
   833                           _TRISA	set	0x12
   834  0012                     	global	_RC1REG
   835                           _RC1REG	set	0x119
   836  0119                     	global	_RC1STAbits
   837                           _RC1STAbits	set	0x11D
   838  011D                     	global	_TX1STA
   839                           _TX1STA	set	0x11E
   840  011E                     	global	_RC1STA
   841                           _RC1STA	set	0x11D
   842  011D                     	global	_SPBRGL
   843                           _SPBRGL	set	0x11B
   844  011B                     	global	_BAUD1CON
   845                           _BAUD1CON	set	0x11F
   846  011F                     	global	_TX1REG
   847                           _TX1REG	set	0x11A
   848  011A                     	global	_SSP1CON1
   849                           _SSP1CON1	set	0x190
   850  0190                     	global	_SSP1ADD
   851                           _SSP1ADD	set	0x18D
   852  018D                     	global	_SSP1BUF
   853                           _SSP1BUF	set	0x18C
   854  018C                     	global	_SSP1CON2bits
   855                           _SSP1CON2bits	set	0x191
   856  0191                     	global	_PIE3bits
   857                           _PIE3bits	set	0x719
   858  0719                     	global	_PIE3
   859                           _PIE3	set	0x719
   860  0719                     	global	_PIR3bits
   861                           _PIR3bits	set	0x70F
   862  070F                     	global	_OSCCON3bits
   863                           _OSCCON3bits	set	0x88F
   864  088F                     	global	_OSCCON1
   865                           _OSCCON1	set	0x88D
   866  088D                     	global	_OSCFRQ
   867                           _OSCFRQ	set	0x893
   868  0893                     	global	_SSP1DATPPS
   869                           _SSP1DATPPS	set	0x1EC6
   870  1EC6                     	global	_ANSELC
   871                           _ANSELC	set	0x1F4E
   872  1F4E                     	global	_ANSELA
   873                           _ANSELA	set	0x1F38
   874  1F38                     	global	_RC0PPS
   875                           _RC0PPS	set	0x1F20
   876  1F20                     	global	_RC1PPS
   877                           _RC1PPS	set	0x1F21
   878  1F21                     	global	_RC4PPS
   879                           _RC4PPS	set	0x1F24
   880  1F24                     ; #config settings
   881                           global __CFG_FEXTOSC$ECH
   882                           __CFG_FEXTOSC$ECH equ 0x0
   883  0000                     global __CFG_RSTOSC$HFINT1
   884                           __CFG_RSTOSC$HFINT1 equ 0x0
   885  0000                     global __CFG_CLKOUTEN$OFF
   886                           __CFG_CLKOUTEN$OFF equ 0x0
   887  0000                     global __CFG_CSWEN$ON
   888                           __CFG_CSWEN$ON equ 0x0
   889  0000                     global __CFG_FCMEN$ON
   890                           __CFG_FCMEN$ON equ 0x0
   891  0000                     global __CFG_MCLRE$ON
   892                           __CFG_MCLRE$ON equ 0x0
   893  0000                     global __CFG_PWRTE$OFF
   894                           __CFG_PWRTE$OFF equ 0x0
   895  0000                     global __CFG_LPBOREN$OFF
   896                           __CFG_LPBOREN$OFF equ 0x0
   897  0000                     global __CFG_BOREN$ON
   898                           __CFG_BOREN$ON equ 0x0
   899  0000                     global __CFG_BORV$LO
   900                           __CFG_BORV$LO equ 0x0
   901  0000                     global __CFG_ZCD$OFF
   902                           __CFG_ZCD$OFF equ 0x0
   903  0000                     global __CFG_PPS1WAY$ON
   904                           __CFG_PPS1WAY$ON equ 0x0
   905  0000                     global __CFG_STVREN$ON
   906                           __CFG_STVREN$ON equ 0x0
   907  0000                     global __CFG_WDTCPS$WDTCPS_31
   908                           __CFG_WDTCPS$WDTCPS_31 equ 0x0
   909  0000                     global __CFG_WDTE$OFF
   910                           __CFG_WDTE$OFF equ 0x0
   911  0000                     global __CFG_WDTCWS$WDTCWS_7
   912                           __CFG_WDTCWS$WDTCWS_7 equ 0x0
   913  0000                     global __CFG_WDTCCS$SC
   914                           __CFG_WDTCCS$SC equ 0x0
   915  0000                     global __CFG_BBSIZE$BB512
   916                           __CFG_BBSIZE$BB512 equ 0x0
   917  0000                     global __CFG_BBEN$OFF
   918                           __CFG_BBEN$OFF equ 0x0
   919  0000                     global __CFG_SAFEN$OFF
   920                           __CFG_SAFEN$OFF equ 0x0
   921  0000                     global __CFG_WRTAPP$OFF
   922                           __CFG_WRTAPP$OFF equ 0x0
   923  0000                     global __CFG_WRTB$OFF
   924                           __CFG_WRTB$OFF equ 0x0
   925  0000                     global __CFG_WRTC$OFF
   926                           __CFG_WRTC$OFF equ 0x0
   927  0000                     global __CFG_WRTSAF$OFF
   928                           __CFG_WRTSAF$OFF equ 0x0
   929  0000                     global __CFG_LVP$ON
   930                           __CFG_LVP$ON equ 0x0
   931  0000                     global __CFG_CP$OFF
   932                           __CFG_CP$OFF equ 0x0
   933  0000                     	file	"C:\Users\Ondre\AppData\Local\Temp\scsc."
   934                           	line	#
   935                           psect cinit,class=CODE,delta=2
   936                           global start_initialization
   937                           start_initialization:
   938  001D                     
   939                           global __initialization
   940                           __initialization:
   941  001D                     psect	bssCOMMON,class=COMMON,space=1,noexec
   942                           global __pbssCOMMON
   943                           __pbssCOMMON:
   944  007A                     _g_rxOErrCount:
   945  007A                            ds      1
   946  007A                     
   947                           _g_rxFErrCount:
   948  007B                            ds      1
   949  007B                     
   950                           psect	bssBANK1,class=BANK1,space=1,noexec
   951                           global __pbssBANK1
   952                           __pbssBANK1:
   953  00DC                     logf@F459:
   954  00DC                            ds      4
   955  00DC                     
   956                           _g_command:
   957  00E0                            ds      1
   958  00E0                     
   959                           	file	"C:\Users\Ondre\AppData\Local\Temp\scsc."
   960                           	line	#
   961                           ; Clear objects allocated to COMMON
   962                           psect cinit,class=CODE,delta=2,merge=1
   963                           	global __pbssCOMMON
   964                           	clrf	((__pbssCOMMON)+0)&07Fh
   965  001D  01FA               	clrf	((__pbssCOMMON)+1)&07Fh
   966  001E  01FB               ; Clear objects allocated to BANK1
   967                           psect cinit,class=CODE,delta=2,merge=1
   968                           	global __pbssBANK1
   969                           	movlb 1	; select bank1
   970  001F  0141               	clrf	((__pbssBANK1)+0)&07Fh
   971  0020  01DC               	clrf	((__pbssBANK1)+1)&07Fh
   972  0021  01DD               	clrf	((__pbssBANK1)+2)&07Fh
   973  0022  01DE               	clrf	((__pbssBANK1)+3)&07Fh
   974  0023  01DF               	clrf	((__pbssBANK1)+4)&07Fh
   975  0024  01E0               psect cinit,class=CODE,delta=2,merge=1
   976                           global end_of_initialization,__end_of__initialization
   977                           
   978                           ;End of C runtime variable initialization code
   979                           
   980                           end_of_initialization:
   981  0025                     __end_of__initialization:
   982  0025                     	bcf int$flags,0 ;clear compiler interrupt flag (level 1)
   983  0025  107E               movlb 0
   984  0026  0140               ljmp _main	;jump to C main() function
   985  0027  3187  2F07         psect	cstackBANK2,class=BANK2,space=1,noexec
   986                           global __pcstackBANK2
   987                           __pcstackBANK2:
   988  0120                     	global	logf@R
   989                           logf@R:	; 4 bytes @ 0x0
   990  0120                     	ds	4
   991  0120                     	global	logf@t1
   992                           logf@t1:	; 4 bytes @ 0x4
   993  0124                     	ds	4
   994  0124                     	global	logf@t2
   995                           logf@t2:	; 4 bytes @ 0x8
   996  0128                     	ds	4
   997  0128                     	global	_logf$787
   998                           _logf$787:	; 4 bytes @ 0xC
   999  012C                     	ds	4
  1000  012C                     	global	_logf$788
  1001                           _logf$788:	; 4 bytes @ 0x10
  1002  0130                     	ds	4
  1003  0130                     	global	_logf$789
  1004                           _logf$789:	; 4 bytes @ 0x14
  1005  0134                     	ds	4
  1006  0134                     	global	_logf$790
  1007                           _logf$790:	; 4 bytes @ 0x18
  1008  0138                     	ds	4
  1009  0138                     	global	logf@k
  1010                           logf@k:	; 2 bytes @ 0x1C
  1011  013C                     	ds	2
  1012  013C                     	global	logf@hfsq
  1013                           logf@hfsq:	; 4 bytes @ 0x1E
  1014  013E                     	ds	4
  1015  013E                     	global	logf@dk
  1016                           logf@dk:	; 4 bytes @ 0x22
  1017  0142                     	ds	4
  1018  0142                     	global	logf@s
  1019                           logf@s:	; 4 bytes @ 0x26
  1020  0146                     	ds	4
  1021  0146                     	global	logf@z
  1022                           logf@z:	; 4 bytes @ 0x2A
  1023  014A                     	ds	4
  1024  014A                     	global	logf@w
  1025                           logf@w:	; 4 bytes @ 0x2E
  1026  014E                     	ds	4
  1027  014E                     	global	_logf$786
  1028                           _logf$786:	; 4 bytes @ 0x32
  1029  0152                     	ds	4
  1030  0152                     	global	logf@u
  1031                           logf@u:	; 4 bytes @ 0x36
  1032  0156                     	ds	4
  1033  0156                     	global	logf@f
  1034                           logf@f:	; 4 bytes @ 0x3A
  1035  015A                     	ds	4
  1036  015A                     	global	logf@ix
  1037                           logf@ix:	; 4 bytes @ 0x3E
  1038  015E                     	ds	4
  1039  015E                     psect	cstackBANK1,class=BANK1,space=1,noexec
  1040                           global __pcstackBANK1
  1041                           __pcstackBANK1:
  1042  00A0                     	global	___fladd@signs
  1043                           ___fladd@signs:	; 1 bytes @ 0x0
  1044  00A0                     	ds	1
  1045  00A0                     	global	___fladd@aexp
  1046                           ___fladd@aexp:	; 1 bytes @ 0x1
  1047  00A1                     	ds	1
  1048  00A1                     	global	___fladd@bexp
  1049                           ___fladd@bexp:	; 1 bytes @ 0x2
  1050  00A2                     	ds	1
  1051  00A2                     	global	___fladd@grs
  1052                           ___fladd@grs:	; 1 bytes @ 0x3
  1053  00A3                     	ds	1
  1054  00A3                     	global	?_logf
  1055                           ?_logf:	; 4 bytes @ 0x4
  1056  00A4                     	global	logf@x
  1057                           logf@x:	; 4 bytes @ 0x4
  1058  00A4                     	ds	4
  1059  00A4                     ??_logf:	; 1 bytes @ 0x8
  1060  00A8                     	ds	8
  1061  00A8                     ??_readSI7006:	; 1 bytes @ 0x10
  1062  00B0                     	ds	5
  1063  00B0                     	global	_readSI7006$783
  1064                           _readSI7006$783:	; 4 bytes @ 0x15
  1065  00B5                     	ds	4
  1066  00B5                     	global	_readSI7006$784
  1067                           _readSI7006$784:	; 4 bytes @ 0x19
  1068  00B9                     	ds	4
  1069  00B9                     	global	_readSI7006$785
  1070                           _readSI7006$785:	; 4 bytes @ 0x1D
  1071  00BD                     	ds	4
  1072  00BD                     	global	readSI7006@gamma
  1073                           readSI7006@gamma:	; 4 bytes @ 0x21
  1074  00C1                     	ds	4
  1075  00C1                     	global	readSI7006@RH
  1076                           readSI7006@RH:	; 1 bytes @ 0x25
  1077  00C5                     	ds	1
  1078  00C5                     	global	readSI7006@buffer
  1079                           readSI7006@buffer:	; 2 bytes @ 0x26
  1080  00C6                     	ds	2
  1081  00C6                     ??_main:	; 1 bytes @ 0x28
  1082  00C8                     	ds	2
  1083  00C8                     	global	main@checksum
  1084                           main@checksum:	; 1 bytes @ 0x2A
  1085  00CA                     	ds	1
  1086  00CA                     	global	main@s
  1087                           main@s:	; 1 bytes @ 0x2B
  1088  00CB                     	ds	1
  1089  00CB                     	global	main@n
  1090                           main@n:	; 1 bytes @ 0x2C
  1091  00CC                     	ds	1
  1092  00CC                     	global	main@dataPacket
  1093                           main@dataPacket:	; 15 bytes @ 0x2D
  1094  00CD                     	ds	15
  1095  00CD                     psect	cstackCOMMON,class=COMMON,space=1,noexec
  1096                           global __pcstackCOMMON
  1097                           __pcstackCOMMON:
  1098  0070                     ?_initialize:	; 1 bytes @ 0x0
  1099  0070                     ?_uartSendByte:	; 1 bytes @ 0x0
  1100  0070                     ?_i2cStart:	; 1 bytes @ 0x0
  1101  0070                     ?_i2cRepeat:	; 1 bytes @ 0x0
  1102  0070                     ?_i2cStop:	; 1 bytes @ 0x0
  1103  0070                     ?_uartReceiveISR:	; 1 bytes @ 0x0
  1104  0070                     ??_uartReceiveISR:	; 1 bytes @ 0x0
  1105  0070                     ?_main:	; 1 bytes @ 0x0
  1106  0070                     ?_ISR:	; 1 bytes @ 0x0
  1107  0070                     	ds	1
  1108  0070                     	global	uartReceiveISR@rxByte
  1109                           uartReceiveISR@rxByte:	; 1 bytes @ 0x1
  1110  0071                     	ds	1
  1111  0071                     ??_initialize:	; 1 bytes @ 0x2
  1112  0072                     ??_uartSendByte:	; 1 bytes @ 0x2
  1113  0072                     ??_i2cStart:	; 1 bytes @ 0x2
  1114  0072                     ?_i2cWrite:	; 1 bytes @ 0x2
  1115  0072                     ??_i2cRepeat:	; 1 bytes @ 0x2
  1116  0072                     ?_i2cRead:	; 1 bytes @ 0x2
  1117  0072                     ??_i2cStop:	; 1 bytes @ 0x2
  1118  0072                     ??_ISR:	; 1 bytes @ 0x2
  1119  0072                     	global	?__Umul8_16
  1120                           ?__Umul8_16:	; 2 bytes @ 0x2
  1121  0072                     	global	?___flneg
  1122                           ?___flneg:	; 4 bytes @ 0x2
  1123  0072                     	global	?___xxtofl
  1124                           ?___xxtofl:	; 4 bytes @ 0x2
  1125  0072                     	global	i2cWrite@numBytes
  1126                           i2cWrite@numBytes:	; 1 bytes @ 0x2
  1127  0072                     	global	i2cRead@numBytes
  1128                           i2cRead@numBytes:	; 1 bytes @ 0x2
  1129  0072                     	global	uartSendByte@s
  1130                           uartSendByte@s:	; 1 bytes @ 0x2
  1131  0072                     	global	__Umul8_16@multiplicand
  1132                           __Umul8_16@multiplicand:	; 1 bytes @ 0x2
  1133  0072                     	global	___flneg@f1
  1134                           ___flneg@f1:	; 4 bytes @ 0x2
  1135  0072                     	global	___xxtofl@val
  1136                           ___xxtofl@val:	; 4 bytes @ 0x2
  1137  0072                     	ds	1
  1138  0072                     	global	i2cWrite@address
  1139                           i2cWrite@address:	; 1 bytes @ 0x3
  1140  0073                     	global	i2cRead@address
  1141                           i2cRead@address:	; 1 bytes @ 0x3
  1142  0073                     	ds	1
  1143  0073                     ??_i2cWrite:	; 1 bytes @ 0x4
  1144  0074                     ??_i2cRead:	; 1 bytes @ 0x4
  1145  0074                     ??__Umul8_16:	; 1 bytes @ 0x4
  1146  0074                     	ds	1
  1147  0074                     	global	i2cWrite@writeBuffer
  1148                           i2cWrite@writeBuffer:	; 1 bytes @ 0x5
  1149  0075                     	global	i2cRead@readBuffer
  1150                           i2cRead@readBuffer:	; 1 bytes @ 0x5
  1151  0075                     	ds	1
  1152  0075                     ??___flneg:	; 1 bytes @ 0x6
  1153  0076                     ??___xxtofl:	; 1 bytes @ 0x6
  1154  0076                     	global	i2cWrite@n
  1155                           i2cWrite@n:	; 1 bytes @ 0x6
  1156  0076                     	ds	4
  1157  0076                     psect	cstackBANK0,class=BANK0,space=1,noexec
  1158                           global __pcstackBANK0
  1159                           __pcstackBANK0:
  1160  0020                     	global	___xxtofl@sign
  1161                           ___xxtofl@sign:	; 1 bytes @ 0x0
  1162  0020                     	global	__Umul8_16@product
  1163                           __Umul8_16@product:	; 2 bytes @ 0x0
  1164  0020                     	ds	1
  1165  0020                     	global	___xxtofl@exp
  1166                           ___xxtofl@exp:	; 1 bytes @ 0x1
  1167  0021                     	ds	1
  1168  0021                     	global	__Umul8_16@word_mpld
  1169                           __Umul8_16@word_mpld:	; 2 bytes @ 0x2
  1170  0022                     	global	___xxtofl@arg
  1171                           ___xxtofl@arg:	; 4 bytes @ 0x2
  1172  0022                     	ds	2
  1173  0022                     	global	__Umul8_16@multiplier
  1174                           __Umul8_16@multiplier:	; 1 bytes @ 0x4
  1175  0024                     	ds	2
  1176  0024                     	global	?___flmul
  1177                           ?___flmul:	; 4 bytes @ 0x6
  1178  0026                     	global	___flmul@b
  1179                           ___flmul@b:	; 4 bytes @ 0x6
  1180  0026                     	ds	4
  1181  0026                     	global	___flmul@a
  1182                           ___flmul@a:	; 4 bytes @ 0xA
  1183  002A                     	ds	4
  1184  002A                     ??___flmul:	; 1 bytes @ 0xE
  1185  002E                     	ds	5
  1186  002E                     	global	___flmul@sign
  1187                           ___flmul@sign:	; 1 bytes @ 0x13
  1188  0033                     	ds	1
  1189  0033                     	global	___flmul@aexp
  1190                           ___flmul@aexp:	; 1 bytes @ 0x14
  1191  0034                     	ds	1
  1192  0034                     	global	___flmul@grs
  1193                           ___flmul@grs:	; 4 bytes @ 0x15
  1194  0035                     	ds	4
  1195  0035                     	global	___flmul@bexp
  1196                           ___flmul@bexp:	; 1 bytes @ 0x19
  1197  0039                     	ds	1
  1198  0039                     	global	___flmul@prod
  1199                           ___flmul@prod:	; 4 bytes @ 0x1A
  1200  003A                     	ds	4
  1201  003A                     	global	___flmul@temp
  1202                           ___flmul@temp:	; 2 bytes @ 0x1E
  1203  003E                     	ds	2
  1204  003E                     	global	?___fldiv
  1205                           ?___fldiv:	; 4 bytes @ 0x20
  1206  0040                     	global	___fldiv@a
  1207                           ___fldiv@a:	; 4 bytes @ 0x20
  1208  0040                     	ds	4
  1209  0040                     	global	___fldiv@b
  1210                           ___fldiv@b:	; 4 bytes @ 0x24
  1211  0044                     	ds	4
  1212  0044                     ??___fldiv:	; 1 bytes @ 0x28
  1213  0048                     	ds	5
  1214  0048                     	global	___fldiv@rem
  1215                           ___fldiv@rem:	; 4 bytes @ 0x2D
  1216  004D                     	ds	4
  1217  004D                     	global	___fldiv@sign
  1218                           ___fldiv@sign:	; 1 bytes @ 0x31
  1219  0051                     	ds	1
  1220  0051                     	global	___fldiv@new_exp
  1221                           ___fldiv@new_exp:	; 2 bytes @ 0x32
  1222  0052                     	ds	2
  1223  0052                     	global	___fldiv@grs
  1224                           ___fldiv@grs:	; 4 bytes @ 0x34
  1225  0054                     	ds	4
  1226  0054                     	global	___fldiv@bexp
  1227                           ___fldiv@bexp:	; 1 bytes @ 0x38
  1228  0058                     	ds	1
  1229  0058                     	global	___fldiv@aexp
  1230                           ___fldiv@aexp:	; 1 bytes @ 0x39
  1231  0059                     	ds	1
  1232  0059                     	global	?___fladd
  1233                           ?___fladd:	; 4 bytes @ 0x3A
  1234  005A                     	global	___fladd@b
  1235                           ___fladd@b:	; 4 bytes @ 0x3A
  1236  005A                     	ds	4
  1237  005A                     	global	___fladd@a
  1238                           ___fladd@a:	; 4 bytes @ 0x3E
  1239  005E                     	ds	4
  1240  005E                     ??___fladd:	; 1 bytes @ 0x42
  1241  0062                     	ds	12
  1242  0062                     ?_readSI7006:	; 1 bytes @ 0x4E
  1243  006E                     	global	readSI7006@tempC
  1244                           readSI7006@tempC:	; 1 bytes @ 0x4E
  1245  006E                     	ds	1
  1246  006E                     	global	readSI7006@DP
  1247                           readSI7006@DP:	; 1 bytes @ 0x4F
  1248  006F                     	ds	1
  1249  006F                     ;!
  1250                           ;!Data Sizes:
  1251                           ;!    Strings     0
  1252                           ;!    Constant    24
  1253                           ;!    Data        0
  1254                           ;!    BSS         7
  1255                           ;!    Persistent  0
  1256                           ;!    Stack       0
  1257                           ;!
  1258                           ;!Auto Spaces:
  1259                           ;!    Space          Size  Autos    Used
  1260                           ;!    COMMON           14     10      12
  1261                           ;!    BANK0            80     80      80
  1262                           ;!    BANK1            80     60      65
  1263                           ;!    BANK2            80     66      66
  1264                           ;!    BANK3            80      0       0
  1265                           ;!    BANK4            80      0       0
  1266                           ;!    BANK5            80      0       0
  1267                           ;!    BANK6            80      0       0
  1268                           ;!    BANK7            80      0       0
  1269                           ;!    BANK8            80      0       0
  1270                           ;!    BANK9            80      0       0
  1271                           ;!    BANK10           80      0       0
  1272                           ;!    BANK11           80      0       0
  1273                           ;!    BANK12           48      0       0
  1274                           
  1275                           ;!
  1276                           ;!Pointer List with Targets:
  1277                           ;!
  1278                           ;!    i2cRead@readBuffer	PTR unsigned char  size(1) Largest target is 2
  1279                           ;!		 -> readSI7006@buffer(BANK1[2]), 
  1280                           ;!
  1281                           ;!    i2cWrite@writeBuffer	PTR unsigned char  size(1) Largest target is 2
  1282                           ;!		 -> readSI7006@buffer(BANK1[2]), 
  1283                           ;!
  1284                           ;!    readSI7006@DP	PTR float  size(1) Largest target is 15
  1285                           ;!		 -> main@dataPacket(BANK1[15]), 
  1286                           ;!
  1287                           ;!    readSI7006@tempC	PTR float  size(1) Largest target is 15
  1288                           ;!		 -> main@dataPacket(BANK1[15]), 
  1289                           ;!
  1290                           ;!    readSI7006@RH	PTR float  size(1) Largest target is 15
  1291                           ;!		 -> main@dataPacket(BANK1[15]), 
  1292                           ;!
  1293                           ;!    main@s	PTR unsigned char  size(1) Largest target is 15
  1294                           ;!		 -> main@dataPacket(BANK1[15]), 
  1295                           ;!
  1296                           
  1297                           
  1298                           ;!
  1299                           ;!Critical Paths under _main in COMMON
  1300                           ;!
  1301                           ;!    _readSI7006->___xxtofl
  1302                           ;!    _logf->___xxtofl
  1303                           ;!    ___flmul->___xxtofl
  1304                           ;!    ___fldiv->___xxtofl
  1305                           ;!    ___fladd->___xxtofl
  1306                           ;!
  1307                           ;!Critical Paths under _ISR in COMMON
  1308                           ;!
  1309                           ;!    _ISR->_uartReceiveISR
  1310                           ;!
  1311                           ;!Critical Paths under _main in BANK0
  1312                           ;!
  1313                           ;!    _main->_readSI7006
  1314                           ;!    _readSI7006->___fladd
  1315                           ;!    _logf->___fladd
  1316                           ;!    ___flmul->___xxtofl
  1317                           ;!    ___fldiv->___flmul
  1318                           ;!    ___fladd->___fldiv
  1319                           ;!
  1320                           ;!Critical Paths under _ISR in BANK0
  1321                           ;!
  1322                           ;!    None.
  1323                           ;!
  1324                           ;!Critical Paths under _main in BANK1
  1325                           ;!
  1326                           ;!    _main->_readSI7006
  1327                           ;!    _readSI7006->_logf
  1328                           ;!    _logf->___fladd
  1329                           ;!
  1330                           ;!Critical Paths under _ISR in BANK1
  1331                           ;!
  1332                           ;!    None.
  1333                           ;!
  1334                           ;!Critical Paths under _main in BANK2
  1335                           ;!
  1336                           ;!    _readSI7006->_logf
  1337                           ;!
  1338                           ;!Critical Paths under _ISR in BANK2
  1339                           ;!
  1340                           ;!    None.
  1341                           ;!
  1342                           ;!Critical Paths under _main in BANK3
  1343                           ;!
  1344                           ;!    None.
  1345                           ;!
  1346                           ;!Critical Paths under _ISR in BANK3
  1347                           ;!
  1348                           ;!    None.
  1349                           ;!
  1350                           ;!Critical Paths under _main in BANK4
  1351                           ;!
  1352                           ;!    None.
  1353                           ;!
  1354                           ;!Critical Paths under _ISR in BANK4
  1355                           ;!
  1356                           ;!    None.
  1357                           ;!
  1358                           ;!Critical Paths under _main in BANK5
  1359                           ;!
  1360                           ;!    None.
  1361                           ;!
  1362                           ;!Critical Paths under _ISR in BANK5
  1363                           ;!
  1364                           ;!    None.
  1365                           ;!
  1366                           ;!Critical Paths under _main in BANK6
  1367                           ;!
  1368                           ;!    None.
  1369                           ;!
  1370                           ;!Critical Paths under _ISR in BANK6
  1371                           ;!
  1372                           ;!    None.
  1373                           ;!
  1374                           ;!Critical Paths under _main in BANK7
  1375                           ;!
  1376                           ;!    None.
  1377                           ;!
  1378                           ;!Critical Paths under _ISR in BANK7
  1379                           ;!
  1380                           ;!    None.
  1381                           ;!
  1382                           ;!Critical Paths under _main in BANK8
  1383                           ;!
  1384                           ;!    None.
  1385                           ;!
  1386                           ;!Critical Paths under _ISR in BANK8
  1387                           ;!
  1388                           ;!    None.
  1389                           ;!
  1390                           ;!Critical Paths under _main in BANK9
  1391                           ;!
  1392                           ;!    None.
  1393                           ;!
  1394                           ;!Critical Paths under _ISR in BANK9
  1395                           ;!
  1396                           ;!    None.
  1397                           ;!
  1398                           ;!Critical Paths under _main in BANK10
  1399                           ;!
  1400                           ;!    None.
  1401                           ;!
  1402                           ;!Critical Paths under _ISR in BANK10
  1403                           ;!
  1404                           ;!    None.
  1405                           ;!
  1406                           ;!Critical Paths under _main in BANK11
  1407                           ;!
  1408                           ;!    None.
  1409                           ;!
  1410                           ;!Critical Paths under _ISR in BANK11
  1411                           ;!
  1412                           ;!    None.
  1413                           ;!
  1414                           ;!Critical Paths under _main in BANK12
  1415                           ;!
  1416                           ;!    None.
  1417                           ;!
  1418                           ;!Critical Paths under _ISR in BANK12
  1419                           ;!
  1420                           ;!    None.
  1421                           
  1422 ;;
  1423 ;;Main: autosize = 0, tempsize = 2, incstack = 0, save=0
  1424 ;;
  1425                           
  1426                           ;!
  1427                           ;!Call Graph Tables:
  1428                           ;!
  1429                           ;! ---------------------------------------------------------------------------------
  1430                           ;! (Depth) Function   	        Calls       Base Space   Used Autos Params    Refs
  1431                           ;! ---------------------------------------------------------------------------------
  1432                           ;! (0) _main                                                20    20      0   31886
  1433                           ;!                                             40 BANK1     20    20      0
  1434                           ;!                         _initialize
  1435                           ;!                         _readSI7006
  1436                           ;!                       _uartSendByte
  1437                           ;! ---------------------------------------------------------------------------------
  1438                           ;! (1) _uartSendByte                                         1     1      0      22
  1439                           ;!                                              2 COMMON     1     1      0
  1440                           ;! ---------------------------------------------------------------------------------
  1441                           ;! (1) _readSI7006                                          26    24      2   31420
  1442                           ;!                                             78 BANK0      2     0      2
  1443                           ;!                                             16 BANK1     24    24      0
  1444                           ;!                            ___fladd
  1445                           ;!                            ___fldiv
  1446                           ;!                            ___flmul
  1447                           ;!                            ___flneg
  1448                           ;!                           ___xxtofl
  1449                           ;!                            _i2cRead
  1450                           ;!                          _i2cRepeat
  1451                           ;!                           _i2cStart
  1452                           ;!                            _i2cStop
  1453                           ;!                           _i2cWrite
  1454                           ;!                               _logf
  1455                           ;! ---------------------------------------------------------------------------------
  1456                           ;! (2) _logf                                                78    74      4   15662
  1457                           ;!                                              4 BANK1     12     8      4
  1458                           ;!                                              0 BANK2     66    66      0
  1459                           ;!                            ___fladd
  1460                           ;!                            ___fldiv
  1461                           ;!                            ___flmul
  1462                           ;!                            ___flneg
  1463                           ;!                           ___xxtofl
  1464                           ;! ---------------------------------------------------------------------------------
  1465                           ;! (3) ___xxtofl                                            14    10      4     550
  1466                           ;!                                              2 COMMON     8     4      4
  1467                           ;!                                              0 BANK0      6     6      0
  1468                           ;! ---------------------------------------------------------------------------------
  1469                           ;! (3) ___flneg                                              4     0      4     273
  1470                           ;!                                              2 COMMON     4     0      4
  1471                           ;! ---------------------------------------------------------------------------------
  1472                           ;! (3) ___flmul                                             26    18      8    6233
  1473                           ;!                                              6 BANK0     26    18      8
  1474                           ;!                          __Umul8_16
  1475                           ;!                           ___xxtofl (ARG)
  1476                           ;! ---------------------------------------------------------------------------------
  1477                           ;! (4) __Umul8_16                                            9     7      2     980
  1478                           ;!                                              2 COMMON     4     2      2
  1479                           ;!                                              0 BANK0      5     5      0
  1480                           ;! ---------------------------------------------------------------------------------
  1481                           ;! (3) ___fldiv                                             26    18      8    2337
  1482                           ;!                                             32 BANK0     26    18      8
  1483                           ;!                            ___flmul (ARG)
  1484                           ;!                            ___flneg (ARG)
  1485                           ;!                           ___xxtofl (ARG)
  1486                           ;! ---------------------------------------------------------------------------------
  1487                           ;! (3) ___fladd                                             24    16      8    4542
  1488                           ;!                                             58 BANK0     20    12      8
  1489                           ;!                                              0 BANK1      4     4      0
  1490                           ;!                            ___fldiv (ARG)
  1491                           ;!                            ___flmul (ARG)
  1492                           ;!                            ___flneg (ARG)
  1493                           ;!                           ___xxtofl (ARG)
  1494                           ;! ---------------------------------------------------------------------------------
  1495                           ;! (2) _i2cWrite                                             5     3      2     526
  1496                           ;!                                              2 COMMON     5     3      2
  1497                           ;! ---------------------------------------------------------------------------------
  1498                           ;! (2) _i2cStop                                              0     0      0       0
  1499                           ;! ---------------------------------------------------------------------------------
  1500                           ;! (2) _i2cStart                                             0     0      0       0
  1501                           ;! ---------------------------------------------------------------------------------
  1502                           ;! (2) _i2cRepeat                                            0     0      0       0
  1503                           ;! ---------------------------------------------------------------------------------
  1504                           ;! (2) _i2cRead                                              4     2      2     459
  1505                           ;!                                              2 COMMON     4     2      2
  1506                           ;! ---------------------------------------------------------------------------------
  1507                           ;! (1) _initialize                                           0     0      0       0
  1508                           ;! ---------------------------------------------------------------------------------
  1509                           ;! Estimated maximum stack depth 4
  1510                           ;! ---------------------------------------------------------------------------------
  1511                           ;! (Depth) Function   	        Calls       Base Space   Used Autos Params    Refs
  1512                           ;! ---------------------------------------------------------------------------------
  1513                           ;! (5) _ISR                                                  0     0      0      23
  1514                           ;!                     _uartReceiveISR
  1515                           ;! ---------------------------------------------------------------------------------
  1516                           ;! (6) _uartReceiveISR                                       2     2      0      23
  1517                           ;!                                              0 COMMON     2     2      0
  1518                           ;! ---------------------------------------------------------------------------------
  1519                           ;! Estimated maximum stack depth 6
  1520                           ;! ---------------------------------------------------------------------------------
  1521                           ;!
  1522                           ;! Call Graph Graphs:
  1523                           ;!
  1524                           ;! _main (ROOT)
  1525                           ;!   _initialize
  1526                           ;!   _readSI7006
  1527                           ;!     ___fladd
  1528                           ;!       ___fldiv (ARG)
  1529                           ;!         ___flmul (ARG)
  1530                           ;!           __Umul8_16
  1531                           ;!           ___xxtofl (ARG)
  1532                           ;!         ___flneg (ARG)
  1533                           ;!         ___xxtofl (ARG)
  1534                           ;!       ___flmul (ARG)
  1535                           ;!         __Umul8_16
  1536                           ;!         ___xxtofl (ARG)
  1537                           ;!       ___flneg (ARG)
  1538                           ;!       ___xxtofl (ARG)
  1539                           ;!     ___fldiv
  1540                           ;!       ___flmul (ARG)
  1541                           ;!         __Umul8_16
  1542                           ;!         ___xxtofl (ARG)
  1543                           ;!       ___flneg (ARG)
  1544                           ;!       ___xxtofl (ARG)
  1545                           ;!     ___flmul
  1546                           ;!       __Umul8_16
  1547                           ;!       ___xxtofl (ARG)
  1548                           ;!     ___flneg
  1549                           ;!     ___xxtofl
  1550                           ;!     _i2cRead
  1551                           ;!     _i2cRepeat
  1552                           ;!     _i2cStart
  1553                           ;!     _i2cStop
  1554                           ;!     _i2cWrite
  1555                           ;!     _logf
  1556                           ;!       ___fladd
  1557                           ;!         ___fldiv (ARG)
  1558                           ;!           ___flmul (ARG)
  1559                           ;!             __Umul8_16
  1560                           ;!             ___xxtofl (ARG)
  1561                           ;!           ___flneg (ARG)
  1562                           ;!           ___xxtofl (ARG)
  1563                           ;!         ___flmul (ARG)
  1564                           ;!           __Umul8_16
  1565                           ;!           ___xxtofl (ARG)
  1566                           ;!         ___flneg (ARG)
  1567                           ;!         ___xxtofl (ARG)
  1568                           ;!       ___fldiv
  1569                           ;!         ___flmul (ARG)
  1570                           ;!           __Umul8_16
  1571                           ;!           ___xxtofl (ARG)
  1572                           ;!         ___flneg (ARG)
  1573                           ;!         ___xxtofl (ARG)
  1574                           ;!       ___flmul
  1575                           ;!         __Umul8_16
  1576                           ;!         ___xxtofl (ARG)
  1577                           ;!       ___flneg
  1578                           ;!       ___xxtofl
  1579                           ;!   _uartSendByte
  1580                           ;!
  1581                           ;! _ISR (ROOT)
  1582                           ;!   _uartReceiveISR
  1583                           ;!
  1584                           
  1585                           ;! Address spaces:
  1586                           
  1587                           ;!Name               Size   Autos  Total    Cost      Usage
  1588                           ;!BIGRAM             3F0      0       0       0        0.0%
  1589                           ;!NULL                 0      0       0       0        0.0%
  1590                           ;!CODE                 0      0       0       0        0.0%
  1591                           ;!BITCOMMON            E      0       0       1        0.0%
  1592                           ;!BITSFR0              0      0       0       1        0.0%
  1593                           ;!SFR0                 0      0       0       1        0.0%
  1594                           ;!COMMON               E      A       C       2       85.7%
  1595                           ;!BITSFR1              0      0       0       2        0.0%
  1596                           ;!SFR1                 0      0       0       2        0.0%
  1597                           ;!BITSFR2              0      0       0       3        0.0%
  1598                           ;!SFR2                 0      0       0       3        0.0%
  1599                           ;!STACK                0      0       0       3        0.0%
  1600                           ;!BITSFR3              0      0       0       4        0.0%
  1601                           ;!SFR3                 0      0       0       4        0.0%
  1602                           ;!ABS                  0      0      DF       4        0.0%
  1603                           ;!BITBANK0            50      0       0       5        0.0%
  1604                           ;!BITSFR4              0      0       0       5        0.0%
  1605                           ;!SFR4                 0      0       0       5        0.0%
  1606                           ;!BANK0               50     50      50       6      100.0%
  1607                           ;!BITSFR5              0      0       0       6        0.0%
  1608                           ;!SFR5                 0      0       0       6        0.0%
  1609                           ;!BITBANK1            50      0       0       7        0.0%
  1610                           ;!BITSFR6              0      0       0       7        0.0%
  1611                           ;!SFR6                 0      0       0       7        0.0%
  1612                           ;!BANK1               50     3C      41       8       81.3%
  1613                           ;!BITSFR7              0      0       0       8        0.0%
  1614                           ;!SFR7                 0      0       0       8        0.0%
  1615                           ;!BITBANK2            50      0       0       9        0.0%
  1616                           ;!BITSFR8              0      0       0       9        0.0%
  1617                           ;!SFR8                 0      0       0       9        0.0%
  1618                           ;!BANK2               50     42      42      10       82.5%
  1619                           ;!BITSFR9              0      0       0      10        0.0%
  1620                           ;!SFR9                 0      0       0      10        0.0%
  1621                           ;!BITBANK3            50      0       0      11        0.0%
  1622                           ;!BITSFR10             0      0       0      11        0.0%
  1623                           ;!SFR10                0      0       0      11        0.0%
  1624                           ;!BANK3               50      0       0      12        0.0%
  1625                           ;!BITSFR11             0      0       0      12        0.0%
  1626                           ;!SFR11                0      0       0      12        0.0%
  1627                           ;!BITBANK4            50      0       0      13        0.0%
  1628                           ;!BITSFR12             0      0       0      13        0.0%
  1629                           ;!SFR12                0      0       0      13        0.0%
  1630                           ;!BANK4               50      0       0      14        0.0%
  1631                           ;!BITSFR13             0      0       0      14        0.0%
  1632                           ;!SFR13                0      0       0      14        0.0%
  1633                           ;!BITBANK5            50      0       0      15        0.0%
  1634                           ;!BITSFR14             0      0       0      15        0.0%
  1635                           ;!SFR14                0      0       0      15        0.0%
  1636                           ;!BANK5               50      0       0      16        0.0%
  1637                           ;!BITSFR15             0      0       0      16        0.0%
  1638                           ;!SFR15                0      0       0      16        0.0%
  1639                           ;!BITBANK6            50      0       0      17        0.0%
  1640                           ;!BITSFR16             0      0       0      17        0.0%
  1641                           ;!SFR16                0      0       0      17        0.0%
  1642                           ;!BANK6               50      0       0      18        0.0%
  1643                           ;!BITSFR17             0      0       0      18        0.0%
  1644                           ;!SFR17                0      0       0      18        0.0%
  1645                           ;!BITBANK7            50      0       0      19        0.0%
  1646                           ;!BITSFR18             0      0       0      19        0.0%
  1647                           ;!SFR18                0      0       0      19        0.0%
  1648                           ;!BANK7               50      0       0      20        0.0%
  1649                           ;!BITSFR19             0      0       0      20        0.0%
  1650                           ;!SFR19                0      0       0      20        0.0%
  1651                           ;!BITBANK8            50      0       0      21        0.0%
  1652                           ;!BITSFR20             0      0       0      21        0.0%
  1653                           ;!SFR20                0      0       0      21        0.0%
  1654                           ;!BANK8               50      0       0      22        0.0%
  1655                           ;!BITSFR21             0      0       0      22        0.0%
  1656                           ;!SFR21                0      0       0      22        0.0%
  1657                           ;!BITBANK9            50      0       0      23        0.0%
  1658                           ;!BITSFR22             0      0       0      23        0.0%
  1659                           ;!SFR22                0      0       0      23        0.0%
  1660                           ;!BANK9               50      0       0      24        0.0%
  1661                           ;!BITSFR23             0      0       0      24        0.0%
  1662                           ;!SFR23                0      0       0      24        0.0%
  1663                           ;!BITBANK10           50      0       0      25        0.0%
  1664                           ;!BITSFR24             0      0       0      25        0.0%
  1665                           ;!SFR24                0      0       0      25        0.0%
  1666                           ;!BANK10              50      0       0      26        0.0%
  1667                           ;!BITSFR25             0      0       0      26        0.0%
  1668                           ;!SFR25                0      0       0      26        0.0%
  1669                           ;!BITBANK11           50      0       0      27        0.0%
  1670                           ;!BITSFR26             0      0       0      27        0.0%
  1671                           ;!SFR26                0      0       0      27        0.0%
  1672                           ;!BANK11              50      0       0      28        0.0%
  1673                           ;!BITSFR27             0      0       0      28        0.0%
  1674                           ;!SFR27                0      0       0      28        0.0%
  1675                           ;!BITBANK12           30      0       0      29        0.0%
  1676                           ;!BITSFR28             0      0       0      29        0.0%
  1677                           ;!SFR28                0      0       0      29        0.0%
  1678                           ;!BANK12              30      0       0      30        0.0%
  1679                           ;!BITSFR29             0      0       0      30        0.0%
  1680                           ;!SFR29                0      0       0      30        0.0%
  1681                           ;!BITSFR30             0      0       0      31        0.0%
  1682                           ;!SFR30                0      0       0      31        0.0%
  1683                           ;!DATA                 0      0      DF      31        0.0%
  1684                           ;!BITSFR31             0      0       0      32        0.0%
  1685                           ;!SFR31                0      0       0      32        0.0%
  1686                           ;!BITSFR32             0      0       0      33        0.0%
  1687                           ;!SFR32                0      0       0      33        0.0%
  1688                           ;!BITSFR33             0      0       0      34        0.0%
  1689                           ;!SFR33                0      0       0      34        0.0%
  1690                           ;!BITSFR34             0      0       0      35        0.0%
  1691                           ;!SFR34                0      0       0      35        0.0%
  1692                           ;!BITSFR35             0      0       0      36        0.0%
  1693                           ;!SFR35                0      0       0      36        0.0%
  1694                           ;!BITSFR36             0      0       0      37        0.0%
  1695                           ;!SFR36                0      0       0      37        0.0%
  1696                           ;!BITSFR37             0      0       0      38        0.0%
  1697                           ;!SFR37                0      0       0      38        0.0%
  1698                           ;!BITSFR38             0      0       0      39        0.0%
  1699                           ;!SFR38                0      0       0      39        0.0%
  1700                           ;!BITSFR39             0      0       0      40        0.0%
  1701                           ;!SFR39                0      0       0      40        0.0%
  1702                           ;!BITSFR40             0      0       0      41        0.0%
  1703                           ;!SFR40                0      0       0      41        0.0%
  1704                           ;!BITSFR41             0      0       0      42        0.0%
  1705                           ;!SFR41                0      0       0      42        0.0%
  1706                           ;!BITSFR42             0      0       0      43        0.0%
  1707                           ;!SFR42                0      0       0      43        0.0%
  1708                           ;!BITSFR43             0      0       0      44        0.0%
  1709                           ;!SFR43                0      0       0      44        0.0%
  1710                           ;!BITSFR44             0      0       0      45        0.0%
  1711                           ;!SFR44                0      0       0      45        0.0%
  1712                           ;!BITSFR45             0      0       0      46        0.0%
  1713                           ;!SFR45                0      0       0      46        0.0%
  1714                           ;!BITSFR46             0      0       0      47        0.0%
  1715                           ;!SFR46                0      0       0      47        0.0%
  1716                           ;!BITSFR47             0      0       0      48        0.0%
  1717                           ;!SFR47                0      0       0      48        0.0%
  1718                           ;!BITSFR48             0      0       0      49        0.0%
  1719                           ;!SFR48                0      0       0      49        0.0%
  1720                           ;!BITSFR49             0      0       0      50        0.0%
  1721                           ;!SFR49                0      0       0      50        0.0%
  1722                           ;!BITSFR50             0      0       0      51        0.0%
  1723                           ;!SFR50                0      0       0      51        0.0%
  1724                           ;!BITSFR51             0      0       0      52        0.0%
  1725                           ;!SFR51                0      0       0      52        0.0%
  1726                           ;!BITSFR52             0      0       0      53        0.0%
  1727                           ;!SFR52                0      0       0      53        0.0%
  1728                           ;!BITSFR53             0      0       0      54        0.0%
  1729                           ;!SFR53                0      0       0      54        0.0%
  1730                           ;!BITSFR54             0      0       0      55        0.0%
  1731                           ;!SFR54                0      0       0      55        0.0%
  1732                           ;!BITSFR55             0      0       0      56        0.0%
  1733                           ;!SFR55                0      0       0      56        0.0%
  1734                           ;!BITSFR56             0      0       0      57        0.0%
  1735                           ;!SFR56                0      0       0      57        0.0%
  1736                           ;!BITSFR57             0      0       0      58        0.0%
  1737                           ;!SFR57                0      0       0      58        0.0%
  1738                           ;!BITSFR58             0      0       0      59        0.0%
  1739                           ;!SFR58                0      0       0      59        0.0%
  1740                           ;!BITSFR59             0      0       0      60        0.0%
  1741                           ;!SFR59                0      0       0      60        0.0%
  1742                           ;!BITSFR60             0      0       0      61        0.0%
  1743                           ;!SFR60                0      0       0      61        0.0%
  1744                           ;!BITSFR61             0      0       0      62        0.0%
  1745                           ;!SFR61                0      0       0      62        0.0%
  1746                           ;!BITSFR62             0      0       0      63        0.0%
  1747                           ;!SFR62                0      0       0      63        0.0%
  1748                           ;!BITSFR63             0      0       0      64        0.0%
  1749                           ;!SFR63                0      0       0      64        0.0%
  1750                           
  1751                           	global	_main
  1752                           
  1753 ;; *************** function _main *****************
  1754 ;; Defined at:
  1755 ;;		line 71 in file "main.c"
  1756 ;; Parameters:    Size  Location     Type
  1757 ;;		None
  1758 ;; Auto vars:     Size  Location     Type
  1759 ;;  dataPacket     15   45[BANK1 ] struct .
  1760 ;;  n               1   44[BANK1 ] unsigned char 
  1761 ;;  s               1   43[BANK1 ] PTR unsigned char 
  1762 ;;		 -> main@dataPacket(15), 
  1763 ;;  checksum        1   42[BANK1 ] unsigned char 
  1764 ;; Return value:  Size  Location     Type
  1765 ;;                  1    wreg      void 
  1766 ;; Registers used:
  1767 ;;		wreg, fsr0l, fsr0h, fsr1l, fsr1h, status,2, status,0, pclath, cstack
  1768 ;; Tracked objects:
  1769 ;;		On entry : B3F/0
  1770 ;;		On exit  : 0/0
  1771 ;;		Unchanged: 0/0
  1772 ;; Data sizes:     COMMON   BANK0   BANK1   BANK2   BANK3   BANK4   BANK5   BANK6   BANK7   BANK8   BANK9  BANK10  BANK1
       1  BANK12
  1773 ;;      Params:         0       0       0       0       0       0       0       0       0       0       0       0       
       0       0
  1774 ;;      Locals:         0       0      18       0       0       0       0       0       0       0       0       0       
       0       0
  1775 ;;      Temps:          0       0       2       0       0       0       0       0       0       0       0       0       
       0       0
  1776 ;;      Totals:         0       0      20       0       0       0       0       0       0       0       0       0       
       0       0
  1777 ;;Total ram usage:       20 bytes
  1778 ;; Hardware stack levels required when called:    6
  1779 ;; This function calls:
  1780 ;;		_initialize
  1781 ;;		_readSI7006
  1782 ;;		_uartSendByte
  1783 ;; This function is called by:
  1784 ;;		Startup code after reset
  1785 ;; This function uses a non-reentrant model
  1786 ;;
  1787                           psect	maintext,global,class=CODE,delta=2,merge=1,split=1,group=0
  1788                           	file	"main.c"
  1789                           	line	71
  1790                           global __pmaintext
  1791                           __pmaintext:	;psect for function _main
  1792  0707                     psect	maintext
  1793                           	file	"main.c"
  1794                           	line	71
  1795                           	global	__size_of_main
  1796                           	__size_of_main	equ	__end_of_main-_main
  1797  0078                     	
  1798                           _main:	
  1799  0707                     ;incstack = 0
  1800                           	opt	stack 10
  1801                           ; Regs used in _main: [wreg-fsr1h+status,2+status,0+pclath+cstack]
  1802                           	line	78
  1803                           	
  1804                           l2670:	
  1805  0707                     ;main.c: 73:     char *s;;main.c: 74:     char checksum;;main.c: 75:     t_dataPacket da
                                 taPacket;;main.c: 76:     uint8_t n;;main.c: 78:     initialize();
  1806                           	fcall	_initialize
  1807  0707  3187  27C6  3187   	line	80
  1808                           ;main.c: 80:     while (1)
  1809                           	
  1810                           l87:	
  1811  070A                     	line	82
  1812                           # 82 "main.c"
  1813                           clrwdt ;# 
  1814  070A  0064               psect	maintext
  1815                           	line	83
  1816                           ;main.c: 83:         switch (g_command)
  1817                           	goto	l2712
  1818  070B  2F6A               	line	85
  1819                           ;main.c: 84:         {;main.c: 85:         case GET_DATA:
  1820                           	
  1821                           l89:	
  1822  070C                     	line	86
  1823                           	
  1824                           l2672:	
  1825  070C                     ;main.c: 86:             dataPacket.header = 0xAA;
  1826                           	movlw	low(0AAh)
  1827  070C  30AA               	movlb 1	; select bank1
  1828  070D  0141               	movwf	(??_main+0)^080h+0
  1829  070E  00C8               	movf	(??_main+0)^080h+0,w
  1830  070F  0848               	movwf	(main@dataPacket)^080h
  1831  0710  00CD               	line	87
  1832                           	
  1833                           l2674:	
  1834  0711                     ;main.c: 87:             dataPacket.version = 0x01;
  1835                           	clrf	0+(main@dataPacket)^080h+01h
  1836  0711  01CE               	incf	0+(main@dataPacket)^080h+01h,f
  1837  0712  0ACE               	line	89
  1838                           	
  1839                           l2676:	
  1840  0713                     ;main.c: 89:             if( readSI7006(&dataPacket.relHum,
  1841                           	movlw	(low(main@dataPacket|((0x0)<<8)+03h))&0ffh
  1842  0713  30D0               	movwf	(??_main+0)^080h+0
  1843  0714  00C8               	movf	(??_main+0)^080h+0,w
  1844  0715  0848               	movlb 0	; select bank0
  1845  0716  0140               	movwf	(readSI7006@tempC)
  1846  0717  00EE               	movlw	(low(main@dataPacket|((0x0)<<8)+0Bh))&0ffh
  1847  0718  30D8               	movlb 1	; select bank1
  1848  0719  0141               	movwf	(??_main+1)^080h+0
  1849  071A  00C9               	movf	(??_main+1)^080h+0,w
  1850  071B  0849               	movlb 0	; select bank0
  1851  071C  0140               	movwf	(readSI7006@DP)
  1852  071D  00EF               	movlw	(low(main@dataPacket|((0x0)<<8)+07h))&0ffh
  1853  071E  30D4               	fcall	_readSI7006
  1854  071F  3188  2073  3187   	xorlw	low(0)&0ffh
  1855  0722  3A00               	skipnz
  1856  0723  1903               	goto	u3561
  1857  0724  2F26               	goto	u3560
  1858  0725  2F27               u3561:
  1859  0726                     	goto	l2680
  1860  0726  2F2B               u3560:
  1861  0727                     	line	92
  1862                           	
  1863                           l2678:	
  1864  0727                     ;main.c: 92:                 dataPacket.status = 1;
  1865                           	movlb 1	; select bank1
  1866  0727  0141               	clrf	0+(main@dataPacket)^080h+02h
  1867  0728  01CF               	incf	0+(main@dataPacket)^080h+02h,f
  1868  0729  0ACF               	goto	l2682
  1869  072A  2F2E               	line	93
  1870                           ;main.c: 93:             else
  1871                           	
  1872                           l90:	
  1873  072B                     	line	94
  1874                           	
  1875                           l2680:	
  1876  072B                     ;main.c: 94:                 dataPacket.status = 0;
  1877                           	movlb 1	; select bank1
  1878  072B  0141               	clrf	0+(main@dataPacket)^080h+02h
  1879  072C  01CF               	goto	l2682
  1880  072D  2F2E               	
  1881                           l91:	
  1882  072E                     	line	96
  1883                           	
  1884                           l2682:	
  1885  072E                     ;main.c: 96:             s = (char *) &dataPacket;
  1886                           	movlw	(low(main@dataPacket|((0x0)<<8)))&0ffh
  1887  072E  30CD               	movwf	(??_main+0)^080h+0
  1888  072F  00C8               	movf	(??_main+0)^080h+0,w
  1889  0730  0848               	movwf	(main@s)^080h
  1890  0731  00CB               	line	97
  1891                           	
  1892                           l2684:	
  1893  0732                     ;main.c: 97:             checksum = 0;
  1894                           	clrf	(main@checksum)^080h
  1895  0732  01CA               	line	98
  1896                           	
  1897                           l2686:	
  1898  0733                     ;main.c: 98:             for (n = 0; n < sizeof (t_dataPacket); n++)
  1899                           	clrf	(main@n)^080h
  1900  0733  01CC               	
  1901                           l2688:	
  1902  0734                     	movlw	low(0Fh)
  1903  0734  300F               	subwf	(main@n)^080h,w
  1904  0735  024C               	skipc
  1905  0736  1C03               	goto	u3571
  1906  0737  2F39               	goto	u3570
  1907  0738  2F3A               u3571:
  1908  0739                     	goto	l2692
  1909  0739  2F3C               u3570:
  1910  073A                     	goto	l2702
  1911  073A  2F5A               	
  1912                           l2690:	
  1913  073B                     	goto	l2702
  1914  073B  2F5A               	
  1915                           l92:	
  1916  073C                     	line	100
  1917                           	
  1918                           l2692:	
  1919  073C                     ;main.c: 99:             {;main.c: 100:                 checksum ^= *s;
  1920                           	movf	(main@s)^080h,w
  1921  073C  084B               	movwf	fsr1l
  1922  073D  0086               	clrf fsr1h	
  1923  073E  0187               	
  1924                           	movf	indf1,w
  1925  073F  0801               	movwf	(??_main+0)^080h+0
  1926  0740  00C8               	movf	(??_main+0)^080h+0,w
  1927  0741  0848               	xorwf	(main@checksum)^080h,f
  1928  0742  06CA               	line	101
  1929                           	
  1930                           l2694:	
  1931  0743                     ;main.c: 101:                 uartSendByte(*(s++));
  1932                           	movf	(main@s)^080h,w
  1933  0743  084B               	movwf	fsr1l
  1934  0744  0086               	clrf fsr1h	
  1935  0745  0187               	
  1936                           	movf	indf1,w
  1937  0746  0801               	fcall	_uartSendByte
  1938  0747  3195  25ED  3187   	
  1939                           l2696:	
  1940  074A                     	movlw	low(01h)
  1941  074A  3001               	movlb 1	; select bank1
  1942  074B  0141               	movwf	(??_main+0)^080h+0
  1943  074C  00C8               	movf	(??_main+0)^080h+0,w
  1944  074D  0848               	addwf	(main@s)^080h,f
  1945  074E  07CB               	line	102
  1946                           	
  1947                           l2698:	
  1948  074F                     ;main.c: 102:             }
  1949                           	movlw	low(01h)
  1950  074F  3001               	movwf	(??_main+0)^080h+0
  1951  0750  00C8               	movf	(??_main+0)^080h+0,w
  1952  0751  0848               	addwf	(main@n)^080h,f
  1953  0752  07CC               	
  1954                           l2700:	
  1955  0753                     	movlw	low(0Fh)
  1956  0753  300F               	subwf	(main@n)^080h,w
  1957  0754  024C               	skipc
  1958  0755  1C03               	goto	u3581
  1959  0756  2F58               	goto	u3580
  1960  0757  2F59               u3581:
  1961  0758                     	goto	l2692
  1962  0758  2F3C               u3580:
  1963  0759                     	goto	l2702
  1964  0759  2F5A               	
  1965                           l93:	
  1966  075A                     	line	103
  1967                           	
  1968                           l2702:	
  1969  075A                     ;main.c: 103:             uartSendByte(checksum);
  1970                           	movf	(main@checksum)^080h,w
  1971  075A  084A               	fcall	_uartSendByte
  1972  075B  3195  25ED  3187   	line	105
  1973                           	
  1974                           l2704:	
  1975  075E                     ;main.c: 105:             g_command = NO_COMMAND;
  1976                           	movlb 1	; select bank1
  1977  075E  0141               	clrf	(_g_command)^080h	;volatile
  1978  075F  01E0               	line	106
  1979                           ;main.c: 106:             break;
  1980                           	goto	l87
  1981  0760  2F0A               	line	107
  1982                           ;main.c: 107:         case UNKNOWN_COMMAND:
  1983                           	
  1984                           l95:	
  1985  0761                     	line	108
  1986                           	
  1987                           l2706:	
  1988  0761                     ;main.c: 108:             uartSendByte(0xFF);
  1989                           	movlw	low(0FFh)
  1990  0761  30FF               	fcall	_uartSendByte
  1991  0762  3195  25ED  3187   	line	109
  1992                           	
  1993                           l2708:	
  1994  0765                     ;main.c: 109:             g_command = NO_COMMAND;
  1995                           	movlb 1	; select bank1
  1996  0765  0141               	clrf	(_g_command)^080h	;volatile
  1997  0766  01E0               	line	110
  1998                           ;main.c: 110:             break;
  1999                           	goto	l87
  2000  0767  2F0A               	line	111
  2001                           ;main.c: 111:         default:
  2002                           	
  2003                           l96:	
  2004  0768                     	line	112
  2005                           ;main.c: 112:             break;
  2006                           	goto	l87
  2007  0768  2F0A               	line	113
  2008                           	
  2009                           l2710:	
  2010  0769                     ;main.c: 113:         }
  2011                           	goto	l87
  2012  0769  2F0A               	
  2013                           l88:	
  2014  076A                     	
  2015                           l2712:	
  2016  076A                     	movlb 1	; select bank1
  2017  076A  0141               	movf	(_g_command)^080h,w	;volatile
  2018  076B  0860               	movwf	(??_main+0)^080h+0
  2019  076C  00C8               	clrf	(??_main+0)^080h+0+1
  2020  076D  01C9               	; Switch on 2 bytes has been partitioned into a top level switch of size 1, and 1 sub-s
                                 witches
  2021                           ; Switch size 1, requested type "space"
  2022                           ; Number of cases is 1, Range of values is 0 to 0
  2023                           ; switch strategies available:
  2024                           ; Name         Instructions Cycles
  2025                           ; simple_byte            4     3 (average)
  2026                           ; direct_byte            8     6 (fixed)
  2027                           ; jumptable            260     6 (fixed)
  2028                           ;	Chosen strategy is simple_byte
  2029                           
  2030                           	movf 1+(??_main+0)^080h+0,w
  2031  076E  0849               	opt asmopt_push
  2032                           	opt asmopt_off
  2033                           	xorlw	0^0	; case 0
  2034  076F  3A00               	skipnz
  2035  0770  1903               	goto	l2738
  2036  0771  2F73               	goto	l87
  2037  0772  2F0A               	opt asmopt_pop
  2038                           	
  2039                           l2738:	
  2040  0773                     ; Switch size 1, requested type "space"
  2041                           ; Number of cases is 2, Range of values is 1 to 2
  2042                           ; switch strategies available:
  2043                           ; Name         Instructions Cycles
  2044                           ; simple_byte            7     4 (average)
  2045                           ; direct_byte           13     9 (fixed)
  2046                           ; jumptable            263     9 (fixed)
  2047                           ;	Chosen strategy is simple_byte
  2048                           
  2049                           	movf 0+(??_main+0)^080h+0,w
  2050  0773  0848               	opt asmopt_push
  2051                           	opt asmopt_off
  2052                           	xorlw	1^0	; case 1
  2053  0774  3A01               	skipnz
  2054  0775  1903               	goto	l2672
  2055  0776  2F0C               	xorlw	2^1	; case 2
  2056  0777  3A03               	skipnz
  2057  0778  1903               	goto	l2706
  2058  0779  2F61               	goto	l87
  2059  077A  2F0A               	opt asmopt_pop
  2060                           
  2061                           	
  2062                           l94:	
  2063  077B                     	goto	l87
  2064  077B  2F0A               	line	114
  2065                           ;main.c: 114:     }
  2066                           	
  2067                           l97:	
  2068  077C                     	goto	l87
  2069  077C  2F0A               	
  2070                           l98:	
  2071  077D                     	line	115
  2072                           	
  2073                           l99:	
  2074  077D                     	global	start
  2075                           	ljmp	start
  2076  077D  3180  281B         	opt stack 0
  2077                           GLOBAL	__end_of_main
  2078                           	__end_of_main:
  2079  077F                     	signat	_main,89
  2080                           	global	_uartSendByte
  2081                           
  2082 ;; *************** function _uartSendByte *****************
  2083 ;; Defined at:
  2084 ;;		line 242 in file "main.c"
  2085 ;; Parameters:    Size  Location     Type
  2086 ;;  s               1    wreg     unsigned char 
  2087 ;; Auto vars:     Size  Location     Type
  2088 ;;  s               1    2[COMMON] unsigned char 
  2089 ;; Return value:  Size  Location     Type
  2090 ;;                  1    wreg      void 
  2091 ;; Registers used:
  2092 ;;		wreg
  2093 ;; Tracked objects:
  2094 ;;		On entry : 0/0
  2095 ;;		On exit  : 0/0
  2096 ;;		Unchanged: 0/0
  2097 ;; Data sizes:     COMMON   BANK0   BANK1   BANK2   BANK3   BANK4   BANK5   BANK6   BANK7   BANK8   BANK9  BANK10  BANK1
       1  BANK12
  2098 ;;      Params:         0       0       0       0       0       0       0       0       0       0       0       0       
       0       0
  2099 ;;      Locals:         1       0       0       0       0       0       0       0       0       0       0       0       
       0       0
  2100 ;;      Temps:          0       0       0       0       0       0       0       0       0       0       0       0       
       0       0
  2101 ;;      Totals:         1       0       0       0       0       0       0       0       0       0       0       0       
       0       0
  2102 ;;Total ram usage:        1 bytes
  2103 ;; Hardware stack levels used:    1
  2104 ;; Hardware stack levels required when called:    2
  2105 ;; This function calls:
  2106 ;;		Nothing
  2107 ;; This function is called by:
  2108 ;;		_main
  2109 ;; This function uses a non-reentrant model
  2110 ;;
  2111                           psect	text1,local,class=CODE,delta=2,merge=1,group=0
  2112                           	line	242
  2113                           global __ptext1
  2114                           __ptext1:	;psect for function _uartSendByte
  2115  15ED                     psect	text1
  2116                           	file	"main.c"
  2117                           	line	242
  2118                           	global	__size_of_uartSendByte
  2119                           	__size_of_uartSendByte	equ	__end_of_uartSendByte-_uartSendByte
  2120  000D                     	
  2121                           _uartSendByte:	
  2122  15ED                     ;incstack = 0
  2123                           	opt	stack 13
  2124                           ; Regs used in _uartSendByte: [wreg]
  2125                           ;uartSendByte@s stored from wreg
  2126                           	movwf	(uartSendByte@s)
  2127  15ED  00F2               	line	244
  2128                           	
  2129                           l2270:	
  2130  15EE                     ;main.c: 242: void uartSendByte(char s);main.c: 243: {;main.c: 244:     TX1REG = s;
  2131                           	movf	(uartSendByte@s),w
  2132  15EE  0872               	movlb 2	; select bank2
  2133  15EF  0142               	movwf	(282)^0100h	;volatile
  2134  15F0  009A               	line	245
  2135                           	
  2136                           l2272:	
  2137  15F1                     ;main.c: 245:     __nop();
  2138                           	opt	asmopt_push
  2139                           	opt	asmopt_off
  2140                           	nop
  2141  15F1  0000               	opt	asmopt_pop
  2142                           	line	246
  2143                           ;main.c: 246:     while (!PIR3bits.TX1IF);
  2144                           	goto	l157
  2145  15F2  2DF3               	
  2146                           l158:	
  2147  15F3                     	
  2148                           l157:	
  2149  15F3                     	movlb 14	; select bank14
  2150  15F3  014E               	btfss	(1807)^0700h,4	;volatile
  2151  15F4  1E0F               	goto	u3031
  2152  15F5  2DF7               	goto	u3030
  2153  15F6  2DF8               u3031:
  2154  15F7                     	goto	l157
  2155  15F7  2DF3               u3030:
  2156  15F8                     	goto	l160
  2157  15F8  2DF9               	
  2158                           l159:	
  2159  15F9                     	line	247
  2160                           	
  2161                           l160:	
  2162  15F9                     	return
  2163  15F9  0008               	opt stack 0
  2164                           GLOBAL	__end_of_uartSendByte
  2165                           	__end_of_uartSendByte:
  2166  15FA                     	signat	_uartSendByte,4217
  2167                           	global	_readSI7006
  2168                           
  2169 ;; *************** function _readSI7006 *****************
  2170 ;; Defined at:
  2171 ;;		line 121 in file "main.c"
  2172 ;; Parameters:    Size  Location     Type
  2173 ;;  RH              1    wreg     PTR float 
  2174 ;;		 -> main@dataPacket(15), 
  2175 ;;  tempC           1   78[BANK0 ] PTR float 
  2176 ;;		 -> main@dataPacket(15), 
  2177 ;;  DP              1   79[BANK0 ] PTR float 
  2178 ;;		 -> main@dataPacket(15), 
  2179 ;; Auto vars:     Size  Location     Type
  2180 ;;  RH              1   37[BANK1 ] PTR float 
  2181 ;;		 -> main@dataPacket(15), 
  2182 ;;  gamma           4   33[BANK1 ] float 
  2183 ;;  buffer          2   38[BANK1 ] unsigned char [2]
  2184 ;; Return value:  Size  Location     Type
  2185 ;;                  1    wreg      unsigned char 
  2186 ;; Registers used:
  2187 ;;		wreg, fsr0l, fsr0h, fsr1l, fsr1h, status,2, status,0, pclath, cstack
  2188 ;; Tracked objects:
  2189 ;;		On entry : 0/0
  2190 ;;		On exit  : 0/0
  2191 ;;		Unchanged: 0/0
  2192 ;; Data sizes:     COMMON   BANK0   BANK1   BANK2   BANK3   BANK4   BANK5   BANK6   BANK7   BANK8   BANK9  BANK10  BANK1
       1  BANK12
  2193 ;;      Params:         0       2       0       0       0       0       0       0       0       0       0       0       
       0       0
  2194 ;;      Locals:         0       0      19       0       0       0       0       0       0       0       0       0       
       0       0
  2195 ;;      Temps:          0       0       5       0       0       0       0       0       0       0       0       0       
       0       0
  2196 ;;      Totals:         0       2      24       0       0       0       0       0       0       0       0       0       
       0       0
  2197 ;;Total ram usage:       26 bytes
  2198 ;; Hardware stack levels used:    1
  2199 ;; Hardware stack levels required when called:    5
  2200 ;; This function calls:
  2201 ;;		___fladd
  2202 ;;		___fldiv
  2203 ;;		___flmul
  2204 ;;		___flneg
  2205 ;;		___xxtofl
  2206 ;;		_i2cRead
  2207 ;;		_i2cRepeat
  2208 ;;		_i2cStart
  2209 ;;		_i2cStop
  2210 ;;		_i2cWrite
  2211 ;;		_logf
  2212 ;; This function is called by:
  2213 ;;		_main
  2214 ;; This function uses a non-reentrant model
  2215 ;;
  2216                           psect	text2,local,class=CODE,delta=2,merge=1,group=0
  2217                           	line	121
  2218                           global __ptext2
  2219                           __ptext2:	;psect for function _readSI7006
  2220  0873                     psect	text2
  2221                           	file	"main.c"
  2222                           	line	121
  2223                           	global	__size_of_readSI7006
  2224                           	__size_of_readSI7006	equ	__end_of_readSI7006-_readSI7006
  2225  0251                     	
  2226                           _readSI7006:	
  2227  0873                     ;incstack = 0
  2228                           	opt	stack 10
  2229                           ; Regs used in _readSI7006: [wreg-fsr1h+status,2+status,0+pclath+cstack]
  2230                           ;readSI7006@RH stored from wreg
  2231                           	movlb 1	; select bank1
  2232  0873  0141               	movwf	(readSI7006@RH)^080h
  2233  0874  00C5               	line	126
  2234                           	
  2235                           l2612:	
  2236  0875                     ;main.c: 121: uint8_t readSI7006(float *RH, float *tempC, float *DP);main.c: 122: {;main
                                 .c: 123:     uint8_t buffer[2];;main.c: 124:     float gamma;;main.c: 126:     i2cStart(
                                 );
  2237                           	fcall	_i2cStart
  2238  0875  3195  25D4  3188   	line	127
  2239                           	
  2240                           l2614:	
  2241  0878                     ;main.c: 127:     buffer[0] = 0xE5;
  2242                           	movlw	low(0E5h)
  2243  0878  30E5               	movlb 1	; select bank1
  2244  0879  0141               	movwf	(??_readSI7006+0)^080h+0
  2245  087A  00B0               	movf	(??_readSI7006+0)^080h+0,w
  2246  087B  0830               	movwf	(readSI7006@buffer)^080h
  2247  087C  00C6               	line	128
  2248                           	
  2249                           l2616:	
  2250  087D                     ;main.c: 128:     if (! i2cWrite(buffer, 1, 0x40))
  2251                           	clrf	(i2cWrite@numBytes)
  2252  087D  01F2               	incf	(i2cWrite@numBytes),f
  2253  087E  0AF2               	movlw	low(040h)
  2254  087F  3040               	movwf	(??_readSI7006+0)^080h+0
  2255  0880  00B0               	movf	(??_readSI7006+0)^080h+0,w
  2256  0881  0830               	movwf	(i2cWrite@address)
  2257  0882  00F3               	movlw	(low(readSI7006@buffer|((0x0)<<8)))&0ffh
  2258  0883  30C6               	fcall	_i2cWrite
  2259  0884  3188  2038  3188   	xorlw	low(0)&0ffh
  2260  0887  3A00               	skipz
  2261  0888  1D03               	goto	u3521
  2262  0889  288B               	goto	u3520
  2263  088A  288C               u3521:
  2264  088B                     	goto	l2622
  2265  088B  288F               u3520:
  2266  088C                     	line	129
  2267                           	
  2268                           l2618:	
  2269  088C                     ;main.c: 129:         return 0;
  2270                           	movlw	low(0)
  2271  088C  3000               	goto	l103
  2272  088D  2AC3               	
  2273                           l2620:	
  2274  088E                     	goto	l103
  2275  088E  2AC3               	
  2276                           l102:	
  2277  088F                     	line	130
  2278                           	
  2279                           l2622:	
  2280  088F                     ;main.c: 130:     i2cRepeat();
  2281                           	fcall	_i2cRepeat
  2282  088F  3188  2000  3188   	line	131
  2283                           	
  2284                           l2624:	
  2285  0892                     ;main.c: 131:     if (! i2cRead(buffer, 2, 0x40))
  2286                           	movlw	low(02h)
  2287  0892  3002               	movlb 1	; select bank1
  2288  0893  0141               	movwf	(??_readSI7006+0)^080h+0
  2289  0894  00B0               	movf	(??_readSI7006+0)^080h+0,w
  2290  0895  0830               	movwf	(i2cRead@numBytes)
  2291  0896  00F2               	movlw	low(040h)
  2292  0897  3040               	movwf	(??_readSI7006+1)^080h+0
  2293  0898  00B1               	movf	(??_readSI7006+1)^080h+0,w
  2294  0899  0831               	movwf	(i2cRead@address)
  2295  089A  00F3               	movlw	(low(readSI7006@buffer|((0x0)<<8)))&0ffh
  2296  089B  30C6               	fcall	_i2cRead
  2297  089C  3187  277F  3188   	xorlw	low(0)&0ffh
  2298  089F  3A00               	skipz
  2299  08A0  1D03               	goto	u3531
  2300  08A1  28A3               	goto	u3530
  2301  08A2  28A4               u3531:
  2302  08A3                     	goto	l2630
  2303  08A3  28A7               u3530:
  2304  08A4                     	line	132
  2305                           	
  2306                           l2626:	
  2307  08A4                     ;main.c: 132:         return 0;
  2308                           	movlw	low(0)
  2309  08A4  3000               	goto	l103
  2310  08A5  2AC3               	
  2311                           l2628:	
  2312  08A6                     	goto	l103
  2313  08A6  2AC3               	
  2314                           l104:	
  2315  08A7                     	line	133
  2316                           	
  2317                           l2630:	
  2318  08A7                     ;main.c: 133:     i2cStop();
  2319                           	fcall	_i2cStop
  2320  08A7  3187  27F6  3188   	line	135
  2321                           	
  2322                           l2632:	
  2323  08AA                     ;main.c: 135:     *RH = ( 125.0 * (buffer[0] << 8 | buffer[1]) / 65536 ) - 6;
  2324                           	movlw	0xc0
  2325  08AA  30C0               	movlb 0	; select bank0
  2326  08AB  0140               	movwf	(___fladd@b+3)
  2327  08AC  00DD               	movlw	0xc0
  2328  08AD  30C0               	movwf	(___fladd@b+2)
  2329  08AE  00DC               	movlw	0x0
  2330  08AF  3000               	movwf	(___fladd@b+1)
  2331  08B0  00DB               	movlw	0x0
  2332  08B1  3000               	movwf	(___fladd@b)
  2333  08B2  00DA               
  2334                           	movlw	0x47
  2335  08B3  3047               	movwf	(___fldiv@a+3)
  2336  08B4  00C3               	movlw	0x80
  2337  08B5  3080               	movwf	(___fldiv@a+2)
  2338  08B6  00C2               	movlw	0x0
  2339  08B7  3000               	movwf	(___fldiv@a+1)
  2340  08B8  00C1               	movlw	0x0
  2341  08B9  3000               	movwf	(___fldiv@a)
  2342  08BA  00C0               
  2343                           	movlw	0x42
  2344  08BB  3042               	movwf	(___flmul@b+3)
  2345  08BC  00A9               	movlw	0xfa
  2346  08BD  30FA               	movwf	(___flmul@b+2)
  2347  08BE  00A8               	movlw	0x0
  2348  08BF  3000               	movwf	(___flmul@b+1)
  2349  08C0  00A7               	movlw	0x0
  2350  08C1  3000               	movwf	(___flmul@b)
  2351  08C2  00A6               
  2352                           	movlb 1	; select bank1
  2353  08C3  0141               	movf	0+(readSI7006@buffer)^080h+01h,w
  2354  08C4  0847               	movwf	(??_readSI7006+0)^080h+0
  2355  08C5  00B0               	clrf	(??_readSI7006+0)^080h+0+1
  2356  08C6  01B1               	movf	(readSI7006@buffer)^080h,w
  2357  08C7  0846               	movwf	(??_readSI7006+2)^080h+0
  2358  08C8  00B2               	clrf	(??_readSI7006+2)^080h+0+1
  2359  08C9  01B3               	movf	(??_readSI7006+2)^080h+0,w
  2360  08CA  0832               	movwf	(??_readSI7006+2)^080h+1
  2361  08CB  00B3               	clrf	(??_readSI7006+2)^080h+0
  2362  08CC  01B2               	movf	0+(??_readSI7006+0)^080h+0,w
  2363  08CD  0830               	iorwf	0+(??_readSI7006+2)^080h+0,w
  2364  08CE  0432               	movwf	(___xxtofl@val)
  2365  08CF  00F2               	movf	1+(??_readSI7006+0)^080h+0,w
  2366  08D0  0831               	iorwf	1+(??_readSI7006+2)^080h+0,w
  2367  08D1  0433               	movwf	1+(___xxtofl@val)
  2368  08D2  00F3               	clrf	(___xxtofl@val)+2
  2369  08D3  01F4               	btfsc	(___xxtofl@val)+1,7
  2370  08D4  1BF3               	decf	2+(___xxtofl@val),f
  2371  08D5  03F4               	movf	(___xxtofl@val)+2,w
  2372  08D6  0874               	movwf	3+(___xxtofl@val)
  2373  08D7  00F5               	movlw	low(01h)
  2374  08D8  3001               	fcall	___xxtofl
  2375  08D9  3186  2652  3188   	movf	(3+(?___xxtofl)),w
  2376  08DC  0875               	movlb 0	; select bank0
  2377  08DD  0140               	movwf	(___flmul@a+3)
  2378  08DE  00AD               	movf	(2+(?___xxtofl)),w
  2379  08DF  0874               	movwf	(___flmul@a+2)
  2380  08E0  00AC               	movf	(1+(?___xxtofl)),w
  2381  08E1  0873               	movwf	(___flmul@a+1)
  2382  08E2  00AB               	movf	(0+(?___xxtofl)),w
  2383  08E3  0872               	movwf	(___flmul@a)
  2384  08E4  00AA               
  2385                           	fcall	___flmul
  2386  08E5  318A  22C4  3188   	movlb 0	; select bank0
  2387  08E8  0140               	movf	(3+(?___flmul)),w
  2388  08E9  0829               	movwf	(___fldiv@b+3)
  2389  08EA  00C7               	movf	(2+(?___flmul)),w
  2390  08EB  0828               	movwf	(___fldiv@b+2)
  2391  08EC  00C6               	movf	(1+(?___flmul)),w
  2392  08ED  0827               	movwf	(___fldiv@b+1)
  2393  08EE  00C5               	movf	(0+(?___flmul)),w
  2394  08EF  0826               	movwf	(___fldiv@b)
  2395  08F0  00C4               
  2396                           	fcall	___fldiv
  2397  08F1  3196  2621  3188   	movlb 0	; select bank0
  2398  08F4  0140               	movf	(3+(?___fldiv)),w
  2399  08F5  0843               	movwf	(___fladd@a+3)
  2400  08F6  00E1               	movf	(2+(?___fldiv)),w
  2401  08F7  0842               	movwf	(___fladd@a+2)
  2402  08F8  00E0               	movf	(1+(?___fldiv)),w
  2403  08F9  0841               	movwf	(___fladd@a+1)
  2404  08FA  00DF               	movf	(0+(?___fldiv)),w
  2405  08FB  0840               	movwf	(___fladd@a)
  2406  08FC  00DE               
  2407                           	fcall	___fladd
  2408  08FD  318D  252F  3188   	movlb 1	; select bank1
  2409  0900  0141               	movf	(readSI7006@RH)^080h,w
  2410  0901  0845               	movwf	fsr1l
  2411  0902  0086               	clrf fsr1h	
  2412  0903  0187               	
  2413                           	movlb 0	; select bank0
  2414  0904  0140               	movf	(0+(?___fladd)),w
  2415  0905  085A               	movwi	[0]fsr1
  2416  0906  3FC0               	movf	(1+(?___fladd)),w
  2417  0907  085B               	movwi	[1]fsr1
  2418  0908  3FC1               	movf	(2+(?___fladd)),w
  2419  0909  085C               	movwi	[2]fsr1
  2420  090A  3FC2               	movf	(3+(?___fladd)),w
  2421  090B  085D               	movwi	[3]fsr1
  2422  090C  3FC3               	line	137
  2423                           	
  2424                           l2634:	
  2425  090D                     ;main.c: 137:     i2cStart();
  2426                           	fcall	_i2cStart
  2427  090D  3195  25D4  3188   	line	138
  2428                           	
  2429                           l2636:	
  2430  0910                     ;main.c: 138:     buffer[0] = 0xE0;
  2431                           	movlw	low(0E0h)
  2432  0910  30E0               	movlb 1	; select bank1
  2433  0911  0141               	movwf	(??_readSI7006+0)^080h+0
  2434  0912  00B0               	movf	(??_readSI7006+0)^080h+0,w
  2435  0913  0830               	movwf	(readSI7006@buffer)^080h
  2436  0914  00C6               	line	139
  2437                           	
  2438                           l2638:	
  2439  0915                     ;main.c: 139:     if (! i2cWrite(buffer, 1, 0x40))
  2440                           	clrf	(i2cWrite@numBytes)
  2441  0915  01F2               	incf	(i2cWrite@numBytes),f
  2442  0916  0AF2               	movlw	low(040h)
  2443  0917  3040               	movwf	(??_readSI7006+0)^080h+0
  2444  0918  00B0               	movf	(??_readSI7006+0)^080h+0,w
  2445  0919  0830               	movwf	(i2cWrite@address)
  2446  091A  00F3               	movlw	(low(readSI7006@buffer|((0x0)<<8)))&0ffh
  2447  091B  30C6               	fcall	_i2cWrite
  2448  091C  3188  2038  3188   	xorlw	low(0)&0ffh
  2449  091F  3A00               	skipz
  2450  0920  1D03               	goto	u3541
  2451  0921  2923               	goto	u3540
  2452  0922  2924               u3541:
  2453  0923                     	goto	l2644
  2454  0923  2927               u3540:
  2455  0924                     	line	140
  2456                           	
  2457                           l2640:	
  2458  0924                     ;main.c: 140:         return 0;
  2459                           	movlw	low(0)
  2460  0924  3000               	goto	l103
  2461  0925  2AC3               	
  2462                           l2642:	
  2463  0926                     	goto	l103
  2464  0926  2AC3               	
  2465                           l105:	
  2466  0927                     	line	141
  2467                           	
  2468                           l2644:	
  2469  0927                     ;main.c: 141:     i2cRepeat();
  2470                           	fcall	_i2cRepeat
  2471  0927  3188  2000  3188   	line	142
  2472                           	
  2473                           l2646:	
  2474  092A                     ;main.c: 142:     if (! i2cRead(buffer, 2, 0x40))
  2475                           	movlw	low(02h)
  2476  092A  3002               	movlb 1	; select bank1
  2477  092B  0141               	movwf	(??_readSI7006+0)^080h+0
  2478  092C  00B0               	movf	(??_readSI7006+0)^080h+0,w
  2479  092D  0830               	movwf	(i2cRead@numBytes)
  2480  092E  00F2               	movlw	low(040h)
  2481  092F  3040               	movwf	(??_readSI7006+1)^080h+0
  2482  0930  00B1               	movf	(??_readSI7006+1)^080h+0,w
  2483  0931  0831               	movwf	(i2cRead@address)
  2484  0932  00F3               	movlw	(low(readSI7006@buffer|((0x0)<<8)))&0ffh
  2485  0933  30C6               	fcall	_i2cRead
  2486  0934  3187  277F  3188   	xorlw	low(0)&0ffh
  2487  0937  3A00               	skipz
  2488  0938  1D03               	goto	u3551
  2489  0939  293B               	goto	u3550
  2490  093A  293C               u3551:
  2491  093B                     	goto	l2652
  2492  093B  293F               u3550:
  2493  093C                     	line	143
  2494                           	
  2495                           l2648:	
  2496  093C                     ;main.c: 143:         return 0;
  2497                           	movlw	low(0)
  2498  093C  3000               	goto	l103
  2499  093D  2AC3               	
  2500                           l2650:	
  2501  093E                     	goto	l103
  2502  093E  2AC3               	
  2503                           l106:	
  2504  093F                     	line	144
  2505                           	
  2506                           l2652:	
  2507  093F                     ;main.c: 144:     i2cStop();
  2508                           	fcall	_i2cStop
  2509  093F  3187  27F6  3188   	line	146
  2510                           	
  2511                           l2654:	
  2512  0942                     ;main.c: 146:     *tempC = ( 175.72 * (buffer[0] << 8 | buffer[1]) / 65536 ) - 46.85;
  2513                           	movlw	0xc2
  2514  0942  30C2               	movlb 0	; select bank0
  2515  0943  0140               	movwf	(___fladd@b+3)
  2516  0944  00DD               	movlw	0x3b
  2517  0945  303B               	movwf	(___fladd@b+2)
  2518  0946  00DC               	movlw	0x66
  2519  0947  3066               	movwf	(___fladd@b+1)
  2520  0948  00DB               	movlw	0x66
  2521  0949  3066               	movwf	(___fladd@b)
  2522  094A  00DA               
  2523                           	movlw	0x47
  2524  094B  3047               	movwf	(___fldiv@a+3)
  2525  094C  00C3               	movlw	0x80
  2526  094D  3080               	movwf	(___fldiv@a+2)
  2527  094E  00C2               	movlw	0x0
  2528  094F  3000               	movwf	(___fldiv@a+1)
  2529  0950  00C1               	movlw	0x0
  2530  0951  3000               	movwf	(___fldiv@a)
  2531  0952  00C0               
  2532                           	movlw	0x43
  2533  0953  3043               	movwf	(___flmul@b+3)
  2534  0954  00A9               	movlw	0x2f
  2535  0955  302F               	movwf	(___flmul@b+2)
  2536  0956  00A8               	movlw	0xb8
  2537  0957  30B8               	movwf	(___flmul@b+1)
  2538  0958  00A7               	movlw	0x52
  2539  0959  3052               	movwf	(___flmul@b)
  2540  095A  00A6               
  2541                           	movlb 1	; select bank1
  2542  095B  0141               	movf	0+(readSI7006@buffer)^080h+01h,w
  2543  095C  0847               	movwf	(??_readSI7006+0)^080h+0
  2544  095D  00B0               	clrf	(??_readSI7006+0)^080h+0+1
  2545  095E  01B1               	movf	(readSI7006@buffer)^080h,w
  2546  095F  0846               	movwf	(??_readSI7006+2)^080h+0
  2547  0960  00B2               	clrf	(??_readSI7006+2)^080h+0+1
  2548  0961  01B3               	movf	(??_readSI7006+2)^080h+0,w
  2549  0962  0832               	movwf	(??_readSI7006+2)^080h+1
  2550  0963  00B3               	clrf	(??_readSI7006+2)^080h+0
  2551  0964  01B2               	movf	0+(??_readSI7006+0)^080h+0,w
  2552  0965  0830               	iorwf	0+(??_readSI7006+2)^080h+0,w
  2553  0966  0432               	movwf	(___xxtofl@val)
  2554  0967  00F2               	movf	1+(??_readSI7006+0)^080h+0,w
  2555  0968  0831               	iorwf	1+(??_readSI7006+2)^080h+0,w
  2556  0969  0433               	movwf	1+(___xxtofl@val)
  2557  096A  00F3               	clrf	(___xxtofl@val)+2
  2558  096B  01F4               	btfsc	(___xxtofl@val)+1,7
  2559  096C  1BF3               	decf	2+(___xxtofl@val),f
  2560  096D  03F4               	movf	(___xxtofl@val)+2,w
  2561  096E  0874               	movwf	3+(___xxtofl@val)
  2562  096F  00F5               	movlw	low(01h)
  2563  0970  3001               	fcall	___xxtofl
  2564  0971  3186  2652  3188   	movf	(3+(?___xxtofl)),w
  2565  0974  0875               	movlb 0	; select bank0
  2566  0975  0140               	movwf	(___flmul@a+3)
  2567  0976  00AD               	movf	(2+(?___xxtofl)),w
  2568  0977  0874               	movwf	(___flmul@a+2)
  2569  0978  00AC               	movf	(1+(?___xxtofl)),w
  2570  0979  0873               	movwf	(___flmul@a+1)
  2571  097A  00AB               	movf	(0+(?___xxtofl)),w
  2572  097B  0872               	movwf	(___flmul@a)
  2573  097C  00AA               
  2574                           	fcall	___flmul
  2575  097D  318A  22C4  3188   	movlb 0	; select bank0
  2576  0980  0140               	movf	(3+(?___flmul)),w
  2577  0981  0829               	movwf	(___fldiv@b+3)
  2578  0982  00C7               	movf	(2+(?___flmul)),w
  2579  0983  0828               	movwf	(___fldiv@b+2)
  2580  0984  00C6               	movf	(1+(?___flmul)),w
  2581  0985  0827               	movwf	(___fldiv@b+1)
  2582  0986  00C5               	movf	(0+(?___flmul)),w
  2583  0987  0826               	movwf	(___fldiv@b)
  2584  0988  00C4               
  2585                           	fcall	___fldiv
  2586  0989  3196  2621  3188   	movlb 0	; select bank0
  2587  098C  0140               	movf	(3+(?___fldiv)),w
  2588  098D  0843               	movwf	(___fladd@a+3)
  2589  098E  00E1               	movf	(2+(?___fldiv)),w
  2590  098F  0842               	movwf	(___fladd@a+2)
  2591  0990  00E0               	movf	(1+(?___fldiv)),w
  2592  0991  0841               	movwf	(___fladd@a+1)
  2593  0992  00DF               	movf	(0+(?___fldiv)),w
  2594  0993  0840               	movwf	(___fladd@a)
  2595  0994  00DE               
  2596                           	fcall	___fladd
  2597  0995  318D  252F  3188   	movlb 0	; select bank0
  2598  0998  0140               	movf	(readSI7006@tempC),w
  2599  0999  086E               	movwf	fsr1l
  2600  099A  0086               	clrf fsr1h	
  2601  099B  0187               	
  2602                           	movf	(0+(?___fladd)),w
  2603  099C  085A               	movwi	[0]fsr1
  2604  099D  3FC0               	movf	(1+(?___fladd)),w
  2605  099E  085B               	movwi	[1]fsr1
  2606  099F  3FC1               	movf	(2+(?___fladd)),w
  2607  09A0  085C               	movwi	[2]fsr1
  2608  09A1  3FC2               	movf	(3+(?___fladd)),w
  2609  09A2  085D               	movwi	[3]fsr1
  2610  09A3  3FC3               	line	148
  2611                           	
  2612                           l2656:	
  2613  09A4                     ;main.c: 148:     gamma = logf(*RH/100.0) + ((17.67 * *tempC) / (243.5 + *tempC));
  2614                           	movlw	0x42
  2615  09A4  3042               	movwf	(___fldiv@a+3)
  2616  09A5  00C3               	movlw	0xc8
  2617  09A6  30C8               	movwf	(___fldiv@a+2)
  2618  09A7  00C2               	movlw	0x0
  2619  09A8  3000               	movwf	(___fldiv@a+1)
  2620  09A9  00C1               	movlw	0x0
  2621  09AA  3000               	movwf	(___fldiv@a)
  2622  09AB  00C0               
  2623                           	movlb 1	; select bank1
  2624  09AC  0141               	movf	(readSI7006@RH)^080h,w
  2625  09AD  0845               	movwf	fsr1l
  2626  09AE  0086               	clrf fsr1h	
  2627  09AF  0187               	
  2628                           	moviw	[0]fsr1
  2629  09B0  3F40               	movlb 0	; select bank0
  2630  09B1  0140               	movwf	(___fldiv@b)
  2631  09B2  00C4               	moviw	[1]fsr1
  2632  09B3  3F41               	movwf	(___fldiv@b+1)
  2633  09B4  00C5               	moviw	[2]fsr1
  2634  09B5  3F42               	movwf	(___fldiv@b+2)
  2635  09B6  00C6               	moviw	[3]fsr1
  2636  09B7  3F43               	movwf	(___fldiv@b+3)
  2637  09B8  00C7               	fcall	___fldiv
  2638  09B9  3196  2621  3188   	movlb 0	; select bank0
  2639  09BC  0140               	movf	(3+(?___fldiv)),w
  2640  09BD  0843               	movlb 1	; select bank1
  2641  09BE  0141               	movwf	(_readSI7006$783+3)^080h
  2642  09BF  00B8               	movlb 0	; select bank0
  2643  09C0  0140               	movf	(2+(?___fldiv)),w
  2644  09C1  0842               	movlb 1	; select bank1
  2645  09C2  0141               	movwf	(_readSI7006$783+2)^080h
  2646  09C3  00B7               	movlb 0	; select bank0
  2647  09C4  0140               	movf	(1+(?___fldiv)),w
  2648  09C5  0841               	movlb 1	; select bank1
  2649  09C6  0141               	movwf	(_readSI7006$783+1)^080h
  2650  09C7  00B6               	movlb 0	; select bank0
  2651  09C8  0140               	movf	(0+(?___fldiv)),w
  2652  09C9  0840               	movlb 1	; select bank1
  2653  09CA  0141               	movwf	(_readSI7006$783)^080h
  2654  09CB  00B5               
  2655                           	
  2656                           l2658:	
  2657  09CC                     ;main.c: 148:     gamma = logf(*RH/100.0) + ((17.67 * *tempC) / (243.5 + *tempC));
  2658                           	movlw	0x43
  2659  09CC  3043               	movlb 0	; select bank0
  2660  09CD  0140               	movwf	(___fladd@b+3)
  2661  09CE  00DD               	movlw	0x73
  2662  09CF  3073               	movwf	(___fladd@b+2)
  2663  09D0  00DC               	movlw	0x80
  2664  09D1  3080               	movwf	(___fladd@b+1)
  2665  09D2  00DB               	movlw	0x0
  2666  09D3  3000               	movwf	(___fladd@b)
  2667  09D4  00DA               
  2668                           	movf	(readSI7006@tempC),w
  2669  09D5  086E               	movwf	fsr1l
  2670  09D6  0086               	clrf fsr1h	
  2671  09D7  0187               	
  2672                           	moviw	[0]fsr1
  2673  09D8  3F40               	movwf	(___fladd@a)
  2674  09D9  00DE               	moviw	[1]fsr1
  2675  09DA  3F41               	movwf	(___fladd@a+1)
  2676  09DB  00DF               	moviw	[2]fsr1
  2677  09DC  3F42               	movwf	(___fladd@a+2)
  2678  09DD  00E0               	moviw	[3]fsr1
  2679  09DE  3F43               	movwf	(___fladd@a+3)
  2680  09DF  00E1               	fcall	___fladd
  2681  09E0  318D  252F  3188   	movlb 0	; select bank0
  2682  09E3  0140               	movf	(3+(?___fladd)),w
  2683  09E4  085D               	movwf	(___fldiv@a+3)
  2684  09E5  00C3               	movf	(2+(?___fladd)),w
  2685  09E6  085C               	movwf	(___fldiv@a+2)
  2686  09E7  00C2               	movf	(1+(?___fladd)),w
  2687  09E8  085B               	movwf	(___fldiv@a+1)
  2688  09E9  00C1               	movf	(0+(?___fladd)),w
  2689  09EA  085A               	movwf	(___fldiv@a)
  2690  09EB  00C0               
  2691                           	movlw	0x41
  2692  09EC  3041               	movwf	(___flmul@b+3)
  2693  09ED  00A9               	movlw	0x8d
  2694  09EE  308D               	movwf	(___flmul@b+2)
  2695  09EF  00A8               	movlw	0x5c
  2696  09F0  305C               	movwf	(___flmul@b+1)
  2697  09F1  00A7               	movlw	0x29
  2698  09F2  3029               	movwf	(___flmul@b)
  2699  09F3  00A6               
  2700                           	movf	(readSI7006@tempC),w
  2701  09F4  086E               	movwf	fsr1l
  2702  09F5  0086               	clrf fsr1h	
  2703  09F6  0187               	
  2704                           	moviw	[0]fsr1
  2705  09F7  3F40               	movwf	(___flmul@a)
  2706  09F8  00AA               	moviw	[1]fsr1
  2707  09F9  3F41               	movwf	(___flmul@a+1)
  2708  09FA  00AB               	moviw	[2]fsr1
  2709  09FB  3F42               	movwf	(___flmul@a+2)
  2710  09FC  00AC               	moviw	[3]fsr1
  2711  09FD  3F43               	movwf	(___flmul@a+3)
  2712  09FE  00AD               	fcall	___flmul
  2713  09FF  318A  22C4  3188   	movlb 0	; select bank0
  2714  0A02  0140               	movf	(3+(?___flmul)),w
  2715  0A03  0829               	movwf	(___fldiv@b+3)
  2716  0A04  00C7               	movf	(2+(?___flmul)),w
  2717  0A05  0828               	movwf	(___fldiv@b+2)
  2718  0A06  00C6               	movf	(1+(?___flmul)),w
  2719  0A07  0827               	movwf	(___fldiv@b+1)
  2720  0A08  00C5               	movf	(0+(?___flmul)),w
  2721  0A09  0826               	movwf	(___fldiv@b)
  2722  0A0A  00C4               
  2723                           	fcall	___fldiv
  2724  0A0B  3196  2621  3188   	movlb 0	; select bank0
  2725  0A0E  0140               	movf	(3+(?___fldiv)),w
  2726  0A0F  0843               	movlb 1	; select bank1
  2727  0A10  0141               	movwf	(_readSI7006$784+3)^080h
  2728  0A11  00BC               	movlb 0	; select bank0
  2729  0A12  0140               	movf	(2+(?___fldiv)),w
  2730  0A13  0842               	movlb 1	; select bank1
  2731  0A14  0141               	movwf	(_readSI7006$784+2)^080h
  2732  0A15  00BB               	movlb 0	; select bank0
  2733  0A16  0140               	movf	(1+(?___fldiv)),w
  2734  0A17  0841               	movlb 1	; select bank1
  2735  0A18  0141               	movwf	(_readSI7006$784+1)^080h
  2736  0A19  00BA               	movlb 0	; select bank0
  2737  0A1A  0140               	movf	(0+(?___fldiv)),w
  2738  0A1B  0840               	movlb 1	; select bank1
  2739  0A1C  0141               	movwf	(_readSI7006$784)^080h
  2740  0A1D  00B9               
  2741                           	
  2742                           l2660:	
  2743  0A1E                     ;main.c: 148:     gamma = logf(*RH/100.0) + ((17.67 * *tempC) / (243.5 + *tempC));
  2744                           	movf	(_readSI7006$783+3)^080h,w
  2745  0A1E  0838               	movwf	(logf@x+3)^080h
  2746  0A1F  00A7               	movf	(_readSI7006$783+2)^080h,w
  2747  0A20  0837               	movwf	(logf@x+2)^080h
  2748  0A21  00A6               	movf	(_readSI7006$783+1)^080h,w
  2749  0A22  0836               	movwf	(logf@x+1)^080h
  2750  0A23  00A5               	movf	(_readSI7006$783)^080h,w
  2751  0A24  0835               	movwf	(logf@x)^080h
  2752  0A25  00A4               
  2753                           	fcall	_logf
  2754  0A26  3180  2029  3188   	movlb 1	; select bank1
  2755  0A29  0141               	movf	(3+(?_logf))^080h,w
  2756  0A2A  0827               	movwf	(_readSI7006$785+3)^080h
  2757  0A2B  00C0               	movf	(2+(?_logf))^080h,w
  2758  0A2C  0826               	movwf	(_readSI7006$785+2)^080h
  2759  0A2D  00BF               	movf	(1+(?_logf))^080h,w
  2760  0A2E  0825               	movwf	(_readSI7006$785+1)^080h
  2761  0A2F  00BE               	movf	(0+(?_logf))^080h,w
  2762  0A30  0824               	movwf	(_readSI7006$785)^080h
  2763  0A31  00BD               
  2764                           	
  2765                           l2662:	
  2766  0A32                     ;main.c: 148:     gamma = logf(*RH/100.0) + ((17.67 * *tempC) / (243.5 + *tempC));
  2767                           	movf	(_readSI7006$784+3)^080h,w
  2768  0A32  083C               	movlb 0	; select bank0
  2769  0A33  0140               	movwf	(___fladd@b+3)
  2770  0A34  00DD               	movlb 1	; select bank1
  2771  0A35  0141               	movf	(_readSI7006$784+2)^080h,w
  2772  0A36  083B               	movlb 0	; select bank0
  2773  0A37  0140               	movwf	(___fladd@b+2)
  2774  0A38  00DC               	movlb 1	; select bank1
  2775  0A39  0141               	movf	(_readSI7006$784+1)^080h,w
  2776  0A3A  083A               	movlb 0	; select bank0
  2777  0A3B  0140               	movwf	(___fladd@b+1)
  2778  0A3C  00DB               	movlb 1	; select bank1
  2779  0A3D  0141               	movf	(_readSI7006$784)^080h,w
  2780  0A3E  0839               	movlb 0	; select bank0
  2781  0A3F  0140               	movwf	(___fladd@b)
  2782  0A40  00DA               
  2783                           	movlb 1	; select bank1
  2784  0A41  0141               	movf	(_readSI7006$785+3)^080h,w
  2785  0A42  0840               	movlb 0	; select bank0
  2786  0A43  0140               	movwf	(___fladd@a+3)
  2787  0A44  00E1               	movlb 1	; select bank1
  2788  0A45  0141               	movf	(_readSI7006$785+2)^080h,w
  2789  0A46  083F               	movlb 0	; select bank0
  2790  0A47  0140               	movwf	(___fladd@a+2)
  2791  0A48  00E0               	movlb 1	; select bank1
  2792  0A49  0141               	movf	(_readSI7006$785+1)^080h,w
  2793  0A4A  083E               	movlb 0	; select bank0
  2794  0A4B  0140               	movwf	(___fladd@a+1)
  2795  0A4C  00DF               	movlb 1	; select bank1
  2796  0A4D  0141               	movf	(_readSI7006$785)^080h,w
  2797  0A4E  083D               	movlb 0	; select bank0
  2798  0A4F  0140               	movwf	(___fladd@a)
  2799  0A50  00DE               
  2800                           	fcall	___fladd
  2801  0A51  318D  252F  3188   	movlb 0	; select bank0
  2802  0A54  0140               	movf	(3+(?___fladd)),w
  2803  0A55  085D               	movlb 1	; select bank1
  2804  0A56  0141               	movwf	(readSI7006@gamma+3)^080h
  2805  0A57  00C4               	movlb 0	; select bank0
  2806  0A58  0140               	movf	(2+(?___fladd)),w
  2807  0A59  085C               	movlb 1	; select bank1
  2808  0A5A  0141               	movwf	(readSI7006@gamma+2)^080h
  2809  0A5B  00C3               	movlb 0	; select bank0
  2810  0A5C  0140               	movf	(1+(?___fladd)),w
  2811  0A5D  085B               	movlb 1	; select bank1
  2812  0A5E  0141               	movwf	(readSI7006@gamma+1)^080h
  2813  0A5F  00C2               	movlb 0	; select bank0
  2814  0A60  0140               	movf	(0+(?___fladd)),w
  2815  0A61  085A               	movlb 1	; select bank1
  2816  0A62  0141               	movwf	(readSI7006@gamma)^080h
  2817  0A63  00C1               
  2818                           	line	149
  2819                           	
  2820                           l2664:	
  2821  0A64                     ;main.c: 149:     *DP = (243.5 * gamma) / (17.67 - gamma);
  2822                           	movlw	0x41
  2823  0A64  3041               	movlb 0	; select bank0
  2824  0A65  0140               	movwf	(___fladd@b+3)
  2825  0A66  00DD               	movlw	0x8d
  2826  0A67  308D               	movwf	(___fladd@b+2)
  2827  0A68  00DC               	movlw	0x5c
  2828  0A69  305C               	movwf	(___fladd@b+1)
  2829  0A6A  00DB               	movlw	0x29
  2830  0A6B  3029               	movwf	(___fladd@b)
  2831  0A6C  00DA               
  2832                           	movlb 1	; select bank1
  2833  0A6D  0141               	movf	(readSI7006@gamma+3)^080h,w
  2834  0A6E  0844               	movwf	(___flneg@f1+3)
  2835  0A6F  00F5               	movf	(readSI7006@gamma+2)^080h,w
  2836  0A70  0843               	movwf	(___flneg@f1+2)
  2837  0A71  00F4               	movf	(readSI7006@gamma+1)^080h,w
  2838  0A72  0842               	movwf	(___flneg@f1+1)
  2839  0A73  00F3               	movf	(readSI7006@gamma)^080h,w
  2840  0A74  0841               	movwf	(___flneg@f1)
  2841  0A75  00F2               
  2842                           	fcall	___flneg
  2843  0A76  3195  25E0  3188   	movf	(3+(?___flneg)),w
  2844  0A79  0875               	movlb 0	; select bank0
  2845  0A7A  0140               	movwf	(___fladd@a+3)
  2846  0A7B  00E1               	movf	(2+(?___flneg)),w
  2847  0A7C  0874               	movwf	(___fladd@a+2)
  2848  0A7D  00E0               	movf	(1+(?___flneg)),w
  2849  0A7E  0873               	movwf	(___fladd@a+1)
  2850  0A7F  00DF               	movf	(0+(?___flneg)),w
  2851  0A80  0872               	movwf	(___fladd@a)
  2852  0A81  00DE               
  2853                           	fcall	___fladd
  2854  0A82  318D  252F  3188   	movlb 0	; select bank0
  2855  0A85  0140               	movf	(3+(?___fladd)),w
  2856  0A86  085D               	movwf	(___fldiv@a+3)
  2857  0A87  00C3               	movf	(2+(?___fladd)),w
  2858  0A88  085C               	movwf	(___fldiv@a+2)
  2859  0A89  00C2               	movf	(1+(?___fladd)),w
  2860  0A8A  085B               	movwf	(___fldiv@a+1)
  2861  0A8B  00C1               	movf	(0+(?___fladd)),w
  2862  0A8C  085A               	movwf	(___fldiv@a)
  2863  0A8D  00C0               
  2864                           	movlw	0x43
  2865  0A8E  3043               	movwf	(___flmul@b+3)
  2866  0A8F  00A9               	movlw	0x73
  2867  0A90  3073               	movwf	(___flmul@b+2)
  2868  0A91  00A8               	movlw	0x80
  2869  0A92  3080               	movwf	(___flmul@b+1)
  2870  0A93  00A7               	movlw	0x0
  2871  0A94  3000               	movwf	(___flmul@b)
  2872  0A95  00A6               
  2873                           	movlb 1	; select bank1
  2874  0A96  0141               	movf	(readSI7006@gamma+3)^080h,w
  2875  0A97  0844               	movlb 0	; select bank0
  2876  0A98  0140               	movwf	(___flmul@a+3)
  2877  0A99  00AD               	movlb 1	; select bank1
  2878  0A9A  0141               	movf	(readSI7006@gamma+2)^080h,w
  2879  0A9B  0843               	movlb 0	; select bank0
  2880  0A9C  0140               	movwf	(___flmul@a+2)
  2881  0A9D  00AC               	movlb 1	; select bank1
  2882  0A9E  0141               	movf	(readSI7006@gamma+1)^080h,w
  2883  0A9F  0842               	movlb 0	; select bank0
  2884  0AA0  0140               	movwf	(___flmul@a+1)
  2885  0AA1  00AB               	movlb 1	; select bank1
  2886  0AA2  0141               	movf	(readSI7006@gamma)^080h,w
  2887  0AA3  0841               	movlb 0	; select bank0
  2888  0AA4  0140               	movwf	(___flmul@a)
  2889  0AA5  00AA               
  2890                           	fcall	___flmul
  2891  0AA6  318A  22C4  3188   	movlb 0	; select bank0
  2892  0AA9  0140               	movf	(3+(?___flmul)),w
  2893  0AAA  0829               	movwf	(___fldiv@b+3)
  2894  0AAB  00C7               	movf	(2+(?___flmul)),w
  2895  0AAC  0828               	movwf	(___fldiv@b+2)
  2896  0AAD  00C6               	movf	(1+(?___flmul)),w
  2897  0AAE  0827               	movwf	(___fldiv@b+1)
  2898  0AAF  00C5               	movf	(0+(?___flmul)),w
  2899  0AB0  0826               	movwf	(___fldiv@b)
  2900  0AB1  00C4               
  2901                           	fcall	___fldiv
  2902  0AB2  3196  2621  3188   	movlb 0	; select bank0
  2903  0AB5  0140               	movf	(readSI7006@DP),w
  2904  0AB6  086F               	movwf	fsr1l
  2905  0AB7  0086               	clrf fsr1h	
  2906  0AB8  0187               	
  2907                           	movf	(0+(?___fldiv)),w
  2908  0AB9  0840               	movwi	[0]fsr1
  2909  0ABA  3FC0               	movf	(1+(?___fldiv)),w
  2910  0ABB  0841               	movwi	[1]fsr1
  2911  0ABC  3FC1               	movf	(2+(?___fldiv)),w
  2912  0ABD  0842               	movwi	[2]fsr1
  2913  0ABE  3FC2               	movf	(3+(?___fldiv)),w
  2914  0ABF  0843               	movwi	[3]fsr1
  2915  0AC0  3FC3               	line	151
  2916                           	
  2917                           l2666:	
  2918  0AC1                     ;main.c: 151:     return 1;
  2919                           	movlw	low(01h)
  2920  0AC1  3001               	goto	l103
  2921  0AC2  2AC3               	
  2922                           l2668:	
  2923  0AC3                     	line	152
  2924                           	
  2925                           l103:	
  2926  0AC3                     	return
  2927  0AC3  0008               	opt stack 0
  2928                           GLOBAL	__end_of_readSI7006
  2929                           	__end_of_readSI7006:
  2930  0AC4                     	signat	_readSI7006,12409
  2931                           	global	_logf
  2932                           
  2933 ;; *************** function _logf *****************
  2934 ;; Defined at:
  2935 ;;		line 28 in file "C:\Program Files (x86)\Microchip\xc8\v2.00\pic\sources\c99\common\logf.c"
  2936 ;; Parameters:    Size  Location     Type
  2937 ;;  x               4    4[BANK1 ] float 
  2938 ;; Auto vars:     Size  Location     Type
  2939 ;;  ix              4   62[BANK2 ] unsigned long 
  2940 ;;  f               4   58[BANK2 ] float 
  2941 ;;  u               4   54[BANK2 ] struct .
  2942 ;;  w               4   46[BANK2 ] float 
  2943 ;;  z               4   42[BANK2 ] float 
  2944 ;;  s               4   38[BANK2 ] float 
  2945 ;;  dk              4   34[BANK2 ] float 
  2946 ;;  hfsq            4   30[BANK2 ] float 
  2947 ;;  t2              4    8[BANK2 ] float 
  2948 ;;  t1              4    4[BANK2 ] float 
  2949 ;;  R               4    0[BANK2 ] float 
  2950 ;;  k               2   28[BANK2 ] int 
  2951 ;; Return value:  Size  Location     Type
  2952 ;;                  4    4[BANK1 ] float 
  2953 ;; Registers used:
  2954 ;;		wreg, fsr0l, fsr0h, status,2, status,0, pclath, cstack
  2955 ;; Tracked objects:
  2956 ;;		On entry : 0/0
  2957 ;;		On exit  : 0/0
  2958 ;;		Unchanged: 0/0
  2959 ;; Data sizes:     COMMON   BANK0   BANK1   BANK2   BANK3   BANK4   BANK5   BANK6   BANK7   BANK8   BANK9  BANK10  BANK1
       1  BANK12
  2960 ;;      Params:         0       0       4       0       0       0       0       0       0       0       0       0       
       0       0
  2961 ;;      Locals:         0       0       0      66       0       0       0       0       0       0       0       0       
       0       0
  2962 ;;      Temps:          0       0       8       0       0       0       0       0       0       0       0       0       
       0       0
  2963 ;;      Totals:         0       0      12      66       0       0       0       0       0       0       0       0       
       0       0
  2964 ;;Total ram usage:       78 bytes
  2965 ;; Hardware stack levels used:    1
  2966 ;; Hardware stack levels required when called:    4
  2967 ;; This function calls:
  2968 ;;		___fladd
  2969 ;;		___fldiv
  2970 ;;		___flmul
  2971 ;;		___flneg
  2972 ;;		___xxtofl
  2973 ;; This function is called by:
  2974 ;;		_readSI7006
  2975 ;; This function uses a non-reentrant model
  2976 ;;
  2977                           psect	text3,local,class=CODE,delta=2,merge=1,group=2
  2978                           	file	"C:\Program Files (x86)\Microchip\xc8\v2.00\pic\sources\c99\common\logf.c"
  2979                           	line	28
  2980                           global __ptext3
  2981                           __ptext3:	;psect for function _logf
  2982  0029                     psect	text3
  2983                           	file	"C:\Program Files (x86)\Microchip\xc8\v2.00\pic\sources\c99\common\logf.c"
  2984                           	line	28
  2985                           	global	__size_of_logf
  2986                           	__size_of_logf	equ	__end_of_logf-_logf
  2987  0629                     	
  2988                           _logf:	
  2989  0029                     ;incstack = 0
  2990                           	opt	stack 10
  2991                           ; Regs used in _logf: [wreg-fsr0h+status,2+status,0+pclath+cstack]
  2992                           	line	30
  2993                           	
  2994                           l2526:	
  2995  0029                     	movlb 1	; select bank1
  2996  0029  0141               	movf	(logf@F459+3)^080h,w
  2997  002A  085F               	movlb 2	; select bank2
  2998  002B  0142               	movwf	(logf@u+3)^0100h
  2999  002C  00D9               	movlb 1	; select bank1
  3000  002D  0141               	movf	(logf@F459+2)^080h,w
  3001  002E  085E               	movlb 2	; select bank2
  3002  002F  0142               	movwf	(logf@u+2)^0100h
  3003  0030  00D8               	movlb 1	; select bank1
  3004  0031  0141               	movf	(logf@F459+1)^080h,w
  3005  0032  085D               	movlb 2	; select bank2
  3006  0033  0142               	movwf	(logf@u+1)^0100h
  3007  0034  00D7               	movlb 1	; select bank1
  3008  0035  0141               	movf	(logf@F459)^080h,w
  3009  0036  085C               	movlb 2	; select bank2
  3010  0037  0142               	movwf	(logf@u)^0100h
  3011  0038  00D6               
  3012                           	movlb 1	; select bank1
  3013  0039  0141               	movf	(logf@x+3)^080h,w
  3014  003A  0827               	movlb 2	; select bank2
  3015  003B  0142               	movwf	(logf@u+3)^0100h
  3016  003C  00D9               	movlb 1	; select bank1
  3017  003D  0141               	movf	(logf@x+2)^080h,w
  3018  003E  0826               	movlb 2	; select bank2
  3019  003F  0142               	movwf	(logf@u+2)^0100h
  3020  0040  00D8               	movlb 1	; select bank1
  3021  0041  0141               	movf	(logf@x+1)^080h,w
  3022  0042  0825               	movlb 2	; select bank2
  3023  0043  0142               	movwf	(logf@u+1)^0100h
  3024  0044  00D7               	movlb 1	; select bank1
  3025  0045  0141               	movf	(logf@x)^080h,w
  3026  0046  0824               	movlb 2	; select bank2
  3027  0047  0142               	movwf	(logf@u)^0100h
  3028  0048  00D6               
  3029                           	line	35
  3030                           	movf	(logf@u+3)^0100h,w
  3031  0049  0859               	movwf	(logf@ix+3)^0100h
  3032  004A  00E1               	movf	(logf@u+2)^0100h,w
  3033  004B  0858               	movwf	(logf@ix+2)^0100h
  3034  004C  00E0               	movf	(logf@u+1)^0100h,w
  3035  004D  0857               	movwf	(logf@ix+1)^0100h
  3036  004E  00DF               	movf	(logf@u)^0100h,w
  3037  004F  0856               	movwf	(logf@ix)^0100h
  3038  0050  00DE               
  3039                           	line	36
  3040                           	
  3041                           l2528:	
  3042  0051                     	clrf	(logf@k)^0100h
  3043  0051  01BC               	clrf	(logf@k+1)^0100h
  3044  0052  01BD               	line	37
  3045                           	
  3046                           l2530:	
  3047  0053                     		movf	(logf@ix+3)^0100h,w
  3048  0053  0861               	btfss	status,2
  3049  0054  1D03               	goto	u3420
  3050  0055  285C               	movlw	128
  3051  0056  3080               	subwf	 (logf@ix+2)^0100h,w
  3052  0057  0260               	btfss	status,0
  3053  0058  1C03               	goto	u3421
  3054  0059  285B               	goto	u3420
  3055  005A  285C               
  3056                           u3421:
  3057  005B                     	goto	l2534
  3058  005B  287B               u3420:
  3059  005C                     	
  3060                           l2532:	
  3061  005C                     	movf	(logf@ix)^0100h,w
  3062  005C  085E               	movlb 1	; select bank1
  3063  005D  0141               	movwf	(??_logf+0)^080h+0
  3064  005E  00A8               	movlb 2	; select bank2
  3065  005F  0142               	movf	(logf@ix+1)^0100h,w
  3066  0060  085F               	movlb 1	; select bank1
  3067  0061  0141               	movwf	((??_logf+0)^080h+0+1)
  3068  0062  00A9               	movlb 2	; select bank2
  3069  0063  0142               	movf	(logf@ix+2)^0100h,w
  3070  0064  0860               	movlb 1	; select bank1
  3071  0065  0141               	movwf	((??_logf+0)^080h+0+2)
  3072  0066  00AA               	movlb 2	; select bank2
  3073  0067  0142               	movf	(logf@ix+3)^0100h,w
  3074  0068  0861               	movlb 1	; select bank1
  3075  0069  0141               	movwf	((??_logf+0)^080h+0+3)
  3076  006A  00AB               	movlw	01Fh
  3077  006B  301F               u3435:
  3078  006C                     	lsrf	(??_logf+0)^080h+3,f
  3079  006C  36AB               	rrf	(??_logf+0)^080h+2,f
  3080  006D  0CAA               	rrf	(??_logf+0)^080h+1,f
  3081  006E  0CA9               	rrf	(??_logf+0)^080h+0,f
  3082  006F  0CA8               u3430:
  3083  0070                     	decfsz	wreg,f
  3084  0070  0B89               	goto	u3435
  3085  0071  286C               	movf	3+(??_logf+0)^080h+0,w
  3086  0072  082B               	iorwf	2+(??_logf+0)^080h+0,w
  3087  0073  042A               	iorwf	1+(??_logf+0)^080h+0,w
  3088  0074  0429               	iorwf	0+(??_logf+0)^080h+0,w
  3089  0075  0428               	skipnz
  3090  0076  1903               	goto	u3441
  3091  0077  2879               	goto	u3440
  3092  0078  287A               u3441:
  3093  0079                     	goto	l2554
  3094  0079  2999               u3440:
  3095  007A                     	goto	l2534
  3096  007A  287B               	
  3097                           l633:	
  3098  007B                     	line	38
  3099                           	
  3100                           l2534:	
  3101  007B                     	movlb 2	; select bank2
  3102  007B  0142               	movf	(logf@ix)^0100h,w
  3103  007C  085E               	movlb 1	; select bank1
  3104  007D  0141               	movwf	(??_logf+0)^080h+0
  3105  007E  00A8               	movlb 2	; select bank2
  3106  007F  0142               	movf	(logf@ix+1)^0100h,w
  3107  0080  085F               	movlb 1	; select bank1
  3108  0081  0141               	movwf	((??_logf+0)^080h+0+1)
  3109  0082  00A9               	movlb 2	; select bank2
  3110  0083  0142               	movf	(logf@ix+2)^0100h,w
  3111  0084  0860               	movlb 1	; select bank1
  3112  0085  0141               	movwf	((??_logf+0)^080h+0+2)
  3113  0086  00AA               	movlb 2	; select bank2
  3114  0087  0142               	movf	(logf@ix+3)^0100h,w
  3115  0088  0861               	movlb 1	; select bank1
  3116  0089  0141               	movwf	((??_logf+0)^080h+0+3)
  3117  008A  00AB               	movlw	01h
  3118  008B  3001               u3455:
  3119  008C                     	lslf	(??_logf+0)^080h+0,f
  3120  008C  35A8               	rlf	(??_logf+0)^080h+1,f
  3121  008D  0DA9               	rlf	(??_logf+0)^080h+2,f
  3122  008E  0DAA               	rlf	(??_logf+0)^080h+3,f
  3123  008F  0DAB               u3450:
  3124  0090                     	decfsz	wreg,f
  3125  0090  0B89               	goto	u3455
  3126  0091  288C               	movf	3+(??_logf+0)^080h+0,w
  3127  0092  082B               	iorwf	2+(??_logf+0)^080h+0,w
  3128  0093  042A               	iorwf	1+(??_logf+0)^080h+0,w
  3129  0094  0429               	iorwf	0+(??_logf+0)^080h+0,w
  3130  0095  0428               	skipz
  3131  0096  1D03               	goto	u3461
  3132  0097  2899               	goto	u3460
  3133  0098  289A               u3461:
  3134  0099                     	goto	l2540
  3135  0099  28E2               u3460:
  3136  009A                     	line	39
  3137                           	
  3138                           l2536:	
  3139  009A                     	movf	(logf@x+3)^080h,w
  3140  009A  0827               	movlb 0	; select bank0
  3141  009B  0140               	movwf	(___flmul@b+3)
  3142  009C  00A9               	movlb 1	; select bank1
  3143  009D  0141               	movf	(logf@x+2)^080h,w
  3144  009E  0826               	movlb 0	; select bank0
  3145  009F  0140               	movwf	(___flmul@b+2)
  3146  00A0  00A8               	movlb 1	; select bank1
  3147  00A1  0141               	movf	(logf@x+1)^080h,w
  3148  00A2  0825               	movlb 0	; select bank0
  3149  00A3  0140               	movwf	(___flmul@b+1)
  3150  00A4  00A7               	movlb 1	; select bank1
  3151  00A5  0141               	movf	(logf@x)^080h,w
  3152  00A6  0824               	movlb 0	; select bank0
  3153  00A7  0140               	movwf	(___flmul@b)
  3154  00A8  00A6               
  3155                           	movlb 1	; select bank1
  3156  00A9  0141               	movf	(logf@x+3)^080h,w
  3157  00AA  0827               	movlb 0	; select bank0
  3158  00AB  0140               	movwf	(___flmul@a+3)
  3159  00AC  00AD               	movlb 1	; select bank1
  3160  00AD  0141               	movf	(logf@x+2)^080h,w
  3161  00AE  0826               	movlb 0	; select bank0
  3162  00AF  0140               	movwf	(___flmul@a+2)
  3163  00B0  00AC               	movlb 1	; select bank1
  3164  00B1  0141               	movf	(logf@x+1)^080h,w
  3165  00B2  0825               	movlb 0	; select bank0
  3166  00B3  0140               	movwf	(___flmul@a+1)
  3167  00B4  00AB               	movlb 1	; select bank1
  3168  00B5  0141               	movf	(logf@x)^080h,w
  3169  00B6  0824               	movlb 0	; select bank0
  3170  00B7  0140               	movwf	(___flmul@a)
  3171  00B8  00AA               
  3172                           	fcall	___flmul
  3173  00B9  318A  22C4  3180   	movlb 0	; select bank0
  3174  00BC  0140               	movf	(3+(?___flmul)),w
  3175  00BD  0829               	movwf	(___fldiv@a+3)
  3176  00BE  00C3               	movf	(2+(?___flmul)),w
  3177  00BF  0828               	movwf	(___fldiv@a+2)
  3178  00C0  00C2               	movf	(1+(?___flmul)),w
  3179  00C1  0827               	movwf	(___fldiv@a+1)
  3180  00C2  00C1               	movf	(0+(?___flmul)),w
  3181  00C3  0826               	movwf	(___fldiv@a)
  3182  00C4  00C0               
  3183                           	movlw	0xbf
  3184  00C5  30BF               	movwf	(___fldiv@b+3)
  3185  00C6  00C7               	movlw	0x80
  3186  00C7  3080               	movwf	(___fldiv@b+2)
  3187  00C8  00C6               	movlw	0x0
  3188  00C9  3000               	movwf	(___fldiv@b+1)
  3189  00CA  00C5               	movlw	0x0
  3190  00CB  3000               	movwf	(___fldiv@b)
  3191  00CC  00C4               
  3192                           	fcall	___fldiv
  3193  00CD  3196  2621  3180   	movlb 0	; select bank0
  3194  00D0  0140               	movf	(3+(?___fldiv)),w
  3195  00D1  0843               	movlb 1	; select bank1
  3196  00D2  0141               	movwf	(?_logf+3)^080h
  3197  00D3  00A7               	movlb 0	; select bank0
  3198  00D4  0140               	movf	(2+(?___fldiv)),w
  3199  00D5  0842               	movlb 1	; select bank1
  3200  00D6  0141               	movwf	(?_logf+2)^080h
  3201  00D7  00A6               	movlb 0	; select bank0
  3202  00D8  0140               	movf	(1+(?___fldiv)),w
  3203  00D9  0841               	movlb 1	; select bank1
  3204  00DA  0141               	movwf	(?_logf+1)^080h
  3205  00DB  00A5               	movlb 0	; select bank0
  3206  00DC  0140               	movf	(0+(?___fldiv)),w
  3207  00DD  0840               	movlb 1	; select bank1
  3208  00DE  0141               	movwf	(?_logf)^080h
  3209  00DF  00A4               
  3210                           	goto	l635
  3211  00E0  2E51               	
  3212                           l2538:	
  3213  00E1                     	goto	l635
  3214  00E1  2E51               	
  3215                           l634:	
  3216  00E2                     	line	40
  3217                           	
  3218                           l2540:	
  3219  00E2                     	movlb 2	; select bank2
  3220  00E2  0142               	movf	(logf@ix)^0100h,w
  3221  00E3  085E               	movlb 1	; select bank1
  3222  00E4  0141               	movwf	(??_logf+0)^080h+0
  3223  00E5  00A8               	movlb 2	; select bank2
  3224  00E6  0142               	movf	(logf@ix+1)^0100h,w
  3225  00E7  085F               	movlb 1	; select bank1
  3226  00E8  0141               	movwf	((??_logf+0)^080h+0+1)
  3227  00E9  00A9               	movlb 2	; select bank2
  3228  00EA  0142               	movf	(logf@ix+2)^0100h,w
  3229  00EB  0860               	movlb 1	; select bank1
  3230  00EC  0141               	movwf	((??_logf+0)^080h+0+2)
  3231  00ED  00AA               	movlb 2	; select bank2
  3232  00EE  0142               	movf	(logf@ix+3)^0100h,w
  3233  00EF  0861               	movlb 1	; select bank1
  3234  00F0  0141               	movwf	((??_logf+0)^080h+0+3)
  3235  00F1  00AB               	movlw	01Fh
  3236  00F2  301F               u3475:
  3237  00F3                     	lsrf	(??_logf+0)^080h+3,f
  3238  00F3  36AB               	rrf	(??_logf+0)^080h+2,f
  3239  00F4  0CAA               	rrf	(??_logf+0)^080h+1,f
  3240  00F5  0CA9               	rrf	(??_logf+0)^080h+0,f
  3241  00F6  0CA8               u3470:
  3242  00F7                     	decfsz	wreg,f
  3243  00F7  0B89               	goto	u3475
  3244  00F8  28F3               	movf	3+(??_logf+0)^080h+0,w
  3245  00F9  082B               	iorwf	2+(??_logf+0)^080h+0,w
  3246  00FA  042A               	iorwf	1+(??_logf+0)^080h+0,w
  3247  00FB  0429               	iorwf	0+(??_logf+0)^080h+0,w
  3248  00FC  0428               	skipnz
  3249  00FD  1903               	goto	u3481
  3250  00FE  2900               	goto	u3480
  3251  00FF  2901               u3481:
  3252  0100                     	goto	l2546
  3253  0100  2950               u3480:
  3254  0101                     	line	41
  3255                           	
  3256                           l2542:	
  3257  0101                     	movlw	0x0
  3258  0101  3000               	movlb 0	; select bank0
  3259  0102  0140               	movwf	(___fldiv@a+3)
  3260  0103  00C3               	movlw	0x0
  3261  0104  3000               	movwf	(___fldiv@a+2)
  3262  0105  00C2               	movlw	0x0
  3263  0106  3000               	movwf	(___fldiv@a+1)
  3264  0107  00C1               	movlw	0x0
  3265  0108  3000               	movwf	(___fldiv@a)
  3266  0109  00C0               
  3267                           	movlb 1	; select bank1
  3268  010A  0141               	movf	(logf@x+3)^080h,w
  3269  010B  0827               	movlb 0	; select bank0
  3270  010C  0140               	movwf	(___fladd@b+3)
  3271  010D  00DD               	movlb 1	; select bank1
  3272  010E  0141               	movf	(logf@x+2)^080h,w
  3273  010F  0826               	movlb 0	; select bank0
  3274  0110  0140               	movwf	(___fladd@b+2)
  3275  0111  00DC               	movlb 1	; select bank1
  3276  0112  0141               	movf	(logf@x+1)^080h,w
  3277  0113  0825               	movlb 0	; select bank0
  3278  0114  0140               	movwf	(___fladd@b+1)
  3279  0115  00DB               	movlb 1	; select bank1
  3280  0116  0141               	movf	(logf@x)^080h,w
  3281  0117  0824               	movlb 0	; select bank0
  3282  0118  0140               	movwf	(___fladd@b)
  3283  0119  00DA               
  3284                           	movlb 1	; select bank1
  3285  011A  0141               	movf	(logf@x+3)^080h,w
  3286  011B  0827               	movwf	(___flneg@f1+3)
  3287  011C  00F5               	movf	(logf@x+2)^080h,w
  3288  011D  0826               	movwf	(___flneg@f1+2)
  3289  011E  00F4               	movf	(logf@x+1)^080h,w
  3290  011F  0825               	movwf	(___flneg@f1+1)
  3291  0120  00F3               	movf	(logf@x)^080h,w
  3292  0121  0824               	movwf	(___flneg@f1)
  3293  0122  00F2               
  3294                           	fcall	___flneg
  3295  0123  3195  25E0  3180   	movf	(3+(?___flneg)),w
  3296  0126  0875               	movlb 0	; select bank0
  3297  0127  0140               	movwf	(___fladd@a+3)
  3298  0128  00E1               	movf	(2+(?___flneg)),w
  3299  0129  0874               	movwf	(___fladd@a+2)
  3300  012A  00E0               	movf	(1+(?___flneg)),w
  3301  012B  0873               	movwf	(___fladd@a+1)
  3302  012C  00DF               	movf	(0+(?___flneg)),w
  3303  012D  0872               	movwf	(___fladd@a)
  3304  012E  00DE               
  3305                           	fcall	___fladd
  3306  012F  318D  252F  3180   	movlb 0	; select bank0
  3307  0132  0140               	movf	(3+(?___fladd)),w
  3308  0133  085D               	movwf	(___fldiv@b+3)
  3309  0134  00C7               	movf	(2+(?___fladd)),w
  3310  0135  085C               	movwf	(___fldiv@b+2)
  3311  0136  00C6               	movf	(1+(?___fladd)),w
  3312  0137  085B               	movwf	(___fldiv@b+1)
  3313  0138  00C5               	movf	(0+(?___fladd)),w
  3314  0139  085A               	movwf	(___fldiv@b)
  3315  013A  00C4               
  3316                           	fcall	___fldiv
  3317  013B  3196  2621  3180   	movlb 0	; select bank0
  3318  013E  0140               	movf	(3+(?___fldiv)),w
  3319  013F  0843               	movlb 1	; select bank1
  3320  0140  0141               	movwf	(?_logf+3)^080h
  3321  0141  00A7               	movlb 0	; select bank0
  3322  0142  0140               	movf	(2+(?___fldiv)),w
  3323  0143  0842               	movlb 1	; select bank1
  3324  0144  0141               	movwf	(?_logf+2)^080h
  3325  0145  00A6               	movlb 0	; select bank0
  3326  0146  0140               	movf	(1+(?___fldiv)),w
  3327  0147  0841               	movlb 1	; select bank1
  3328  0148  0141               	movwf	(?_logf+1)^080h
  3329  0149  00A5               	movlb 0	; select bank0
  3330  014A  0140               	movf	(0+(?___fldiv)),w
  3331  014B  0840               	movlb 1	; select bank1
  3332  014C  0141               	movwf	(?_logf)^080h
  3333  014D  00A4               
  3334                           	goto	l635
  3335  014E  2E51               	
  3336                           l2544:	
  3337  014F                     	goto	l635
  3338  014F  2E51               	
  3339                           l636:	
  3340  0150                     	line	43
  3341                           	
  3342                           l2546:	
  3343  0150                     	movlw	0E7h
  3344  0150  30E7               	movlb 2	; select bank2
  3345  0151  0142               	addwf	(logf@k)^0100h,f
  3346  0152  07BC               	movlw	0FFh
  3347  0153  30FF               	addwfc	(logf@k+1)^0100h,f
  3348  0154  3DBD               	line	44
  3349                           	
  3350                           l2548:	
  3351  0155                     	movlw	0x4c
  3352  0155  304C               	movlb 0	; select bank0
  3353  0156  0140               	movwf	(___flmul@b+3)
  3354  0157  00A9               	movlw	0x0
  3355  0158  3000               	movwf	(___flmul@b+2)
  3356  0159  00A8               	movlw	0x0
  3357  015A  3000               	movwf	(___flmul@b+1)
  3358  015B  00A7               	movlw	0x0
  3359  015C  3000               	movwf	(___flmul@b)
  3360  015D  00A6               
  3361                           	movlb 1	; select bank1
  3362  015E  0141               	movf	(logf@x+3)^080h,w
  3363  015F  0827               	movlb 0	; select bank0
  3364  0160  0140               	movwf	(___flmul@a+3)
  3365  0161  00AD               	movlb 1	; select bank1
  3366  0162  0141               	movf	(logf@x+2)^080h,w
  3367  0163  0826               	movlb 0	; select bank0
  3368  0164  0140               	movwf	(___flmul@a+2)
  3369  0165  00AC               	movlb 1	; select bank1
  3370  0166  0141               	movf	(logf@x+1)^080h,w
  3371  0167  0825               	movlb 0	; select bank0
  3372  0168  0140               	movwf	(___flmul@a+1)
  3373  0169  00AB               	movlb 1	; select bank1
  3374  016A  0141               	movf	(logf@x)^080h,w
  3375  016B  0824               	movlb 0	; select bank0
  3376  016C  0140               	movwf	(___flmul@a)
  3377  016D  00AA               
  3378                           	fcall	___flmul
  3379  016E  318A  22C4  3180   	movlb 0	; select bank0
  3380  0171  0140               	movf	(3+(?___flmul)),w
  3381  0172  0829               	movlb 1	; select bank1
  3382  0173  0141               	movwf	(logf@x+3)^080h
  3383  0174  00A7               	movlb 0	; select bank0
  3384  0175  0140               	movf	(2+(?___flmul)),w
  3385  0176  0828               	movlb 1	; select bank1
  3386  0177  0141               	movwf	(logf@x+2)^080h
  3387  0178  00A6               	movlb 0	; select bank0
  3388  0179  0140               	movf	(1+(?___flmul)),w
  3389  017A  0827               	movlb 1	; select bank1
  3390  017B  0141               	movwf	(logf@x+1)^080h
  3391  017C  00A5               	movlb 0	; select bank0
  3392  017D  0140               	movf	(0+(?___flmul)),w
  3393  017E  0826               	movlb 1	; select bank1
  3394  017F  0141               	movwf	(logf@x)^080h
  3395  0180  00A4               
  3396                           	line	45
  3397                           	
  3398                           l2550:	
  3399  0181                     	movf	(logf@x+3)^080h,w
  3400  0181  0827               	movlb 2	; select bank2
  3401  0182  0142               	movwf	(logf@u+3)^0100h
  3402  0183  00D9               	movlb 1	; select bank1
  3403  0184  0141               	movf	(logf@x+2)^080h,w
  3404  0185  0826               	movlb 2	; select bank2
  3405  0186  0142               	movwf	(logf@u+2)^0100h
  3406  0187  00D8               	movlb 1	; select bank1
  3407  0188  0141               	movf	(logf@x+1)^080h,w
  3408  0189  0825               	movlb 2	; select bank2
  3409  018A  0142               	movwf	(logf@u+1)^0100h
  3410  018B  00D7               	movlb 1	; select bank1
  3411  018C  0141               	movf	(logf@x)^080h,w
  3412  018D  0824               	movlb 2	; select bank2
  3413  018E  0142               	movwf	(logf@u)^0100h
  3414  018F  00D6               
  3415                           	line	46
  3416                           	
  3417                           l2552:	
  3418  0190                     	movf	(logf@u+3)^0100h,w
  3419  0190  0859               	movwf	(logf@ix+3)^0100h
  3420  0191  00E1               	movf	(logf@u+2)^0100h,w
  3421  0192  0858               	movwf	(logf@ix+2)^0100h
  3422  0193  00E0               	movf	(logf@u+1)^0100h,w
  3423  0194  0857               	movwf	(logf@ix+1)^0100h
  3424  0195  00DF               	movf	(logf@u)^0100h,w
  3425  0196  0856               	movwf	(logf@ix)^0100h
  3426  0197  00DE               
  3427                           	line	47
  3428                           	goto	l2566
  3429  0198  29BC               	
  3430                           l631:	
  3431  0199                     	
  3432                           l2554:	
  3433  0199                     		movlw	128
  3434  0199  3080               	movlb 2	; select bank2
  3435  019A  0142               	subwf	 (logf@ix+2)^0100h,w
  3436  019B  0260               	movlw	127
  3437  019C  307F               	subwfb	(logf@ix+3)^0100h,w
  3438  019D  3B61               	btfss	status,0
  3439  019E  1C03               	goto	u3491
  3440  019F  29A1               	goto	u3490
  3441  01A0  29A2               
  3442                           u3491:
  3443  01A1                     	goto	l2560
  3444  01A1  29A4               u3490:
  3445  01A2                     	line	48
  3446                           	
  3447                           l2556:	
  3448  01A2                     	goto	l635
  3449  01A2  2E51               	line	49
  3450                           	
  3451                           l2558:	
  3452  01A3                     	goto	l2566
  3453  01A3  29BC               	
  3454                           l638:	
  3455  01A4                     	
  3456                           l2560:	
  3457  01A4                     		movlw	128
  3458  01A4  3080               	xorwf	((logf@ix+2)^0100h),w
  3459  01A5  0660               	movlw	63
  3460  01A6  303F               	skipnz
  3461  01A7  1903               	xorwf	((logf@ix+3)^0100h),w
  3462  01A8  0661               iorwf	((logf@ix)^0100h),w
  3463  01A9  045E               iorwf	((logf@ix+1)^0100h),w
  3464  01AA  045F               	btfss	status,2
  3465  01AB  1D03               	goto	u3501
  3466  01AC  29AE               	goto	u3500
  3467  01AD  29AF               u3501:
  3468  01AE                     	goto	l2566
  3469  01AE  29BC               u3500:
  3470  01AF                     	line	50
  3471                           	
  3472                           l2562:	
  3473  01AF                     	movlw	0x0
  3474  01AF  3000               	movlb 1	; select bank1
  3475  01B0  0141               	movwf	(?_logf+3)^080h
  3476  01B1  00A7               	movlw	0x0
  3477  01B2  3000               	movwf	(?_logf+2)^080h
  3478  01B3  00A6               	movlw	0x0
  3479  01B4  3000               	movwf	(?_logf+1)^080h
  3480  01B5  00A5               	movlw	0x0
  3481  01B6  3000               	movwf	(?_logf)^080h
  3482  01B7  00A4               
  3483                           	goto	l635
  3484  01B8  2E51               	
  3485                           l2564:	
  3486  01B9                     	goto	l635
  3487  01B9  2E51               	
  3488                           l640:	
  3489  01BA                     	goto	l2566
  3490  01BA  29BC               	
  3491                           l639:	
  3492  01BB                     	goto	l2566
  3493  01BB  29BC               	
  3494                           l637:	
  3495  01BC                     	line	53
  3496                           	
  3497                           l2566:	
  3498  01BC                     	movlw	0Dh
  3499  01BC  300D               	movlb 2	; select bank2
  3500  01BD  0142               	addwf	(logf@ix)^0100h,f
  3501  01BE  07DE               	movlw	0FBh
  3502  01BF  30FB               	addwfc	(logf@ix+1)^0100h,f
  3503  01C0  3DDF               	movlw	04Ah
  3504  01C1  304A               	addwfc	(logf@ix+2)^0100h,f
  3505  01C2  3DE0               	movlw	0
  3506  01C3  3000               	addwfc	(logf@ix+3)^0100h,f
  3507  01C4  3DE1               	line	54
  3508                           	
  3509                           l2568:	
  3510  01C5                     	movf	(logf@ix)^0100h,w
  3511  01C5  085E               	movlb 1	; select bank1
  3512  01C6  0141               	movwf	(??_logf+0)^080h+0
  3513  01C7  00A8               	movlb 2	; select bank2
  3514  01C8  0142               	movf	(logf@ix+1)^0100h,w
  3515  01C9  085F               	movlb 1	; select bank1
  3516  01CA  0141               	movwf	((??_logf+0)^080h+0+1)
  3517  01CB  00A9               	movlb 2	; select bank2
  3518  01CC  0142               	movf	(logf@ix+2)^0100h,w
  3519  01CD  0860               	movlb 1	; select bank1
  3520  01CE  0141               	movwf	((??_logf+0)^080h+0+2)
  3521  01CF  00AA               	movlb 2	; select bank2
  3522  01D0  0142               	movf	(logf@ix+3)^0100h,w
  3523  01D1  0861               	movlb 1	; select bank1
  3524  01D2  0141               	movwf	((??_logf+0)^080h+0+3)
  3525  01D3  00AB               	movlw	017h
  3526  01D4  3017               u3515:
  3527  01D5                     	lsrf	(??_logf+0)^080h+3,f
  3528  01D5  36AB               	rrf	(??_logf+0)^080h+2,f
  3529  01D6  0CAA               	rrf	(??_logf+0)^080h+1,f
  3530  01D7  0CA9               	rrf	(??_logf+0)^080h+0,f
  3531  01D8  0CA8               u3510:
  3532  01D9                     	decfsz	wreg,f
  3533  01D9  0B89               	goto	u3515
  3534  01DA  29D5               	movf	0+(??_logf+0)^080h+0,w
  3535  01DB  0828               	addlw	081h
  3536  01DC  3E81               	movwf	(??_logf+4)^080h+0
  3537  01DD  00AC               	movlw	0FFh
  3538  01DE  30FF               	addwfc	1+(??_logf+0)^080h+0,w
  3539  01DF  3D29               	movwf	1+(??_logf+4)^080h+0
  3540  01E0  00AD               	movf	0+(??_logf+4)^080h+0,w
  3541  01E1  082C               	movlb 2	; select bank2
  3542  01E2  0142               	addwf	(logf@k)^0100h,f
  3543  01E3  07BC               	movlb 1	; select bank1
  3544  01E4  0141               	movf	1+(??_logf+4)^080h+0,w
  3545  01E5  082D               	movlb 2	; select bank2
  3546  01E6  0142               	addwfc	(logf@k+1)^0100h,f
  3547  01E7  3DBD               	line	55
  3548                           	
  3549                           l2570:	
  3550  01E8                     	movlw	0F3h
  3551  01E8  30F3               	movlb 1	; select bank1
  3552  01E9  0141               	movwf	((??_logf+0)^080h+0)
  3553  01EA  00A8               	movlw	04h
  3554  01EB  3004               	movwf	((??_logf+0)^080h+0+1)
  3555  01EC  00A9               	movlw	035h
  3556  01ED  3035               	movwf	((??_logf+0)^080h+0+2)
  3557  01EE  00AA               	movlw	03Fh
  3558  01EF  303F               	movwf	((??_logf+0)^080h+0+3)
  3559  01F0  00AB               	movlw	0FFh
  3560  01F1  30FF               	movlb 2	; select bank2
  3561  01F2  0142               	andwf	(logf@ix)^0100h,w
  3562  01F3  055E               	movlb 1	; select bank1
  3563  01F4  0141               	movwf	(??_logf+4)^080h+0
  3564  01F5  00AC               	movlw	0FFh
  3565  01F6  30FF               	movlb 2	; select bank2
  3566  01F7  0142               	andwf	(logf@ix+1)^0100h,w
  3567  01F8  055F               	movlb 1	; select bank1
  3568  01F9  0141               	movwf	((??_logf+4)^080h+0+1)
  3569  01FA  00AD               	movlw	07Fh
  3570  01FB  307F               	movlb 2	; select bank2
  3571  01FC  0142               	andwf	(logf@ix+2)^0100h,w
  3572  01FD  0560               	movlb 1	; select bank1
  3573  01FE  0141               	movwf	((??_logf+4)^080h+0+2)
  3574  01FF  00AE               	movlw	0
  3575  0200  3000               	movlb 2	; select bank2
  3576  0201  0142               	andwf	(logf@ix+3)^0100h,w
  3577  0202  0561               	movlb 1	; select bank1
  3578  0203  0141               	movwf	((??_logf+4)^080h+0+3)
  3579  0204  00AF               	movf	0+(??_logf+4)^080h+0,w
  3580  0205  082C               	addwf	(??_logf+0)^080h+0,f
  3581  0206  07A8               	movf	1+(??_logf+4)^080h+0,w
  3582  0207  082D               	addwfc	(??_logf+0)^080h+1,f
  3583  0208  3DA9               	movf	2+(??_logf+4)^080h+0,w
  3584  0209  082E               	addwfc	(??_logf+0)^080h+2,f
  3585  020A  3DAA               	movf	3+(??_logf+4)^080h+0,w
  3586  020B  082F               	addwfc	(??_logf+0)^080h+3,f
  3587  020C  3DAB               	movf	3+(??_logf+0)^080h+0,w
  3588  020D  082B               	movlb 2	; select bank2
  3589  020E  0142               	movwf	(logf@ix+3)^0100h
  3590  020F  00E1               	movlb 1	; select bank1
  3591  0210  0141               	movf	2+(??_logf+0)^080h+0,w
  3592  0211  082A               	movlb 2	; select bank2
  3593  0212  0142               	movwf	(logf@ix+2)^0100h
  3594  0213  00E0               	movlb 1	; select bank1
  3595  0214  0141               	movf	1+(??_logf+0)^080h+0,w
  3596  0215  0829               	movlb 2	; select bank2
  3597  0216  0142               	movwf	(logf@ix+1)^0100h
  3598  0217  00DF               	movlb 1	; select bank1
  3599  0218  0141               	movf	0+(??_logf+0)^080h+0,w
  3600  0219  0828               	movlb 2	; select bank2
  3601  021A  0142               	movwf	(logf@ix)^0100h
  3602  021B  00DE               
  3603                           	line	56
  3604                           	
  3605                           l2572:	
  3606  021C                     	movf	(logf@ix+3)^0100h,w
  3607  021C  0861               	movwf	(logf@u+3)^0100h
  3608  021D  00D9               	movf	(logf@ix+2)^0100h,w
  3609  021E  0860               	movwf	(logf@u+2)^0100h
  3610  021F  00D8               	movf	(logf@ix+1)^0100h,w
  3611  0220  085F               	movwf	(logf@u+1)^0100h
  3612  0221  00D7               	movf	(logf@ix)^0100h,w
  3613  0222  085E               	movwf	(logf@u)^0100h
  3614  0223  00D6               
  3615                           	line	57
  3616                           	
  3617                           l2574:	
  3618  0224                     	movf	(logf@u+3)^0100h,w
  3619  0224  0859               	movlb 1	; select bank1
  3620  0225  0141               	movwf	(logf@x+3)^080h
  3621  0226  00A7               	movlb 2	; select bank2
  3622  0227  0142               	movf	(logf@u+2)^0100h,w
  3623  0228  0858               	movlb 1	; select bank1
  3624  0229  0141               	movwf	(logf@x+2)^080h
  3625  022A  00A6               	movlb 2	; select bank2
  3626  022B  0142               	movf	(logf@u+1)^0100h,w
  3627  022C  0857               	movlb 1	; select bank1
  3628  022D  0141               	movwf	(logf@x+1)^080h
  3629  022E  00A5               	movlb 2	; select bank2
  3630  022F  0142               	movf	(logf@u)^0100h,w
  3631  0230  0856               	movlb 1	; select bank1
  3632  0231  0141               	movwf	(logf@x)^080h
  3633  0232  00A4               
  3634                           	line	59
  3635                           	
  3636                           l2576:	
  3637  0233                     	movlw	0xbf
  3638  0233  30BF               	movlb 0	; select bank0
  3639  0234  0140               	movwf	(___fladd@b+3)
  3640  0235  00DD               	movlw	0x80
  3641  0236  3080               	movwf	(___fladd@b+2)
  3642  0237  00DC               	movlw	0x0
  3643  0238  3000               	movwf	(___fladd@b+1)
  3644  0239  00DB               	movlw	0x0
  3645  023A  3000               	movwf	(___fladd@b)
  3646  023B  00DA               
  3647                           	movlb 1	; select bank1
  3648  023C  0141               	movf	(logf@x+3)^080h,w
  3649  023D  0827               	movlb 0	; select bank0
  3650  023E  0140               	movwf	(___fladd@a+3)
  3651  023F  00E1               	movlb 1	; select bank1
  3652  0240  0141               	movf	(logf@x+2)^080h,w
  3653  0241  0826               	movlb 0	; select bank0
  3654  0242  0140               	movwf	(___fladd@a+2)
  3655  0243  00E0               	movlb 1	; select bank1
  3656  0244  0141               	movf	(logf@x+1)^080h,w
  3657  0245  0825               	movlb 0	; select bank0
  3658  0246  0140               	movwf	(___fladd@a+1)
  3659  0247  00DF               	movlb 1	; select bank1
  3660  0248  0141               	movf	(logf@x)^080h,w
  3661  0249  0824               	movlb 0	; select bank0
  3662  024A  0140               	movwf	(___fladd@a)
  3663  024B  00DE               
  3664                           	fcall	___fladd
  3665  024C  318D  252F  3180   	movlb 0	; select bank0
  3666  024F  0140               	movf	(3+(?___fladd)),w
  3667  0250  085D               	movlb 2	; select bank2
  3668  0251  0142               	movwf	(logf@f+3)^0100h
  3669  0252  00DD               	movlb 0	; select bank0
  3670  0253  0140               	movf	(2+(?___fladd)),w
  3671  0254  085C               	movlb 2	; select bank2
  3672  0255  0142               	movwf	(logf@f+2)^0100h
  3673  0256  00DC               	movlb 0	; select bank0
  3674  0257  0140               	movf	(1+(?___fladd)),w
  3675  0258  085B               	movlb 2	; select bank2
  3676  0259  0142               	movwf	(logf@f+1)^0100h
  3677  025A  00DB               	movlb 0	; select bank0
  3678  025B  0140               	movf	(0+(?___fladd)),w
  3679  025C  085A               	movlb 2	; select bank2
  3680  025D  0142               	movwf	(logf@f)^0100h
  3681  025E  00DA               
  3682                           	line	60
  3683                           	
  3684                           l2578:	
  3685  025F                     	movlw	0x40
  3686  025F  3040               	movlb 0	; select bank0
  3687  0260  0140               	movwf	(___fladd@b+3)
  3688  0261  00DD               	movlw	0x0
  3689  0262  3000               	movwf	(___fladd@b+2)
  3690  0263  00DC               	movlw	0x0
  3691  0264  3000               	movwf	(___fladd@b+1)
  3692  0265  00DB               	movlw	0x0
  3693  0266  3000               	movwf	(___fladd@b)
  3694  0267  00DA               
  3695                           	movlb 2	; select bank2
  3696  0268  0142               	movf	(logf@f+3)^0100h,w
  3697  0269  085D               	movlb 0	; select bank0
  3698  026A  0140               	movwf	(___fladd@a+3)
  3699  026B  00E1               	movlb 2	; select bank2
  3700  026C  0142               	movf	(logf@f+2)^0100h,w
  3701  026D  085C               	movlb 0	; select bank0
  3702  026E  0140               	movwf	(___fladd@a+2)
  3703  026F  00E0               	movlb 2	; select bank2
  3704  0270  0142               	movf	(logf@f+1)^0100h,w
  3705  0271  085B               	movlb 0	; select bank0
  3706  0272  0140               	movwf	(___fladd@a+1)
  3707  0273  00DF               	movlb 2	; select bank2
  3708  0274  0142               	movf	(logf@f)^0100h,w
  3709  0275  085A               	movlb 0	; select bank0
  3710  0276  0140               	movwf	(___fladd@a)
  3711  0277  00DE               
  3712                           	fcall	___fladd
  3713  0278  318D  252F  3180   	movlb 0	; select bank0
  3714  027B  0140               	movf	(3+(?___fladd)),w
  3715  027C  085D               	movwf	(___fldiv@a+3)
  3716  027D  00C3               	movf	(2+(?___fladd)),w
  3717  027E  085C               	movwf	(___fldiv@a+2)
  3718  027F  00C2               	movf	(1+(?___fladd)),w
  3719  0280  085B               	movwf	(___fldiv@a+1)
  3720  0281  00C1               	movf	(0+(?___fladd)),w
  3721  0282  085A               	movwf	(___fldiv@a)
  3722  0283  00C0               
  3723                           	movlb 2	; select bank2
  3724  0284  0142               	movf	(logf@f+3)^0100h,w
  3725  0285  085D               	movlb 0	; select bank0
  3726  0286  0140               	movwf	(___fldiv@b+3)
  3727  0287  00C7               	movlb 2	; select bank2
  3728  0288  0142               	movf	(logf@f+2)^0100h,w
  3729  0289  085C               	movlb 0	; select bank0
  3730  028A  0140               	movwf	(___fldiv@b+2)
  3731  028B  00C6               	movlb 2	; select bank2
  3732  028C  0142               	movf	(logf@f+1)^0100h,w
  3733  028D  085B               	movlb 0	; select bank0
  3734  028E  0140               	movwf	(___fldiv@b+1)
  3735  028F  00C5               	movlb 2	; select bank2
  3736  0290  0142               	movf	(logf@f)^0100h,w
  3737  0291  085A               	movlb 0	; select bank0
  3738  0292  0140               	movwf	(___fldiv@b)
  3739  0293  00C4               
  3740                           	fcall	___fldiv
  3741  0294  3196  2621  3180   	movlb 0	; select bank0
  3742  0297  0140               	movf	(3+(?___fldiv)),w
  3743  0298  0843               	movlb 2	; select bank2
  3744  0299  0142               	movwf	(logf@s+3)^0100h
  3745  029A  00C9               	movlb 0	; select bank0
  3746  029B  0140               	movf	(2+(?___fldiv)),w
  3747  029C  0842               	movlb 2	; select bank2
  3748  029D  0142               	movwf	(logf@s+2)^0100h
  3749  029E  00C8               	movlb 0	; select bank0
  3750  029F  0140               	movf	(1+(?___fldiv)),w
  3751  02A0  0841               	movlb 2	; select bank2
  3752  02A1  0142               	movwf	(logf@s+1)^0100h
  3753  02A2  00C7               	movlb 0	; select bank0
  3754  02A3  0140               	movf	(0+(?___fldiv)),w
  3755  02A4  0840               	movlb 2	; select bank2
  3756  02A5  0142               	movwf	(logf@s)^0100h
  3757  02A6  00C6               
  3758                           	line	61
  3759                           	
  3760                           l2580:	
  3761  02A7                     	movf	(logf@s+3)^0100h,w
  3762  02A7  0849               	movlb 0	; select bank0
  3763  02A8  0140               	movwf	(___flmul@b+3)
  3764  02A9  00A9               	movlb 2	; select bank2
  3765  02AA  0142               	movf	(logf@s+2)^0100h,w
  3766  02AB  0848               	movlb 0	; select bank0
  3767  02AC  0140               	movwf	(___flmul@b+2)
  3768  02AD  00A8               	movlb 2	; select bank2
  3769  02AE  0142               	movf	(logf@s+1)^0100h,w
  3770  02AF  0847               	movlb 0	; select bank0
  3771  02B0  0140               	movwf	(___flmul@b+1)
  3772  02B1  00A7               	movlb 2	; select bank2
  3773  02B2  0142               	movf	(logf@s)^0100h,w
  3774  02B3  0846               	movlb 0	; select bank0
  3775  02B4  0140               	movwf	(___flmul@b)
  3776  02B5  00A6               
  3777                           	movlb 2	; select bank2
  3778  02B6  0142               	movf	(logf@s+3)^0100h,w
  3779  02B7  0849               	movlb 0	; select bank0
  3780  02B8  0140               	movwf	(___flmul@a+3)
  3781  02B9  00AD               	movlb 2	; select bank2
  3782  02BA  0142               	movf	(logf@s+2)^0100h,w
  3783  02BB  0848               	movlb 0	; select bank0
  3784  02BC  0140               	movwf	(___flmul@a+2)
  3785  02BD  00AC               	movlb 2	; select bank2
  3786  02BE  0142               	movf	(logf@s+1)^0100h,w
  3787  02BF  0847               	movlb 0	; select bank0
  3788  02C0  0140               	movwf	(___flmul@a+1)
  3789  02C1  00AB               	movlb 2	; select bank2
  3790  02C2  0142               	movf	(logf@s)^0100h,w
  3791  02C3  0846               	movlb 0	; select bank0
  3792  02C4  0140               	movwf	(___flmul@a)
  3793  02C5  00AA               
  3794                           	fcall	___flmul
  3795  02C6  318A  22C4  3180   	movlb 0	; select bank0
  3796  02C9  0140               	movf	(3+(?___flmul)),w
  3797  02CA  0829               	movlb 2	; select bank2
  3798  02CB  0142               	movwf	(logf@z+3)^0100h
  3799  02CC  00CD               	movlb 0	; select bank0
  3800  02CD  0140               	movf	(2+(?___flmul)),w
  3801  02CE  0828               	movlb 2	; select bank2
  3802  02CF  0142               	movwf	(logf@z+2)^0100h
  3803  02D0  00CC               	movlb 0	; select bank0
  3804  02D1  0140               	movf	(1+(?___flmul)),w
  3805  02D2  0827               	movlb 2	; select bank2
  3806  02D3  0142               	movwf	(logf@z+1)^0100h
  3807  02D4  00CB               	movlb 0	; select bank0
  3808  02D5  0140               	movf	(0+(?___flmul)),w
  3809  02D6  0826               	movlb 2	; select bank2
  3810  02D7  0142               	movwf	(logf@z)^0100h
  3811  02D8  00CA               
  3812                           	line	62
  3813                           	
  3814                           l2582:	
  3815  02D9                     	movf	(logf@z+3)^0100h,w
  3816  02D9  084D               	movlb 0	; select bank0
  3817  02DA  0140               	movwf	(___flmul@b+3)
  3818  02DB  00A9               	movlb 2	; select bank2
  3819  02DC  0142               	movf	(logf@z+2)^0100h,w
  3820  02DD  084C               	movlb 0	; select bank0
  3821  02DE  0140               	movwf	(___flmul@b+2)
  3822  02DF  00A8               	movlb 2	; select bank2
  3823  02E0  0142               	movf	(logf@z+1)^0100h,w
  3824  02E1  084B               	movlb 0	; select bank0
  3825  02E2  0140               	movwf	(___flmul@b+1)
  3826  02E3  00A7               	movlb 2	; select bank2
  3827  02E4  0142               	movf	(logf@z)^0100h,w
  3828  02E5  084A               	movlb 0	; select bank0
  3829  02E6  0140               	movwf	(___flmul@b)
  3830  02E7  00A6               
  3831                           	movlb 2	; select bank2
  3832  02E8  0142               	movf	(logf@z+3)^0100h,w
  3833  02E9  084D               	movlb 0	; select bank0
  3834  02EA  0140               	movwf	(___flmul@a+3)
  3835  02EB  00AD               	movlb 2	; select bank2
  3836  02EC  0142               	movf	(logf@z+2)^0100h,w
  3837  02ED  084C               	movlb 0	; select bank0
  3838  02EE  0140               	movwf	(___flmul@a+2)
  3839  02EF  00AC               	movlb 2	; select bank2
  3840  02F0  0142               	movf	(logf@z+1)^0100h,w
  3841  02F1  084B               	movlb 0	; select bank0
  3842  02F2  0140               	movwf	(___flmul@a+1)
  3843  02F3  00AB               	movlb 2	; select bank2
  3844  02F4  0142               	movf	(logf@z)^0100h,w
  3845  02F5  084A               	movlb 0	; select bank0
  3846  02F6  0140               	movwf	(___flmul@a)
  3847  02F7  00AA               
  3848                           	fcall	___flmul
  3849  02F8  318A  22C4  3180   	movlb 0	; select bank0
  3850  02FB  0140               	movf	(3+(?___flmul)),w
  3851  02FC  0829               	movlb 2	; select bank2
  3852  02FD  0142               	movwf	(logf@w+3)^0100h
  3853  02FE  00D1               	movlb 0	; select bank0
  3854  02FF  0140               	movf	(2+(?___flmul)),w
  3855  0300  0828               	movlb 2	; select bank2
  3856  0301  0142               	movwf	(logf@w+2)^0100h
  3857  0302  00D0               	movlb 0	; select bank0
  3858  0303  0140               	movf	(1+(?___flmul)),w
  3859  0304  0827               	movlb 2	; select bank2
  3860  0305  0142               	movwf	(logf@w+1)^0100h
  3861  0306  00CF               	movlb 0	; select bank0
  3862  0307  0140               	movf	(0+(?___flmul)),w
  3863  0308  0826               	movlb 2	; select bank2
  3864  0309  0142               	movwf	(logf@w)^0100h
  3865  030A  00CE               
  3866                           	line	63
  3867                           	
  3868                           l2584:	
  3869  030B                     	movlw	low(_Lg2|8000h)
  3870  030B  3008               	movwf	fsr0l
  3871  030C  0084               	movlw	high(_Lg2|8000h)
  3872  030D  3098               	movwf	fsr0h
  3873  030E  0085               	moviw	[0]fsr0
  3874  030F  3F00               	movlb 1	; select bank1
  3875  0310  0141               	movwf	((??_logf+0)^080h+0)
  3876  0311  00A8               	moviw	[1]fsr0
  3877  0312  3F01               	movwf	((??_logf+0)^080h+0+1)
  3878  0313  00A9               	moviw	[2]fsr0
  3879  0314  3F02               	movwf	((??_logf+0)^080h+0+2)
  3880  0315  00AA               	moviw	[3]fsr0
  3881  0316  3F03               	movwf	((??_logf+0)^080h+0+3)
  3882  0317  00AB               	movf	3+(??_logf+0)^080h+0,w
  3883  0318  082B               	movlb 0	; select bank0
  3884  0319  0140               	movwf	(___fladd@b+3)
  3885  031A  00DD               	movlb 1	; select bank1
  3886  031B  0141               	movf	2+(??_logf+0)^080h+0,w
  3887  031C  082A               	movlb 0	; select bank0
  3888  031D  0140               	movwf	(___fladd@b+2)
  3889  031E  00DC               	movlb 1	; select bank1
  3890  031F  0141               	movf	1+(??_logf+0)^080h+0,w
  3891  0320  0829               	movlb 0	; select bank0
  3892  0321  0140               	movwf	(___fladd@b+1)
  3893  0322  00DB               	movlb 1	; select bank1
  3894  0323  0141               	movf	0+(??_logf+0)^080h+0,w
  3895  0324  0828               	movlb 0	; select bank0
  3896  0325  0140               	movwf	(___fladd@b)
  3897  0326  00DA               
  3898                           	movlw	low(_Lg4|8000h)
  3899  0327  3000               	movwf	fsr0l
  3900  0328  0084               	movlw	high(_Lg4|8000h)
  3901  0329  3098               	movwf	fsr0h
  3902  032A  0085               	moviw	[0]fsr0
  3903  032B  3F00               	movlb 1	; select bank1
  3904  032C  0141               	movwf	((??_logf+4)^080h+0)
  3905  032D  00AC               	moviw	[1]fsr0
  3906  032E  3F01               	movwf	((??_logf+4)^080h+0+1)
  3907  032F  00AD               	moviw	[2]fsr0
  3908  0330  3F02               	movwf	((??_logf+4)^080h+0+2)
  3909  0331  00AE               	moviw	[3]fsr0
  3910  0332  3F03               	movwf	((??_logf+4)^080h+0+3)
  3911  0333  00AF               	movf	3+(??_logf+4)^080h+0,w
  3912  0334  082F               	movlb 0	; select bank0
  3913  0335  0140               	movwf	(___flmul@b+3)
  3914  0336  00A9               	movlb 1	; select bank1
  3915  0337  0141               	movf	2+(??_logf+4)^080h+0,w
  3916  0338  082E               	movlb 0	; select bank0
  3917  0339  0140               	movwf	(___flmul@b+2)
  3918  033A  00A8               	movlb 1	; select bank1
  3919  033B  0141               	movf	1+(??_logf+4)^080h+0,w
  3920  033C  082D               	movlb 0	; select bank0
  3921  033D  0140               	movwf	(___flmul@b+1)
  3922  033E  00A7               	movlb 1	; select bank1
  3923  033F  0141               	movf	0+(??_logf+4)^080h+0,w
  3924  0340  082C               	movlb 0	; select bank0
  3925  0341  0140               	movwf	(___flmul@b)
  3926  0342  00A6               
  3927                           	movlb 2	; select bank2
  3928  0343  0142               	movf	(logf@w+3)^0100h,w
  3929  0344  0851               	movlb 0	; select bank0
  3930  0345  0140               	movwf	(___flmul@a+3)
  3931  0346  00AD               	movlb 2	; select bank2
  3932  0347  0142               	movf	(logf@w+2)^0100h,w
  3933  0348  0850               	movlb 0	; select bank0
  3934  0349  0140               	movwf	(___flmul@a+2)
  3935  034A  00AC               	movlb 2	; select bank2
  3936  034B  0142               	movf	(logf@w+1)^0100h,w
  3937  034C  084F               	movlb 0	; select bank0
  3938  034D  0140               	movwf	(___flmul@a+1)
  3939  034E  00AB               	movlb 2	; select bank2
  3940  034F  0142               	movf	(logf@w)^0100h,w
  3941  0350  084E               	movlb 0	; select bank0
  3942  0351  0140               	movwf	(___flmul@a)
  3943  0352  00AA               
  3944                           	fcall	___flmul
  3945  0353  318A  22C4  3180   	movlb 0	; select bank0
  3946  0356  0140               	movf	(3+(?___flmul)),w
  3947  0357  0829               	movwf	(___fladd@a+3)
  3948  0358  00E1               	movf	(2+(?___flmul)),w
  3949  0359  0828               	movwf	(___fladd@a+2)
  3950  035A  00E0               	movf	(1+(?___flmul)),w
  3951  035B  0827               	movwf	(___fladd@a+1)
  3952  035C  00DF               	movf	(0+(?___flmul)),w
  3953  035D  0826               	movwf	(___fladd@a)
  3954  035E  00DE               
  3955                           	fcall	___fladd
  3956  035F  318D  252F  3180   	movlb 0	; select bank0
  3957  0362  0140               	movf	(3+(?___fladd)),w
  3958  0363  085D               	movlb 2	; select bank2
  3959  0364  0142               	movwf	(_logf$786+3)^0100h
  3960  0365  00D5               	movlb 0	; select bank0
  3961  0366  0140               	movf	(2+(?___fladd)),w
  3962  0367  085C               	movlb 2	; select bank2
  3963  0368  0142               	movwf	(_logf$786+2)^0100h
  3964  0369  00D4               	movlb 0	; select bank0
  3965  036A  0140               	movf	(1+(?___fladd)),w
  3966  036B  085B               	movlb 2	; select bank2
  3967  036C  0142               	movwf	(_logf$786+1)^0100h
  3968  036D  00D3               	movlb 0	; select bank0
  3969  036E  0140               	movf	(0+(?___fladd)),w
  3970  036F  085A               	movlb 2	; select bank2
  3971  0370  0142               	movwf	(_logf$786)^0100h
  3972  0371  00D2               
  3973                           	
  3974                           l2586:	
  3975  0372                     	movf	(logf@w+3)^0100h,w
  3976  0372  0851               	movlb 0	; select bank0
  3977  0373  0140               	movwf	(___flmul@b+3)
  3978  0374  00A9               	movlb 2	; select bank2
  3979  0375  0142               	movf	(logf@w+2)^0100h,w
  3980  0376  0850               	movlb 0	; select bank0
  3981  0377  0140               	movwf	(___flmul@b+2)
  3982  0378  00A8               	movlb 2	; select bank2
  3983  0379  0142               	movf	(logf@w+1)^0100h,w
  3984  037A  084F               	movlb 0	; select bank0
  3985  037B  0140               	movwf	(___flmul@b+1)
  3986  037C  00A7               	movlb 2	; select bank2
  3987  037D  0142               	movf	(logf@w)^0100h,w
  3988  037E  084E               	movlb 0	; select bank0
  3989  037F  0140               	movwf	(___flmul@b)
  3990  0380  00A6               
  3991                           	movlb 2	; select bank2
  3992  0381  0142               	movf	(_logf$786+3)^0100h,w
  3993  0382  0855               	movlb 0	; select bank0
  3994  0383  0140               	movwf	(___flmul@a+3)
  3995  0384  00AD               	movlb 2	; select bank2
  3996  0385  0142               	movf	(_logf$786+2)^0100h,w
  3997  0386  0854               	movlb 0	; select bank0
  3998  0387  0140               	movwf	(___flmul@a+2)
  3999  0388  00AC               	movlb 2	; select bank2
  4000  0389  0142               	movf	(_logf$786+1)^0100h,w
  4001  038A  0853               	movlb 0	; select bank0
  4002  038B  0140               	movwf	(___flmul@a+1)
  4003  038C  00AB               	movlb 2	; select bank2
  4004  038D  0142               	movf	(_logf$786)^0100h,w
  4005  038E  0852               	movlb 0	; select bank0
  4006  038F  0140               	movwf	(___flmul@a)
  4007  0390  00AA               
  4008                           	fcall	___flmul
  4009  0391  318A  22C4  3180   	movlb 0	; select bank0
  4010  0394  0140               	movf	(3+(?___flmul)),w
  4011  0395  0829               	movlb 2	; select bank2
  4012  0396  0142               	movwf	(logf@t1+3)^0100h
  4013  0397  00A7               	movlb 0	; select bank0
  4014  0398  0140               	movf	(2+(?___flmul)),w
  4015  0399  0828               	movlb 2	; select bank2
  4016  039A  0142               	movwf	(logf@t1+2)^0100h
  4017  039B  00A6               	movlb 0	; select bank0
  4018  039C  0140               	movf	(1+(?___flmul)),w
  4019  039D  0827               	movlb 2	; select bank2
  4020  039E  0142               	movwf	(logf@t1+1)^0100h
  4021  039F  00A5               	movlb 0	; select bank0
  4022  03A0  0140               	movf	(0+(?___flmul)),w
  4023  03A1  0826               	movlb 2	; select bank2
  4024  03A2  0142               	movwf	(logf@t1)^0100h
  4025  03A3  00A4               
  4026                           	line	64
  4027                           	
  4028                           l2588:	
  4029  03A4                     	movlw	low(_Lg1|8000h)
  4030  03A4  300C               	movwf	fsr0l
  4031  03A5  0084               	movlw	high(_Lg1|8000h)
  4032  03A6  3098               	movwf	fsr0h
  4033  03A7  0085               	moviw	[0]fsr0
  4034  03A8  3F00               	movlb 1	; select bank1
  4035  03A9  0141               	movwf	((??_logf+0)^080h+0)
  4036  03AA  00A8               	moviw	[1]fsr0
  4037  03AB  3F01               	movwf	((??_logf+0)^080h+0+1)
  4038  03AC  00A9               	moviw	[2]fsr0
  4039  03AD  3F02               	movwf	((??_logf+0)^080h+0+2)
  4040  03AE  00AA               	moviw	[3]fsr0
  4041  03AF  3F03               	movwf	((??_logf+0)^080h+0+3)
  4042  03B0  00AB               	movf	3+(??_logf+0)^080h+0,w
  4043  03B1  082B               	movlb 0	; select bank0
  4044  03B2  0140               	movwf	(___fladd@b+3)
  4045  03B3  00DD               	movlb 1	; select bank1
  4046  03B4  0141               	movf	2+(??_logf+0)^080h+0,w
  4047  03B5  082A               	movlb 0	; select bank0
  4048  03B6  0140               	movwf	(___fladd@b+2)
  4049  03B7  00DC               	movlb 1	; select bank1
  4050  03B8  0141               	movf	1+(??_logf+0)^080h+0,w
  4051  03B9  0829               	movlb 0	; select bank0
  4052  03BA  0140               	movwf	(___fladd@b+1)
  4053  03BB  00DB               	movlb 1	; select bank1
  4054  03BC  0141               	movf	0+(??_logf+0)^080h+0,w
  4055  03BD  0828               	movlb 0	; select bank0
  4056  03BE  0140               	movwf	(___fladd@b)
  4057  03BF  00DA               
  4058                           	movlw	low(_Lg3|8000h)
  4059  03C0  3004               	movwf	fsr0l
  4060  03C1  0084               	movlw	high(_Lg3|8000h)
  4061  03C2  3098               	movwf	fsr0h
  4062  03C3  0085               	moviw	[0]fsr0
  4063  03C4  3F00               	movlb 1	; select bank1
  4064  03C5  0141               	movwf	((??_logf+4)^080h+0)
  4065  03C6  00AC               	moviw	[1]fsr0
  4066  03C7  3F01               	movwf	((??_logf+4)^080h+0+1)
  4067  03C8  00AD               	moviw	[2]fsr0
  4068  03C9  3F02               	movwf	((??_logf+4)^080h+0+2)
  4069  03CA  00AE               	moviw	[3]fsr0
  4070  03CB  3F03               	movwf	((??_logf+4)^080h+0+3)
  4071  03CC  00AF               	movf	3+(??_logf+4)^080h+0,w
  4072  03CD  082F               	movlb 0	; select bank0
  4073  03CE  0140               	movwf	(___flmul@b+3)
  4074  03CF  00A9               	movlb 1	; select bank1
  4075  03D0  0141               	movf	2+(??_logf+4)^080h+0,w
  4076  03D1  082E               	movlb 0	; select bank0
  4077  03D2  0140               	movwf	(___flmul@b+2)
  4078  03D3  00A8               	movlb 1	; select bank1
  4079  03D4  0141               	movf	1+(??_logf+4)^080h+0,w
  4080  03D5  082D               	movlb 0	; select bank0
  4081  03D6  0140               	movwf	(___flmul@b+1)
  4082  03D7  00A7               	movlb 1	; select bank1
  4083  03D8  0141               	movf	0+(??_logf+4)^080h+0,w
  4084  03D9  082C               	movlb 0	; select bank0
  4085  03DA  0140               	movwf	(___flmul@b)
  4086  03DB  00A6               
  4087                           	movlb 2	; select bank2
  4088  03DC  0142               	movf	(logf@w+3)^0100h,w
  4089  03DD  0851               	movlb 0	; select bank0
  4090  03DE  0140               	movwf	(___flmul@a+3)
  4091  03DF  00AD               	movlb 2	; select bank2
  4092  03E0  0142               	movf	(logf@w+2)^0100h,w
  4093  03E1  0850               	movlb 0	; select bank0
  4094  03E2  0140               	movwf	(___flmul@a+2)
  4095  03E3  00AC               	movlb 2	; select bank2
  4096  03E4  0142               	movf	(logf@w+1)^0100h,w
  4097  03E5  084F               	movlb 0	; select bank0
  4098  03E6  0140               	movwf	(___flmul@a+1)
  4099  03E7  00AB               	movlb 2	; select bank2
  4100  03E8  0142               	movf	(logf@w)^0100h,w
  4101  03E9  084E               	movlb 0	; select bank0
  4102  03EA  0140               	movwf	(___flmul@a)
  4103  03EB  00AA               
  4104                           	fcall	___flmul
  4105  03EC  318A  22C4  3180   	movlb 0	; select bank0
  4106  03EF  0140               	movf	(3+(?___flmul)),w
  4107  03F0  0829               	movwf	(___fladd@a+3)
  4108  03F1  00E1               	movf	(2+(?___flmul)),w
  4109  03F2  0828               	movwf	(___fladd@a+2)
  4110  03F3  00E0               	movf	(1+(?___flmul)),w
  4111  03F4  0827               	movwf	(___fladd@a+1)
  4112  03F5  00DF               	movf	(0+(?___flmul)),w
  4113  03F6  0826               	movwf	(___fladd@a)
  4114  03F7  00DE               
  4115                           	fcall	___fladd
  4116  03F8  318D  252F  3180   	movlb 0	; select bank0
  4117  03FB  0140               	movf	(3+(?___fladd)),w
  4118  03FC  085D               	movlb 2	; select bank2
  4119  03FD  0142               	movwf	(_logf$786+3)^0100h
  4120  03FE  00D5               	movlb 0	; select bank0
  4121  03FF  0140               	movf	(2+(?___fladd)),w
  4122  0400  085C               	movlb 2	; select bank2
  4123  0401  0142               	movwf	(_logf$786+2)^0100h
  4124  0402  00D4               	movlb 0	; select bank0
  4125  0403  0140               	movf	(1+(?___fladd)),w
  4126  0404  085B               	movlb 2	; select bank2
  4127  0405  0142               	movwf	(_logf$786+1)^0100h
  4128  0406  00D3               	movlb 0	; select bank0
  4129  0407  0140               	movf	(0+(?___fladd)),w
  4130  0408  085A               	movlb 2	; select bank2
  4131  0409  0142               	movwf	(_logf$786)^0100h
  4132  040A  00D2               
  4133                           	
  4134                           l2590:	
  4135  040B                     	movf	(logf@z+3)^0100h,w
  4136  040B  084D               	movlb 0	; select bank0
  4137  040C  0140               	movwf	(___flmul@b+3)
  4138  040D  00A9               	movlb 2	; select bank2
  4139  040E  0142               	movf	(logf@z+2)^0100h,w
  4140  040F  084C               	movlb 0	; select bank0
  4141  0410  0140               	movwf	(___flmul@b+2)
  4142  0411  00A8               	movlb 2	; select bank2
  4143  0412  0142               	movf	(logf@z+1)^0100h,w
  4144  0413  084B               	movlb 0	; select bank0
  4145  0414  0140               	movwf	(___flmul@b+1)
  4146  0415  00A7               	movlb 2	; select bank2
  4147  0416  0142               	movf	(logf@z)^0100h,w
  4148  0417  084A               	movlb 0	; select bank0
  4149  0418  0140               	movwf	(___flmul@b)
  4150  0419  00A6               
  4151                           	movlb 2	; select bank2
  4152  041A  0142               	movf	(_logf$786+3)^0100h,w
  4153  041B  0855               	movlb 0	; select bank0
  4154  041C  0140               	movwf	(___flmul@a+3)
  4155  041D  00AD               	movlb 2	; select bank2
  4156  041E  0142               	movf	(_logf$786+2)^0100h,w
  4157  041F  0854               	movlb 0	; select bank0
  4158  0420  0140               	movwf	(___flmul@a+2)
  4159  0421  00AC               	movlb 2	; select bank2
  4160  0422  0142               	movf	(_logf$786+1)^0100h,w
  4161  0423  0853               	movlb 0	; select bank0
  4162  0424  0140               	movwf	(___flmul@a+1)
  4163  0425  00AB               	movlb 2	; select bank2
  4164  0426  0142               	movf	(_logf$786)^0100h,w
  4165  0427  0852               	movlb 0	; select bank0
  4166  0428  0140               	movwf	(___flmul@a)
  4167  0429  00AA               
  4168                           	fcall	___flmul
  4169  042A  318A  22C4  3180   	movlb 0	; select bank0
  4170  042D  0140               	movf	(3+(?___flmul)),w
  4171  042E  0829               	movlb 2	; select bank2
  4172  042F  0142               	movwf	(logf@t2+3)^0100h
  4173  0430  00AB               	movlb 0	; select bank0
  4174  0431  0140               	movf	(2+(?___flmul)),w
  4175  0432  0828               	movlb 2	; select bank2
  4176  0433  0142               	movwf	(logf@t2+2)^0100h
  4177  0434  00AA               	movlb 0	; select bank0
  4178  0435  0140               	movf	(1+(?___flmul)),w
  4179  0436  0827               	movlb 2	; select bank2
  4180  0437  0142               	movwf	(logf@t2+1)^0100h
  4181  0438  00A9               	movlb 0	; select bank0
  4182  0439  0140               	movf	(0+(?___flmul)),w
  4183  043A  0826               	movlb 2	; select bank2
  4184  043B  0142               	movwf	(logf@t2)^0100h
  4185  043C  00A8               
  4186                           	line	65
  4187                           	
  4188                           l2592:	
  4189  043D                     	movf	(logf@t1+3)^0100h,w
  4190  043D  0827               	movlb 0	; select bank0
  4191  043E  0140               	movwf	(___fladd@b+3)
  4192  043F  00DD               	movlb 2	; select bank2
  4193  0440  0142               	movf	(logf@t1+2)^0100h,w
  4194  0441  0826               	movlb 0	; select bank0
  4195  0442  0140               	movwf	(___fladd@b+2)
  4196  0443  00DC               	movlb 2	; select bank2
  4197  0444  0142               	movf	(logf@t1+1)^0100h,w
  4198  0445  0825               	movlb 0	; select bank0
  4199  0446  0140               	movwf	(___fladd@b+1)
  4200  0447  00DB               	movlb 2	; select bank2
  4201  0448  0142               	movf	(logf@t1)^0100h,w
  4202  0449  0824               	movlb 0	; select bank0
  4203  044A  0140               	movwf	(___fladd@b)
  4204  044B  00DA               
  4205                           	movlb 2	; select bank2
  4206  044C  0142               	movf	(logf@t2+3)^0100h,w
  4207  044D  082B               	movlb 0	; select bank0
  4208  044E  0140               	movwf	(___fladd@a+3)
  4209  044F  00E1               	movlb 2	; select bank2
  4210  0450  0142               	movf	(logf@t2+2)^0100h,w
  4211  0451  082A               	movlb 0	; select bank0
  4212  0452  0140               	movwf	(___fladd@a+2)
  4213  0453  00E0               	movlb 2	; select bank2
  4214  0454  0142               	movf	(logf@t2+1)^0100h,w
  4215  0455  0829               	movlb 0	; select bank0
  4216  0456  0140               	movwf	(___fladd@a+1)
  4217  0457  00DF               	movlb 2	; select bank2
  4218  0458  0142               	movf	(logf@t2)^0100h,w
  4219  0459  0828               	movlb 0	; select bank0
  4220  045A  0140               	movwf	(___fladd@a)
  4221  045B  00DE               
  4222                           	fcall	___fladd
  4223  045C  318D  252F  3180   	movlb 0	; select bank0
  4224  045F  0140               	movf	(3+(?___fladd)),w
  4225  0460  085D               	movlb 2	; select bank2
  4226  0461  0142               	movwf	(logf@R+3)^0100h
  4227  0462  00A3               	movlb 0	; select bank0
  4228  0463  0140               	movf	(2+(?___fladd)),w
  4229  0464  085C               	movlb 2	; select bank2
  4230  0465  0142               	movwf	(logf@R+2)^0100h
  4231  0466  00A2               	movlb 0	; select bank0
  4232  0467  0140               	movf	(1+(?___fladd)),w
  4233  0468  085B               	movlb 2	; select bank2
  4234  0469  0142               	movwf	(logf@R+1)^0100h
  4235  046A  00A1               	movlb 0	; select bank0
  4236  046B  0140               	movf	(0+(?___fladd)),w
  4237  046C  085A               	movlb 2	; select bank2
  4238  046D  0142               	movwf	(logf@R)^0100h
  4239  046E  00A0               
  4240                           	line	66
  4241                           	
  4242                           l2594:	
  4243  046F                     	movlw	0x3f
  4244  046F  303F               	movlb 0	; select bank0
  4245  0470  0140               	movwf	(___flmul@b+3)
  4246  0471  00A9               	movlw	0x0
  4247  0472  3000               	movwf	(___flmul@b+2)
  4248  0473  00A8               	movlw	0x0
  4249  0474  3000               	movwf	(___flmul@b+1)
  4250  0475  00A7               	movlw	0x0
  4251  0476  3000               	movwf	(___flmul@b)
  4252  0477  00A6               
  4253                           	movlb 2	; select bank2
  4254  0478  0142               	movf	(logf@f+3)^0100h,w
  4255  0479  085D               	movlb 0	; select bank0
  4256  047A  0140               	movwf	(___flmul@a+3)
  4257  047B  00AD               	movlb 2	; select bank2
  4258  047C  0142               	movf	(logf@f+2)^0100h,w
  4259  047D  085C               	movlb 0	; select bank0
  4260  047E  0140               	movwf	(___flmul@a+2)
  4261  047F  00AC               	movlb 2	; select bank2
  4262  0480  0142               	movf	(logf@f+1)^0100h,w
  4263  0481  085B               	movlb 0	; select bank0
  4264  0482  0140               	movwf	(___flmul@a+1)
  4265  0483  00AB               	movlb 2	; select bank2
  4266  0484  0142               	movf	(logf@f)^0100h,w
  4267  0485  085A               	movlb 0	; select bank0
  4268  0486  0140               	movwf	(___flmul@a)
  4269  0487  00AA               
  4270                           	fcall	___flmul
  4271  0488  318A  22C4  3180   	movlb 0	; select bank0
  4272  048B  0140               	movf	(3+(?___flmul)),w
  4273  048C  0829               	movlb 2	; select bank2
  4274  048D  0142               	movwf	(_logf$786+3)^0100h
  4275  048E  00D5               	movlb 0	; select bank0
  4276  048F  0140               	movf	(2+(?___flmul)),w
  4277  0490  0828               	movlb 2	; select bank2
  4278  0491  0142               	movwf	(_logf$786+2)^0100h
  4279  0492  00D4               	movlb 0	; select bank0
  4280  0493  0140               	movf	(1+(?___flmul)),w
  4281  0494  0827               	movlb 2	; select bank2
  4282  0495  0142               	movwf	(_logf$786+1)^0100h
  4283  0496  00D3               	movlb 0	; select bank0
  4284  0497  0140               	movf	(0+(?___flmul)),w
  4285  0498  0826               	movlb 2	; select bank2
  4286  0499  0142               	movwf	(_logf$786)^0100h
  4287  049A  00D2               
  4288                           	
  4289                           l2596:	
  4290  049B                     	movf	(logf@f+3)^0100h,w
  4291  049B  085D               	movlb 0	; select bank0
  4292  049C  0140               	movwf	(___flmul@b+3)
  4293  049D  00A9               	movlb 2	; select bank2
  4294  049E  0142               	movf	(logf@f+2)^0100h,w
  4295  049F  085C               	movlb 0	; select bank0
  4296  04A0  0140               	movwf	(___flmul@b+2)
  4297  04A1  00A8               	movlb 2	; select bank2
  4298  04A2  0142               	movf	(logf@f+1)^0100h,w
  4299  04A3  085B               	movlb 0	; select bank0
  4300  04A4  0140               	movwf	(___flmul@b+1)
  4301  04A5  00A7               	movlb 2	; select bank2
  4302  04A6  0142               	movf	(logf@f)^0100h,w
  4303  04A7  085A               	movlb 0	; select bank0
  4304  04A8  0140               	movwf	(___flmul@b)
  4305  04A9  00A6               
  4306                           	movlb 2	; select bank2
  4307  04AA  0142               	movf	(_logf$786+3)^0100h,w
  4308  04AB  0855               	movlb 0	; select bank0
  4309  04AC  0140               	movwf	(___flmul@a+3)
  4310  04AD  00AD               	movlb 2	; select bank2
  4311  04AE  0142               	movf	(_logf$786+2)^0100h,w
  4312  04AF  0854               	movlb 0	; select bank0
  4313  04B0  0140               	movwf	(___flmul@a+2)
  4314  04B1  00AC               	movlb 2	; select bank2
  4315  04B2  0142               	movf	(_logf$786+1)^0100h,w
  4316  04B3  0853               	movlb 0	; select bank0
  4317  04B4  0140               	movwf	(___flmul@a+1)
  4318  04B5  00AB               	movlb 2	; select bank2
  4319  04B6  0142               	movf	(_logf$786)^0100h,w
  4320  04B7  0852               	movlb 0	; select bank0
  4321  04B8  0140               	movwf	(___flmul@a)
  4322  04B9  00AA               
  4323                           	fcall	___flmul
  4324  04BA  318A  22C4  3180   	movlb 0	; select bank0
  4325  04BD  0140               	movf	(3+(?___flmul)),w
  4326  04BE  0829               	movlb 2	; select bank2
  4327  04BF  0142               	movwf	(logf@hfsq+3)^0100h
  4328  04C0  00C1               	movlb 0	; select bank0
  4329  04C1  0140               	movf	(2+(?___flmul)),w
  4330  04C2  0828               	movlb 2	; select bank2
  4331  04C3  0142               	movwf	(logf@hfsq+2)^0100h
  4332  04C4  00C0               	movlb 0	; select bank0
  4333  04C5  0140               	movf	(1+(?___flmul)),w
  4334  04C6  0827               	movlb 2	; select bank2
  4335  04C7  0142               	movwf	(logf@hfsq+1)^0100h
  4336  04C8  00BF               	movlb 0	; select bank0
  4337  04C9  0140               	movf	(0+(?___flmul)),w
  4338  04CA  0826               	movlb 2	; select bank2
  4339  04CB  0142               	movwf	(logf@hfsq)^0100h
  4340  04CC  00BE               
  4341                           	line	67
  4342                           	
  4343                           l2598:	
  4344  04CD                     	movf	(logf@k)^0100h,w
  4345  04CD  083C               	movwf	(___xxtofl@val)
  4346  04CE  00F2               	movf	(logf@k+1)^0100h,w
  4347  04CF  083D               	movwf	(___xxtofl@val+1)
  4348  04D0  00F3               	rlf	wreg,f
  4349  04D1  0D89               	subwfb	wreg,f
  4350  04D2  3B89               	comf	wreg,f
  4351  04D3  0989               	movwf	(___xxtofl@val+2)
  4352  04D4  00F4               	movwf	(___xxtofl@val+3)
  4353  04D5  00F5               	movlw	low(01h)
  4354  04D6  3001               	fcall	___xxtofl
  4355  04D7  3186  2652  3180   	movf	(3+(?___xxtofl)),w
  4356  04DA  0875               	movlb 2	; select bank2
  4357  04DB  0142               	movwf	(logf@dk+3)^0100h
  4358  04DC  00C5               	movf	(2+(?___xxtofl)),w
  4359  04DD  0874               	movwf	(logf@dk+2)^0100h
  4360  04DE  00C4               	movf	(1+(?___xxtofl)),w
  4361  04DF  0873               	movwf	(logf@dk+1)^0100h
  4362  04E0  00C3               	movf	(0+(?___xxtofl)),w
  4363  04E1  0872               	movwf	(logf@dk)^0100h
  4364  04E2  00C2               
  4365                           	line	68
  4366                           	
  4367                           l2600:	
  4368  04E3                     	movf	(logf@s+3)^0100h,w
  4369  04E3  0849               	movlb 0	; select bank0
  4370  04E4  0140               	movwf	(___flmul@b+3)
  4371  04E5  00A9               	movlb 2	; select bank2
  4372  04E6  0142               	movf	(logf@s+2)^0100h,w
  4373  04E7  0848               	movlb 0	; select bank0
  4374  04E8  0140               	movwf	(___flmul@b+2)
  4375  04E9  00A8               	movlb 2	; select bank2
  4376  04EA  0142               	movf	(logf@s+1)^0100h,w
  4377  04EB  0847               	movlb 0	; select bank0
  4378  04EC  0140               	movwf	(___flmul@b+1)
  4379  04ED  00A7               	movlb 2	; select bank2
  4380  04EE  0142               	movf	(logf@s)^0100h,w
  4381  04EF  0846               	movlb 0	; select bank0
  4382  04F0  0140               	movwf	(___flmul@b)
  4383  04F1  00A6               
  4384                           	movlb 2	; select bank2
  4385  04F2  0142               	movf	(logf@R+3)^0100h,w
  4386  04F3  0823               	movlb 0	; select bank0
  4387  04F4  0140               	movwf	(___fladd@b+3)
  4388  04F5  00DD               	movlb 2	; select bank2
  4389  04F6  0142               	movf	(logf@R+2)^0100h,w
  4390  04F7  0822               	movlb 0	; select bank0
  4391  04F8  0140               	movwf	(___fladd@b+2)
  4392  04F9  00DC               	movlb 2	; select bank2
  4393  04FA  0142               	movf	(logf@R+1)^0100h,w
  4394  04FB  0821               	movlb 0	; select bank0
  4395  04FC  0140               	movwf	(___fladd@b+1)
  4396  04FD  00DB               	movlb 2	; select bank2
  4397  04FE  0142               	movf	(logf@R)^0100h,w
  4398  04FF  0820               	movlb 0	; select bank0
  4399  0500  0140               	movwf	(___fladd@b)
  4400  0501  00DA               
  4401                           	movlb 2	; select bank2
  4402  0502  0142               	movf	(logf@hfsq+3)^0100h,w
  4403  0503  0841               	movlb 0	; select bank0
  4404  0504  0140               	movwf	(___fladd@a+3)
  4405  0505  00E1               	movlb 2	; select bank2
  4406  0506  0142               	movf	(logf@hfsq+2)^0100h,w
  4407  0507  0840               	movlb 0	; select bank0
  4408  0508  0140               	movwf	(___fladd@a+2)
  4409  0509  00E0               	movlb 2	; select bank2
  4410  050A  0142               	movf	(logf@hfsq+1)^0100h,w
  4411  050B  083F               	movlb 0	; select bank0
  4412  050C  0140               	movwf	(___fladd@a+1)
  4413  050D  00DF               	movlb 2	; select bank2
  4414  050E  0142               	movf	(logf@hfsq)^0100h,w
  4415  050F  083E               	movlb 0	; select bank0
  4416  0510  0140               	movwf	(___fladd@a)
  4417  0511  00DE               
  4418                           	fcall	___fladd
  4419  0512  318D  252F  3180   	movlb 0	; select bank0
  4420  0515  0140               	movf	(3+(?___fladd)),w
  4421  0516  085D               	movwf	(___flmul@a+3)
  4422  0517  00AD               	movf	(2+(?___fladd)),w
  4423  0518  085C               	movwf	(___flmul@a+2)
  4424  0519  00AC               	movf	(1+(?___fladd)),w
  4425  051A  085B               	movwf	(___flmul@a+1)
  4426  051B  00AB               	movf	(0+(?___fladd)),w
  4427  051C  085A               	movwf	(___flmul@a)
  4428  051D  00AA               
  4429                           	fcall	___flmul
  4430  051E  318A  22C4  3180   	movlb 0	; select bank0
  4431  0521  0140               	movf	(3+(?___flmul)),w
  4432  0522  0829               	movlb 2	; select bank2
  4433  0523  0142               	movwf	(_logf$787+3)^0100h
  4434  0524  00AF               	movlb 0	; select bank0
  4435  0525  0140               	movf	(2+(?___flmul)),w
  4436  0526  0828               	movlb 2	; select bank2
  4437  0527  0142               	movwf	(_logf$787+2)^0100h
  4438  0528  00AE               	movlb 0	; select bank0
  4439  0529  0140               	movf	(1+(?___flmul)),w
  4440  052A  0827               	movlb 2	; select bank2
  4441  052B  0142               	movwf	(_logf$787+1)^0100h
  4442  052C  00AD               	movlb 0	; select bank0
  4443  052D  0140               	movf	(0+(?___flmul)),w
  4444  052E  0826               	movlb 2	; select bank2
  4445  052F  0142               	movwf	(_logf$787)^0100h
  4446  0530  00AC               
  4447                           	
  4448                           l2602:	
  4449  0531                     	movlw	low(_ln2_lo|8000h)
  4450  0531  3010               	movwf	fsr0l
  4451  0532  0084               	movlw	high(_ln2_lo|8000h)
  4452  0533  3098               	movwf	fsr0h
  4453  0534  0085               	moviw	[0]fsr0
  4454  0535  3F00               	movlb 1	; select bank1
  4455  0536  0141               	movwf	((??_logf+0)^080h+0)
  4456  0537  00A8               	moviw	[1]fsr0
  4457  0538  3F01               	movwf	((??_logf+0)^080h+0+1)
  4458  0539  00A9               	moviw	[2]fsr0
  4459  053A  3F02               	movwf	((??_logf+0)^080h+0+2)
  4460  053B  00AA               	moviw	[3]fsr0
  4461  053C  3F03               	movwf	((??_logf+0)^080h+0+3)
  4462  053D  00AB               	movf	3+(??_logf+0)^080h+0,w
  4463  053E  082B               	movlb 0	; select bank0
  4464  053F  0140               	movwf	(___flmul@b+3)
  4465  0540  00A9               	movlb 1	; select bank1
  4466  0541  0141               	movf	2+(??_logf+0)^080h+0,w
  4467  0542  082A               	movlb 0	; select bank0
  4468  0543  0140               	movwf	(___flmul@b+2)
  4469  0544  00A8               	movlb 1	; select bank1
  4470  0545  0141               	movf	1+(??_logf+0)^080h+0,w
  4471  0546  0829               	movlb 0	; select bank0
  4472  0547  0140               	movwf	(___flmul@b+1)
  4473  0548  00A7               	movlb 1	; select bank1
  4474  0549  0141               	movf	0+(??_logf+0)^080h+0,w
  4475  054A  0828               	movlb 0	; select bank0
  4476  054B  0140               	movwf	(___flmul@b)
  4477  054C  00A6               
  4478                           	movlb 2	; select bank2
  4479  054D  0142               	movf	(logf@dk+3)^0100h,w
  4480  054E  0845               	movlb 0	; select bank0
  4481  054F  0140               	movwf	(___flmul@a+3)
  4482  0550  00AD               	movlb 2	; select bank2
  4483  0551  0142               	movf	(logf@dk+2)^0100h,w
  4484  0552  0844               	movlb 0	; select bank0
  4485  0553  0140               	movwf	(___flmul@a+2)
  4486  0554  00AC               	movlb 2	; select bank2
  4487  0555  0142               	movf	(logf@dk+1)^0100h,w
  4488  0556  0843               	movlb 0	; select bank0
  4489  0557  0140               	movwf	(___flmul@a+1)
  4490  0558  00AB               	movlb 2	; select bank2
  4491  0559  0142               	movf	(logf@dk)^0100h,w
  4492  055A  0842               	movlb 0	; select bank0
  4493  055B  0140               	movwf	(___flmul@a)
  4494  055C  00AA               
  4495                           	fcall	___flmul
  4496  055D  318A  22C4  3180   	movlb 0	; select bank0
  4497  0560  0140               	movf	(3+(?___flmul)),w
  4498  0561  0829               	movwf	(___fladd@b+3)
  4499  0562  00DD               	movf	(2+(?___flmul)),w
  4500  0563  0828               	movwf	(___fladd@b+2)
  4501  0564  00DC               	movf	(1+(?___flmul)),w
  4502  0565  0827               	movwf	(___fladd@b+1)
  4503  0566  00DB               	movf	(0+(?___flmul)),w
  4504  0567  0826               	movwf	(___fladd@b)
  4505  0568  00DA               
  4506                           	movlb 2	; select bank2
  4507  0569  0142               	movf	(_logf$787+3)^0100h,w
  4508  056A  082F               	movlb 0	; select bank0
  4509  056B  0140               	movwf	(___fladd@a+3)
  4510  056C  00E1               	movlb 2	; select bank2
  4511  056D  0142               	movf	(_logf$787+2)^0100h,w
  4512  056E  082E               	movlb 0	; select bank0
  4513  056F  0140               	movwf	(___fladd@a+2)
  4514  0570  00E0               	movlb 2	; select bank2
  4515  0571  0142               	movf	(_logf$787+1)^0100h,w
  4516  0572  082D               	movlb 0	; select bank0
  4517  0573  0140               	movwf	(___fladd@a+1)
  4518  0574  00DF               	movlb 2	; select bank2
  4519  0575  0142               	movf	(_logf$787)^0100h,w
  4520  0576  082C               	movlb 0	; select bank0
  4521  0577  0140               	movwf	(___fladd@a)
  4522  0578  00DE               
  4523                           	fcall	___fladd
  4524  0579  318D  252F  3180   	movlb 0	; select bank0
  4525  057C  0140               	movf	(3+(?___fladd)),w
  4526  057D  085D               	movlb 2	; select bank2
  4527  057E  0142               	movwf	(_logf$788+3)^0100h
  4528  057F  00B3               	movlb 0	; select bank0
  4529  0580  0140               	movf	(2+(?___fladd)),w
  4530  0581  085C               	movlb 2	; select bank2
  4531  0582  0142               	movwf	(_logf$788+2)^0100h
  4532  0583  00B2               	movlb 0	; select bank0
  4533  0584  0140               	movf	(1+(?___fladd)),w
  4534  0585  085B               	movlb 2	; select bank2
  4535  0586  0142               	movwf	(_logf$788+1)^0100h
  4536  0587  00B1               	movlb 0	; select bank0
  4537  0588  0140               	movf	(0+(?___fladd)),w
  4538  0589  085A               	movlb 2	; select bank2
  4539  058A  0142               	movwf	(_logf$788)^0100h
  4540  058B  00B0               
  4541                           	
  4542                           l2604:	
  4543  058C                     	movf	(logf@hfsq+3)^0100h,w
  4544  058C  0841               	movwf	(___flneg@f1+3)
  4545  058D  00F5               	movf	(logf@hfsq+2)^0100h,w
  4546  058E  0840               	movwf	(___flneg@f1+2)
  4547  058F  00F4               	movf	(logf@hfsq+1)^0100h,w
  4548  0590  083F               	movwf	(___flneg@f1+1)
  4549  0591  00F3               	movf	(logf@hfsq)^0100h,w
  4550  0592  083E               	movwf	(___flneg@f1)
  4551  0593  00F2               
  4552                           	fcall	___flneg
  4553  0594  3195  25E0  3180   	movf	(3+(?___flneg)),w
  4554  0597  0875               	movlb 0	; select bank0
  4555  0598  0140               	movwf	(___fladd@b+3)
  4556  0599  00DD               	movf	(2+(?___flneg)),w
  4557  059A  0874               	movwf	(___fladd@b+2)
  4558  059B  00DC               	movf	(1+(?___flneg)),w
  4559  059C  0873               	movwf	(___fladd@b+1)
  4560  059D  00DB               	movf	(0+(?___flneg)),w
  4561  059E  0872               	movwf	(___fladd@b)
  4562  059F  00DA               
  4563                           	movlb 2	; select bank2
  4564  05A0  0142               	movf	(_logf$788+3)^0100h,w
  4565  05A1  0833               	movlb 0	; select bank0
  4566  05A2  0140               	movwf	(___fladd@a+3)
  4567  05A3  00E1               	movlb 2	; select bank2
  4568  05A4  0142               	movf	(_logf$788+2)^0100h,w
  4569  05A5  0832               	movlb 0	; select bank0
  4570  05A6  0140               	movwf	(___fladd@a+2)
  4571  05A7  00E0               	movlb 2	; select bank2
  4572  05A8  0142               	movf	(_logf$788+1)^0100h,w
  4573  05A9  0831               	movlb 0	; select bank0
  4574  05AA  0140               	movwf	(___fladd@a+1)
  4575  05AB  00DF               	movlb 2	; select bank2
  4576  05AC  0142               	movf	(_logf$788)^0100h,w
  4577  05AD  0830               	movlb 0	; select bank0
  4578  05AE  0140               	movwf	(___fladd@a)
  4579  05AF  00DE               
  4580                           	fcall	___fladd
  4581  05B0  318D  252F  3180   	movlb 0	; select bank0
  4582  05B3  0140               	movf	(3+(?___fladd)),w
  4583  05B4  085D               	movlb 2	; select bank2
  4584  05B5  0142               	movwf	(_logf$789+3)^0100h
  4585  05B6  00B7               	movlb 0	; select bank0
  4586  05B7  0140               	movf	(2+(?___fladd)),w
  4587  05B8  085C               	movlb 2	; select bank2
  4588  05B9  0142               	movwf	(_logf$789+2)^0100h
  4589  05BA  00B6               	movlb 0	; select bank0
  4590  05BB  0140               	movf	(1+(?___fladd)),w
  4591  05BC  085B               	movlb 2	; select bank2
  4592  05BD  0142               	movwf	(_logf$789+1)^0100h
  4593  05BE  00B5               	movlb 0	; select bank0
  4594  05BF  0140               	movf	(0+(?___fladd)),w
  4595  05C0  085A               	movlb 2	; select bank2
  4596  05C1  0142               	movwf	(_logf$789)^0100h
  4597  05C2  00B4               
  4598                           	
  4599                           l2606:	
  4600  05C3                     	movf	(logf@f+3)^0100h,w
  4601  05C3  085D               	movlb 0	; select bank0
  4602  05C4  0140               	movwf	(___fladd@b+3)
  4603  05C5  00DD               	movlb 2	; select bank2
  4604  05C6  0142               	movf	(logf@f+2)^0100h,w
  4605  05C7  085C               	movlb 0	; select bank0
  4606  05C8  0140               	movwf	(___fladd@b+2)
  4607  05C9  00DC               	movlb 2	; select bank2
  4608  05CA  0142               	movf	(logf@f+1)^0100h,w
  4609  05CB  085B               	movlb 0	; select bank0
  4610  05CC  0140               	movwf	(___fladd@b+1)
  4611  05CD  00DB               	movlb 2	; select bank2
  4612  05CE  0142               	movf	(logf@f)^0100h,w
  4613  05CF  085A               	movlb 0	; select bank0
  4614  05D0  0140               	movwf	(___fladd@b)
  4615  05D1  00DA               
  4616                           	movlb 2	; select bank2
  4617  05D2  0142               	movf	(_logf$789+3)^0100h,w
  4618  05D3  0837               	movlb 0	; select bank0
  4619  05D4  0140               	movwf	(___fladd@a+3)
  4620  05D5  00E1               	movlb 2	; select bank2
  4621  05D6  0142               	movf	(_logf$789+2)^0100h,w
  4622  05D7  0836               	movlb 0	; select bank0
  4623  05D8  0140               	movwf	(___fladd@a+2)
  4624  05D9  00E0               	movlb 2	; select bank2
  4625  05DA  0142               	movf	(_logf$789+1)^0100h,w
  4626  05DB  0835               	movlb 0	; select bank0
  4627  05DC  0140               	movwf	(___fladd@a+1)
  4628  05DD  00DF               	movlb 2	; select bank2
  4629  05DE  0142               	movf	(_logf$789)^0100h,w
  4630  05DF  0834               	movlb 0	; select bank0
  4631  05E0  0140               	movwf	(___fladd@a)
  4632  05E1  00DE               
  4633                           	fcall	___fladd
  4634  05E2  318D  252F  3180   	movlb 0	; select bank0
  4635  05E5  0140               	movf	(3+(?___fladd)),w
  4636  05E6  085D               	movlb 2	; select bank2
  4637  05E7  0142               	movwf	(_logf$790+3)^0100h
  4638  05E8  00BB               	movlb 0	; select bank0
  4639  05E9  0140               	movf	(2+(?___fladd)),w
  4640  05EA  085C               	movlb 2	; select bank2
  4641  05EB  0142               	movwf	(_logf$790+2)^0100h
  4642  05EC  00BA               	movlb 0	; select bank0
  4643  05ED  0140               	movf	(1+(?___fladd)),w
  4644  05EE  085B               	movlb 2	; select bank2
  4645  05EF  0142               	movwf	(_logf$790+1)^0100h
  4646  05F0  00B9               	movlb 0	; select bank0
  4647  05F1  0140               	movf	(0+(?___fladd)),w
  4648  05F2  085A               	movlb 2	; select bank2
  4649  05F3  0142               	movwf	(_logf$790)^0100h
  4650  05F4  00B8               
  4651                           	
  4652                           l2608:	
  4653  05F5                     	movlw	low(_ln2_hi|8000h)
  4654  05F5  3014               	movwf	fsr0l
  4655  05F6  0084               	movlw	high(_ln2_hi|8000h)
  4656  05F7  3098               	movwf	fsr0h
  4657  05F8  0085               	moviw	[0]fsr0
  4658  05F9  3F00               	movlb 1	; select bank1
  4659  05FA  0141               	movwf	((??_logf+0)^080h+0)
  4660  05FB  00A8               	moviw	[1]fsr0
  4661  05FC  3F01               	movwf	((??_logf+0)^080h+0+1)
  4662  05FD  00A9               	moviw	[2]fsr0
  4663  05FE  3F02               	movwf	((??_logf+0)^080h+0+2)
  4664  05FF  00AA               	moviw	[3]fsr0
  4665  0600  3F03               	movwf	((??_logf+0)^080h+0+3)
  4666  0601  00AB               	movf	3+(??_logf+0)^080h+0,w
  4667  0602  082B               	movlb 0	; select bank0
  4668  0603  0140               	movwf	(___flmul@b+3)
  4669  0604  00A9               	movlb 1	; select bank1
  4670  0605  0141               	movf	2+(??_logf+0)^080h+0,w
  4671  0606  082A               	movlb 0	; select bank0
  4672  0607  0140               	movwf	(___flmul@b+2)
  4673  0608  00A8               	movlb 1	; select bank1
  4674  0609  0141               	movf	1+(??_logf+0)^080h+0,w
  4675  060A  0829               	movlb 0	; select bank0
  4676  060B  0140               	movwf	(___flmul@b+1)
  4677  060C  00A7               	movlb 1	; select bank1
  4678  060D  0141               	movf	0+(??_logf+0)^080h+0,w
  4679  060E  0828               	movlb 0	; select bank0
  4680  060F  0140               	movwf	(___flmul@b)
  4681  0610  00A6               
  4682                           	movlb 2	; select bank2
  4683  0611  0142               	movf	(logf@dk+3)^0100h,w
  4684  0612  0845               	movlb 0	; select bank0
  4685  0613  0140               	movwf	(___flmul@a+3)
  4686  0614  00AD               	movlb 2	; select bank2
  4687  0615  0142               	movf	(logf@dk+2)^0100h,w
  4688  0616  0844               	movlb 0	; select bank0
  4689  0617  0140               	movwf	(___flmul@a+2)
  4690  0618  00AC               	movlb 2	; select bank2
  4691  0619  0142               	movf	(logf@dk+1)^0100h,w
  4692  061A  0843               	movlb 0	; select bank0
  4693  061B  0140               	movwf	(___flmul@a+1)
  4694  061C  00AB               	movlb 2	; select bank2
  4695  061D  0142               	movf	(logf@dk)^0100h,w
  4696  061E  0842               	movlb 0	; select bank0
  4697  061F  0140               	movwf	(___flmul@a)
  4698  0620  00AA               
  4699                           	fcall	___flmul
  4700  0621  318A  22C4  3180   	movlb 0	; select bank0
  4701  0624  0140               	movf	(3+(?___flmul)),w
  4702  0625  0829               	movwf	(___fladd@b+3)
  4703  0626  00DD               	movf	(2+(?___flmul)),w
  4704  0627  0828               	movwf	(___fladd@b+2)
  4705  0628  00DC               	movf	(1+(?___flmul)),w
  4706  0629  0827               	movwf	(___fladd@b+1)
  4707  062A  00DB               	movf	(0+(?___flmul)),w
  4708  062B  0826               	movwf	(___fladd@b)
  4709  062C  00DA               
  4710                           	movlb 2	; select bank2
  4711  062D  0142               	movf	(_logf$790+3)^0100h,w
  4712  062E  083B               	movlb 0	; select bank0
  4713  062F  0140               	movwf	(___fladd@a+3)
  4714  0630  00E1               	movlb 2	; select bank2
  4715  0631  0142               	movf	(_logf$790+2)^0100h,w
  4716  0632  083A               	movlb 0	; select bank0
  4717  0633  0140               	movwf	(___fladd@a+2)
  4718  0634  00E0               	movlb 2	; select bank2
  4719  0635  0142               	movf	(_logf$790+1)^0100h,w
  4720  0636  0839               	movlb 0	; select bank0
  4721  0637  0140               	movwf	(___fladd@a+1)
  4722  0638  00DF               	movlb 2	; select bank2
  4723  0639  0142               	movf	(_logf$790)^0100h,w
  4724  063A  0838               	movlb 0	; select bank0
  4725  063B  0140               	movwf	(___fladd@a)
  4726  063C  00DE               
  4727                           	fcall	___fladd
  4728  063D  318D  252F  3180   	movlb 0	; select bank0
  4729  0640  0140               	movf	(3+(?___fladd)),w
  4730  0641  085D               	movlb 1	; select bank1
  4731  0642  0141               	movwf	(?_logf+3)^080h
  4732  0643  00A7               	movlb 0	; select bank0
  4733  0644  0140               	movf	(2+(?___fladd)),w
  4734  0645  085C               	movlb 1	; select bank1
  4735  0646  0141               	movwf	(?_logf+2)^080h
  4736  0647  00A6               	movlb 0	; select bank0
  4737  0648  0140               	movf	(1+(?___fladd)),w
  4738  0649  085B               	movlb 1	; select bank1
  4739  064A  0141               	movwf	(?_logf+1)^080h
  4740  064B  00A5               	movlb 0	; select bank0
  4741  064C  0140               	movf	(0+(?___fladd)),w
  4742  064D  085A               	movlb 1	; select bank1
  4743  064E  0141               	movwf	(?_logf)^080h
  4744  064F  00A4               
  4745                           	goto	l635
  4746  0650  2E51               	
  4747                           l2610:	
  4748  0651                     	line	69
  4749                           	
  4750                           l635:	
  4751  0651                     	return
  4752  0651  0008               	opt stack 0
  4753                           GLOBAL	__end_of_logf
  4754                           	__end_of_logf:
  4755  0652                     	signat	_logf,4220
  4756                           	global	___xxtofl
  4757                           
  4758 ;; *************** function ___xxtofl *****************
  4759 ;; Defined at:
  4760 ;;		line 10 in file "C:\Program Files (x86)\Microchip\xc8\v2.00\pic\sources\c99\common\xxtofl.c"
  4761 ;; Parameters:    Size  Location     Type
  4762 ;;  sign            1    wreg     unsigned char 
  4763 ;;  val             4    2[COMMON] long 
  4764 ;; Auto vars:     Size  Location     Type
  4765 ;;  sign            1    0[BANK0 ] unsigned char 
  4766 ;;  arg             4    2[BANK0 ] unsigned long 
  4767 ;;  exp             1    1[BANK0 ] unsigned char 
  4768 ;; Return value:  Size  Location     Type
  4769 ;;                  4    2[COMMON] unsigned char 
  4770 ;; Registers used:
  4771 ;;		wreg, status,2, status,0
  4772 ;; Tracked objects:
  4773 ;;		On entry : 0/0
  4774 ;;		On exit  : 0/0
  4775 ;;		Unchanged: 0/0
  4776 ;; Data sizes:     COMMON   BANK0   BANK1   BANK2   BANK3   BANK4   BANK5   BANK6   BANK7   BANK8   BANK9  BANK10  BANK1
       1  BANK12
  4777 ;;      Params:         4       0       0       0       0       0       0       0       0       0       0       0       
       0       0
  4778 ;;      Locals:         0       6       0       0       0       0       0       0       0       0       0       0       
       0       0
  4779 ;;      Temps:          4       0       0       0       0       0       0       0       0       0       0       0       
       0       0
  4780 ;;      Totals:         8       6       0       0       0       0       0       0       0       0       0       0       
       0       0
  4781 ;;Total ram usage:       14 bytes
  4782 ;; Hardware stack levels used:    1
  4783 ;; Hardware stack levels required when called:    2
  4784 ;; This function calls:
  4785 ;;		Nothing
  4786 ;; This function is called by:
  4787 ;;		_readSI7006
  4788 ;;		_logf
  4789 ;; This function uses a non-reentrant model
  4790 ;;
  4791                           psect	text4,local,class=CODE,delta=2,merge=1,group=1
  4792                           	file	"C:\Program Files (x86)\Microchip\xc8\v2.00\pic\sources\c99\common\xxtofl.c"
  4793                           	line	10
  4794                           global __ptext4
  4795                           __ptext4:	;psect for function ___xxtofl
  4796  0652                     psect	text4
  4797                           	file	"C:\Program Files (x86)\Microchip\xc8\v2.00\pic\sources\c99\common\xxtofl.c"
  4798                           	line	10
  4799                           	global	__size_of___xxtofl
  4800                           	__size_of___xxtofl	equ	__end_of___xxtofl-___xxtofl
  4801  00B5                     	
  4802                           ___xxtofl:	
  4803  0652                     ;incstack = 0
  4804                           	opt	stack 11
  4805                           ; Regs used in ___xxtofl: [wreg+status,2+status,0]
  4806                           ;___xxtofl@sign stored from wreg
  4807                           	movlb 0	; select bank0
  4808  0652  0140               	movwf	(___xxtofl@sign)
  4809  0653  00A0               	line	15
  4810                           	
  4811                           l2006:	
  4812  0654                     	movf	((___xxtofl@sign)),w
  4813  0654  0820               	btfsc	status,2
  4814  0655  1903               	goto	u2591
  4815  0656  2E58               	goto	u2590
  4816  0657  2E59               u2591:
  4817  0658                     	goto	l2012
  4818  0658  2E6D               u2590:
  4819  0659                     	
  4820                           l2008:	
  4821  0659                     	btfss	(___xxtofl@val+3),7
  4822  0659  1FF5               	goto	u2601
  4823  065A  2E5C               	goto	u2600
  4824  065B  2E5D               u2601:
  4825  065C                     	goto	l2012
  4826  065C  2E6D               u2600:
  4827  065D                     	line	16
  4828                           	
  4829                           l2010:	
  4830  065D                     	comf	(___xxtofl@val)+0,w
  4831  065D  0972               	movwf	(___xxtofl@arg)
  4832  065E  00A2               	comf	(___xxtofl@val)+1,w
  4833  065F  0973               	movwf	(___xxtofl@arg+1)
  4834  0660  00A3               	comf	(___xxtofl@val)+2,w
  4835  0661  0974               	movwf	(___xxtofl@arg+2)
  4836  0662  00A4               	comf	(___xxtofl@val)+3,w
  4837  0663  0975               	movwf	(___xxtofl@arg+3)
  4838  0664  00A5               	incf	(___xxtofl@arg),f
  4839  0665  0AA2               	skipnz
  4840  0666  1903               	incf	(___xxtofl@arg+1),f
  4841  0667  0AA3               	skipnz
  4842  0668  1903               	incf	(___xxtofl@arg+2),f
  4843  0669  0AA4               	skipnz
  4844  066A  1903               	incf	(___xxtofl@arg+3),f
  4845  066B  0AA5               	line	17
  4846                           	goto	l599
  4847  066C  2E75               	line	18
  4848                           	
  4849                           l598:	
  4850  066D                     	line	19
  4851                           	
  4852                           l2012:	
  4853  066D                     	movf	(___xxtofl@val+3),w
  4854  066D  0875               	movwf	(___xxtofl@arg+3)
  4855  066E  00A5               	movf	(___xxtofl@val+2),w
  4856  066F  0874               	movwf	(___xxtofl@arg+2)
  4857  0670  00A4               	movf	(___xxtofl@val+1),w
  4858  0671  0873               	movwf	(___xxtofl@arg+1)
  4859  0672  00A3               	movf	(___xxtofl@val),w
  4860  0673  0872               	movwf	(___xxtofl@arg)
  4861  0674  00A2               
  4862                           	line	20
  4863                           	
  4864                           l599:	
  4865  0675                     	line	21
  4866                           	movf	(___xxtofl@val+3),w
  4867  0675  0875               	iorwf	(___xxtofl@val+2),w
  4868  0676  0474               	iorwf	(___xxtofl@val+1),w
  4869  0677  0473               	iorwf	(___xxtofl@val),w
  4870  0678  0472               	skipz
  4871  0679  1D03               	goto	u2611
  4872  067A  2E7C               	goto	u2610
  4873  067B  2E7D               u2611:
  4874  067C                     	goto	l2018
  4875  067C  2E87               u2610:
  4876  067D                     	line	22
  4877                           	
  4878                           l2014:	
  4879  067D                     	movlw	0x0
  4880  067D  3000               	movwf	(?___xxtofl+3)
  4881  067E  00F5               	movlw	0x0
  4882  067F  3000               	movwf	(?___xxtofl+2)
  4883  0680  00F4               	movlw	0x0
  4884  0681  3000               	movwf	(?___xxtofl+1)
  4885  0682  00F3               	movlw	0x0
  4886  0683  3000               	movwf	(?___xxtofl)
  4887  0684  00F2               
  4888                           	goto	l601
  4889  0685  2F06               	
  4890                           l2016:	
  4891  0686                     	goto	l601
  4892  0686  2F06               	
  4893                           l600:	
  4894  0687                     	line	23
  4895                           	
  4896                           l2018:	
  4897  0687                     	movlw	low(096h)
  4898  0687  3096               	movwf	(??___xxtofl+0)+0
  4899  0688  00F6               	movf	(??___xxtofl+0)+0,w
  4900  0689  0876               	movwf	(___xxtofl@exp)
  4901  068A  00A1               	line	24
  4902                           	goto	l2022
  4903  068B  2E98               	
  4904                           l603:	
  4905  068C                     	line	25
  4906                           	
  4907                           l2020:	
  4908  068C                     	movlw	low(01h)
  4909  068C  3001               	movwf	(??___xxtofl+0)+0
  4910  068D  00F6               	movf	(??___xxtofl+0)+0,w
  4911  068E  0876               	addwf	(___xxtofl@exp),f
  4912  068F  07A1               	line	26
  4913                           	movlw	01h
  4914  0690  3001               u2625:
  4915  0691                     	lsrf	(___xxtofl@arg+3),f
  4916  0691  36A5               	rrf	(___xxtofl@arg+2),f
  4917  0692  0CA4               	rrf	(___xxtofl@arg+1),f
  4918  0693  0CA3               	rrf	(___xxtofl@arg),f
  4919  0694  0CA2               	decfsz	wreg,f
  4920  0695  0B89               	goto	u2625
  4921  0696  2E91               
  4922                           	goto	l2022
  4923  0697  2E98               	line	27
  4924                           	
  4925                           l602:	
  4926  0698                     	line	24
  4927                           	
  4928                           l2022:	
  4929  0698                     	movlw	high highword(0FE000000h)
  4930  0698  30FE               	andwf	(___xxtofl@arg+3),w
  4931  0699  0525               	btfss	status,2
  4932  069A  1D03               	goto	u2631
  4933  069B  2E9D               	goto	u2630
  4934  069C  2E9E               u2631:
  4935  069D                     	goto	l2020
  4936  069D  2E8C               u2630:
  4937  069E                     	goto	l605
  4938  069E  2EB3               	
  4939                           l604:	
  4940  069F                     	line	28
  4941                           	goto	l605
  4942  069F  2EB3               	
  4943                           l606:	
  4944  06A0                     	line	29
  4945                           	
  4946                           l2024:	
  4947  06A0                     	movlw	low(01h)
  4948  06A0  3001               	movwf	(??___xxtofl+0)+0
  4949  06A1  00F6               	movf	(??___xxtofl+0)+0,w
  4950  06A2  0876               	addwf	(___xxtofl@exp),f
  4951  06A3  07A1               	line	30
  4952                           	
  4953                           l2026:	
  4954  06A4                     	movlw	01h
  4955  06A4  3001               	addwf	(___xxtofl@arg),f
  4956  06A5  07A2               	movlw	0
  4957  06A6  3000               	addwfc	(___xxtofl@arg+1),f
  4958  06A7  3DA3               	movlw	0
  4959  06A8  3000               	addwfc	(___xxtofl@arg+2),f
  4960  06A9  3DA4               	movlw	0
  4961  06AA  3000               	addwfc	(___xxtofl@arg+3),f
  4962  06AB  3DA5               	line	31
  4963                           	
  4964                           l2028:	
  4965  06AC                     	movlw	01h
  4966  06AC  3001               u2645:
  4967  06AD                     	lsrf	(___xxtofl@arg+3),f
  4968  06AD  36A5               	rrf	(___xxtofl@arg+2),f
  4969  06AE  0CA4               	rrf	(___xxtofl@arg+1),f
  4970  06AF  0CA3               	rrf	(___xxtofl@arg),f
  4971  06B0  0CA2               	decfsz	wreg,f
  4972  06B1  0B89               	goto	u2645
  4973  06B2  2EAD               
  4974                           	line	32
  4975                           	
  4976                           l605:	
  4977  06B3                     	line	28
  4978                           	movlw	high highword(0FF000000h)
  4979  06B3  30FF               	andwf	(___xxtofl@arg+3),w
  4980  06B4  0525               	btfss	status,2
  4981  06B5  1D03               	goto	u2651
  4982  06B6  2EB8               	goto	u2650
  4983  06B7  2EB9               u2651:
  4984  06B8                     	goto	l2024
  4985  06B8  2EA0               u2650:
  4986  06B9                     	goto	l2032
  4987  06B9  2EC5               	
  4988                           l607:	
  4989  06BA                     	line	33
  4990                           	goto	l2032
  4991  06BA  2EC5               	
  4992                           l609:	
  4993  06BB                     	line	34
  4994                           	
  4995                           l2030:	
  4996  06BB                     	movlw	01h
  4997  06BB  3001               	subwf	(___xxtofl@exp),f
  4998  06BC  02A1               	line	35
  4999                           	movlw	01h
  5000  06BD  3001               u2665:
  5001  06BE                     	lslf	(___xxtofl@arg),f
  5002  06BE  35A2               	rlf	(___xxtofl@arg+1),f
  5003  06BF  0DA3               	rlf	(___xxtofl@arg+2),f
  5004  06C0  0DA4               	rlf	(___xxtofl@arg+3),f
  5005  06C1  0DA5               	decfsz	wreg,f
  5006  06C2  0B89               	goto	u2665
  5007  06C3  2EBE               	goto	l2032
  5008  06C4  2EC5               	line	36
  5009                           	
  5010                           l608:	
  5011  06C5                     	line	33
  5012                           	
  5013                           l2032:	
  5014  06C5                     	btfsc	(___xxtofl@arg+2),(23)&7
  5015  06C5  1BA4               	goto	u2671
  5016  06C6  2EC8               	goto	u2670
  5017  06C7  2EC9               u2671:
  5018  06C8                     	goto	l612
  5019  06C8  2ED0               u2670:
  5020  06C9                     	
  5021                           l2034:	
  5022  06C9                     	movlw	low(02h)
  5023  06C9  3002               	subwf	(___xxtofl@exp),w
  5024  06CA  0221               	skipnc
  5025  06CB  1803               	goto	u2681
  5026  06CC  2ECE               	goto	u2680
  5027  06CD  2ECF               u2681:
  5028  06CE                     	goto	l2030
  5029  06CE  2EBB               u2680:
  5030  06CF                     	goto	l612
  5031  06CF  2ED0               	
  5032                           l611:	
  5033  06D0                     	
  5034                           l612:	
  5035  06D0                     	line	37
  5036                           	btfsc	(___xxtofl@exp),(0)&7
  5037  06D0  1821               	goto	u2691
  5038  06D1  2ED3               	goto	u2690
  5039  06D2  2ED4               u2691:
  5040  06D3                     	goto	l613
  5041  06D3  2EDC               u2690:
  5042  06D4                     	line	38
  5043                           	
  5044                           l2036:	
  5045  06D4                     	movlw	0FFh
  5046  06D4  30FF               	andwf	(___xxtofl@arg),f
  5047  06D5  05A2               	movlw	0FFh
  5048  06D6  30FF               	andwf	(___xxtofl@arg+1),f
  5049  06D7  05A3               	movlw	07Fh
  5050  06D8  307F               	andwf	(___xxtofl@arg+2),f
  5051  06D9  05A4               	movlw	0FFh
  5052  06DA  30FF               	andwf	(___xxtofl@arg+3),f
  5053  06DB  05A5               	
  5054                           l613:	
  5055  06DC                     	line	39
  5056                           	clrc
  5057  06DC  1003               	rrf	(___xxtofl@exp),f
  5058  06DD  0CA1               
  5059                           	line	40
  5060                           	
  5061                           l2038:	
  5062  06DE                     	movf	(___xxtofl@exp),w
  5063  06DE  0821               	movwf	(??___xxtofl+0)+0
  5064  06DF  00F6               	clrf	(??___xxtofl+0)+0+1
  5065  06E0  01F7               	clrf	(??___xxtofl+0)+0+2
  5066  06E1  01F8               	clrf	(??___xxtofl+0)+0+3
  5067  06E2  01F9               	movlw	018h
  5068  06E3  3018               u2705:
  5069  06E4                     	lslf	(??___xxtofl+0)+0,f
  5070  06E4  35F6               	rlf	(??___xxtofl+0)+1,f
  5071  06E5  0DF7               	rlf	(??___xxtofl+0)+2,f
  5072  06E6  0DF8               	rlf	(??___xxtofl+0)+3,f
  5073  06E7  0DF9               u2700:
  5074  06E8                     	decfsz	wreg,f
  5075  06E8  0B89               	goto	u2705
  5076  06E9  2EE4               	movf	0+(??___xxtofl+0)+0,w
  5077  06EA  0876               	iorwf	(___xxtofl@arg),f
  5078  06EB  04A2               	movf	1+(??___xxtofl+0)+0,w
  5079  06EC  0877               	iorwf	(___xxtofl@arg+1),f
  5080  06ED  04A3               	movf	2+(??___xxtofl+0)+0,w
  5081  06EE  0878               	iorwf	(___xxtofl@arg+2),f
  5082  06EF  04A4               	movf	3+(??___xxtofl+0)+0,w
  5083  06F0  0879               	iorwf	(___xxtofl@arg+3),f
  5084  06F1  04A5               	line	41
  5085                           	
  5086                           l2040:	
  5087  06F2                     	movf	((___xxtofl@sign)),w
  5088  06F2  0820               	btfsc	status,2
  5089  06F3  1903               	goto	u2711
  5090  06F4  2EF6               	goto	u2710
  5091  06F5  2EF7               u2711:
  5092  06F6                     	goto	l2046
  5093  06F6  2EFD               u2710:
  5094  06F7                     	
  5095                           l2042:	
  5096  06F7                     	btfss	(___xxtofl@val+3),7
  5097  06F7  1FF5               	goto	u2721
  5098  06F8  2EFA               	goto	u2720
  5099  06F9  2EFB               u2721:
  5100  06FA                     	goto	l2046
  5101  06FA  2EFD               u2720:
  5102  06FB                     	line	42
  5103                           	
  5104                           l2044:	
  5105  06FB                     	bsf	(___xxtofl@arg)+(31/8),(31)&7
  5106  06FB  17A5               	goto	l2046
  5107  06FC  2EFD               	
  5108                           l614:	
  5109  06FD                     	line	43
  5110                           	
  5111                           l2046:	
  5112  06FD                     	movf	(___xxtofl@arg+3),w
  5113  06FD  0825               	movwf	(?___xxtofl+3)
  5114  06FE  00F5               	movf	(___xxtofl@arg+2),w
  5115  06FF  0824               	movwf	(?___xxtofl+2)
  5116  0700  00F4               	movf	(___xxtofl@arg+1),w
  5117  0701  0823               	movwf	(?___xxtofl+1)
  5118  0702  00F3               	movf	(___xxtofl@arg),w
  5119  0703  0822               	movwf	(?___xxtofl)
  5120  0704  00F2               
  5121                           	goto	l601
  5122  0705  2F06               	
  5123                           l2048:	
  5124  0706                     	line	44
  5125                           	
  5126                           l601:	
  5127  0706                     	return
  5128  0706  0008               	opt stack 0
  5129                           GLOBAL	__end_of___xxtofl
  5130                           	__end_of___xxtofl:
  5131  0707                     	signat	___xxtofl,8316
  5132                           	global	___flneg
  5133                           
  5134 ;; *************** function ___flneg *****************
  5135 ;; Defined at:
  5136 ;;		line 15 in file "C:\Program Files (x86)\Microchip\xc8\v2.00\pic\sources\c99\common\flneg.c"
  5137 ;; Parameters:    Size  Location     Type
  5138 ;;  f1              4    2[COMMON] unsigned char 
  5139 ;; Auto vars:     Size  Location     Type
  5140 ;;		None
  5141 ;; Return value:  Size  Location     Type
  5142 ;;                  4    2[COMMON] unsigned char 
  5143 ;; Registers used:
  5144 ;;		wreg
  5145 ;; Tracked objects:
  5146 ;;		On entry : 0/0
  5147 ;;		On exit  : 0/0
  5148 ;;		Unchanged: 0/0
  5149 ;; Data sizes:     COMMON   BANK0   BANK1   BANK2   BANK3   BANK4   BANK5   BANK6   BANK7   BANK8   BANK9  BANK10  BANK1
       1  BANK12
  5150 ;;      Params:         4       0       0       0       0       0       0       0       0       0       0       0       
       0       0
  5151 ;;      Locals:         0       0       0       0       0       0       0       0       0       0       0       0       
       0       0
  5152 ;;      Temps:          0       0       0       0       0       0       0       0       0       0       0       0       
       0       0
  5153 ;;      Totals:         4       0       0       0       0       0       0       0       0       0       0       0       
       0       0
  5154 ;;Total ram usage:        4 bytes
  5155 ;; Hardware stack levels used:    1
  5156 ;; Hardware stack levels required when called:    2
  5157 ;; This function calls:
  5158 ;;		Nothing
  5159 ;; This function is called by:
  5160 ;;		_readSI7006
  5161 ;;		_logf
  5162 ;; This function uses a non-reentrant model
  5163 ;;
  5164                           psect	text5,local,class=CODE,delta=2,merge=1,group=1
  5165                           	file	"C:\Program Files (x86)\Microchip\xc8\v2.00\pic\sources\c99\common\flneg.c"
  5166                           	line	15
  5167                           global __ptext5
  5168                           __ptext5:	;psect for function ___flneg
  5169  15E0                     psect	text5
  5170                           	file	"C:\Program Files (x86)\Microchip\xc8\v2.00\pic\sources\c99\common\flneg.c"
  5171                           	line	15
  5172                           	global	__size_of___flneg
  5173                           	__size_of___flneg	equ	__end_of___flneg-___flneg
  5174  000D                     	
  5175                           ___flneg:	
  5176  15E0                     ;incstack = 0
  5177                           	opt	stack 11
  5178                           ; Regs used in ___flneg: [wreg]
  5179                           	line	17
  5180                           	
  5181                           l1524:	
  5182  15E0                     	movf	(___flneg@f1+3),w
  5183  15E0  0875               	iorwf	(___flneg@f1+2),w
  5184  15E1  0474               	iorwf	(___flneg@f1+1),w
  5185  15E2  0473               	iorwf	(___flneg@f1),w
  5186  15E3  0472               	skipnz
  5187  15E4  1903               	goto	u1601
  5188  15E5  2DE7               	goto	u1600
  5189  15E6  2DE8               u1601:
  5190  15E7                     	goto	l1528
  5191  15E7  2DEB               u1600:
  5192  15E8                     	line	18
  5193                           	
  5194                           l1526:	
  5195  15E8                     	movlw	080h
  5196  15E8  3080               	xorwf	(___flneg@f1+3),f
  5197  15E9  06F5               	goto	l1528
  5198  15EA  2DEB               	
  5199                           l372:	
  5200  15EB                     	line	19
  5201                           	
  5202                           l1528:	
  5203  15EB                     	goto	l373
  5204  15EB  2DEC               	
  5205                           l1530:	
  5206  15EC                     	line	20
  5207                           	
  5208                           l373:	
  5209  15EC                     	return
  5210  15EC  0008               	opt stack 0
  5211                           GLOBAL	__end_of___flneg
  5212                           	__end_of___flneg:
  5213  15ED                     	signat	___flneg,4220
  5214                           	global	___flmul
  5215                           
  5216 ;; *************** function ___flmul *****************
  5217 ;; Defined at:
  5218 ;;		line 8 in file "C:\Program Files (x86)\Microchip\xc8\v2.00\pic\sources\c99\common\sprcmul.c"
  5219 ;; Parameters:    Size  Location     Type
  5220 ;;  b               4    6[BANK0 ] unsigned char 
  5221 ;;  a               4   10[BANK0 ] unsigned char 
  5222 ;; Auto vars:     Size  Location     Type
  5223 ;;  prod            4   26[BANK0 ] struct .
  5224 ;;  grs             4   21[BANK0 ] unsigned long 
  5225 ;;  temp            2   30[BANK0 ] struct .
  5226 ;;  bexp            1   25[BANK0 ] unsigned char 
  5227 ;;  aexp            1   20[BANK0 ] unsigned char 
  5228 ;;  sign            1   19[BANK0 ] unsigned char 
  5229 ;; Return value:  Size  Location     Type
  5230 ;;                  4    6[BANK0 ] unsigned char 
  5231 ;; Registers used:
  5232 ;;		wreg, status,2, status,0, pclath, cstack
  5233 ;; Tracked objects:
  5234 ;;		On entry : 0/0
  5235 ;;		On exit  : 0/0
  5236 ;;		Unchanged: 0/0
  5237 ;; Data sizes:     COMMON   BANK0   BANK1   BANK2   BANK3   BANK4   BANK5   BANK6   BANK7   BANK8   BANK9  BANK10  BANK1
       1  BANK12
  5238 ;;      Params:         0       8       0       0       0       0       0       0       0       0       0       0       
       0       0
  5239 ;;      Locals:         0      13       0       0       0       0       0       0       0       0       0       0       
       0       0
  5240 ;;      Temps:          0       5       0       0       0       0       0       0       0       0       0       0       
       0       0
  5241 ;;      Totals:         0      26       0       0       0       0       0       0       0       0       0       0       
       0       0
  5242 ;;Total ram usage:       26 bytes
  5243 ;; Hardware stack levels used:    1
  5244 ;; Hardware stack levels required when called:    3
  5245 ;; This function calls:
  5246 ;;		__Umul8_16
  5247 ;; This function is called by:
  5248 ;;		_readSI7006
  5249 ;;		_logf
  5250 ;; This function uses a non-reentrant model
  5251 ;;
  5252                           psect	text6,local,class=CODE,delta=2,merge=1,group=1
  5253                           	file	"C:\Program Files (x86)\Microchip\xc8\v2.00\pic\sources\c99\common\sprcmul.c"
  5254                           	line	8
  5255                           global __ptext6
  5256                           __ptext6:	;psect for function ___flmul
  5257  0AC4                     psect	text6
  5258                           	file	"C:\Program Files (x86)\Microchip\xc8\v2.00\pic\sources\c99\common\sprcmul.c"
  5259                           	line	8
  5260                           	global	__size_of___flmul
  5261                           	__size_of___flmul	equ	__end_of___flmul-___flmul
  5262  026B                     	
  5263                           ___flmul:	
  5264  0AC4                     ;incstack = 0
  5265                           	opt	stack 10
  5266                           ; Regs used in ___flmul: [wreg+status,2+status,0+pclath+cstack]
  5267                           	line	17
  5268                           	
  5269                           l2386:	
  5270  0AC4                     	movlb 0	; select bank0
  5271  0AC4  0140               	movf	0+(___flmul@b)+03h,w
  5272  0AC5  0829               	andlw	080h
  5273  0AC6  3980               	movwf	(??___flmul+0)+0
  5274  0AC7  00AE               	movf	(??___flmul+0)+0,w
  5275  0AC8  082E               	movwf	(___flmul@sign)
  5276  0AC9  00B3               	line	18
  5277                           	
  5278                           l2388:	
  5279  0ACA                     	lslf	0+(___flmul@b)+03h,w
  5280  0ACA  3529               	movwf	(??___flmul+0)+0
  5281  0ACB  00AE               	movf	(??___flmul+0)+0,w
  5282  0ACC  082E               	movwf	(___flmul@bexp)
  5283  0ACD  00B9               	line	19
  5284                           	
  5285                           l2390:	
  5286  0ACE                     	btfss	0+(___flmul@b)+02h,(7)&7
  5287  0ACE  1FA8               	goto	u3161
  5288  0ACF  2AD1               	goto	u3160
  5289  0AD0  2AD2               u3161:
  5290  0AD1                     	goto	l2394
  5291  0AD1  2AD4               u3160:
  5292  0AD2                     	line	20
  5293                           	
  5294                           l2392:	
  5295  0AD2                     	bsf	(___flmul@bexp)+(0/8),(0)&7
  5296  0AD2  1439               	goto	l2394
  5297  0AD3  2AD4               	line	21
  5298                           	
  5299                           l569:	
  5300  0AD4                     	line	24
  5301                           	
  5302                           l2394:	
  5303  0AD4                     	movf	((___flmul@bexp)),w
  5304  0AD4  0839               	btfsc	status,2
  5305  0AD5  1903               	goto	u3171
  5306  0AD6  2AD8               	goto	u3170
  5307  0AD7  2AD9               u3171:
  5308  0AD8                     	goto	l2402
  5309  0AD8  2AE9               u3170:
  5310  0AD9                     	line	26
  5311                           	
  5312                           l2396:	
  5313  0AD9                     		incf	((___flmul@bexp)),w
  5314  0AD9  0A39               	btfss	status,2
  5315  0ADA  1D03               	goto	u3181
  5316  0ADB  2ADD               	goto	u3180
  5317  0ADC  2ADE               u3181:
  5318  0ADD                     	goto	l2400
  5319  0ADD  2AE7               u3180:
  5320  0ADE                     	line	28
  5321                           	
  5322                           l2398:	
  5323  0ADE                     	movlw	0x0
  5324  0ADE  3000               	movwf	(___flmul@b+3)
  5325  0ADF  00A9               	movlw	0x0
  5326  0AE0  3000               	movwf	(___flmul@b+2)
  5327  0AE1  00A8               	movlw	0x0
  5328  0AE2  3000               	movwf	(___flmul@b+1)
  5329  0AE3  00A7               	movlw	0x0
  5330  0AE4  3000               	movwf	(___flmul@b)
  5331  0AE5  00A6               
  5332                           	goto	l2400
  5333  0AE6  2AE7               	line	29
  5334                           	
  5335                           l571:	
  5336  0AE7                     	line	31
  5337                           	
  5338                           l2400:	
  5339  0AE7                     	bsf	(___flmul@b)+(23/8),(23)&7
  5340  0AE7  17A8               	line	33
  5341                           	goto	l2404
  5342  0AE8  2AF2               	line	34
  5343                           	
  5344                           l570:	
  5345  0AE9                     	line	36
  5346                           	
  5347                           l2402:	
  5348  0AE9                     	movlw	0x0
  5349  0AE9  3000               	movwf	(___flmul@b+3)
  5350  0AEA  00A9               	movlw	0x0
  5351  0AEB  3000               	movwf	(___flmul@b+2)
  5352  0AEC  00A8               	movlw	0x0
  5353  0AED  3000               	movwf	(___flmul@b+1)
  5354  0AEE  00A7               	movlw	0x0
  5355  0AEF  3000               	movwf	(___flmul@b)
  5356  0AF0  00A6               
  5357                           	goto	l2404
  5358  0AF1  2AF2               	line	37
  5359                           	
  5360                           l572:	
  5361  0AF2                     	line	39
  5362                           	
  5363                           l2404:	
  5364  0AF2                     	movf	0+(___flmul@a)+03h,w
  5365  0AF2  082D               	andlw	080h
  5366  0AF3  3980               	movwf	(??___flmul+0)+0
  5367  0AF4  00AE               	movf	(??___flmul+0)+0,w
  5368  0AF5  082E               	xorwf	(___flmul@sign),f
  5369  0AF6  06B3               	line	40
  5370                           	
  5371                           l2406:	
  5372  0AF7                     	lslf	0+(___flmul@a)+03h,w
  5373  0AF7  352D               	movwf	(??___flmul+0)+0
  5374  0AF8  00AE               	movf	(??___flmul+0)+0,w
  5375  0AF9  082E               	movwf	(___flmul@aexp)
  5376  0AFA  00B4               	line	41
  5377                           	
  5378                           l2408:	
  5379  0AFB                     	btfss	0+(___flmul@a)+02h,(7)&7
  5380  0AFB  1FAC               	goto	u3191
  5381  0AFC  2AFE               	goto	u3190
  5382  0AFD  2AFF               u3191:
  5383  0AFE                     	goto	l2412
  5384  0AFE  2B01               u3190:
  5385  0AFF                     	line	42
  5386                           	
  5387                           l2410:	
  5388  0AFF                     	bsf	(___flmul@aexp)+(0/8),(0)&7
  5389  0AFF  1434               	goto	l2412
  5390  0B00  2B01               	line	43
  5391                           	
  5392                           l573:	
  5393  0B01                     	line	45
  5394                           	
  5395                           l2412:	
  5396  0B01                     	movf	((___flmul@aexp)),w
  5397  0B01  0834               	btfsc	status,2
  5398  0B02  1903               	goto	u3201
  5399  0B03  2B05               	goto	u3200
  5400  0B04  2B06               u3201:
  5401  0B05                     	goto	l2420
  5402  0B05  2B16               u3200:
  5403  0B06                     	line	48
  5404                           	
  5405                           l2414:	
  5406  0B06                     		incf	((___flmul@aexp)),w
  5407  0B06  0A34               	btfss	status,2
  5408  0B07  1D03               	goto	u3211
  5409  0B08  2B0A               	goto	u3210
  5410  0B09  2B0B               u3211:
  5411  0B0A                     	goto	l2418
  5412  0B0A  2B14               u3210:
  5413  0B0B                     	line	50
  5414                           	
  5415                           l2416:	
  5416  0B0B                     	movlw	0x0
  5417  0B0B  3000               	movwf	(___flmul@a+3)
  5418  0B0C  00AD               	movlw	0x0
  5419  0B0D  3000               	movwf	(___flmul@a+2)
  5420  0B0E  00AC               	movlw	0x0
  5421  0B0F  3000               	movwf	(___flmul@a+1)
  5422  0B10  00AB               	movlw	0x0
  5423  0B11  3000               	movwf	(___flmul@a)
  5424  0B12  00AA               
  5425                           	goto	l2418
  5426  0B13  2B14               	line	51
  5427                           	
  5428                           l575:	
  5429  0B14                     	line	53
  5430                           	
  5431                           l2418:	
  5432  0B14                     	bsf	(___flmul@a)+(23/8),(23)&7
  5433  0B14  17AC               	line	54
  5434                           	goto	l2422
  5435  0B15  2B1F               	line	55
  5436                           	
  5437                           l574:	
  5438  0B16                     	line	57
  5439                           	
  5440                           l2420:	
  5441  0B16                     	movlw	0x0
  5442  0B16  3000               	movwf	(___flmul@a+3)
  5443  0B17  00AD               	movlw	0x0
  5444  0B18  3000               	movwf	(___flmul@a+2)
  5445  0B19  00AC               	movlw	0x0
  5446  0B1A  3000               	movwf	(___flmul@a+1)
  5447  0B1B  00AB               	movlw	0x0
  5448  0B1C  3000               	movwf	(___flmul@a)
  5449  0B1D  00AA               
  5450                           	goto	l2422
  5451  0B1E  2B1F               	line	58
  5452                           	
  5453                           l576:	
  5454  0B1F                     	line	65
  5455                           	
  5456                           l2422:	
  5457  0B1F                     	movf	((___flmul@aexp)),w
  5458  0B1F  0834               	btfsc	status,2
  5459  0B20  1903               	goto	u3221
  5460  0B21  2B23               	goto	u3220
  5461  0B22  2B24               u3221:
  5462  0B23                     	goto	l2426
  5463  0B23  2B2A               u3220:
  5464  0B24                     	
  5465                           l2424:	
  5466  0B24                     	movf	((___flmul@bexp)),w
  5467  0B24  0839               	btfss	status,2
  5468  0B25  1D03               	goto	u3231
  5469  0B26  2B28               	goto	u3230
  5470  0B27  2B29               u3231:
  5471  0B28                     	goto	l2430
  5472  0B28  2B34               u3230:
  5473  0B29                     	goto	l2426
  5474  0B29  2B2A               	
  5475                           l579:	
  5476  0B2A                     	line	66
  5477                           	
  5478                           l2426:	
  5479  0B2A                     	movlw	0x0
  5480  0B2A  3000               	movwf	(?___flmul+3)
  5481  0B2B  00A9               	movlw	0x0
  5482  0B2C  3000               	movwf	(?___flmul+2)
  5483  0B2D  00A8               	movlw	0x0
  5484  0B2E  3000               	movwf	(?___flmul+1)
  5485  0B2F  00A7               	movlw	0x0
  5486  0B30  3000               	movwf	(?___flmul)
  5487  0B31  00A6               
  5488                           	goto	l580
  5489  0B32  2D2E               	
  5490                           l2428:	
  5491  0B33                     	goto	l580
  5492  0B33  2D2E               	line	67
  5493                           	
  5494                           l577:	
  5495  0B34                     	line	119
  5496                           	
  5497                           l2430:	
  5498  0B34                     	movf	(___flmul@b),w
  5499  0B34  0826               	movwf	(??___flmul+0)+0
  5500  0B35  00AE               	movf	(??___flmul+0)+0,w
  5501  0B36  082E               	movwf	(__Umul8_16@multiplicand)
  5502  0B37  00F2               	movf	0+(___flmul@a)+02h,w
  5503  0B38  082C               	fcall	__Umul8_16
  5504  0B39  3195  25FA  318A   	movf	(1+(?__Umul8_16)),w
  5505  0B3C  0873               	movlb 0	; select bank0
  5506  0B3D  0140               	movwf	(___flmul@temp+1)
  5507  0B3E  00BF               	movf	(0+(?__Umul8_16)),w
  5508  0B3F  0872               	movwf	(___flmul@temp)
  5509  0B40  00BE               	line	120
  5510                           	
  5511                           l2432:	
  5512  0B41                     	movf	(___flmul@temp),w
  5513  0B41  083E               	movwf	(??___flmul+0)+0
  5514  0B42  00AE               	clrf	(??___flmul+0)+0+1
  5515  0B43  01AF               	clrf	(??___flmul+0)+0+2
  5516  0B44  01B0               	clrf	(??___flmul+0)+0+3
  5517  0B45  01B1               	movf	3+(??___flmul+0)+0,w
  5518  0B46  0831               	movwf	(___flmul@grs+3)
  5519  0B47  00B8               	movf	2+(??___flmul+0)+0,w
  5520  0B48  0830               	movwf	(___flmul@grs+2)
  5521  0B49  00B7               	movf	1+(??___flmul+0)+0,w
  5522  0B4A  082F               	movwf	(___flmul@grs+1)
  5523  0B4B  00B6               	movf	0+(??___flmul+0)+0,w
  5524  0B4C  082E               	movwf	(___flmul@grs)
  5525  0B4D  00B5               
  5526                           	line	121
  5527                           	
  5528                           l2434:	
  5529  0B4E                     	movf	0+(___flmul@temp)+01h,w
  5530  0B4E  083F               	movwf	(??___flmul+0)+0
  5531  0B4F  00AE               	clrf	(??___flmul+0)+0+1
  5532  0B50  01AF               	clrf	(??___flmul+0)+0+2
  5533  0B51  01B0               	clrf	(??___flmul+0)+0+3
  5534  0B52  01B1               	movf	3+(??___flmul+0)+0,w
  5535  0B53  0831               	movwf	(___flmul@prod+3)
  5536  0B54  00BD               	movf	2+(??___flmul+0)+0,w
  5537  0B55  0830               	movwf	(___flmul@prod+2)
  5538  0B56  00BC               	movf	1+(??___flmul+0)+0,w
  5539  0B57  082F               	movwf	(___flmul@prod+1)
  5540  0B58  00BB               	movf	0+(??___flmul+0)+0,w
  5541  0B59  082E               	movwf	(___flmul@prod)
  5542  0B5A  00BA               
  5543                           	line	122
  5544                           	movf	0+(___flmul@b)+01h,w
  5545  0B5B  0827               	movwf	(??___flmul+0)+0
  5546  0B5C  00AE               	movf	(??___flmul+0)+0,w
  5547  0B5D  082E               	movwf	(__Umul8_16@multiplicand)
  5548  0B5E  00F2               	movf	0+(___flmul@a)+01h,w
  5549  0B5F  082B               	fcall	__Umul8_16
  5550  0B60  3195  25FA  318A   	movf	(1+(?__Umul8_16)),w
  5551  0B63  0873               	movlb 0	; select bank0
  5552  0B64  0140               	movwf	(___flmul@temp+1)
  5553  0B65  00BF               	movf	(0+(?__Umul8_16)),w
  5554  0B66  0872               	movwf	(___flmul@temp)
  5555  0B67  00BE               	line	123
  5556                           	
  5557                           l2436:	
  5558  0B68                     	movf	(___flmul@temp),w
  5559  0B68  083E               	movwf	(??___flmul+0)+0
  5560  0B69  00AE               	clrf	(??___flmul+0)+0+1
  5561  0B6A  01AF               	clrf	(??___flmul+0)+0+2
  5562  0B6B  01B0               	clrf	(??___flmul+0)+0+3
  5563  0B6C  01B1               	movf	0+(??___flmul+0)+0,w
  5564  0B6D  082E               	addwf	(___flmul@grs),f
  5565  0B6E  07B5               	movf	1+(??___flmul+0)+0,w
  5566  0B6F  082F               	addwfc	(___flmul@grs+1),f
  5567  0B70  3DB6               	movf	2+(??___flmul+0)+0,w
  5568  0B71  0830               	addwfc	(___flmul@grs+2),f
  5569  0B72  3DB7               	movf	3+(??___flmul+0)+0,w
  5570  0B73  0831               	addwfc	(___flmul@grs+3),f
  5571  0B74  3DB8               	line	124
  5572                           	
  5573                           l2438:	
  5574  0B75                     	movf	0+(___flmul@temp)+01h,w
  5575  0B75  083F               	movwf	(??___flmul+0)+0
  5576  0B76  00AE               	clrf	(??___flmul+0)+0+1
  5577  0B77  01AF               	clrf	(??___flmul+0)+0+2
  5578  0B78  01B0               	clrf	(??___flmul+0)+0+3
  5579  0B79  01B1               	movf	0+(??___flmul+0)+0,w
  5580  0B7A  082E               	addwf	(___flmul@prod),f
  5581  0B7B  07BA               	movf	1+(??___flmul+0)+0,w
  5582  0B7C  082F               	addwfc	(___flmul@prod+1),f
  5583  0B7D  3DBB               	movf	2+(??___flmul+0)+0,w
  5584  0B7E  0830               	addwfc	(___flmul@prod+2),f
  5585  0B7F  3DBC               	movf	3+(??___flmul+0)+0,w
  5586  0B80  0831               	addwfc	(___flmul@prod+3),f
  5587  0B81  3DBD               	line	125
  5588                           	movf	0+(___flmul@b)+02h,w
  5589  0B82  0828               	movwf	(??___flmul+0)+0
  5590  0B83  00AE               	movf	(??___flmul+0)+0,w
  5591  0B84  082E               	movwf	(__Umul8_16@multiplicand)
  5592  0B85  00F2               	movf	(___flmul@a),w
  5593  0B86  082A               	fcall	__Umul8_16
  5594  0B87  3195  25FA  318A   	movf	(1+(?__Umul8_16)),w
  5595  0B8A  0873               	movlb 0	; select bank0
  5596  0B8B  0140               	movwf	(___flmul@temp+1)
  5597  0B8C  00BF               	movf	(0+(?__Umul8_16)),w
  5598  0B8D  0872               	movwf	(___flmul@temp)
  5599  0B8E  00BE               	line	126
  5600                           	
  5601                           l2440:	
  5602  0B8F                     	movf	(___flmul@temp),w
  5603  0B8F  083E               	movwf	(??___flmul+0)+0
  5604  0B90  00AE               	clrf	(??___flmul+0)+0+1
  5605  0B91  01AF               	clrf	(??___flmul+0)+0+2
  5606  0B92  01B0               	clrf	(??___flmul+0)+0+3
  5607  0B93  01B1               	movf	0+(??___flmul+0)+0,w
  5608  0B94  082E               	addwf	(___flmul@grs),f
  5609  0B95  07B5               	movf	1+(??___flmul+0)+0,w
  5610  0B96  082F               	addwfc	(___flmul@grs+1),f
  5611  0B97  3DB6               	movf	2+(??___flmul+0)+0,w
  5612  0B98  0830               	addwfc	(___flmul@grs+2),f
  5613  0B99  3DB7               	movf	3+(??___flmul+0)+0,w
  5614  0B9A  0831               	addwfc	(___flmul@grs+3),f
  5615  0B9B  3DB8               	line	127
  5616                           	
  5617                           l2442:	
  5618  0B9C                     	movf	0+(___flmul@temp)+01h,w
  5619  0B9C  083F               	movwf	(??___flmul+0)+0
  5620  0B9D  00AE               	clrf	(??___flmul+0)+0+1
  5621  0B9E  01AF               	clrf	(??___flmul+0)+0+2
  5622  0B9F  01B0               	clrf	(??___flmul+0)+0+3
  5623  0BA0  01B1               	movf	0+(??___flmul+0)+0,w
  5624  0BA1  082E               	addwf	(___flmul@prod),f
  5625  0BA2  07BA               	movf	1+(??___flmul+0)+0,w
  5626  0BA3  082F               	addwfc	(___flmul@prod+1),f
  5627  0BA4  3DBB               	movf	2+(??___flmul+0)+0,w
  5628  0BA5  0830               	addwfc	(___flmul@prod+2),f
  5629  0BA6  3DBC               	movf	3+(??___flmul+0)+0,w
  5630  0BA7  0831               	addwfc	(___flmul@prod+3),f
  5631  0BA8  3DBD               	line	128
  5632                           	
  5633                           l2444:	
  5634  0BA9                     	movlw	08h
  5635  0BA9  3008               u3245:
  5636  0BAA                     	lslf	(___flmul@grs),f
  5637  0BAA  35B5               	rlf	(___flmul@grs+1),f
  5638  0BAB  0DB6               	rlf	(___flmul@grs+2),f
  5639  0BAC  0DB7               	rlf	(___flmul@grs+3),f
  5640  0BAD  0DB8               	decfsz	wreg,f
  5641  0BAE  0B89               	goto	u3245
  5642  0BAF  2BAA               	line	129
  5643                           	
  5644                           l2446:	
  5645  0BB0                     	movf	0+(___flmul@b)+01h,w
  5646  0BB0  0827               	movwf	(??___flmul+0)+0
  5647  0BB1  00AE               	movf	(??___flmul+0)+0,w
  5648  0BB2  082E               	movwf	(__Umul8_16@multiplicand)
  5649  0BB3  00F2               	movf	(___flmul@a),w
  5650  0BB4  082A               	fcall	__Umul8_16
  5651  0BB5  3195  25FA  318A   	movf	(1+(?__Umul8_16)),w
  5652  0BB8  0873               	movlb 0	; select bank0
  5653  0BB9  0140               	movwf	(___flmul@temp+1)
  5654  0BBA  00BF               	movf	(0+(?__Umul8_16)),w
  5655  0BBB  0872               	movwf	(___flmul@temp)
  5656  0BBC  00BE               	line	130
  5657                           	
  5658                           l2448:	
  5659  0BBD                     	movf	(___flmul@temp),w
  5660  0BBD  083E               	addwf	(___flmul@grs),f
  5661  0BBE  07B5               	movf	(___flmul@temp+1),w
  5662  0BBF  083F               	addwfc	(___flmul@grs+1),f
  5663  0BC0  3DB6               	movlw	0
  5664  0BC1  3000               	addwfc	(___flmul@grs+2),f
  5665  0BC2  3DB7               	addwfc	(___flmul@grs+3),f
  5666  0BC3  3DB8               	line	131
  5667                           	
  5668                           l2450:	
  5669  0BC4                     	movf	(___flmul@b),w
  5670  0BC4  0826               	movwf	(??___flmul+0)+0
  5671  0BC5  00AE               	movf	(??___flmul+0)+0,w
  5672  0BC6  082E               	movwf	(__Umul8_16@multiplicand)
  5673  0BC7  00F2               	movf	0+(___flmul@a)+01h,w
  5674  0BC8  082B               	fcall	__Umul8_16
  5675  0BC9  3195  25FA  318A   	movf	(1+(?__Umul8_16)),w
  5676  0BCC  0873               	movlb 0	; select bank0
  5677  0BCD  0140               	movwf	(___flmul@temp+1)
  5678  0BCE  00BF               	movf	(0+(?__Umul8_16)),w
  5679  0BCF  0872               	movwf	(___flmul@temp)
  5680  0BD0  00BE               	line	132
  5681                           	
  5682                           l2452:	
  5683  0BD1                     	movf	(___flmul@temp),w
  5684  0BD1  083E               	addwf	(___flmul@grs),f
  5685  0BD2  07B5               	movf	(___flmul@temp+1),w
  5686  0BD3  083F               	addwfc	(___flmul@grs+1),f
  5687  0BD4  3DB6               	movlw	0
  5688  0BD5  3000               	addwfc	(___flmul@grs+2),f
  5689  0BD6  3DB7               	addwfc	(___flmul@grs+3),f
  5690  0BD7  3DB8               	line	133
  5691                           	
  5692                           l2454:	
  5693  0BD8                     	movlw	08h
  5694  0BD8  3008               u3255:
  5695  0BD9                     	lslf	(___flmul@grs),f
  5696  0BD9  35B5               	rlf	(___flmul@grs+1),f
  5697  0BDA  0DB6               	rlf	(___flmul@grs+2),f
  5698  0BDB  0DB7               	rlf	(___flmul@grs+3),f
  5699  0BDC  0DB8               	decfsz	wreg,f
  5700  0BDD  0B89               	goto	u3255
  5701  0BDE  2BD9               	line	134
  5702                           	movf	(___flmul@b),w
  5703  0BDF  0826               	movwf	(??___flmul+0)+0
  5704  0BE0  00AE               	movf	(??___flmul+0)+0,w
  5705  0BE1  082E               	movwf	(__Umul8_16@multiplicand)
  5706  0BE2  00F2               	movf	(___flmul@a),w
  5707  0BE3  082A               	fcall	__Umul8_16
  5708  0BE4  3195  25FA  318A   	movf	(1+(?__Umul8_16)),w
  5709  0BE7  0873               	movlb 0	; select bank0
  5710  0BE8  0140               	movwf	(___flmul@temp+1)
  5711  0BE9  00BF               	movf	(0+(?__Umul8_16)),w
  5712  0BEA  0872               	movwf	(___flmul@temp)
  5713  0BEB  00BE               	line	135
  5714                           	
  5715                           l2456:	
  5716  0BEC                     	movf	(___flmul@temp),w
  5717  0BEC  083E               	addwf	(___flmul@grs),f
  5718  0BED  07B5               	movf	(___flmul@temp+1),w
  5719  0BEE  083F               	addwfc	(___flmul@grs+1),f
  5720  0BEF  3DB6               	movlw	0
  5721  0BF0  3000               	addwfc	(___flmul@grs+2),f
  5722  0BF1  3DB7               	addwfc	(___flmul@grs+3),f
  5723  0BF2  3DB8               	line	136
  5724                           	
  5725                           l2458:	
  5726  0BF3                     	movf	0+(___flmul@b)+01h,w
  5727  0BF3  0827               	movwf	(??___flmul+0)+0
  5728  0BF4  00AE               	movf	(??___flmul+0)+0,w
  5729  0BF5  082E               	movwf	(__Umul8_16@multiplicand)
  5730  0BF6  00F2               	movf	0+(___flmul@a)+02h,w
  5731  0BF7  082C               	fcall	__Umul8_16
  5732  0BF8  3195  25FA  318A   	movf	(1+(?__Umul8_16)),w
  5733  0BFB  0873               	movlb 0	; select bank0
  5734  0BFC  0140               	movwf	(___flmul@temp+1)
  5735  0BFD  00BF               	movf	(0+(?__Umul8_16)),w
  5736  0BFE  0872               	movwf	(___flmul@temp)
  5737  0BFF  00BE               	line	137
  5738                           	movf	(___flmul@temp),w
  5739  0C00  083E               	addwf	(___flmul@prod),f
  5740  0C01  07BA               	movf	(___flmul@temp+1),w
  5741  0C02  083F               	addwfc	(___flmul@prod+1),f
  5742  0C03  3DBB               	movlw	0
  5743  0C04  3000               	addwfc	(___flmul@prod+2),f
  5744  0C05  3DBC               	addwfc	(___flmul@prod+3),f
  5745  0C06  3DBD               	line	138
  5746                           	
  5747                           l2460:	
  5748  0C07                     	movf	0+(___flmul@b)+02h,w
  5749  0C07  0828               	movwf	(??___flmul+0)+0
  5750  0C08  00AE               	movf	(??___flmul+0)+0,w
  5751  0C09  082E               	movwf	(__Umul8_16@multiplicand)
  5752  0C0A  00F2               	movf	0+(___flmul@a)+01h,w
  5753  0C0B  082B               	fcall	__Umul8_16
  5754  0C0C  3195  25FA  318A   	movf	(1+(?__Umul8_16)),w
  5755  0C0F  0873               	movlb 0	; select bank0
  5756  0C10  0140               	movwf	(___flmul@temp+1)
  5757  0C11  00BF               	movf	(0+(?__Umul8_16)),w
  5758  0C12  0872               	movwf	(___flmul@temp)
  5759  0C13  00BE               	line	139
  5760                           	
  5761                           l2462:	
  5762  0C14                     	movf	(___flmul@temp),w
  5763  0C14  083E               	addwf	(___flmul@prod),f
  5764  0C15  07BA               	movf	(___flmul@temp+1),w
  5765  0C16  083F               	addwfc	(___flmul@prod+1),f
  5766  0C17  3DBB               	movlw	0
  5767  0C18  3000               	addwfc	(___flmul@prod+2),f
  5768  0C19  3DBC               	addwfc	(___flmul@prod+3),f
  5769  0C1A  3DBD               	line	140
  5770                           	movf	0+(___flmul@b)+02h,w
  5771  0C1B  0828               	movwf	(??___flmul+0)+0
  5772  0C1C  00AE               	movf	(??___flmul+0)+0,w
  5773  0C1D  082E               	movwf	(__Umul8_16@multiplicand)
  5774  0C1E  00F2               	movf	0+(___flmul@a)+02h,w
  5775  0C1F  082C               	fcall	__Umul8_16
  5776  0C20  3195  25FA  318A   	movf	(1+(?__Umul8_16)),w
  5777  0C23  0873               	movlb 0	; select bank0
  5778  0C24  0140               	movwf	(___flmul@temp+1)
  5779  0C25  00BF               	movf	(0+(?__Umul8_16)),w
  5780  0C26  0872               	movwf	(___flmul@temp)
  5781  0C27  00BE               	line	141
  5782                           	
  5783                           l2464:	
  5784  0C28                     	movf	(___flmul@temp),w
  5785  0C28  083E               	movwf	((??___flmul+0)+0)
  5786  0C29  00AE               	movf	(___flmul@temp+1),w
  5787  0C2A  083F               	movwf	((??___flmul+0)+0+1)
  5788  0C2B  00AF               	clrf	((??___flmul+0)+0+2)
  5789  0C2C  01B0               	clrf	((??___flmul+0)+0+3)
  5790  0C2D  01B1               	movlw	08h
  5791  0C2E  3008               u3265:
  5792  0C2F                     	lslf	(??___flmul+0)+0,f
  5793  0C2F  35AE               	rlf	(??___flmul+0)+1,f
  5794  0C30  0DAF               	rlf	(??___flmul+0)+2,f
  5795  0C31  0DB0               	rlf	(??___flmul+0)+3,f
  5796  0C32  0DB1               u3260:
  5797  0C33                     	decfsz	wreg,f
  5798  0C33  0B89               	goto	u3265
  5799  0C34  2C2F               	movf	0+(??___flmul+0)+0,w
  5800  0C35  082E               	addwf	(___flmul@prod),f
  5801  0C36  07BA               	movf	1+(??___flmul+0)+0,w
  5802  0C37  082F               	addwfc	(___flmul@prod+1),f
  5803  0C38  3DBB               	movf	2+(??___flmul+0)+0,w
  5804  0C39  0830               	addwfc	(___flmul@prod+2),f
  5805  0C3A  3DBC               	movf	3+(??___flmul+0)+0,w
  5806  0C3B  0831               	addwfc	(___flmul@prod+3),f
  5807  0C3C  3DBD               	line	145
  5808                           	
  5809                           l2466:	
  5810  0C3D                     	movf	(___flmul@grs),w
  5811  0C3D  0835               	movwf	(??___flmul+0)+0
  5812  0C3E  00AE               	movf	(___flmul@grs+1),w
  5813  0C3F  0836               	movwf	((??___flmul+0)+0+1)
  5814  0C40  00AF               	movf	(___flmul@grs+2),w
  5815  0C41  0837               	movwf	((??___flmul+0)+0+2)
  5816  0C42  00B0               	movf	(___flmul@grs+3),w
  5817  0C43  0838               	movwf	((??___flmul+0)+0+3)
  5818  0C44  00B1               	movlw	018h
  5819  0C45  3018               u3275:
  5820  0C46                     	lsrf	(??___flmul+0)+3,f
  5821  0C46  36B1               	rrf	(??___flmul+0)+2,f
  5822  0C47  0CB0               	rrf	(??___flmul+0)+1,f
  5823  0C48  0CAF               	rrf	(??___flmul+0)+0,f
  5824  0C49  0CAE               u3270:
  5825  0C4A                     	decfsz	wreg,f
  5826  0C4A  0B89               	goto	u3275
  5827  0C4B  2C46               	movf	0+(??___flmul+0)+0,w
  5828  0C4C  082E               	addwf	(___flmul@prod),f
  5829  0C4D  07BA               	movf	1+(??___flmul+0)+0,w
  5830  0C4E  082F               	addwfc	(___flmul@prod+1),f
  5831  0C4F  3DBB               	movf	2+(??___flmul+0)+0,w
  5832  0C50  0830               	addwfc	(___flmul@prod+2),f
  5833  0C51  3DBC               	movf	3+(??___flmul+0)+0,w
  5834  0C52  0831               	addwfc	(___flmul@prod+3),f
  5835  0C53  3DBD               	line	146
  5836                           	
  5837                           l2468:	
  5838  0C54                     	movlw	08h
  5839  0C54  3008               u3285:
  5840  0C55                     	lslf	(___flmul@grs),f
  5841  0C55  35B5               	rlf	(___flmul@grs+1),f
  5842  0C56  0DB6               	rlf	(___flmul@grs+2),f
  5843  0C57  0DB7               	rlf	(___flmul@grs+3),f
  5844  0C58  0DB8               	decfsz	wreg,f
  5845  0C59  0B89               	goto	u3285
  5846  0C5A  2C55               	line	149
  5847                           	
  5848                           l2470:	
  5849  0C5B                     	movf	(___flmul@bexp),w
  5850  0C5B  0839               	addwf	(___flmul@aexp),w
  5851  0C5C  0734               	movwf	(??___flmul+0)+0
  5852  0C5D  00AE               	clrf	(??___flmul+0)+0+1
  5853  0C5E  01AF               	rlf	1+(??___flmul+0)+0,f
  5854  0C5F  0DAF               	
  5855                           	movf	0+(??___flmul+0)+0,w
  5856  0C60  082E               	addlw	082h
  5857  0C61  3E82               	movwf	(___flmul@temp)
  5858  0C62  00BE               	movlw	0FFh
  5859  0C63  30FF               	addwfc	1+(??___flmul+0)+0,w
  5860  0C64  3D2F               	movwf	1+(___flmul@temp)
  5861  0C65  00BF               	line	152
  5862                           	goto	l2482
  5863  0C66  2C80               	
  5864                           l582:	
  5865  0C67                     	line	153
  5866                           	
  5867                           l2472:	
  5868  0C67                     	movlw	01h
  5869  0C67  3001               u3295:
  5870  0C68                     	lslf	(___flmul@prod),f
  5871  0C68  35BA               	rlf	(___flmul@prod+1),f
  5872  0C69  0DBB               	rlf	(___flmul@prod+2),f
  5873  0C6A  0DBC               	rlf	(___flmul@prod+3),f
  5874  0C6B  0DBD               	decfsz	wreg,f
  5875  0C6C  0B89               	goto	u3295
  5876  0C6D  2C68               	line	154
  5877                           	
  5878                           l2474:	
  5879  0C6E                     	btfss	(___flmul@grs+3),(31)&7
  5880  0C6E  1FB8               	goto	u3301
  5881  0C6F  2C71               	goto	u3300
  5882  0C70  2C72               u3301:
  5883  0C71                     	goto	l2478
  5884  0C71  2C74               u3300:
  5885  0C72                     	line	155
  5886                           	
  5887                           l2476:	
  5888  0C72                     	bsf	(___flmul@prod)+(0/8),(0)&7
  5889  0C72  143A               	goto	l2478
  5890  0C73  2C74               	line	156
  5891                           	
  5892                           l583:	
  5893  0C74                     	line	157
  5894                           	
  5895                           l2478:	
  5896  0C74                     	movlw	01h
  5897  0C74  3001               u3315:
  5898  0C75                     	lslf	(___flmul@grs),f
  5899  0C75  35B5               	rlf	(___flmul@grs+1),f
  5900  0C76  0DB6               	rlf	(___flmul@grs+2),f
  5901  0C77  0DB7               	rlf	(___flmul@grs+3),f
  5902  0C78  0DB8               	decfsz	wreg,f
  5903  0C79  0B89               	goto	u3315
  5904  0C7A  2C75               	line	158
  5905                           	
  5906                           l2480:	
  5907  0C7B                     	movlw	0FFh
  5908  0C7B  30FF               	addwf	(___flmul@temp),f
  5909  0C7C  07BE               	movlw	0FFh
  5910  0C7D  30FF               	addwfc	(___flmul@temp+1),f
  5911  0C7E  3DBF               	goto	l2482
  5912  0C7F  2C80               	line	159
  5913                           	
  5914                           l581:	
  5915  0C80                     	line	152
  5916                           	
  5917                           l2482:	
  5918  0C80                     	btfss	(___flmul@prod+2),(23)&7
  5919  0C80  1FBC               	goto	u3321
  5920  0C81  2C83               	goto	u3320
  5921  0C82  2C84               u3321:
  5922  0C83                     	goto	l2472
  5923  0C83  2C67               u3320:
  5924  0C84                     	goto	l2484
  5925  0C84  2C85               	
  5926                           l584:	
  5927  0C85                     	line	163
  5928                           	
  5929                           l2484:	
  5930  0C85                     	clrf	(___flmul@aexp)
  5931  0C85  01B4               	line	164
  5932                           	
  5933                           l2486:	
  5934  0C86                     	btfss	(___flmul@grs+3),(31)&7
  5935  0C86  1FB8               	goto	u3331
  5936  0C87  2C89               	goto	u3330
  5937  0C88  2C8A               u3331:
  5938  0C89                     	goto	l2494
  5939  0C89  2CAA               u3330:
  5940  0C8A                     	line	165
  5941                           	
  5942                           l2488:	
  5943  0C8A                     	movlw	0FFh
  5944  0C8A  30FF               	andwf	(___flmul@grs),w
  5945  0C8B  0535               	movwf	(??___flmul+0)+0
  5946  0C8C  00AE               	movlw	0FFh
  5947  0C8D  30FF               	andwf	(___flmul@grs+1),w
  5948  0C8E  0536               	movwf	((??___flmul+0)+0+1)
  5949  0C8F  00AF               	movlw	0FFh
  5950  0C90  30FF               	andwf	(___flmul@grs+2),w
  5951  0C91  0537               	movwf	((??___flmul+0)+0+2)
  5952  0C92  00B0               	movlw	07Fh
  5953  0C93  307F               	andwf	(___flmul@grs+3),w
  5954  0C94  0538               	movwf	((??___flmul+0)+0+3)
  5955  0C95  00B1               	movf	3+(??___flmul+0)+0,w
  5956  0C96  0831               	iorwf	2+(??___flmul+0)+0,w
  5957  0C97  0430               	iorwf	1+(??___flmul+0)+0,w
  5958  0C98  042F               	iorwf	0+(??___flmul+0)+0,w
  5959  0C99  042E               	skipnz
  5960  0C9A  1903               	goto	u3341
  5961  0C9B  2C9D               	goto	u3340
  5962  0C9C  2C9E               u3341:
  5963  0C9D                     	goto	l586
  5964  0C9D  2CA1               u3340:
  5965  0C9E                     	line	166
  5966                           	
  5967                           l2490:	
  5968  0C9E                     	clrf	(___flmul@aexp)
  5969  0C9E  01B4               	incf	(___flmul@aexp),f
  5970  0C9F  0AB4               	line	167
  5971                           	goto	l2494
  5972  0CA0  2CAA               	line	168
  5973                           	
  5974                           l586:	
  5975  0CA1                     	line	169
  5976                           	btfss	(___flmul@prod),(0)&7
  5977  0CA1  1C3A               	goto	u3351
  5978  0CA2  2CA4               	goto	u3350
  5979  0CA3  2CA5               u3351:
  5980  0CA4                     	goto	l2494
  5981  0CA4  2CAA               u3350:
  5982  0CA5                     	line	170
  5983                           	
  5984                           l2492:	
  5985  0CA5                     	clrf	(___flmul@aexp)
  5986  0CA5  01B4               	incf	(___flmul@aexp),f
  5987  0CA6  0AB4               	goto	l2494
  5988  0CA7  2CAA               	line	171
  5989                           	
  5990                           l588:	
  5991  0CA8                     	goto	l2494
  5992  0CA8  2CAA               	line	172
  5993                           	
  5994                           l587:	
  5995  0CA9                     	goto	l2494
  5996  0CA9  2CAA               	line	173
  5997                           	
  5998                           l585:	
  5999  0CAA                     	line	174
  6000                           	
  6001                           l2494:	
  6002  0CAA                     	movf	((___flmul@aexp)),w
  6003  0CAA  0834               	btfsc	status,2
  6004  0CAB  1903               	goto	u3361
  6005  0CAC  2CAE               	goto	u3360
  6006  0CAD  2CAF               u3361:
  6007  0CAE                     	goto	l2504
  6008  0CAE  2CD9               u3360:
  6009  0CAF                     	line	175
  6010                           	
  6011                           l2496:	
  6012  0CAF                     	movlw	01h
  6013  0CAF  3001               	addwf	(___flmul@prod),f
  6014  0CB0  07BA               	movlw	0
  6015  0CB1  3000               	addwfc	(___flmul@prod+1),f
  6016  0CB2  3DBB               	movlw	0
  6017  0CB3  3000               	addwfc	(___flmul@prod+2),f
  6018  0CB4  3DBC               	movlw	0
  6019  0CB5  3000               	addwfc	(___flmul@prod+3),f
  6020  0CB6  3DBD               	line	176
  6021                           	
  6022                           l2498:	
  6023  0CB7                     	btfss	(___flmul@prod+3),(24)&7
  6024  0CB7  1C3D               	goto	u3371
  6025  0CB8  2CBA               	goto	u3370
  6026  0CB9  2CBB               u3371:
  6027  0CBA                     	goto	l2504
  6028  0CBA  2CD9               u3370:
  6029  0CBB                     	line	177
  6030                           	
  6031                           l2500:	
  6032  0CBB                     	movf	(___flmul@prod),w
  6033  0CBB  083A               	movwf	(??___flmul+0)+0
  6034  0CBC  00AE               	movf	(___flmul@prod+1),w
  6035  0CBD  083B               	movwf	((??___flmul+0)+0+1)
  6036  0CBE  00AF               	movf	(___flmul@prod+2),w
  6037  0CBF  083C               	movwf	((??___flmul+0)+0+2)
  6038  0CC0  00B0               	movf	(___flmul@prod+3),w
  6039  0CC1  083D               	movwf	((??___flmul+0)+0+3)
  6040  0CC2  00B1               	movlw	01h
  6041  0CC3  3001               	movwf	(??___flmul+4)+0
  6042  0CC4  00B2               u3385:
  6043  0CC5                     	asrf	(??___flmul+0)+3,f
  6044  0CC5  37B1               	rrf	(??___flmul+0)+2,f
  6045  0CC6  0CB0               	rrf	(??___flmul+0)+1,f
  6046  0CC7  0CAF               	rrf	(??___flmul+0)+0,f
  6047  0CC8  0CAE               u3380:
  6048  0CC9                     	decfsz	(??___flmul+4)+0,f
  6049  0CC9  0BB2               	goto	u3385
  6050  0CCA  2CC5               	movf	3+(??___flmul+0)+0,w
  6051  0CCB  0831               	movwf	(___flmul@prod+3)
  6052  0CCC  00BD               	movf	2+(??___flmul+0)+0,w
  6053  0CCD  0830               	movwf	(___flmul@prod+2)
  6054  0CCE  00BC               	movf	1+(??___flmul+0)+0,w
  6055  0CCF  082F               	movwf	(___flmul@prod+1)
  6056  0CD0  00BB               	movf	0+(??___flmul+0)+0,w
  6057  0CD1  082E               	movwf	(___flmul@prod)
  6058  0CD2  00BA               
  6059                           	line	178
  6060                           	
  6061                           l2502:	
  6062  0CD3                     	movlw	01h
  6063  0CD3  3001               	addwf	(___flmul@temp),f
  6064  0CD4  07BE               	movlw	0
  6065  0CD5  3000               	addwfc	(___flmul@temp+1),f
  6066  0CD6  3DBF               	goto	l2504
  6067  0CD7  2CD9               	line	179
  6068                           	
  6069                           l590:	
  6070  0CD8                     	goto	l2504
  6071  0CD8  2CD9               	line	180
  6072                           	
  6073                           l589:	
  6074  0CD9                     	line	183
  6075                           	
  6076                           l2504:	
  6077  0CD9                     	movf	(___flmul@temp+1),w
  6078  0CD9  083F               	xorlw	80h
  6079  0CDA  3A80               	movwf	(??___flmul+0)+0
  6080  0CDB  00AE               	movlw	(0)^80h
  6081  0CDC  3080               	subwf	(??___flmul+0)+0,w
  6082  0CDD  022E               	skipz
  6083  0CDE  1D03               	goto	u3395
  6084  0CDF  2CE2               	movlw	0FFh
  6085  0CE0  30FF               	subwf	(___flmul@temp),w
  6086  0CE1  023E               u3395:
  6087  0CE2                     
  6088                           	skipc
  6089  0CE2  1C03               	goto	u3391
  6090  0CE3  2CE5               	goto	u3390
  6091  0CE4  2CE6               u3391:
  6092  0CE5                     	goto	l2508
  6093  0CE5  2CF0               u3390:
  6094  0CE6                     	line	184
  6095                           	
  6096                           l2506:	
  6097  0CE6                     	movlw	07Fh
  6098  0CE6  307F               	movlb 0	; select bank0
  6099  0CE7  0140               	movwf	(___flmul@prod+3)
  6100  0CE8  00BD               	movlw	080h
  6101  0CE9  3080               	movwf	(___flmul@prod+2)
  6102  0CEA  00BC               	movlw	0
  6103  0CEB  3000               	movwf	(___flmul@prod+1)
  6104  0CEC  00BB               	movlw	0
  6105  0CED  3000               	movwf	(___flmul@prod)
  6106  0CEE  00BA               
  6107                           	line	185
  6108                           	goto	l592
  6109  0CEF  2D21               	line	187
  6110                           	
  6111                           l591:	
  6112  0CF0                     	
  6113                           l2508:	
  6114  0CF0                     	movlb 0	; select bank0
  6115  0CF0  0140               	movf	(___flmul@temp+1),w
  6116  0CF1  083F               	xorlw	80h
  6117  0CF2  3A80               	movwf	(??___flmul+0)+0
  6118  0CF3  00AE               	movlw	(0)^80h
  6119  0CF4  3080               	subwf	(??___flmul+0)+0,w
  6120  0CF5  022E               	skipz
  6121  0CF6  1D03               	goto	u3405
  6122  0CF7  2CFA               	movlw	01h
  6123  0CF8  3001               	subwf	(___flmul@temp),w
  6124  0CF9  023E               u3405:
  6125  0CFA                     
  6126                           	skipnc
  6127  0CFA  1803               	goto	u3401
  6128  0CFB  2CFD               	goto	u3400
  6129  0CFC  2CFE               u3401:
  6130  0CFD                     	goto	l2514
  6131  0CFD  2D09               u3400:
  6132  0CFE                     	line	188
  6133                           	
  6134                           l2510:	
  6135  0CFE                     	movlw	high highword(0)
  6136  0CFE  3000               	movlb 0	; select bank0
  6137  0CFF  0140               	movwf	(___flmul@prod+3)
  6138  0D00  00BD               	movlw	low highword(0)
  6139  0D01  3000               	movwf	(___flmul@prod+2)
  6140  0D02  00BC               	movlw	high(0)
  6141  0D03  3000               	movwf	(___flmul@prod+1)
  6142  0D04  00BB               	movlw	low(0)
  6143  0D05  3000               	movwf	(___flmul@prod)
  6144  0D06  00BA               
  6145                           	line	190
  6146                           	
  6147                           l2512:	
  6148  0D07                     	clrf	(___flmul@sign)
  6149  0D07  01B3               	line	191
  6150                           	goto	l592
  6151  0D08  2D21               	line	192
  6152                           	
  6153                           l593:	
  6154  0D09                     	line	194
  6155                           	
  6156                           l2514:	
  6157  0D09                     	movlb 0	; select bank0
  6158  0D09  0140               	movf	(___flmul@temp),w
  6159  0D0A  083E               	movwf	(??___flmul+0)+0
  6160  0D0B  00AE               	movf	(??___flmul+0)+0,w
  6161  0D0C  082E               	movwf	(___flmul@bexp)
  6162  0D0D  00B9               	line	195
  6163                           	movlw	0FFh
  6164  0D0E  30FF               	andwf	(___flmul@prod),f
  6165  0D0F  05BA               	movlw	0FFh
  6166  0D10  30FF               	andwf	(___flmul@prod+1),f
  6167  0D11  05BB               	movlw	07Fh
  6168  0D12  307F               	andwf	(___flmul@prod+2),f
  6169  0D13  05BC               	movlw	0
  6170  0D14  3000               	andwf	(___flmul@prod+3),f
  6171  0D15  05BD               	line	196
  6172                           	
  6173                           l2516:	
  6174  0D16                     	btfss	(___flmul@bexp),(0)&7
  6175  0D16  1C39               	goto	u3411
  6176  0D17  2D19               	goto	u3410
  6177  0D18  2D1A               u3411:
  6178  0D19                     	goto	l2520
  6179  0D19  2D1C               u3410:
  6180  0D1A                     	line	197
  6181                           	
  6182                           l2518:	
  6183  0D1A                     	bsf	0+(___flmul@prod)+02h+(7/8),(7)&7
  6184  0D1A  17BC               	goto	l2520
  6185  0D1B  2D1C               	line	198
  6186                           	
  6187                           l595:	
  6188  0D1C                     	line	199
  6189                           	
  6190                           l2520:	
  6191  0D1C                     	lsrf	(___flmul@bexp),w
  6192  0D1C  3639               	movwf	(??___flmul+0)+0
  6193  0D1D  00AE               	movf	(??___flmul+0)+0,w
  6194  0D1E  082E               	movwf	0+(___flmul@prod)+03h
  6195  0D1F  00BD               	goto	l592
  6196  0D20  2D21               	line	200
  6197                           	
  6198                           l594:	
  6199  0D21                     	
  6200                           l592:	
  6201  0D21                     	line	201
  6202                           	movf	(___flmul@sign),w
  6203  0D21  0833               	movwf	(??___flmul+0)+0
  6204  0D22  00AE               	movf	(??___flmul+0)+0,w
  6205  0D23  082E               	iorwf	0+(___flmul@prod)+03h,f
  6206  0D24  04BD               	line	203
  6207                           	
  6208                           l2522:	
  6209  0D25                     	movf	(___flmul@prod+3),w
  6210  0D25  083D               	movwf	(?___flmul+3)
  6211  0D26  00A9               	movf	(___flmul@prod+2),w
  6212  0D27  083C               	movwf	(?___flmul+2)
  6213  0D28  00A8               	movf	(___flmul@prod+1),w
  6214  0D29  083B               	movwf	(?___flmul+1)
  6215  0D2A  00A7               	movf	(___flmul@prod),w
  6216  0D2B  083A               	movwf	(?___flmul)
  6217  0D2C  00A6               
  6218                           	goto	l580
  6219  0D2D  2D2E               	
  6220                           l2524:	
  6221  0D2E                     	line	205
  6222                           	
  6223                           l580:	
  6224  0D2E                     	return
  6225  0D2E  0008               	opt stack 0
  6226                           GLOBAL	__end_of___flmul
  6227                           	__end_of___flmul:
  6228  0D2F                     	signat	___flmul,8316
  6229                           	global	__Umul8_16
  6230                           
  6231 ;; *************** function __Umul8_16 *****************
  6232 ;; Defined at:
  6233 ;;		line 4 in file "C:\Program Files (x86)\Microchip\xc8\v2.00\pic\sources\c99\common\Umul8_16.c"
  6234 ;; Parameters:    Size  Location     Type
  6235 ;;  multiplier      1    wreg     unsigned char 
  6236 ;;  multiplicand    1    2[COMMON] unsigned char 
  6237 ;; Auto vars:     Size  Location     Type
  6238 ;;  multiplier      1    4[BANK0 ] unsigned char 
  6239 ;;  word_mpld       2    2[BANK0 ] unsigned int 
  6240 ;;  product         2    0[BANK0 ] unsigned int 
  6241 ;; Return value:  Size  Location     Type
  6242 ;;                  2    2[COMMON] unsigned int 
  6243 ;; Registers used:
  6244 ;;		wreg, status,2, status,0
  6245 ;; Tracked objects:
  6246 ;;		On entry : 0/0
  6247 ;;		On exit  : 0/0
  6248 ;;		Unchanged: 0/0
  6249 ;; Data sizes:     COMMON   BANK0   BANK1   BANK2   BANK3   BANK4   BANK5   BANK6   BANK7   BANK8   BANK9  BANK10  BANK1
       1  BANK12
  6250 ;;      Params:         2       0       0       0       0       0       0       0       0       0       0       0       
       0       0
  6251 ;;      Locals:         0       5       0       0       0       0       0       0       0       0       0       0       
       0       0
  6252 ;;      Temps:          2       0       0       0       0       0       0       0       0       0       0       0       
       0       0
  6253 ;;      Totals:         4       5       0       0       0       0       0       0       0       0       0       0       
       0       0
  6254 ;;Total ram usage:        9 bytes
  6255 ;; Hardware stack levels used:    1
  6256 ;; Hardware stack levels required when called:    2
  6257 ;; This function calls:
  6258 ;;		Nothing
  6259 ;; This function is called by:
  6260 ;;		___flmul
  6261 ;; This function uses a non-reentrant model
  6262 ;;
  6263                           psect	text7,local,class=CODE,delta=2,merge=1,group=1
  6264                           	file	"C:\Program Files (x86)\Microchip\xc8\v2.00\pic\sources\c99\common\Umul8_16.c"
  6265                           	line	4
  6266                           global __ptext7
  6267                           __ptext7:	;psect for function __Umul8_16
  6268  15FA                     psect	text7
  6269                           	file	"C:\Program Files (x86)\Microchip\xc8\v2.00\pic\sources\c99\common\Umul8_16.c"
  6270                           	line	4
  6271                           	global	__size_of__Umul8_16
  6272                           	__size_of__Umul8_16	equ	__end_of__Umul8_16-__Umul8_16
  6273  0027                     	
  6274                           __Umul8_16:	
  6275  15FA                     ;incstack = 0
  6276                           	opt	stack 10
  6277                           ; Regs used in __Umul8_16: [wreg+status,2+status,0]
  6278                           ;__Umul8_16@multiplier stored from wreg
  6279                           	movlb 0	; select bank0
  6280  15FA  0140               	movwf	(__Umul8_16@multiplier)
  6281  15FB  00A4               	line	5
  6282                           	
  6283                           l2372:	
  6284  15FC                     	clrf	(__Umul8_16@product)
  6285  15FC  01A0               	clrf	(__Umul8_16@product+1)
  6286  15FD  01A1               	line	6
  6287                           	
  6288                           l2374:	
  6289  15FE                     	movf	(__Umul8_16@multiplicand),w
  6290  15FE  0872               	movwf	(??__Umul8_16+0)+0
  6291  15FF  00F4               	clrf	(??__Umul8_16+0)+0+1
  6292  1600  01F5               	movf	0+(??__Umul8_16+0)+0,w
  6293  1601  0874               	movwf	(__Umul8_16@word_mpld)
  6294  1602  00A2               	movf	1+(??__Umul8_16+0)+0,w
  6295  1603  0875               	movwf	(__Umul8_16@word_mpld+1)
  6296  1604  00A3               	goto	l2376
  6297  1605  2E06               	line	50
  6298                           	
  6299                           l643:	
  6300  1606                     	line	51
  6301                           	
  6302                           l2376:	
  6303  1606                     	btfss	(__Umul8_16@multiplier),(0)&7
  6304  1606  1C24               	goto	u3131
  6305  1607  2E09               	goto	u3130
  6306  1608  2E0A               u3131:
  6307  1609                     	goto	l644
  6308  1609  2E0E               u3130:
  6309  160A                     	line	52
  6310                           	
  6311                           l2378:	
  6312  160A                     	movf	(__Umul8_16@word_mpld),w
  6313  160A  0822               	addwf	(__Umul8_16@product),f
  6314  160B  07A0               	movf	(__Umul8_16@word_mpld+1),w
  6315  160C  0823               	addwfc	(__Umul8_16@product+1),f
  6316  160D  3DA1               	line	53
  6317                           	
  6318                           l644:	
  6319  160E                     	line	54
  6320                           	movlw	01h
  6321  160E  3001               	
  6322                           u3145:
  6323  160F                     	lslf	(__Umul8_16@word_mpld),f
  6324  160F  35A2               	rlf	(__Umul8_16@word_mpld+1),f
  6325  1610  0DA3               	decfsz	wreg,f
  6326  1611  0B89               	goto	u3145
  6327  1612  2E0F               	line	55
  6328                           	clrc
  6329  1613  1003               	rrf	(__Umul8_16@multiplier),f
  6330  1614  0CA4               
  6331                           	line	56
  6332                           	
  6333                           l2380:	
  6334  1615                     	movf	((__Umul8_16@multiplier)),w
  6335  1615  0824               	btfss	status,2
  6336  1616  1D03               	goto	u3151
  6337  1617  2E19               	goto	u3150
  6338  1618  2E1A               u3151:
  6339  1619                     	goto	l2376
  6340  1619  2E06               u3150:
  6341  161A                     	goto	l2382
  6342  161A  2E1B               	
  6343                           l645:	
  6344  161B                     	line	59
  6345                           	
  6346                           l2382:	
  6347  161B                     	movf	(__Umul8_16@product+1),w
  6348  161B  0821               	movwf	(?__Umul8_16+1)
  6349  161C  00F3               	movf	(__Umul8_16@product),w
  6350  161D  0820               	movwf	(?__Umul8_16)
  6351  161E  00F2               	goto	l646
  6352  161F  2E20               	
  6353                           l2384:	
  6354  1620                     	line	60
  6355                           	
  6356                           l646:	
  6357  1620                     	return
  6358  1620  0008               	opt stack 0
  6359                           GLOBAL	__end_of__Umul8_16
  6360                           	__end_of__Umul8_16:
  6361  1621                     	signat	__Umul8_16,8314
  6362                           	global	___fldiv
  6363                           
  6364 ;; *************** function ___fldiv *****************
  6365 ;; Defined at:
  6366 ;;		line 8 in file "C:\Program Files (x86)\Microchip\xc8\v2.00\pic\sources\c99\common\sprcdiv.c"
  6367 ;; Parameters:    Size  Location     Type
  6368 ;;  a               4   32[BANK0 ] unsigned int 
  6369 ;;  b               4   36[BANK0 ] unsigned int 
  6370 ;; Auto vars:     Size  Location     Type
  6371 ;;  grs             4   52[BANK0 ] unsigned long 
  6372 ;;  rem             4   45[BANK0 ] unsigned long 
  6373 ;;  new_exp         2   50[BANK0 ] int 
  6374 ;;  aexp            1   57[BANK0 ] unsigned char 
  6375 ;;  bexp            1   56[BANK0 ] unsigned char 
  6376 ;;  sign            1   49[BANK0 ] unsigned char 
  6377 ;; Return value:  Size  Location     Type
  6378 ;;                  4   32[BANK0 ] unsigned char 
  6379 ;; Registers used:
  6380 ;;		wreg, status,2, status,0
  6381 ;; Tracked objects:
  6382 ;;		On entry : 0/0
  6383 ;;		On exit  : 0/0
  6384 ;;		Unchanged: 0/0
  6385 ;; Data sizes:     COMMON   BANK0   BANK1   BANK2   BANK3   BANK4   BANK5   BANK6   BANK7   BANK8   BANK9  BANK10  BANK1
       1  BANK12
  6386 ;;      Params:         0       8       0       0       0       0       0       0       0       0       0       0       
       0       0
  6387 ;;      Locals:         0      13       0       0       0       0       0       0       0       0       0       0       
       0       0
  6388 ;;      Temps:          0       5       0       0       0       0       0       0       0       0       0       0       
       0       0
  6389 ;;      Totals:         0      26       0       0       0       0       0       0       0       0       0       0       
       0       0
  6390 ;;Total ram usage:       26 bytes
  6391 ;; Hardware stack levels used:    1
  6392 ;; Hardware stack levels required when called:    2
  6393 ;; This function calls:
  6394 ;;		Nothing
  6395 ;; This function is called by:
  6396 ;;		_readSI7006
  6397 ;;		_logf
  6398 ;; This function uses a non-reentrant model
  6399 ;;
  6400                           psect	text8,local,class=CODE,delta=2,merge=1,group=1
  6401                           	file	"C:\Program Files (x86)\Microchip\xc8\v2.00\pic\sources\c99\common\sprcdiv.c"
  6402                           	line	8
  6403                           global __ptext8
  6404                           __ptext8:	;psect for function ___fldiv
  6405  1621                     psect	text8
  6406                           	file	"C:\Program Files (x86)\Microchip\xc8\v2.00\pic\sources\c99\common\sprcdiv.c"
  6407                           	line	8
  6408                           	global	__size_of___fldiv
  6409                           	__size_of___fldiv	equ	__end_of___fldiv-___fldiv
  6410  01DF                     	
  6411                           ___fldiv:	
  6412  1621                     ;incstack = 0
  6413                           	opt	stack 11
  6414                           ; Regs used in ___fldiv: [wreg+status,2+status,0]
  6415                           	line	26
  6416                           	
  6417                           l1726:	
  6418  1621                     	movlb 0	; select bank0
  6419  1621  0140               	movf	0+(___fldiv@b)+03h,w
  6420  1622  0847               	andlw	080h
  6421  1623  3980               	movwf	(??___fldiv+0)+0
  6422  1624  00C8               	movf	(??___fldiv+0)+0,w
  6423  1625  0848               	movwf	(___fldiv@sign)
  6424  1626  00D1               	line	27
  6425                           	
  6426                           l1728:	
  6427  1627                     	lslf	0+(___fldiv@b)+03h,w
  6428  1627  3547               	movwf	(??___fldiv+0)+0
  6429  1628  00C8               	movf	(??___fldiv+0)+0,w
  6430  1629  0848               	movwf	(___fldiv@bexp)
  6431  162A  00D8               	line	28
  6432                           	
  6433                           l1730:	
  6434  162B                     	btfss	0+(___fldiv@b)+02h,(7)&7
  6435  162B  1FC6               	goto	u2041
  6436  162C  2E2E               	goto	u2040
  6437  162D  2E2F               u2041:
  6438  162E                     	goto	l1734
  6439  162E  2E31               u2040:
  6440  162F                     	line	29
  6441                           	
  6442                           l1732:	
  6443  162F                     	bsf	(___fldiv@bexp)+(0/8),(0)&7
  6444  162F  1458               	goto	l1734
  6445  1630  2E31               	line	30
  6446                           	
  6447                           l533:	
  6448  1631                     	line	33
  6449                           	
  6450                           l1734:	
  6451  1631                     	movf	((___fldiv@bexp)),w
  6452  1631  0858               	btfsc	status,2
  6453  1632  1903               	goto	u2051
  6454  1633  2E35               	goto	u2050
  6455  1634  2E36               u2051:
  6456  1635                     	goto	l1744
  6457  1635  2E47               u2050:
  6458  1636                     	line	35
  6459                           	
  6460                           l1736:	
  6461  1636                     		incf	((___fldiv@bexp)),w
  6462  1636  0A58               	btfss	status,2
  6463  1637  1D03               	goto	u2061
  6464  1638  2E3A               	goto	u2060
  6465  1639  2E3B               u2061:
  6466  163A                     	goto	l1740
  6467  163A  2E44               u2060:
  6468  163B                     	line	37
  6469                           	
  6470                           l1738:	
  6471  163B                     	movlw	0x0
  6472  163B  3000               	movwf	(___fldiv@b+3)
  6473  163C  00C7               	movlw	0x0
  6474  163D  3000               	movwf	(___fldiv@b+2)
  6475  163E  00C6               	movlw	0x0
  6476  163F  3000               	movwf	(___fldiv@b+1)
  6477  1640  00C5               	movlw	0x0
  6478  1641  3000               	movwf	(___fldiv@b)
  6479  1642  00C4               
  6480                           	goto	l1740
  6481  1643  2E44               	line	38
  6482                           	
  6483                           l535:	
  6484  1644                     	line	40
  6485                           	
  6486                           l1740:	
  6487  1644                     	bsf	(___fldiv@b)+(23/8),(23)&7
  6488  1644  17C6               	line	42
  6489                           	
  6490                           l1742:	
  6491  1645                     	clrf	0+(___fldiv@b)+03h
  6492  1645  01C7               	line	43
  6493                           	goto	l1746
  6494  1646  2E50               	line	44
  6495                           	
  6496                           l534:	
  6497  1647                     	line	46
  6498                           	
  6499                           l1744:	
  6500  1647                     	movlw	0x0
  6501  1647  3000               	movwf	(___fldiv@b+3)
  6502  1648  00C7               	movlw	0x0
  6503  1649  3000               	movwf	(___fldiv@b+2)
  6504  164A  00C6               	movlw	0x0
  6505  164B  3000               	movwf	(___fldiv@b+1)
  6506  164C  00C5               	movlw	0x0
  6507  164D  3000               	movwf	(___fldiv@b)
  6508  164E  00C4               
  6509                           	goto	l1746
  6510  164F  2E50               	line	47
  6511                           	
  6512                           l536:	
  6513  1650                     	line	49
  6514                           	
  6515                           l1746:	
  6516  1650                     	movf	0+(___fldiv@a)+03h,w
  6517  1650  0843               	andlw	080h
  6518  1651  3980               	movwf	(??___fldiv+0)+0
  6519  1652  00C8               	movf	(??___fldiv+0)+0,w
  6520  1653  0848               	xorwf	(___fldiv@sign),f
  6521  1654  06D1               	line	50
  6522                           	
  6523                           l1748:	
  6524  1655                     	lslf	0+(___fldiv@a)+03h,w
  6525  1655  3543               	movwf	(??___fldiv+0)+0
  6526  1656  00C8               	movf	(??___fldiv+0)+0,w
  6527  1657  0848               	movwf	(___fldiv@aexp)
  6528  1658  00D9               	line	51
  6529                           	
  6530                           l1750:	
  6531  1659                     	btfss	0+(___fldiv@a)+02h,(7)&7
  6532  1659  1FC2               	goto	u2071
  6533  165A  2E5C               	goto	u2070
  6534  165B  2E5D               u2071:
  6535  165C                     	goto	l1754
  6536  165C  2E5F               u2070:
  6537  165D                     	line	52
  6538                           	
  6539                           l1752:	
  6540  165D                     	bsf	(___fldiv@aexp)+(0/8),(0)&7
  6541  165D  1459               	goto	l1754
  6542  165E  2E5F               	line	53
  6543                           	
  6544                           l537:	
  6545  165F                     	line	56
  6546                           	
  6547                           l1754:	
  6548  165F                     	movf	((___fldiv@aexp)),w
  6549  165F  0859               	btfsc	status,2
  6550  1660  1903               	goto	u2081
  6551  1661  2E63               	goto	u2080
  6552  1662  2E64               u2081:
  6553  1663                     	goto	l1764
  6554  1663  2E75               u2080:
  6555  1664                     	line	58
  6556                           	
  6557                           l1756:	
  6558  1664                     		incf	((___fldiv@aexp)),w
  6559  1664  0A59               	btfss	status,2
  6560  1665  1D03               	goto	u2091
  6561  1666  2E68               	goto	u2090
  6562  1667  2E69               u2091:
  6563  1668                     	goto	l1760
  6564  1668  2E72               u2090:
  6565  1669                     	line	60
  6566                           	
  6567                           l1758:	
  6568  1669                     	movlw	0x0
  6569  1669  3000               	movwf	(___fldiv@a+3)
  6570  166A  00C3               	movlw	0x0
  6571  166B  3000               	movwf	(___fldiv@a+2)
  6572  166C  00C2               	movlw	0x0
  6573  166D  3000               	movwf	(___fldiv@a+1)
  6574  166E  00C1               	movlw	0x0
  6575  166F  3000               	movwf	(___fldiv@a)
  6576  1670  00C0               
  6577                           	goto	l1760
  6578  1671  2E72               	line	61
  6579                           	
  6580                           l539:	
  6581  1672                     	line	63
  6582                           	
  6583                           l1760:	
  6584  1672                     	bsf	(___fldiv@a)+(23/8),(23)&7
  6585  1672  17C2               	line	65
  6586                           	
  6587                           l1762:	
  6588  1673                     	clrf	0+(___fldiv@a)+03h
  6589  1673  01C3               	line	66
  6590                           	goto	l540
  6591  1674  2E7D               	line	67
  6592                           	
  6593                           l538:	
  6594  1675                     	line	69
  6595                           	
  6596                           l1764:	
  6597  1675                     	movlw	0x0
  6598  1675  3000               	movwf	(___fldiv@a+3)
  6599  1676  00C3               	movlw	0x0
  6600  1677  3000               	movwf	(___fldiv@a+2)
  6601  1678  00C2               	movlw	0x0
  6602  1679  3000               	movwf	(___fldiv@a+1)
  6603  167A  00C1               	movlw	0x0
  6604  167B  3000               	movwf	(___fldiv@a)
  6605  167C  00C0               
  6606                           	line	70
  6607                           	
  6608                           l540:	
  6609  167D                     	line	75
  6610                           	movf	(___fldiv@a+3),w
  6611  167D  0843               	iorwf	(___fldiv@a+2),w
  6612  167E  0442               	iorwf	(___fldiv@a+1),w
  6613  167F  0441               	iorwf	(___fldiv@a),w
  6614  1680  0440               	skipz
  6615  1681  1D03               	goto	u2101
  6616  1682  2E84               	goto	u2100
  6617  1683  2E85               u2101:
  6618  1684                     	goto	l1774
  6619  1684  2E9F               u2100:
  6620  1685                     	line	76
  6621                           	
  6622                           l1766:	
  6623  1685                     	movlw	high highword(0)
  6624  1685  3000               	movwf	(___fldiv@b+3)
  6625  1686  00C7               	movlw	low highword(0)
  6626  1687  3000               	movwf	(___fldiv@b+2)
  6627  1688  00C6               	movlw	high(0)
  6628  1689  3000               	movwf	(___fldiv@b+1)
  6629  168A  00C5               	movlw	low(0)
  6630  168B  3000               	movwf	(___fldiv@b)
  6631  168C  00C4               
  6632                           	line	77
  6633                           	movlw	080h
  6634  168D  3080               	iorwf	0+(___fldiv@b)+02h,f
  6635  168E  04C6               	movlw	07Fh
  6636  168F  307F               	iorwf	1+(___fldiv@b)+02h,f
  6637  1690  04C7               	line	78
  6638                           	
  6639                           l1768:	
  6640  1691                     	movf	(___fldiv@sign),w
  6641  1691  0851               	movwf	(??___fldiv+0)+0
  6642  1692  00C8               	movf	(??___fldiv+0)+0,w
  6643  1693  0848               	iorwf	0+(___fldiv@b)+03h,f
  6644  1694  04C7               	line	79
  6645                           	
  6646                           l1770:	
  6647  1695                     	movf	(___fldiv@b+3),w
  6648  1695  0847               	movwf	(?___fldiv+3)
  6649  1696  00C3               	movf	(___fldiv@b+2),w
  6650  1697  0846               	movwf	(?___fldiv+2)
  6651  1698  00C2               	movf	(___fldiv@b+1),w
  6652  1699  0845               	movwf	(?___fldiv+1)
  6653  169A  00C1               	movf	(___fldiv@b),w
  6654  169B  0844               	movwf	(?___fldiv)
  6655  169C  00C0               
  6656                           	goto	l542
  6657  169D  2FFF               	
  6658                           l1772:	
  6659  169E                     	goto	l542
  6660  169E  2FFF               	line	80
  6661                           	
  6662                           l541:	
  6663  169F                     	line	83
  6664                           	
  6665                           l1774:	
  6666  169F                     	movf	((___fldiv@bexp)),w
  6667  169F  0858               	btfss	status,2
  6668  16A0  1D03               	goto	u2111
  6669  16A1  2EA3               	goto	u2110
  6670  16A2  2EA4               u2111:
  6671  16A3                     	goto	l1780
  6672  16A3  2EB6               u2110:
  6673  16A4                     	line	84
  6674                           	
  6675                           l1776:	
  6676  16A4                     	movlw	high highword(0)
  6677  16A4  3000               	movwf	(___fldiv@b+3)
  6678  16A5  00C7               	movlw	low highword(0)
  6679  16A6  3000               	movwf	(___fldiv@b+2)
  6680  16A7  00C6               	movlw	high(0)
  6681  16A8  3000               	movwf	(___fldiv@b+1)
  6682  16A9  00C5               	movlw	low(0)
  6683  16AA  3000               	movwf	(___fldiv@b)
  6684  16AB  00C4               
  6685                           	line	85
  6686                           	movf	(___fldiv@b+3),w
  6687  16AC  0847               	movwf	(?___fldiv+3)
  6688  16AD  00C3               	movf	(___fldiv@b+2),w
  6689  16AE  0846               	movwf	(?___fldiv+2)
  6690  16AF  00C2               	movf	(___fldiv@b+1),w
  6691  16B0  0845               	movwf	(?___fldiv+1)
  6692  16B1  00C1               	movf	(___fldiv@b),w
  6693  16B2  0844               	movwf	(?___fldiv)
  6694  16B3  00C0               
  6695                           	goto	l542
  6696  16B4  2FFF               	
  6697                           l1778:	
  6698  16B5                     	goto	l542
  6699  16B5  2FFF               	line	86
  6700                           	
  6701                           l543:	
  6702  16B6                     	line	89
  6703                           	
  6704                           l1780:	
  6705  16B6                     	movf	(___fldiv@aexp),w
  6706  16B6  0859               	movwf	(??___fldiv+0)+0
  6707  16B7  00C8               	clrf	(??___fldiv+0)+0+1
  6708  16B8  01C9               	comf	(??___fldiv+0)+0,f
  6709  16B9  09C8               	comf	(??___fldiv+0)+1,f
  6710  16BA  09C9               	incf	(??___fldiv+0)+0,f
  6711  16BB  0AC8               	skipnz
  6712  16BC  1903               	incf	(??___fldiv+0)+1,f
  6713  16BD  0AC9               	movf	(___fldiv@bexp),w
  6714  16BE  0858               	addwf	0+(??___fldiv+0)+0,w
  6715  16BF  0748               	movwf	(??___fldiv+2)+0
  6716  16C0  00CA               	movf	1+(??___fldiv+0)+0,w
  6717  16C1  0849               	skipnc
  6718  16C2  1803               	incf	1+(??___fldiv+0)+0,w
  6719  16C3  0A49               	movwf	((??___fldiv+2)+0)+1
  6720  16C4  00CB               	movf	0+(??___fldiv+2)+0,w
  6721  16C5  084A               	addlw	07Fh
  6722  16C6  3E7F               	movwf	(___fldiv@new_exp)
  6723  16C7  00D2               	movlw	0
  6724  16C8  3000               	addwfc	1+(??___fldiv+2)+0,w
  6725  16C9  3D4B               	movwf	1+(___fldiv@new_exp)
  6726  16CA  00D3               	line	92
  6727                           	
  6728                           l1782:	
  6729  16CB                     	movf	(___fldiv@b+3),w
  6730  16CB  0847               	movwf	(___fldiv@rem+3)
  6731  16CC  00D0               	movf	(___fldiv@b+2),w
  6732  16CD  0846               	movwf	(___fldiv@rem+2)
  6733  16CE  00CF               	movf	(___fldiv@b+1),w
  6734  16CF  0845               	movwf	(___fldiv@rem+1)
  6735  16D0  00CE               	movf	(___fldiv@b),w
  6736  16D1  0844               	movwf	(___fldiv@rem)
  6737  16D2  00CD               
  6738                           	line	93
  6739                           	
  6740                           l1784:	
  6741  16D3                     	movlw	high highword(0)
  6742  16D3  3000               	movwf	(___fldiv@b+3)
  6743  16D4  00C7               	movlw	low highword(0)
  6744  16D5  3000               	movwf	(___fldiv@b+2)
  6745  16D6  00C6               	movlw	high(0)
  6746  16D7  3000               	movwf	(___fldiv@b+1)
  6747  16D8  00C5               	movlw	low(0)
  6748  16D9  3000               	movwf	(___fldiv@b)
  6749  16DA  00C4               
  6750                           	line	94
  6751                           	
  6752                           l1786:	
  6753  16DB                     	movlw	high highword(0)
  6754  16DB  3000               	movwf	(___fldiv@grs+3)
  6755  16DC  00D7               	movlw	low highword(0)
  6756  16DD  3000               	movwf	(___fldiv@grs+2)
  6757  16DE  00D6               	movlw	high(0)
  6758  16DF  3000               	movwf	(___fldiv@grs+1)
  6759  16E0  00D5               	movlw	low(0)
  6760  16E1  3000               	movwf	(___fldiv@grs)
  6761  16E2  00D4               
  6762                           	line	96
  6763                           	
  6764                           l1788:	
  6765  16E3                     	clrf	(___fldiv@aexp)
  6766  16E3  01D9               	line	97
  6767                           	goto	l1808
  6768  16E4  2F27               	
  6769                           l545:	
  6770  16E5                     	line	100
  6771                           	
  6772                           l1790:	
  6773  16E5                     	movf	((___fldiv@aexp)),w
  6774  16E5  0859               	btfsc	status,2
  6775  16E6  1903               	goto	u2121
  6776  16E7  2EE9               	goto	u2120
  6777  16E8  2EEA               u2121:
  6778  16E9                     	goto	l1800
  6779  16E9  2F06               u2120:
  6780  16EA                     	line	101
  6781                           	
  6782                           l1792:	
  6783  16EA                     	movlw	01h
  6784  16EA  3001               u2135:
  6785  16EB                     	lslf	(___fldiv@rem),f
  6786  16EB  35CD               	rlf	(___fldiv@rem+1),f
  6787  16EC  0DCE               	rlf	(___fldiv@rem+2),f
  6788  16ED  0DCF               	rlf	(___fldiv@rem+3),f
  6789  16EE  0DD0               	decfsz	wreg,f
  6790  16EF  0B89               	goto	u2135
  6791  16F0  2EEB               	line	102
  6792                           	movlw	01h
  6793  16F1  3001               u2145:
  6794  16F2                     	lslf	(___fldiv@b),f
  6795  16F2  35C4               	rlf	(___fldiv@b+1),f
  6796  16F3  0DC5               	rlf	(___fldiv@b+2),f
  6797  16F4  0DC6               	rlf	(___fldiv@b+3),f
  6798  16F5  0DC7               	decfsz	wreg,f
  6799  16F6  0B89               	goto	u2145
  6800  16F7  2EF2               	line	103
  6801                           	
  6802                           l1794:	
  6803  16F8                     	btfss	(___fldiv@grs+3),(31)&7
  6804  16F8  1FD7               	goto	u2151
  6805  16F9  2EFB               	goto	u2150
  6806  16FA  2EFC               u2151:
  6807  16FB                     	goto	l1798
  6808  16FB  2EFE               u2150:
  6809  16FC                     	line	104
  6810                           	
  6811                           l1796:	
  6812  16FC                     	bsf	(___fldiv@b)+(0/8),(0)&7
  6813  16FC  1444               	goto	l1798
  6814  16FD  2EFE               	line	105
  6815                           	
  6816                           l547:	
  6817  16FE                     	line	106
  6818                           	
  6819                           l1798:	
  6820  16FE                     	movlw	01h
  6821  16FE  3001               u2165:
  6822  16FF                     	lslf	(___fldiv@grs),f
  6823  16FF  35D4               	rlf	(___fldiv@grs+1),f
  6824  1700  0DD5               	rlf	(___fldiv@grs+2),f
  6825  1701  0DD6               	rlf	(___fldiv@grs+3),f
  6826  1702  0DD7               	decfsz	wreg,f
  6827  1703  0B89               	goto	u2165
  6828  1704  2EFF               	goto	l1800
  6829  1705  2F06               	line	107
  6830                           	
  6831                           l546:	
  6832  1706                     	line	112
  6833                           	
  6834                           l1800:	
  6835  1706                     	movf	(___fldiv@a+3),w
  6836  1706  0843               	subwf	(___fldiv@rem+3),w
  6837  1707  0250               	skipz
  6838  1708  1D03               	goto	u2175
  6839  1709  2F14               	movf	(___fldiv@a+2),w
  6840  170A  0842               	subwf	(___fldiv@rem+2),w
  6841  170B  024F               	skipz
  6842  170C  1D03               	goto	u2175
  6843  170D  2F14               	movf	(___fldiv@a+1),w
  6844  170E  0841               	subwf	(___fldiv@rem+1),w
  6845  170F  024E               	skipz
  6846  1710  1D03               	goto	u2175
  6847  1711  2F14               	movf	(___fldiv@a),w
  6848  1712  0840               	subwf	(___fldiv@rem),w
  6849  1713  024D               u2175:
  6850  1714                     	skipc
  6851  1714  1C03               	goto	u2171
  6852  1715  2F17               	goto	u2170
  6853  1716  2F18               u2171:
  6854  1717                     	goto	l1806
  6855  1717  2F22               u2170:
  6856  1718                     	line	115
  6857                           	
  6858                           l1802:	
  6859  1718                     	bsf	(___fldiv@grs)+(30/8),(30)&7
  6860  1718  1757               	line	116
  6861                           	
  6862                           l1804:	
  6863  1719                     	movf	(___fldiv@a),w
  6864  1719  0840               	subwf	(___fldiv@rem),f
  6865  171A  02CD               	movf	(___fldiv@a+1),w
  6866  171B  0841               	subwfb	(___fldiv@rem+1),f
  6867  171C  3BCE               	movf	(___fldiv@a+2),w
  6868  171D  0842               	subwfb	(___fldiv@rem+2),f
  6869  171E  3BCF               	movf	(___fldiv@a+3),w
  6870  171F  0843               	subwfb	(___fldiv@rem+3),f
  6871  1720  3BD0               	goto	l1806
  6872  1721  2F22               	line	117
  6873                           	
  6874                           l548:	
  6875  1722                     	line	118
  6876                           	
  6877                           l1806:	
  6878  1722                     	movlw	low(01h)
  6879  1722  3001               	movwf	(??___fldiv+0)+0
  6880  1723  00C8               	movf	(??___fldiv+0)+0,w
  6881  1724  0848               	addwf	(___fldiv@aexp),f
  6882  1725  07D9               	goto	l1808
  6883  1726  2F27               	line	119
  6884                           	
  6885                           l544:	
  6886  1727                     	line	97
  6887                           	
  6888                           l1808:	
  6889  1727                     	movlw	low(01Ah)
  6890  1727  301A               	subwf	(___fldiv@aexp),w
  6891  1728  0259               	skipc
  6892  1729  1C03               	goto	u2181
  6893  172A  2F2C               	goto	u2180
  6894  172B  2F2D               u2181:
  6895  172C                     	goto	l1790
  6896  172C  2EE5               u2180:
  6897  172D                     	goto	l1810
  6898  172D  2F2E               	
  6899                           l549:	
  6900  172E                     	line	122
  6901                           	
  6902                           l1810:	
  6903  172E                     	movf	(___fldiv@rem+3),w
  6904  172E  0850               	iorwf	(___fldiv@rem+2),w
  6905  172F  044F               	iorwf	(___fldiv@rem+1),w
  6906  1730  044E               	iorwf	(___fldiv@rem),w
  6907  1731  044D               	skipnz
  6908  1732  1903               	goto	u2191
  6909  1733  2F35               	goto	u2190
  6910  1734  2F36               u2191:
  6911  1735                     	goto	l1824
  6912  1735  2F52               u2190:
  6913  1736                     	line	123
  6914                           	
  6915                           l1812:	
  6916  1736                     	bsf	(___fldiv@grs)+(0/8),(0)&7
  6917  1736  1454               	goto	l1824
  6918  1737  2F52               	line	124
  6919                           	
  6920                           l550:	
  6921  1738                     	line	127
  6922                           	goto	l1824
  6923  1738  2F52               	
  6924                           l552:	
  6925  1739                     	line	128
  6926                           	
  6927                           l1814:	
  6928  1739                     	movlw	01h
  6929  1739  3001               u2205:
  6930  173A                     	lslf	(___fldiv@b),f
  6931  173A  35C4               	rlf	(___fldiv@b+1),f
  6932  173B  0DC5               	rlf	(___fldiv@b+2),f
  6933  173C  0DC6               	rlf	(___fldiv@b+3),f
  6934  173D  0DC7               	decfsz	wreg,f
  6935  173E  0B89               	goto	u2205
  6936  173F  2F3A               	line	129
  6937                           	
  6938                           l1816:	
  6939  1740                     	btfss	(___fldiv@grs+3),(31)&7
  6940  1740  1FD7               	goto	u2211
  6941  1741  2F43               	goto	u2210
  6942  1742  2F44               u2211:
  6943  1743                     	goto	l1820
  6944  1743  2F46               u2210:
  6945  1744                     	line	130
  6946                           	
  6947                           l1818:	
  6948  1744                     	bsf	(___fldiv@b)+(0/8),(0)&7
  6949  1744  1444               	goto	l1820
  6950  1745  2F46               	line	131
  6951                           	
  6952                           l553:	
  6953  1746                     	line	132
  6954                           	
  6955                           l1820:	
  6956  1746                     	movlw	01h
  6957  1746  3001               u2225:
  6958  1747                     	lslf	(___fldiv@grs),f
  6959  1747  35D4               	rlf	(___fldiv@grs+1),f
  6960  1748  0DD5               	rlf	(___fldiv@grs+2),f
  6961  1749  0DD6               	rlf	(___fldiv@grs+3),f
  6962  174A  0DD7               	decfsz	wreg,f
  6963  174B  0B89               	goto	u2225
  6964  174C  2F47               	line	133
  6965                           	
  6966                           l1822:	
  6967  174D                     	movlw	0FFh
  6968  174D  30FF               	addwf	(___fldiv@new_exp),f
  6969  174E  07D2               	movlw	0FFh
  6970  174F  30FF               	addwfc	(___fldiv@new_exp+1),f
  6971  1750  3DD3               	goto	l1824
  6972  1751  2F52               	line	134
  6973                           	
  6974                           l551:	
  6975  1752                     	line	127
  6976                           	
  6977                           l1824:	
  6978  1752                     	btfss	(___fldiv@b+2),(23)&7
  6979  1752  1FC6               	goto	u2231
  6980  1753  2F55               	goto	u2230
  6981  1754  2F56               u2231:
  6982  1755                     	goto	l1814
  6983  1755  2F39               u2230:
  6984  1756                     	goto	l1826
  6985  1756  2F57               	
  6986                           l554:	
  6987  1757                     	line	139
  6988                           	
  6989                           l1826:	
  6990  1757                     	clrf	(___fldiv@aexp)
  6991  1757  01D9               	line	140
  6992                           	
  6993                           l1828:	
  6994  1758                     	btfss	(___fldiv@grs+3),(31)&7
  6995  1758  1FD7               	goto	u2241
  6996  1759  2F5B               	goto	u2240
  6997  175A  2F5C               u2241:
  6998  175B                     	goto	l1836
  6999  175B  2F7C               u2240:
  7000  175C                     	line	141
  7001                           	
  7002                           l1830:	
  7003  175C                     	movlw	0FFh
  7004  175C  30FF               	andwf	(___fldiv@grs),w
  7005  175D  0554               	movwf	(??___fldiv+0)+0
  7006  175E  00C8               	movlw	0FFh
  7007  175F  30FF               	andwf	(___fldiv@grs+1),w
  7008  1760  0555               	movwf	((??___fldiv+0)+0+1)
  7009  1761  00C9               	movlw	0FFh
  7010  1762  30FF               	andwf	(___fldiv@grs+2),w
  7011  1763  0556               	movwf	((??___fldiv+0)+0+2)
  7012  1764  00CA               	movlw	07Fh
  7013  1765  307F               	andwf	(___fldiv@grs+3),w
  7014  1766  0557               	movwf	((??___fldiv+0)+0+3)
  7015  1767  00CB               	movf	3+(??___fldiv+0)+0,w
  7016  1768  084B               	iorwf	2+(??___fldiv+0)+0,w
  7017  1769  044A               	iorwf	1+(??___fldiv+0)+0,w
  7018  176A  0449               	iorwf	0+(??___fldiv+0)+0,w
  7019  176B  0448               	skipnz
  7020  176C  1903               	goto	u2251
  7021  176D  2F6F               	goto	u2250
  7022  176E  2F70               u2251:
  7023  176F                     	goto	l556
  7024  176F  2F73               u2250:
  7025  1770                     	line	142
  7026                           	
  7027                           l1832:	
  7028  1770                     	clrf	(___fldiv@aexp)
  7029  1770  01D9               	incf	(___fldiv@aexp),f
  7030  1771  0AD9               	line	143
  7031                           	goto	l1836
  7032  1772  2F7C               	line	144
  7033                           	
  7034                           l556:	
  7035  1773                     	line	145
  7036                           	btfss	(___fldiv@b),(0)&7
  7037  1773  1C44               	goto	u2261
  7038  1774  2F76               	goto	u2260
  7039  1775  2F77               u2261:
  7040  1776                     	goto	l1836
  7041  1776  2F7C               u2260:
  7042  1777                     	line	146
  7043                           	
  7044                           l1834:	
  7045  1777                     	clrf	(___fldiv@aexp)
  7046  1777  01D9               	incf	(___fldiv@aexp),f
  7047  1778  0AD9               	goto	l1836
  7048  1779  2F7C               	line	147
  7049                           	
  7050                           l558:	
  7051  177A                     	goto	l1836
  7052  177A  2F7C               	line	148
  7053                           	
  7054                           l557:	
  7055  177B                     	goto	l1836
  7056  177B  2F7C               	line	149
  7057                           	
  7058                           l555:	
  7059  177C                     	line	150
  7060                           	
  7061                           l1836:	
  7062  177C                     	movf	((___fldiv@aexp)),w
  7063  177C  0859               	btfsc	status,2
  7064  177D  1903               	goto	u2271
  7065  177E  2F80               	goto	u2270
  7066  177F  2F81               u2271:
  7067  1780                     	goto	l1846
  7068  1780  2FAB               u2270:
  7069  1781                     	line	151
  7070                           	
  7071                           l1838:	
  7072  1781                     	movlw	01h
  7073  1781  3001               	addwf	(___fldiv@b),f
  7074  1782  07C4               	movlw	0
  7075  1783  3000               	addwfc	(___fldiv@b+1),f
  7076  1784  3DC5               	movlw	0
  7077  1785  3000               	addwfc	(___fldiv@b+2),f
  7078  1786  3DC6               	movlw	0
  7079  1787  3000               	addwfc	(___fldiv@b+3),f
  7080  1788  3DC7               	line	152
  7081                           	
  7082                           l1840:	
  7083  1789                     	btfss	(___fldiv@b+3),(24)&7
  7084  1789  1C47               	goto	u2281
  7085  178A  2F8C               	goto	u2280
  7086  178B  2F8D               u2281:
  7087  178C                     	goto	l1846
  7088  178C  2FAB               u2280:
  7089  178D                     	line	153
  7090                           	
  7091                           l1842:	
  7092  178D                     	movf	(___fldiv@b),w
  7093  178D  0844               	movwf	(??___fldiv+0)+0
  7094  178E  00C8               	movf	(___fldiv@b+1),w
  7095  178F  0845               	movwf	((??___fldiv+0)+0+1)
  7096  1790  00C9               	movf	(___fldiv@b+2),w
  7097  1791  0846               	movwf	((??___fldiv+0)+0+2)
  7098  1792  00CA               	movf	(___fldiv@b+3),w
  7099  1793  0847               	movwf	((??___fldiv+0)+0+3)
  7100  1794  00CB               	movlw	01h
  7101  1795  3001               	movwf	(??___fldiv+4)+0
  7102  1796  00CC               u2295:
  7103  1797                     	asrf	(??___fldiv+0)+3,f
  7104  1797  37CB               	rrf	(??___fldiv+0)+2,f
  7105  1798  0CCA               	rrf	(??___fldiv+0)+1,f
  7106  1799  0CC9               	rrf	(??___fldiv+0)+0,f
  7107  179A  0CC8               u2290:
  7108  179B                     	decfsz	(??___fldiv+4)+0,f
  7109  179B  0BCC               	goto	u2295
  7110  179C  2F97               	movf	3+(??___fldiv+0)+0,w
  7111  179D  084B               	movwf	(___fldiv@b+3)
  7112  179E  00C7               	movf	2+(??___fldiv+0)+0,w
  7113  179F  084A               	movwf	(___fldiv@b+2)
  7114  17A0  00C6               	movf	1+(??___fldiv+0)+0,w
  7115  17A1  0849               	movwf	(___fldiv@b+1)
  7116  17A2  00C5               	movf	0+(??___fldiv+0)+0,w
  7117  17A3  0848               	movwf	(___fldiv@b)
  7118  17A4  00C4               
  7119                           	line	154
  7120                           	
  7121                           l1844:	
  7122  17A5                     	movlw	01h
  7123  17A5  3001               	addwf	(___fldiv@new_exp),f
  7124  17A6  07D2               	movlw	0
  7125  17A7  3000               	addwfc	(___fldiv@new_exp+1),f
  7126  17A8  3DD3               	goto	l1846
  7127  17A9  2FAB               	line	155
  7128                           	
  7129                           l560:	
  7130  17AA                     	goto	l1846
  7131  17AA  2FAB               	line	156
  7132                           	
  7133                           l559:	
  7134  17AB                     	line	159
  7135                           	
  7136                           l1846:	
  7137  17AB                     	movf	(___fldiv@new_exp+1),w
  7138  17AB  0853               	xorlw	80h
  7139  17AC  3A80               	movwf	(??___fldiv+0)+0
  7140  17AD  00C8               	movlw	(0)^80h
  7141  17AE  3080               	subwf	(??___fldiv+0)+0,w
  7142  17AF  0248               	skipz
  7143  17B0  1D03               	goto	u2305
  7144  17B1  2FB4               	movlw	0FFh
  7145  17B2  30FF               	subwf	(___fldiv@new_exp),w
  7146  17B3  0252               u2305:
  7147  17B4                     
  7148                           	skipc
  7149  17B4  1C03               	goto	u2301
  7150  17B5  2FB7               	goto	u2300
  7151  17B6  2FB8               u2301:
  7152  17B7                     	goto	l561
  7153  17B7  2FC5               u2300:
  7154  17B8                     	line	160
  7155                           	
  7156                           l1848:	
  7157  17B8                     	movlw	0FFh
  7158  17B8  30FF               	movlb 0	; select bank0
  7159  17B9  0140               	movwf	(___fldiv@new_exp)
  7160  17BA  00D2               	movlw	0
  7161  17BB  3000               	movwf	((___fldiv@new_exp))+1
  7162  17BC  00D3               	line	161
  7163                           	movlw	high highword(0)
  7164  17BD  3000               	movwf	(___fldiv@b+3)
  7165  17BE  00C7               	movlw	low highword(0)
  7166  17BF  3000               	movwf	(___fldiv@b+2)
  7167  17C0  00C6               	movlw	high(0)
  7168  17C1  3000               	movwf	(___fldiv@b+1)
  7169  17C2  00C5               	movlw	low(0)
  7170  17C3  3000               	movwf	(___fldiv@b)
  7171  17C4  00C4               
  7172                           	line	162
  7173                           	
  7174                           l561:	
  7175  17C5                     	line	165
  7176                           	movlb 0	; select bank0
  7177  17C5  0140               	movf	(___fldiv@new_exp+1),w
  7178  17C6  0853               	xorlw	80h
  7179  17C7  3A80               	movwf	(??___fldiv+0)+0
  7180  17C8  00C8               	movlw	(0)^80h
  7181  17C9  3080               	subwf	(??___fldiv+0)+0,w
  7182  17CA  0248               	skipz
  7183  17CB  1D03               	goto	u2315
  7184  17CC  2FCF               	movlw	01h
  7185  17CD  3001               	subwf	(___fldiv@new_exp),w
  7186  17CE  0252               u2315:
  7187  17CF                     
  7188                           	skipnc
  7189  17CF  1803               	goto	u2311
  7190  17D0  2FD2               	goto	u2310
  7191  17D1  2FD3               u2311:
  7192  17D2                     	goto	l562
  7193  17D2  2FDF               u2310:
  7194  17D3                     	line	166
  7195                           	
  7196                           l1850:	
  7197  17D3                     	movlb 0	; select bank0
  7198  17D3  0140               	clrf	(___fldiv@new_exp)
  7199  17D4  01D2               	clrf	(___fldiv@new_exp+1)
  7200  17D5  01D3               	line	167
  7201                           	
  7202                           l1852:	
  7203  17D6                     	movlw	high highword(0)
  7204  17D6  3000               	movwf	(___fldiv@b+3)
  7205  17D7  00C7               	movlw	low highword(0)
  7206  17D8  3000               	movwf	(___fldiv@b+2)
  7207  17D9  00C6               	movlw	high(0)
  7208  17DA  3000               	movwf	(___fldiv@b+1)
  7209  17DB  00C5               	movlw	low(0)
  7210  17DC  3000               	movwf	(___fldiv@b)
  7211  17DD  00C4               
  7212                           	line	169
  7213                           	
  7214                           l1854:	
  7215  17DE                     	clrf	(___fldiv@sign)
  7216  17DE  01D1               	line	170
  7217                           	
  7218                           l562:	
  7219  17DF                     	line	173
  7220                           	movlb 0	; select bank0
  7221  17DF  0140               	movf	(___fldiv@new_exp),w
  7222  17E0  0852               	movwf	(??___fldiv+0)+0
  7223  17E1  00C8               	movf	(??___fldiv+0)+0,w
  7224  17E2  0848               	movwf	(___fldiv@bexp)
  7225  17E3  00D8               	line	175
  7226                           	
  7227                           l1856:	
  7228  17E4                     	btfss	(___fldiv@bexp),(0)&7
  7229  17E4  1C58               	goto	u2321
  7230  17E5  2FE7               	goto	u2320
  7231  17E6  2FE8               u2321:
  7232  17E7                     	goto	l1860
  7233  17E7  2FEA               u2320:
  7234  17E8                     	line	176
  7235                           	
  7236                           l1858:	
  7237  17E8                     	bsf	0+(___fldiv@b)+02h+(7/8),(7)&7
  7238  17E8  17C6               	line	177
  7239                           	goto	l564
  7240  17E9  2FEE               	line	179
  7241                           	
  7242                           l563:	
  7243  17EA                     	line	180
  7244                           	
  7245                           l1860:	
  7246  17EA                     	movlw	low(07Fh)
  7247  17EA  307F               	movwf	(??___fldiv+0)+0
  7248  17EB  00C8               	movf	(??___fldiv+0)+0,w
  7249  17EC  0848               	andwf	0+(___fldiv@b)+02h,f
  7250  17ED  05C6               	line	181
  7251                           	
  7252                           l564:	
  7253  17EE                     	line	182
  7254                           	lsrf	(___fldiv@bexp),w
  7255  17EE  3658               	movwf	(??___fldiv+0)+0
  7256  17EF  00C8               	movf	(??___fldiv+0)+0,w
  7257  17F0  0848               	movwf	0+(___fldiv@b)+03h
  7258  17F1  00C7               	line	183
  7259                           	movf	(___fldiv@sign),w
  7260  17F2  0851               	movwf	(??___fldiv+0)+0
  7261  17F3  00C8               	movf	(??___fldiv+0)+0,w
  7262  17F4  0848               	iorwf	0+(___fldiv@b)+03h,f
  7263  17F5  04C7               	line	184
  7264                           	
  7265                           l1862:	
  7266  17F6                     	movf	(___fldiv@b+3),w
  7267  17F6  0847               	movwf	(?___fldiv+3)
  7268  17F7  00C3               	movf	(___fldiv@b+2),w
  7269  17F8  0846               	movwf	(?___fldiv+2)
  7270  17F9  00C2               	movf	(___fldiv@b+1),w
  7271  17FA  0845               	movwf	(?___fldiv+1)
  7272  17FB  00C1               	movf	(___fldiv@b),w
  7273  17FC  0844               	movwf	(?___fldiv)
  7274  17FD  00C0               
  7275                           	goto	l542
  7276  17FE  2FFF               	
  7277                           l1864:	
  7278  17FF                     	line	185
  7279                           	
  7280                           l542:	
  7281  17FF                     	return
  7282  17FF  0008               	opt stack 0
  7283                           GLOBAL	__end_of___fldiv
  7284                           	__end_of___fldiv:
  7285  1800                     	signat	___fldiv,8316
  7286                           	global	___fladd
  7287                           
  7288 ;; *************** function ___fladd *****************
  7289 ;; Defined at:
  7290 ;;		line 10 in file "C:\Program Files (x86)\Microchip\xc8\v2.00\pic\sources\c99\common\sprcadd.c"
  7291 ;; Parameters:    Size  Location     Type
  7292 ;;  b               4   58[BANK0 ] unsigned char 
  7293 ;;  a               4   62[BANK0 ] unsigned char 
  7294 ;; Auto vars:     Size  Location     Type
  7295 ;;  grs             1    3[BANK1 ] unsigned char 
  7296 ;;  bexp            1    2[BANK1 ] unsigned char 
  7297 ;;  aexp            1    1[BANK1 ] unsigned char 
  7298 ;;  signs           1    0[BANK1 ] unsigned char 
  7299 ;; Return value:  Size  Location     Type
  7300 ;;                  4   58[BANK0 ] unsigned char 
  7301 ;; Registers used:
  7302 ;;		wreg, status,2, status,0
  7303 ;; Tracked objects:
  7304 ;;		On entry : 0/0
  7305 ;;		On exit  : 0/0
  7306 ;;		Unchanged: 0/0
  7307 ;; Data sizes:     COMMON   BANK0   BANK1   BANK2   BANK3   BANK4   BANK5   BANK6   BANK7   BANK8   BANK9  BANK10  BANK1
       1  BANK12
  7308 ;;      Params:         0       8       0       0       0       0       0       0       0       0       0       0       
       0       0
  7309 ;;      Locals:         0       0       4       0       0       0       0       0       0       0       0       0       
       0       0
  7310 ;;      Temps:          0      12       0       0       0       0       0       0       0       0       0       0       
       0       0
  7311 ;;      Totals:         0      20       4       0       0       0       0       0       0       0       0       0       
       0       0
  7312 ;;Total ram usage:       24 bytes
  7313 ;; Hardware stack levels used:    1
  7314 ;; Hardware stack levels required when called:    2
  7315 ;; This function calls:
  7316 ;;		Nothing
  7317 ;; This function is called by:
  7318 ;;		_readSI7006
  7319 ;;		_logf
  7320 ;; This function uses a non-reentrant model
  7321 ;;
  7322                           psect	text9,local,class=CODE,delta=2,merge=1,group=1
  7323                           	file	"C:\Program Files (x86)\Microchip\xc8\v2.00\pic\sources\c99\common\sprcadd.c"
  7324                           	line	10
  7325                           global __ptext9
  7326                           __ptext9:	;psect for function ___fladd
  7327  0D2F                     psect	text9
  7328                           	file	"C:\Program Files (x86)\Microchip\xc8\v2.00\pic\sources\c99\common\sprcadd.c"
  7329                           	line	10
  7330                           	global	__size_of___fladd
  7331                           	__size_of___fladd	equ	__end_of___fladd-___fladd
  7332  02D1                     	
  7333                           ___fladd:	
  7334  0D2F                     ;incstack = 0
  7335                           	opt	stack 11
  7336                           ; Regs used in ___fladd: [wreg+status,2+status,0]
  7337                           	line	21
  7338                           	
  7339                           l1532:	
  7340  0D2F                     	movlb 0	; select bank0
  7341  0D2F  0140               	movf	0+(___fladd@b)+03h,w
  7342  0D30  085D               	andlw	080h
  7343  0D31  3980               	movwf	(??___fladd+0)+0
  7344  0D32  00E2               	movf	(??___fladd+0)+0,w
  7345  0D33  0862               	movlb 1	; select bank1
  7346  0D34  0141               	movwf	(___fladd@signs)^080h
  7347  0D35  00A0               	line	22
  7348                           	
  7349                           l1534:	
  7350  0D36                     	movlb 0	; select bank0
  7351  0D36  0140               	lslf	0+(___fladd@b)+03h,w
  7352  0D37  355D               	movwf	(??___fladd+0)+0
  7353  0D38  00E2               	movf	(??___fladd+0)+0,w
  7354  0D39  0862               	movlb 1	; select bank1
  7355  0D3A  0141               	movwf	(___fladd@bexp)^080h
  7356  0D3B  00A2               	line	23
  7357                           	
  7358                           l1536:	
  7359  0D3C                     	movlb 0	; select bank0
  7360  0D3C  0140               	btfss	0+(___fladd@b)+02h,(7)&7
  7361  0D3D  1FDC               	goto	u1611
  7362  0D3E  2D40               	goto	u1610
  7363  0D3F  2D41               u1611:
  7364  0D40                     	goto	l1540
  7365  0D40  2D44               u1610:
  7366  0D41                     	line	24
  7367                           	
  7368                           l1538:	
  7369  0D41                     	movlb 1	; select bank1
  7370  0D41  0141               	bsf	(___fladd@bexp)^080h+(0/8),(0)&7
  7371  0D42  1422               	goto	l1540
  7372  0D43  2D44               	line	25
  7373                           	
  7374                           l476:	
  7375  0D44                     	line	28
  7376                           	
  7377                           l1540:	
  7378  0D44                     	movlb 1	; select bank1
  7379  0D44  0141               	movf	((___fladd@bexp)^080h),w
  7380  0D45  0822               	btfsc	status,2
  7381  0D46  1903               	goto	u1621
  7382  0D47  2D49               	goto	u1620
  7383  0D48  2D4A               u1621:
  7384  0D49                     	goto	l1550
  7385  0D49  2D5D               u1620:
  7386  0D4A                     	line	30
  7387                           	
  7388                           l1542:	
  7389  0D4A                     		incf	((___fladd@bexp)^080h),w
  7390  0D4A  0A22               	btfss	status,2
  7391  0D4B  1D03               	goto	u1631
  7392  0D4C  2D4E               	goto	u1630
  7393  0D4D  2D4F               u1631:
  7394  0D4E                     	goto	l1546
  7395  0D4E  2D59               u1630:
  7396  0D4F                     	line	32
  7397                           	
  7398                           l1544:	
  7399  0D4F                     	movlw	0x0
  7400  0D4F  3000               	movlb 0	; select bank0
  7401  0D50  0140               	movwf	(___fladd@b+3)
  7402  0D51  00DD               	movlw	0x0
  7403  0D52  3000               	movwf	(___fladd@b+2)
  7404  0D53  00DC               	movlw	0x0
  7405  0D54  3000               	movwf	(___fladd@b+1)
  7406  0D55  00DB               	movlw	0x0
  7407  0D56  3000               	movwf	(___fladd@b)
  7408  0D57  00DA               
  7409                           	goto	l1546
  7410  0D58  2D59               	line	33
  7411                           	
  7412                           l478:	
  7413  0D59                     	line	35
  7414                           	
  7415                           l1546:	
  7416  0D59                     	movlb 0	; select bank0
  7417  0D59  0140               	bsf	(___fladd@b)+(23/8),(23)&7
  7418  0D5A  17DC               	line	37
  7419                           	
  7420                           l1548:	
  7421  0D5B                     	clrf	0+(___fladd@b)+03h
  7422  0D5B  01DD               	line	38
  7423                           	goto	l1552
  7424  0D5C  2D67               	line	39
  7425                           	
  7426                           l477:	
  7427  0D5D                     	line	41
  7428                           	
  7429                           l1550:	
  7430  0D5D                     	movlw	0x0
  7431  0D5D  3000               	movlb 0	; select bank0
  7432  0D5E  0140               	movwf	(___fladd@b+3)
  7433  0D5F  00DD               	movlw	0x0
  7434  0D60  3000               	movwf	(___fladd@b+2)
  7435  0D61  00DC               	movlw	0x0
  7436  0D62  3000               	movwf	(___fladd@b+1)
  7437  0D63  00DB               	movlw	0x0
  7438  0D64  3000               	movwf	(___fladd@b)
  7439  0D65  00DA               
  7440                           	goto	l1552
  7441  0D66  2D67               	line	42
  7442                           	
  7443                           l479:	
  7444  0D67                     	line	44
  7445                           	
  7446                           l1552:	
  7447  0D67                     	movf	0+(___fladd@a)+03h,w
  7448  0D67  0861               	andlw	080h
  7449  0D68  3980               	movwf	(??___fladd+0)+0
  7450  0D69  00E2               	movf	(??___fladd+0)+0,w
  7451  0D6A  0862               	movlb 1	; select bank1
  7452  0D6B  0141               	movwf	(___fladd@aexp)^080h
  7453  0D6C  00A1               	line	46
  7454                           	
  7455                           l1554:	
  7456  0D6D                     	movf	(___fladd@aexp)^080h,w
  7457  0D6D  0821               	xorwf	(___fladd@signs)^080h,w
  7458  0D6E  0620               	skipnz
  7459  0D6F  1903               	goto	u1641
  7460  0D70  2D72               	goto	u1640
  7461  0D71  2D73               u1641:
  7462  0D72                     	goto	l1558
  7463  0D72  2D75               u1640:
  7464  0D73                     	line	47
  7465                           	
  7466                           l1556:	
  7467  0D73                     	bsf	(___fladd@signs)^080h+(6/8),(6)&7
  7468  0D73  1720               	goto	l1558
  7469  0D74  2D75               	line	48
  7470                           	
  7471                           l480:	
  7472  0D75                     	line	49
  7473                           	
  7474                           l1558:	
  7475  0D75                     	movlb 0	; select bank0
  7476  0D75  0140               	lslf	0+(___fladd@a)+03h,w
  7477  0D76  3561               	movwf	(??___fladd+0)+0
  7478  0D77  00E2               	movf	(??___fladd+0)+0,w
  7479  0D78  0862               	movlb 1	; select bank1
  7480  0D79  0141               	movwf	(___fladd@aexp)^080h
  7481  0D7A  00A1               	line	50
  7482                           	
  7483                           l1560:	
  7484  0D7B                     	movlb 0	; select bank0
  7485  0D7B  0140               	btfss	0+(___fladd@a)+02h,(7)&7
  7486  0D7C  1FE0               	goto	u1651
  7487  0D7D  2D7F               	goto	u1650
  7488  0D7E  2D80               u1651:
  7489  0D7F                     	goto	l1564
  7490  0D7F  2D83               u1650:
  7491  0D80                     	line	51
  7492                           	
  7493                           l1562:	
  7494  0D80                     	movlb 1	; select bank1
  7495  0D80  0141               	bsf	(___fladd@aexp)^080h+(0/8),(0)&7
  7496  0D81  1421               	goto	l1564
  7497  0D82  2D83               	line	52
  7498                           	
  7499                           l481:	
  7500  0D83                     	line	55
  7501                           	
  7502                           l1564:	
  7503  0D83                     	movlb 1	; select bank1
  7504  0D83  0141               	movf	((___fladd@aexp)^080h),w
  7505  0D84  0821               	btfsc	status,2
  7506  0D85  1903               	goto	u1661
  7507  0D86  2D88               	goto	u1660
  7508  0D87  2D89               u1661:
  7509  0D88                     	goto	l1574
  7510  0D88  2D9C               u1660:
  7511  0D89                     	line	57
  7512                           	
  7513                           l1566:	
  7514  0D89                     		incf	((___fladd@aexp)^080h),w
  7515  0D89  0A21               	btfss	status,2
  7516  0D8A  1D03               	goto	u1671
  7517  0D8B  2D8D               	goto	u1670
  7518  0D8C  2D8E               u1671:
  7519  0D8D                     	goto	l1570
  7520  0D8D  2D98               u1670:
  7521  0D8E                     	line	59
  7522                           	
  7523                           l1568:	
  7524  0D8E                     	movlw	0x0
  7525  0D8E  3000               	movlb 0	; select bank0
  7526  0D8F  0140               	movwf	(___fladd@a+3)
  7527  0D90  00E1               	movlw	0x0
  7528  0D91  3000               	movwf	(___fladd@a+2)
  7529  0D92  00E0               	movlw	0x0
  7530  0D93  3000               	movwf	(___fladd@a+1)
  7531  0D94  00DF               	movlw	0x0
  7532  0D95  3000               	movwf	(___fladd@a)
  7533  0D96  00DE               
  7534                           	goto	l1570
  7535  0D97  2D98               	line	60
  7536                           	
  7537                           l483:	
  7538  0D98                     	line	62
  7539                           	
  7540                           l1570:	
  7541  0D98                     	movlb 0	; select bank0
  7542  0D98  0140               	bsf	(___fladd@a)+(23/8),(23)&7
  7543  0D99  17E0               	line	64
  7544                           	
  7545                           l1572:	
  7546  0D9A                     	clrf	0+(___fladd@a)+03h
  7547  0D9A  01E1               	line	65
  7548                           	goto	l484
  7549  0D9B  2DA5               	line	66
  7550                           	
  7551                           l482:	
  7552  0D9C                     	line	68
  7553                           	
  7554                           l1574:	
  7555  0D9C                     	movlw	0x0
  7556  0D9C  3000               	movlb 0	; select bank0
  7557  0D9D  0140               	movwf	(___fladd@a+3)
  7558  0D9E  00E1               	movlw	0x0
  7559  0D9F  3000               	movwf	(___fladd@a+2)
  7560  0DA0  00E0               	movlw	0x0
  7561  0DA1  3000               	movwf	(___fladd@a+1)
  7562  0DA2  00DF               	movlw	0x0
  7563  0DA3  3000               	movwf	(___fladd@a)
  7564  0DA4  00DE               
  7565                           	line	69
  7566                           	
  7567                           l484:	
  7568  0DA5                     	line	75
  7569                           	movlb 1	; select bank1
  7570  0DA5  0141               	movf	(___fladd@bexp)^080h,w
  7571  0DA6  0822               	subwf	(___fladd@aexp)^080h,w
  7572  0DA7  0221               	skipnc
  7573  0DA8  1803               	goto	u1681
  7574  0DA9  2DAB               	goto	u1680
  7575  0DAA  2DAC               u1681:
  7576  0DAB                     	goto	l1610
  7577  0DAB  2E0B               u1680:
  7578  0DAC                     	line	77
  7579                           	
  7580                           l1576:	
  7581  0DAC                     	btfss	(___fladd@signs)^080h,(6)&7
  7582  0DAC  1F20               	goto	u1691
  7583  0DAD  2DAF               	goto	u1690
  7584  0DAE  2DB0               u1691:
  7585  0DAF                     	goto	l1580
  7586  0DAF  2DB7               u1690:
  7587  0DB0                     	line	78
  7588                           	
  7589                           l1578:	
  7590  0DB0                     	movlw	low(080h)
  7591  0DB0  3080               	movlb 0	; select bank0
  7592  0DB1  0140               	movwf	(??___fladd+0)+0
  7593  0DB2  00E2               	movf	(??___fladd+0)+0,w
  7594  0DB3  0862               	movlb 1	; select bank1
  7595  0DB4  0141               	xorwf	(___fladd@signs)^080h,f
  7596  0DB5  06A0               	goto	l1580
  7597  0DB6  2DB7               	line	79
  7598                           	
  7599                           l486:	
  7600  0DB7                     	line	81
  7601                           	
  7602                           l1580:	
  7603  0DB7                     	movf	(___fladd@bexp)^080h,w
  7604  0DB7  0822               	movlb 0	; select bank0
  7605  0DB8  0140               	movwf	(??___fladd+0)+0
  7606  0DB9  00E2               	movf	(??___fladd+0)+0,w
  7607  0DBA  0862               	movlb 1	; select bank1
  7608  0DBB  0141               	movwf	(___fladd@grs)^080h
  7609  0DBC  00A3               	line	82
  7610                           	
  7611                           l1582:	
  7612  0DBD                     	movf	(___fladd@aexp)^080h,w
  7613  0DBD  0821               	movlb 0	; select bank0
  7614  0DBE  0140               	movwf	(??___fladd+0)+0
  7615  0DBF  00E2               	movf	(??___fladd+0)+0,w
  7616  0DC0  0862               	movlb 1	; select bank1
  7617  0DC1  0141               	movwf	(___fladd@bexp)^080h
  7618  0DC2  00A2               	line	83
  7619                           	
  7620                           l1584:	
  7621  0DC3                     	movf	(___fladd@grs)^080h,w
  7622  0DC3  0823               	movlb 0	; select bank0
  7623  0DC4  0140               	movwf	(??___fladd+0)+0
  7624  0DC5  00E2               	movf	(??___fladd+0)+0,w
  7625  0DC6  0862               	movlb 1	; select bank1
  7626  0DC7  0141               	movwf	(___fladd@aexp)^080h
  7627  0DC8  00A1               	line	84
  7628                           	
  7629                           l1586:	
  7630  0DC9                     	movlb 0	; select bank0
  7631  0DC9  0140               	movf	(___fladd@b),w
  7632  0DCA  085A               	movwf	(??___fladd+0)+0
  7633  0DCB  00E2               	movf	(??___fladd+0)+0,w
  7634  0DCC  0862               	movlb 1	; select bank1
  7635  0DCD  0141               	movwf	(___fladd@grs)^080h
  7636  0DCE  00A3               	line	85
  7637                           	
  7638                           l1588:	
  7639  0DCF                     	movlb 0	; select bank0
  7640  0DCF  0140               	movf	(___fladd@a),w
  7641  0DD0  085E               	movwf	(??___fladd+0)+0
  7642  0DD1  00E2               	movf	(??___fladd+0)+0,w
  7643  0DD2  0862               	movwf	(___fladd@b)
  7644  0DD3  00DA               	line	86
  7645                           	
  7646                           l1590:	
  7647  0DD4                     	movlb 1	; select bank1
  7648  0DD4  0141               	movf	(___fladd@grs)^080h,w
  7649  0DD5  0823               	movlb 0	; select bank0
  7650  0DD6  0140               	movwf	(??___fladd+0)+0
  7651  0DD7  00E2               	movf	(??___fladd+0)+0,w
  7652  0DD8  0862               	movwf	(___fladd@a)
  7653  0DD9  00DE               	line	87
  7654                           	
  7655                           l1592:	
  7656  0DDA                     	movf	0+(___fladd@b)+01h,w
  7657  0DDA  085B               	movwf	(??___fladd+0)+0
  7658  0DDB  00E2               	movf	(??___fladd+0)+0,w
  7659  0DDC  0862               	movlb 1	; select bank1
  7660  0DDD  0141               	movwf	(___fladd@grs)^080h
  7661  0DDE  00A3               	line	88
  7662                           	
  7663                           l1594:	
  7664  0DDF                     	movlb 0	; select bank0
  7665  0DDF  0140               	movf	0+(___fladd@a)+01h,w
  7666  0DE0  085F               	movwf	(??___fladd+0)+0
  7667  0DE1  00E2               	movf	(??___fladd+0)+0,w
  7668  0DE2  0862               	movwf	0+(___fladd@b)+01h
  7669  0DE3  00DB               	line	89
  7670                           	
  7671                           l1596:	
  7672  0DE4                     	movlb 1	; select bank1
  7673  0DE4  0141               	movf	(___fladd@grs)^080h,w
  7674  0DE5  0823               	movlb 0	; select bank0
  7675  0DE6  0140               	movwf	(??___fladd+0)+0
  7676  0DE7  00E2               	movf	(??___fladd+0)+0,w
  7677  0DE8  0862               	movwf	0+(___fladd@a)+01h
  7678  0DE9  00DF               	line	90
  7679                           	
  7680                           l1598:	
  7681  0DEA                     	movf	0+(___fladd@b)+02h,w
  7682  0DEA  085C               	movwf	(??___fladd+0)+0
  7683  0DEB  00E2               	movf	(??___fladd+0)+0,w
  7684  0DEC  0862               	movlb 1	; select bank1
  7685  0DED  0141               	movwf	(___fladd@grs)^080h
  7686  0DEE  00A3               	line	91
  7687                           	
  7688                           l1600:	
  7689  0DEF                     	movlb 0	; select bank0
  7690  0DEF  0140               	movf	0+(___fladd@a)+02h,w
  7691  0DF0  0860               	movwf	(??___fladd+0)+0
  7692  0DF1  00E2               	movf	(??___fladd+0)+0,w
  7693  0DF2  0862               	movwf	0+(___fladd@b)+02h
  7694  0DF3  00DC               	line	92
  7695                           	
  7696                           l1602:	
  7697  0DF4                     	movlb 1	; select bank1
  7698  0DF4  0141               	movf	(___fladd@grs)^080h,w
  7699  0DF5  0823               	movlb 0	; select bank0
  7700  0DF6  0140               	movwf	(??___fladd+0)+0
  7701  0DF7  00E2               	movf	(??___fladd+0)+0,w
  7702  0DF8  0862               	movwf	0+(___fladd@a)+02h
  7703  0DF9  00E0               	line	93
  7704                           	
  7705                           l1604:	
  7706  0DFA                     	movf	0+(___fladd@b)+03h,w
  7707  0DFA  085D               	movwf	(??___fladd+0)+0
  7708  0DFB  00E2               	movf	(??___fladd+0)+0,w
  7709  0DFC  0862               	movlb 1	; select bank1
  7710  0DFD  0141               	movwf	(___fladd@grs)^080h
  7711  0DFE  00A3               	line	94
  7712                           	
  7713                           l1606:	
  7714  0DFF                     	movlb 0	; select bank0
  7715  0DFF  0140               	movf	0+(___fladd@a)+03h,w
  7716  0E00  0861               	movwf	(??___fladd+0)+0
  7717  0E01  00E2               	movf	(??___fladd+0)+0,w
  7718  0E02  0862               	movwf	0+(___fladd@b)+03h
  7719  0E03  00DD               	line	95
  7720                           	
  7721                           l1608:	
  7722  0E04                     	movlb 1	; select bank1
  7723  0E04  0141               	movf	(___fladd@grs)^080h,w
  7724  0E05  0823               	movlb 0	; select bank0
  7725  0E06  0140               	movwf	(??___fladd+0)+0
  7726  0E07  00E2               	movf	(??___fladd+0)+0,w
  7727  0E08  0862               	movwf	0+(___fladd@a)+03h
  7728  0E09  00E1               	goto	l1610
  7729  0E0A  2E0B               	line	96
  7730                           	
  7731                           l485:	
  7732  0E0B                     	line	98
  7733                           	
  7734                           l1610:	
  7735  0E0B                     	movlb 1	; select bank1
  7736  0E0B  0141               	clrf	(___fladd@grs)^080h
  7737  0E0C  01A3               	line	100
  7738                           	
  7739                           l1612:	
  7740  0E0D                     	movf	(___fladd@bexp)^080h,w
  7741  0E0D  0822               	movlb 0	; select bank0
  7742  0E0E  0140               	movwf	(??___fladd+0)+0
  7743  0E0F  00E2               	clrf	(??___fladd+0)+0+1
  7744  0E10  01E3               	comf	(??___fladd+0)+0,f
  7745  0E11  09E2               	comf	(??___fladd+0)+1,f
  7746  0E12  09E3               	incf	(??___fladd+0)+0,f
  7747  0E13  0AE2               	skipnz
  7748  0E14  1903               	incf	(??___fladd+0)+1,f
  7749  0E15  0AE3               	movlb 1	; select bank1
  7750  0E16  0141               	movf	(___fladd@aexp)^080h,w
  7751  0E17  0821               	movlb 0	; select bank0
  7752  0E18  0140               	addwf	0+(??___fladd+0)+0,w
  7753  0E19  0762               	movwf	(??___fladd+2)+0
  7754  0E1A  00E4               	movf	1+(??___fladd+0)+0,w
  7755  0E1B  0863               	skipnc
  7756  0E1C  1803               	incf	1+(??___fladd+0)+0,w
  7757  0E1D  0A63               	movwf	((??___fladd+2)+0)+1
  7758  0E1E  00E5               	movf	1+(??___fladd+2)+0,w
  7759  0E1F  0865               	xorlw	80h
  7760  0E20  3A80               	movwf	(??___fladd+4)+0
  7761  0E21  00E6               	movlw	(0)^80h
  7762  0E22  3080               	subwf	(??___fladd+4)+0,w
  7763  0E23  0266               	skipz
  7764  0E24  1D03               	goto	u1705
  7765  0E25  2E28               	movlw	01Ah
  7766  0E26  301A               	subwf	0+(??___fladd+2)+0,w
  7767  0E27  0264               u1705:
  7768  0E28                     
  7769                           	skipc
  7770  0E28  1C03               	goto	u1701
  7771  0E29  2E2B               	goto	u1700
  7772  0E2A  2E2C               u1701:
  7773  0E2B                     	goto	l1628
  7774  0E2B  2E73               u1700:
  7775  0E2C                     	line	101
  7776                           	
  7777                           l1614:	
  7778  0E2C                     	movlb 0	; select bank0
  7779  0E2C  0140               	movf	(___fladd@b+3),w
  7780  0E2D  085D               	iorwf	(___fladd@b+2),w
  7781  0E2E  045C               	iorwf	(___fladd@b+1),w
  7782  0E2F  045B               	iorwf	(___fladd@b),w
  7783  0E30  045A               	skipz
  7784  0E31  1D03               	goto	u1711
  7785  0E32  2E34               	goto	u1710
  7786  0E33  2E36               u1711:
  7787  0E34                     	movlw	1
  7788  0E34  3001               	goto	u1720
  7789  0E35  2E37               u1710:
  7790  0E36                     	movlw	0
  7791  0E36  3000               u1720:
  7792  0E37                     	movwf	(??___fladd+0)+0
  7793  0E37  00E2               	movf	(??___fladd+0)+0,w
  7794  0E38  0862               	movlb 1	; select bank1
  7795  0E39  0141               	movwf	(___fladd@grs)^080h
  7796  0E3A  00A3               	line	102
  7797                           	movlw	high highword(0)
  7798  0E3B  3000               	movlb 0	; select bank0
  7799  0E3C  0140               	movwf	(___fladd@b+3)
  7800  0E3D  00DD               	movlw	low highword(0)
  7801  0E3E  3000               	movwf	(___fladd@b+2)
  7802  0E3F  00DC               	movlw	high(0)
  7803  0E40  3000               	movwf	(___fladd@b+1)
  7804  0E41  00DB               	movlw	low(0)
  7805  0E42  3000               	movwf	(___fladd@b)
  7806  0E43  00DA               
  7807                           	line	103
  7808                           	movlb 1	; select bank1
  7809  0E44  0141               	movf	(___fladd@aexp)^080h,w
  7810  0E45  0821               	movlb 0	; select bank0
  7811  0E46  0140               	movwf	(??___fladd+0)+0
  7812  0E47  00E2               	movf	(??___fladd+0)+0,w
  7813  0E48  0862               	movlb 1	; select bank1
  7814  0E49  0141               	movwf	(___fladd@bexp)^080h
  7815  0E4A  00A2               	line	104
  7816                           	goto	l488
  7817  0E4B  2E7B               	line	105
  7818                           	
  7819                           l487:	
  7820  0E4C                     	line	106
  7821                           	goto	l1628
  7822  0E4C  2E73               	
  7823                           l490:	
  7824  0E4D                     	line	109
  7825                           	btfss	(___fladd@grs)^080h,(0)&7
  7826  0E4D  1C23               	goto	u1731
  7827  0E4E  2E50               	goto	u1730
  7828  0E4F  2E51               u1731:
  7829  0E50                     	goto	l1618
  7830  0E50  2E59               u1730:
  7831  0E51                     	line	110
  7832                           	
  7833                           l1616:	
  7834  0E51                     	lsrf	(___fladd@grs)^080h,w
  7835  0E51  3623               	iorlw	01h
  7836  0E52  3801               	movlb 0	; select bank0
  7837  0E53  0140               	movwf	(??___fladd+0)+0
  7838  0E54  00E2               	movf	(??___fladd+0)+0,w
  7839  0E55  0862               	movlb 1	; select bank1
  7840  0E56  0141               	movwf	(___fladd@grs)^080h
  7841  0E57  00A3               	line	111
  7842                           	goto	l1620
  7843  0E58  2E5C               	line	112
  7844                           	
  7845                           l491:	
  7846  0E59                     	line	113
  7847                           	
  7848                           l1618:	
  7849  0E59                     	clrc
  7850  0E59  1003               	rrf	(___fladd@grs)^080h,f
  7851  0E5A  0CA3               
  7852                           	goto	l1620
  7853  0E5B  2E5C               	line	114
  7854                           	
  7855                           l492:	
  7856  0E5C                     	line	115
  7857                           	
  7858                           l1620:	
  7859  0E5C                     	movlb 0	; select bank0
  7860  0E5C  0140               	btfss	(___fladd@b),(0)&7
  7861  0E5D  1C5A               	goto	u1741
  7862  0E5E  2E60               	goto	u1740
  7863  0E5F  2E61               u1741:
  7864  0E60                     	goto	l1624
  7865  0E60  2E64               u1740:
  7866  0E61                     	line	116
  7867                           	
  7868                           l1622:	
  7869  0E61                     	movlb 1	; select bank1
  7870  0E61  0141               	bsf	(___fladd@grs)^080h+(7/8),(7)&7
  7871  0E62  17A3               	goto	l1624
  7872  0E63  2E64               	line	117
  7873                           	
  7874                           l493:	
  7875  0E64                     	line	118
  7876                           	
  7877                           l1624:	
  7878  0E64                     	movlw	01h
  7879  0E64  3001               	movlb 0	; select bank0
  7880  0E65  0140               	movwf	(??___fladd+0)+0
  7881  0E66  00E2               u1755:
  7882  0E67                     	asrf	(___fladd@b+3),f
  7883  0E67  37DD               	rrf	(___fladd@b+2),f
  7884  0E68  0CDC               	rrf	(___fladd@b+1),f
  7885  0E69  0CDB               	rrf	(___fladd@b),f
  7886  0E6A  0CDA               	decfsz	(??___fladd+0)+0&07fh,f
  7887  0E6B  0BE2               	goto	u1755
  7888  0E6C  2E67               
  7889                           	line	119
  7890                           	
  7891                           l1626:	
  7892  0E6D                     	movlw	low(01h)
  7893  0E6D  3001               	movwf	(??___fladd+0)+0
  7894  0E6E  00E2               	movf	(??___fladd+0)+0,w
  7895  0E6F  0862               	movlb 1	; select bank1
  7896  0E70  0141               	addwf	(___fladd@bexp)^080h,f
  7897  0E71  07A2               	goto	l1628
  7898  0E72  2E73               	line	120
  7899                           	
  7900                           l489:	
  7901  0E73                     	line	106
  7902                           	
  7903                           l1628:	
  7904  0E73                     	movlb 1	; select bank1
  7905  0E73  0141               	movf	(___fladd@aexp)^080h,w
  7906  0E74  0821               	subwf	(___fladd@bexp)^080h,w
  7907  0E75  0222               	skipc
  7908  0E76  1C03               	goto	u1761
  7909  0E77  2E79               	goto	u1760
  7910  0E78  2E7A               u1761:
  7911  0E79                     	goto	l490
  7912  0E79  2E4D               u1760:
  7913  0E7A                     	goto	l488
  7914  0E7A  2E7B               	
  7915                           l494:	
  7916  0E7B                     	line	121
  7917                           	
  7918                           l488:	
  7919  0E7B                     	line	124
  7920                           	btfsc	(___fladd@signs)^080h,(6)&7
  7921  0E7B  1B20               	goto	u1771
  7922  0E7C  2E7E               	goto	u1770
  7923  0E7D  2E7F               u1771:
  7924  0E7E                     	goto	l1654
  7925  0E7E  2EC4               u1770:
  7926  0E7F                     	line	127
  7927                           	
  7928                           l1630:	
  7929  0E7F                     	movf	((___fladd@bexp)^080h),w
  7930  0E7F  0822               	btfss	status,2
  7931  0E80  1D03               	goto	u1781
  7932  0E81  2E83               	goto	u1780
  7933  0E82  2E84               u1781:
  7934  0E83                     	goto	l1636
  7935  0E83  2E8F               u1780:
  7936  0E84                     	line	128
  7937                           	
  7938                           l1632:	
  7939  0E84                     	movlw	0x0
  7940  0E84  3000               	movlb 0	; select bank0
  7941  0E85  0140               	movwf	(?___fladd+3)
  7942  0E86  00DD               	movlw	0x0
  7943  0E87  3000               	movwf	(?___fladd+2)
  7944  0E88  00DC               	movlw	0x0
  7945  0E89  3000               	movwf	(?___fladd+1)
  7946  0E8A  00DB               	movlw	0x0
  7947  0E8B  3000               	movwf	(?___fladd)
  7948  0E8C  00DA               
  7949                           	goto	l497
  7950  0E8D  2FFF               	
  7951                           l1634:	
  7952  0E8E                     	goto	l497
  7953  0E8E  2FFF               	line	129
  7954                           	
  7955                           l496:	
  7956  0E8F                     	line	132
  7957                           	
  7958                           l1636:	
  7959  0E8F                     	movlb 0	; select bank0
  7960  0E8F  0140               	movf	(___fladd@a),w
  7961  0E90  085E               	addwf	(___fladd@b),f
  7962  0E91  07DA               	movf	(___fladd@a+1),w
  7963  0E92  085F               	addwfc	(___fladd@b+1),f
  7964  0E93  3DDB               	movf	(___fladd@a+2),w
  7965  0E94  0860               	addwfc	(___fladd@b+2),f
  7966  0E95  3DDC               	movf	(___fladd@a+3),w
  7967  0E96  0861               	addwfc	(___fladd@b+3),f
  7968  0E97  3DDD               	line	134
  7969                           	
  7970                           l1638:	
  7971  0E98                     	btfss	(___fladd@b+3),(24)&7
  7972  0E98  1C5D               	goto	u1791
  7973  0E99  2E9B               	goto	u1790
  7974  0E9A  2E9C               u1791:
  7975  0E9B                     	goto	l1688
  7976  0E9B  2F75               u1790:
  7977  0E9C                     	line	135
  7978                           	
  7979                           l1640:	
  7980  0E9C                     	movlb 1	; select bank1
  7981  0E9C  0141               	btfss	(___fladd@grs)^080h,(0)&7
  7982  0E9D  1C23               	goto	u1801
  7983  0E9E  2EA0               	goto	u1800
  7984  0E9F  2EA1               u1801:
  7985  0EA0                     	goto	l1644
  7986  0EA0  2EA9               u1800:
  7987  0EA1                     	line	136
  7988                           	
  7989                           l1642:	
  7990  0EA1                     	lsrf	(___fladd@grs)^080h,w
  7991  0EA1  3623               	iorlw	01h
  7992  0EA2  3801               	movlb 0	; select bank0
  7993  0EA3  0140               	movwf	(??___fladd+0)+0
  7994  0EA4  00E2               	movf	(??___fladd+0)+0,w
  7995  0EA5  0862               	movlb 1	; select bank1
  7996  0EA6  0141               	movwf	(___fladd@grs)^080h
  7997  0EA7  00A3               	line	137
  7998                           	goto	l1646
  7999  0EA8  2EAC               	line	138
  8000                           	
  8001                           l499:	
  8002  0EA9                     	line	139
  8003                           	
  8004                           l1644:	
  8005  0EA9                     	clrc
  8006  0EA9  1003               	rrf	(___fladd@grs)^080h,f
  8007  0EAA  0CA3               
  8008                           	goto	l1646
  8009  0EAB  2EAC               	line	140
  8010                           	
  8011                           l500:	
  8012  0EAC                     	line	141
  8013                           	
  8014                           l1646:	
  8015  0EAC                     	movlb 0	; select bank0
  8016  0EAC  0140               	btfss	(___fladd@b),(0)&7
  8017  0EAD  1C5A               	goto	u1811
  8018  0EAE  2EB0               	goto	u1810
  8019  0EAF  2EB1               u1811:
  8020  0EB0                     	goto	l1650
  8021  0EB0  2EB4               u1810:
  8022  0EB1                     	line	142
  8023                           	
  8024                           l1648:	
  8025  0EB1                     	movlb 1	; select bank1
  8026  0EB1  0141               	bsf	(___fladd@grs)^080h+(7/8),(7)&7
  8027  0EB2  17A3               	goto	l1650
  8028  0EB3  2EB4               	line	143
  8029                           	
  8030                           l501:	
  8031  0EB4                     	line	144
  8032                           	
  8033                           l1650:	
  8034  0EB4                     	movlw	01h
  8035  0EB4  3001               	movlb 0	; select bank0
  8036  0EB5  0140               	movwf	(??___fladd+0)+0
  8037  0EB6  00E2               u1825:
  8038  0EB7                     	asrf	(___fladd@b+3),f
  8039  0EB7  37DD               	rrf	(___fladd@b+2),f
  8040  0EB8  0CDC               	rrf	(___fladd@b+1),f
  8041  0EB9  0CDB               	rrf	(___fladd@b),f
  8042  0EBA  0CDA               	decfsz	(??___fladd+0)+0&07fh,f
  8043  0EBB  0BE2               	goto	u1825
  8044  0EBC  2EB7               
  8045                           	line	145
  8046                           	
  8047                           l1652:	
  8048  0EBD                     	movlw	low(01h)
  8049  0EBD  3001               	movwf	(??___fladd+0)+0
  8050  0EBE  00E2               	movf	(??___fladd+0)+0,w
  8051  0EBF  0862               	movlb 1	; select bank1
  8052  0EC0  0141               	addwf	(___fladd@bexp)^080h,f
  8053  0EC1  07A2               	goto	l1688
  8054  0EC2  2F75               	line	146
  8055                           	
  8056                           l498:	
  8057  0EC3                     	line	148
  8058                           	goto	l1688
  8059  0EC3  2F75               	line	149
  8060                           	
  8061                           l495:	
  8062  0EC4                     	line	153
  8063                           	
  8064                           l1654:	
  8065  0EC4                     	movlb 0	; select bank0
  8066  0EC4  0140               	movf	(___fladd@b+3),w
  8067  0EC5  085D               	xorlw	80h
  8068  0EC6  3A80               	movwf	(??___fladd+0)+0
  8069  0EC7  00E2               	movf	(___fladd@a+3),w
  8070  0EC8  0861               	xorlw	80h
  8071  0EC9  3A80               	subwf	(??___fladd+0)+0,w
  8072  0ECA  0262               	
  8073                           	skipz
  8074  0ECB  1D03               	goto	u1833
  8075  0ECC  2ED7               	movf	(___fladd@a+2),w
  8076  0ECD  0860               	subwf	(___fladd@b+2),w
  8077  0ECE  025C               	skipz
  8078  0ECF  1D03               	goto	u1833
  8079  0ED0  2ED7               	movf	(___fladd@a+1),w
  8080  0ED1  085F               	subwf	(___fladd@b+1),w
  8081  0ED2  025B               	skipz
  8082  0ED3  1D03               	goto	u1833
  8083  0ED4  2ED7               	movf	(___fladd@a),w
  8084  0ED5  085E               	subwf	(___fladd@b),w
  8085  0ED6  025A               u1833:
  8086  0ED7                     	skipnc
  8087  0ED7  1803               	goto	u1831
  8088  0ED8  2EDA               	goto	u1830
  8089  0ED9  2EDB               u1831:
  8090  0EDA                     	goto	l1664
  8091  0EDA  2F29               u1830:
  8092  0EDB                     	line	154
  8093                           	
  8094                           l1656:	
  8095  0EDB                     	movlw	0FFh
  8096  0EDB  30FF               	movwf	((??___fladd+0)+0)
  8097  0EDC  00E2               	movlw	0FFh
  8098  0EDD  30FF               	movwf	((??___fladd+0)+0+1)
  8099  0EDE  00E3               	movlw	0FFh
  8100  0EDF  30FF               	movwf	((??___fladd+0)+0+2)
  8101  0EE0  00E4               	movlw	0FFh
  8102  0EE1  30FF               	movwf	((??___fladd+0)+0+3)
  8103  0EE2  00E5               	movf	(___fladd@a),w
  8104  0EE3  085E               	movwf	(??___fladd+4)+0
  8105  0EE4  00E6               	movf	(___fladd@a+1),w
  8106  0EE5  085F               	movwf	((??___fladd+4)+0+1)
  8107  0EE6  00E7               	movf	(___fladd@a+2),w
  8108  0EE7  0860               	movwf	((??___fladd+4)+0+2)
  8109  0EE8  00E8               	movf	(___fladd@a+3),w
  8110  0EE9  0861               	movwf	((??___fladd+4)+0+3)
  8111  0EEA  00E9               	comf	(___fladd@b),w
  8112  0EEB  095A               	movwf	(??___fladd+8)+0
  8113  0EEC  00EA               	comf	(___fladd@b+1),w
  8114  0EED  095B               	movwf	((??___fladd+8)+0+1)
  8115  0EEE  00EB               	comf	(___fladd@b+2),w
  8116  0EEF  095C               	movwf	((??___fladd+8)+0+2)
  8117  0EF0  00EC               	comf	(___fladd@b+3),w
  8118  0EF1  095D               	movwf	((??___fladd+8)+0+3)
  8119  0EF2  00ED               	incf	(??___fladd+8)+0,f
  8120  0EF3  0AEA               	skipnz
  8121  0EF4  1903               	incf	((??___fladd+8)+0+1),f
  8122  0EF5  0AEB               	skipnz
  8123  0EF6  1903               	incf	((??___fladd+8)+0+2),f
  8124  0EF7  0AEC               	skipnz
  8125  0EF8  1903               	incf	((??___fladd+8)+0+3),f
  8126  0EF9  0AED               	movf	0+(??___fladd+8)+0,w
  8127  0EFA  086A               	addwf	(??___fladd+4)+0,f
  8128  0EFB  07E6               	movf	1+(??___fladd+8)+0,w
  8129  0EFC  086B               	addwfc	(??___fladd+4)+1,f
  8130  0EFD  3DE7               	movf	2+(??___fladd+8)+0,w
  8131  0EFE  086C               	addwfc	(??___fladd+4)+2,f
  8132  0EFF  3DE8               	movf	3+(??___fladd+8)+0,w
  8133  0F00  086D               	addwfc	(??___fladd+4)+3,f
  8134  0F01  3DE9               	movf	0+(??___fladd+4)+0,w
  8135  0F02  0866               	addwf	(??___fladd+0)+0,f
  8136  0F03  07E2               	movf	1+(??___fladd+4)+0,w
  8137  0F04  0867               	addwfc	(??___fladd+0)+1,f
  8138  0F05  3DE3               	movf	2+(??___fladd+4)+0,w
  8139  0F06  0868               	addwfc	(??___fladd+0)+2,f
  8140  0F07  3DE4               	movf	3+(??___fladd+4)+0,w
  8141  0F08  0869               	addwfc	(??___fladd+0)+3,f
  8142  0F09  3DE5               	movf	3+(??___fladd+0)+0,w
  8143  0F0A  0865               	movwf	(___fladd@b+3)
  8144  0F0B  00DD               	movf	2+(??___fladd+0)+0,w
  8145  0F0C  0864               	movwf	(___fladd@b+2)
  8146  0F0D  00DC               	movf	1+(??___fladd+0)+0,w
  8147  0F0E  0863               	movwf	(___fladd@b+1)
  8148  0F0F  00DB               	movf	0+(??___fladd+0)+0,w
  8149  0F10  0862               	movwf	(___fladd@b)
  8150  0F11  00DA               
  8151                           	line	155
  8152                           	movlw	low(080h)
  8153  0F12  3080               	movwf	(??___fladd+0)+0
  8154  0F13  00E2               	movf	(??___fladd+0)+0,w
  8155  0F14  0862               	movlb 1	; select bank1
  8156  0F15  0141               	xorwf	(___fladd@signs)^080h,f
  8157  0F16  06A0               	line	156
  8158                           	
  8159                           l1658:	
  8160  0F17                     	comf	(___fladd@grs)^080h,f
  8161  0F17  09A3               	incf	(___fladd@grs)^080h,f
  8162  0F18  0AA3               	line	157
  8163                           	
  8164                           l1660:	
  8165  0F19                     	movf	((___fladd@grs)^080h),w
  8166  0F19  0823               	btfss	status,2
  8167  0F1A  1D03               	goto	u1841
  8168  0F1B  2F1D               	goto	u1840
  8169  0F1C  2F1E               u1841:
  8170  0F1D                     	goto	l505
  8171  0F1D  2F31               u1840:
  8172  0F1E                     	line	158
  8173                           	
  8174                           l1662:	
  8175  0F1E                     	movlw	01h
  8176  0F1E  3001               	movlb 0	; select bank0
  8177  0F1F  0140               	addwf	(___fladd@b),f
  8178  0F20  07DA               	movlw	0
  8179  0F21  3000               	addwfc	(___fladd@b+1),f
  8180  0F22  3DDB               	movlw	0
  8181  0F23  3000               	addwfc	(___fladd@b+2),f
  8182  0F24  3DDC               	movlw	0
  8183  0F25  3000               	addwfc	(___fladd@b+3),f
  8184  0F26  3DDD               	goto	l505
  8185  0F27  2F31               	line	159
  8186                           	
  8187                           l504:	
  8188  0F28                     	line	160
  8189                           	goto	l505
  8190  0F28  2F31               	line	161
  8191                           	
  8192                           l503:	
  8193  0F29                     	line	162
  8194                           	
  8195                           l1664:	
  8196  0F29                     	movf	(___fladd@a),w
  8197  0F29  085E               	subwf	(___fladd@b),f
  8198  0F2A  02DA               	movf	(___fladd@a+1),w
  8199  0F2B  085F               	subwfb	(___fladd@b+1),f
  8200  0F2C  3BDB               	movf	(___fladd@a+2),w
  8201  0F2D  0860               	subwfb	(___fladd@b+2),f
  8202  0F2E  3BDC               	movf	(___fladd@a+3),w
  8203  0F2F  0861               	subwfb	(___fladd@b+3),f
  8204  0F30  3BDD               	line	163
  8205                           	
  8206                           l505:	
  8207  0F31                     	line	166
  8208                           	movlb 0	; select bank0
  8209  0F31  0140               	movf	(___fladd@b+3),w
  8210  0F32  085D               	iorwf	(___fladd@b+2),w
  8211  0F33  045C               	iorwf	(___fladd@b+1),w
  8212  0F34  045B               	iorwf	(___fladd@b),w
  8213  0F35  045A               	skipz
  8214  0F36  1D03               	goto	u1851
  8215  0F37  2F39               	goto	u1850
  8216  0F38  2F3A               u1851:
  8217  0F39                     	goto	l1686
  8218  0F39  2F6E               u1850:
  8219  0F3A                     	
  8220                           l1666:	
  8221  0F3A                     	movlb 1	; select bank1
  8222  0F3A  0141               	movf	((___fladd@grs)^080h),w
  8223  0F3B  0823               	btfss	status,2
  8224  0F3C  1D03               	goto	u1861
  8225  0F3D  2F3F               	goto	u1860
  8226  0F3E  2F40               u1861:
  8227  0F3F                     	goto	l1686
  8228  0F3F  2F6E               u1860:
  8229  0F40                     	line	167
  8230                           	
  8231                           l1668:	
  8232  0F40                     	movlw	0x0
  8233  0F40  3000               	movlb 0	; select bank0
  8234  0F41  0140               	movwf	(?___fladd+3)
  8235  0F42  00DD               	movlw	0x0
  8236  0F43  3000               	movwf	(?___fladd+2)
  8237  0F44  00DC               	movlw	0x0
  8238  0F45  3000               	movwf	(?___fladd+1)
  8239  0F46  00DB               	movlw	0x0
  8240  0F47  3000               	movwf	(?___fladd)
  8241  0F48  00DA               
  8242                           	goto	l497
  8243  0F49  2FFF               	
  8244                           l1670:	
  8245  0F4A                     	goto	l497
  8246  0F4A  2FFF               	line	168
  8247                           	
  8248                           l506:	
  8249  0F4B                     	line	171
  8250                           	goto	l1686
  8251  0F4B  2F6E               	
  8252                           l508:	
  8253  0F4C                     	line	172
  8254                           	
  8255                           l1672:	
  8256  0F4C                     	movlw	01h
  8257  0F4C  3001               u1875:
  8258  0F4D                     	lslf	(___fladd@b),f
  8259  0F4D  35DA               	rlf	(___fladd@b+1),f
  8260  0F4E  0DDB               	rlf	(___fladd@b+2),f
  8261  0F4F  0DDC               	rlf	(___fladd@b+3),f
  8262  0F50  0DDD               	decfsz	wreg,f
  8263  0F51  0B89               	goto	u1875
  8264  0F52  2F4D               	line	173
  8265                           	
  8266                           l1674:	
  8267  0F53                     	movlb 1	; select bank1
  8268  0F53  0141               	btfss	(___fladd@grs)^080h,(7)&7
  8269  0F54  1FA3               	goto	u1881
  8270  0F55  2F57               	goto	u1880
  8271  0F56  2F58               u1881:
  8272  0F57                     	goto	l509
  8273  0F57  2F5A               u1880:
  8274  0F58                     	line	174
  8275                           	
  8276                           l1676:	
  8277  0F58                     	movlb 0	; select bank0
  8278  0F58  0140               	bsf	(___fladd@b)+(0/8),(0)&7
  8279  0F59  145A               	line	175
  8280                           	
  8281                           l509:	
  8282  0F5A                     	line	176
  8283                           	movlb 1	; select bank1
  8284  0F5A  0141               	btfss	(___fladd@grs)^080h,(0)&7
  8285  0F5B  1C23               	goto	u1891
  8286  0F5C  2F5E               	goto	u1890
  8287  0F5D  2F5F               u1891:
  8288  0F5E                     	goto	l1680
  8289  0F5E  2F62               u1890:
  8290  0F5F                     	line	177
  8291                           	
  8292                           l1678:	
  8293  0F5F                     	setc
  8294  0F5F  1403               	rlf	(___fladd@grs)^080h,f
  8295  0F60  0DA3               	line	178
  8296                           	goto	l1682
  8297  0F61  2F65               	line	179
  8298                           	
  8299                           l510:	
  8300  0F62                     	line	180
  8301                           	
  8302                           l1680:	
  8303  0F62                     	clrc
  8304  0F62  1003               	rlf	(___fladd@grs)^080h,f
  8305  0F63  0DA3               
  8306                           	goto	l1682
  8307  0F64  2F65               	line	181
  8308                           	
  8309                           l511:	
  8310  0F65                     	line	182
  8311                           	
  8312                           l1682:	
  8313  0F65                     	movf	((___fladd@bexp)^080h),w
  8314  0F65  0822               	btfsc	status,2
  8315  0F66  1903               	goto	u1901
  8316  0F67  2F69               	goto	u1900
  8317  0F68  2F6A               u1901:
  8318  0F69                     	goto	l1686
  8319  0F69  2F6E               u1900:
  8320  0F6A                     	line	183
  8321                           	
  8322                           l1684:	
  8323  0F6A                     	movlw	01h
  8324  0F6A  3001               	subwf	(___fladd@bexp)^080h,f
  8325  0F6B  02A2               	goto	l1686
  8326  0F6C  2F6E               	line	184
  8327                           	
  8328                           l512:	
  8329  0F6D                     	goto	l1686
  8330  0F6D  2F6E               	line	185
  8331                           	
  8332                           l507:	
  8333  0F6E                     	line	171
  8334                           	
  8335                           l1686:	
  8336  0F6E                     	movlb 0	; select bank0
  8337  0F6E  0140               	btfss	(___fladd@b+2),(23)&7
  8338  0F6F  1FDC               	goto	u1911
  8339  0F70  2F72               	goto	u1910
  8340  0F71  2F73               u1911:
  8341  0F72                     	goto	l1672
  8342  0F72  2F4C               u1910:
  8343  0F73                     	goto	l1688
  8344  0F73  2F75               	
  8345                           l513:	
  8346  0F74                     	goto	l1688
  8347  0F74  2F75               	line	186
  8348                           	
  8349                           l502:	
  8350  0F75                     	line	192
  8351                           	
  8352                           l1688:	
  8353  0F75                     	movlb 1	; select bank1
  8354  0F75  0141               	clrf	(___fladd@aexp)^080h
  8355  0F76  01A1               	line	193
  8356                           	
  8357                           l1690:	
  8358  0F77                     	btfss	(___fladd@grs)^080h,(7)&7
  8359  0F77  1FA3               	goto	u1921
  8360  0F78  2F7A               	goto	u1920
  8361  0F79  2F7B               u1921:
  8362  0F7A                     	goto	l1698
  8363  0F7A  2F8F               u1920:
  8364  0F7B                     	line	194
  8365                           	
  8366                           l1692:	
  8367  0F7B                     	movf	(___fladd@grs)^080h,w
  8368  0F7B  0823               	andlw	07Fh
  8369  0F7C  397F               	btfsc	status,2
  8370  0F7D  1903               	goto	u1931
  8371  0F7E  2F80               	goto	u1930
  8372  0F7F  2F81               u1931:
  8373  0F80                     	goto	l515
  8374  0F80  2F84               u1930:
  8375  0F81                     	line	195
  8376                           	
  8377                           l1694:	
  8378  0F81                     	clrf	(___fladd@aexp)^080h
  8379  0F81  01A1               	incf	(___fladd@aexp)^080h,f
  8380  0F82  0AA1               	line	196
  8381                           	goto	l1698
  8382  0F83  2F8F               	line	197
  8383                           	
  8384                           l515:	
  8385  0F84                     	line	198
  8386                           	movlb 0	; select bank0
  8387  0F84  0140               	btfss	(___fladd@b),(0)&7
  8388  0F85  1C5A               	goto	u1941
  8389  0F86  2F88               	goto	u1940
  8390  0F87  2F89               u1941:
  8391  0F88                     	goto	l1698
  8392  0F88  2F8F               u1940:
  8393  0F89                     	line	199
  8394                           	
  8395                           l1696:	
  8396  0F89                     	movlb 1	; select bank1
  8397  0F89  0141               	clrf	(___fladd@aexp)^080h
  8398  0F8A  01A1               	incf	(___fladd@aexp)^080h,f
  8399  0F8B  0AA1               	goto	l1698
  8400  0F8C  2F8F               	line	200
  8401                           	
  8402                           l517:	
  8403  0F8D                     	goto	l1698
  8404  0F8D  2F8F               	line	201
  8405                           	
  8406                           l516:	
  8407  0F8E                     	goto	l1698
  8408  0F8E  2F8F               	line	202
  8409                           	
  8410                           l514:	
  8411  0F8F                     	line	203
  8412                           	
  8413                           l1698:	
  8414  0F8F                     	movlb 1	; select bank1
  8415  0F8F  0141               	movf	((___fladd@aexp)^080h),w
  8416  0F90  0821               	btfsc	status,2
  8417  0F91  1903               	goto	u1951
  8418  0F92  2F94               	goto	u1950
  8419  0F93  2F95               u1951:
  8420  0F94                     	goto	l518
  8421  0F94  2FC8               u1950:
  8422  0F95                     	line	204
  8423                           	
  8424                           l1700:	
  8425  0F95                     	movlw	01h
  8426  0F95  3001               	movlb 0	; select bank0
  8427  0F96  0140               	addwf	(___fladd@b),f
  8428  0F97  07DA               	movlw	0
  8429  0F98  3000               	addwfc	(___fladd@b+1),f
  8430  0F99  3DDB               	movlw	0
  8431  0F9A  3000               	addwfc	(___fladd@b+2),f
  8432  0F9B  3DDC               	movlw	0
  8433  0F9C  3000               	addwfc	(___fladd@b+3),f
  8434  0F9D  3DDD               	line	205
  8435                           	
  8436                           l1702:	
  8437  0F9E                     	btfss	(___fladd@b+3),(24)&7
  8438  0F9E  1C5D               	goto	u1961
  8439  0F9F  2FA1               	goto	u1960
  8440  0FA0  2FA2               u1961:
  8441  0FA1                     	goto	l518
  8442  0FA1  2FC8               u1960:
  8443  0FA2                     	line	206
  8444                           	
  8445                           l1704:	
  8446  0FA2                     	movf	(___fladd@b),w
  8447  0FA2  085A               	movwf	(??___fladd+0)+0
  8448  0FA3  00E2               	movf	(___fladd@b+1),w
  8449  0FA4  085B               	movwf	((??___fladd+0)+0+1)
  8450  0FA5  00E3               	movf	(___fladd@b+2),w
  8451  0FA6  085C               	movwf	((??___fladd+0)+0+2)
  8452  0FA7  00E4               	movf	(___fladd@b+3),w
  8453  0FA8  085D               	movwf	((??___fladd+0)+0+3)
  8454  0FA9  00E5               	movlw	01h
  8455  0FAA  3001               	movwf	(??___fladd+4)+0
  8456  0FAB  00E6               u1975:
  8457  0FAC                     	asrf	(??___fladd+0)+3,f
  8458  0FAC  37E5               	rrf	(??___fladd+0)+2,f
  8459  0FAD  0CE4               	rrf	(??___fladd+0)+1,f
  8460  0FAE  0CE3               	rrf	(??___fladd+0)+0,f
  8461  0FAF  0CE2               u1970:
  8462  0FB0                     	decfsz	(??___fladd+4)+0,f
  8463  0FB0  0BE6               	goto	u1975
  8464  0FB1  2FAC               	movf	3+(??___fladd+0)+0,w
  8465  0FB2  0865               	movwf	(___fladd@b+3)
  8466  0FB3  00DD               	movf	2+(??___fladd+0)+0,w
  8467  0FB4  0864               	movwf	(___fladd@b+2)
  8468  0FB5  00DC               	movf	1+(??___fladd+0)+0,w
  8469  0FB6  0863               	movwf	(___fladd@b+1)
  8470  0FB7  00DB               	movf	0+(??___fladd+0)+0,w
  8471  0FB8  0862               	movwf	(___fladd@b)
  8472  0FB9  00DA               
  8473                           	line	207
  8474                           	movlb 1	; select bank1
  8475  0FBA  0141               		incf	((___fladd@bexp)^080h),w
  8476  0FBB  0A22               	btfsc	status,2
  8477  0FBC  1903               	goto	u1981
  8478  0FBD  2FBF               	goto	u1980
  8479  0FBE  2FC0               u1981:
  8480  0FBF                     	goto	l518
  8481  0FBF  2FC8               u1980:
  8482  0FC0                     	line	208
  8483                           	
  8484                           l1706:	
  8485  0FC0                     	movlw	low(01h)
  8486  0FC0  3001               	movlb 0	; select bank0
  8487  0FC1  0140               	movwf	(??___fladd+0)+0
  8488  0FC2  00E2               	movf	(??___fladd+0)+0,w
  8489  0FC3  0862               	movlb 1	; select bank1
  8490  0FC4  0141               	addwf	(___fladd@bexp)^080h,f
  8491  0FC5  07A2               	goto	l518
  8492  0FC6  2FC8               	line	209
  8493                           	
  8494                           l520:	
  8495  0FC7                     	goto	l518
  8496  0FC7  2FC8               	line	210
  8497                           	
  8498                           l519:	
  8499  0FC8                     	line	211
  8500                           	
  8501                           l518:	
  8502  0FC8                     	line	215
  8503                           	movlb 1	; select bank1
  8504  0FC8  0141               		incf	((___fladd@bexp)^080h),w
  8505  0FC9  0A22               	btfsc	status,2
  8506  0FCA  1903               	goto	u1991
  8507  0FCB  2FCD               	goto	u1990
  8508  0FCC  2FCE               u1991:
  8509  0FCD                     	goto	l1710
  8510  0FCD  2FD4               u1990:
  8511  0FCE                     	
  8512                           l1708:	
  8513  0FCE                     	movf	((___fladd@bexp)^080h),w
  8514  0FCE  0822               	btfss	status,2
  8515  0FCF  1D03               	goto	u2001
  8516  0FD0  2FD2               	goto	u2000
  8517  0FD1  2FD3               u2001:
  8518  0FD2                     	goto	l1716
  8519  0FD2  2FE6               u2000:
  8520  0FD3                     	goto	l1710
  8521  0FD3  2FD4               	
  8522                           l523:	
  8523  0FD4                     	line	216
  8524                           	
  8525                           l1710:	
  8526  0FD4                     	movlw	high highword(0)
  8527  0FD4  3000               	movlb 0	; select bank0
  8528  0FD5  0140               	movwf	(___fladd@b+3)
  8529  0FD6  00DD               	movlw	low highword(0)
  8530  0FD7  3000               	movwf	(___fladd@b+2)
  8531  0FD8  00DC               	movlw	high(0)
  8532  0FD9  3000               	movwf	(___fladd@b+1)
  8533  0FDA  00DB               	movlw	low(0)
  8534  0FDB  3000               	movwf	(___fladd@b)
  8535  0FDC  00DA               
  8536                           	line	218
  8537                           	
  8538                           l1712:	
  8539  0FDD                     	movlb 1	; select bank1
  8540  0FDD  0141               	movf	((___fladd@bexp)^080h),w
  8541  0FDE  0822               	btfss	status,2
  8542  0FDF  1D03               	goto	u2011
  8543  0FE0  2FE2               	goto	u2010
  8544  0FE1  2FE3               u2011:
  8545  0FE2                     	goto	l1716
  8546  0FE2  2FE6               u2010:
  8547  0FE3                     	line	219
  8548                           	
  8549                           l1714:	
  8550  0FE3                     	clrf	(___fladd@signs)^080h
  8551  0FE3  01A0               	goto	l1716
  8552  0FE4  2FE6               	line	220
  8553                           	
  8554                           l524:	
  8555  0FE5                     	goto	l1716
  8556  0FE5  2FE6               	line	221
  8557                           	
  8558                           l521:	
  8559  0FE6                     	line	225
  8560                           	
  8561                           l1716:	
  8562  0FE6                     	btfss	(___fladd@bexp)^080h,(0)&7
  8563  0FE6  1C22               	goto	u2021
  8564  0FE7  2FE9               	goto	u2020
  8565  0FE8  2FEA               u2021:
  8566  0FE9                     	goto	l1720
  8567  0FE9  2FED               u2020:
  8568  0FEA                     	line	226
  8569                           	
  8570                           l1718:	
  8571  0FEA                     	movlb 0	; select bank0
  8572  0FEA  0140               	bsf	0+(___fladd@b)+02h+(7/8),(7)&7
  8573  0FEB  17DC               	line	227
  8574                           	goto	l526
  8575  0FEC  2FF2               	line	229
  8576                           	
  8577                           l525:	
  8578  0FED                     	line	230
  8579                           	
  8580                           l1720:	
  8581  0FED                     	movlw	low(07Fh)
  8582  0FED  307F               	movlb 0	; select bank0
  8583  0FEE  0140               	movwf	(??___fladd+0)+0
  8584  0FEF  00E2               	movf	(??___fladd+0)+0,w
  8585  0FF0  0862               	andwf	0+(___fladd@b)+02h,f
  8586  0FF1  05DC               	line	231
  8587                           	
  8588                           l526:	
  8589  0FF2                     	line	232
  8590                           	movlb 1	; select bank1
  8591  0FF2  0141               	lsrf	(___fladd@bexp)^080h,w
  8592  0FF3  3622               	movlb 0	; select bank0
  8593  0FF4  0140               	movwf	(??___fladd+0)+0
  8594  0FF5  00E2               	movf	(??___fladd+0)+0,w
  8595  0FF6  0862               	movwf	0+(___fladd@b)+03h
  8596  0FF7  00DD               	line	233
  8597                           	
  8598                           l1722:	
  8599  0FF8                     	movlb 1	; select bank1
  8600  0FF8  0141               	btfss	(___fladd@signs)^080h,(7)&7
  8601  0FF9  1FA0               	goto	u2031
  8602  0FFA  2FFC               	goto	u2030
  8603  0FFB  2FFD               u2031:
  8604  0FFC                     	goto	l527
  8605  0FFC  2FFF               u2030:
  8606  0FFD                     	line	234
  8607                           	
  8608                           l1724:	
  8609  0FFD                     	movlb 0	; select bank0
  8610  0FFD  0140               	bsf	0+(___fladd@b)+03h+(7/8),(7)&7
  8611  0FFE  17DD               	line	235
  8612                           	
  8613                           l527:	
  8614  0FFF                     	line	236
  8615                           	line	237
  8616                           	
  8617                           l497:	
  8618  0FFF                     	return
  8619  0FFF  0008               	opt stack 0
  8620                           GLOBAL	__end_of___fladd
  8621                           	__end_of___fladd:
  8622  1000                     	signat	___fladd,8316
  8623                           	global	_i2cWrite
  8624                           
  8625 ;; *************** function _i2cWrite *****************
  8626 ;; Defined at:
  8627 ;;		line 192 in file "main.c"
  8628 ;; Parameters:    Size  Location     Type
  8629 ;;  writeBuffer     1    wreg     PTR unsigned char 
  8630 ;;		 -> readSI7006@buffer(2), 
  8631 ;;  numBytes        1    2[COMMON] unsigned char 
  8632 ;;  address         1    3[COMMON] unsigned char 
  8633 ;; Auto vars:     Size  Location     Type
  8634 ;;  writeBuffer     1    5[COMMON] PTR unsigned char 
  8635 ;;		 -> readSI7006@buffer(2), 
  8636 ;;  n               1    6[COMMON] unsigned char 
  8637 ;; Return value:  Size  Location     Type
  8638 ;;                  1    wreg      unsigned char 
  8639 ;; Registers used:
  8640 ;;		wreg, fsr1l, fsr1h, status,2, status,0
  8641 ;; Tracked objects:
  8642 ;;		On entry : 0/0
  8643 ;;		On exit  : 0/0
  8644 ;;		Unchanged: 0/0
  8645 ;; Data sizes:     COMMON   BANK0   BANK1   BANK2   BANK3   BANK4   BANK5   BANK6   BANK7   BANK8   BANK9  BANK10  BANK1
       1  BANK12
  8646 ;;      Params:         2       0       0       0       0       0       0       0       0       0       0       0       
       0       0
  8647 ;;      Locals:         2       0       0       0       0       0       0       0       0       0       0       0       
       0       0
  8648 ;;      Temps:          1       0       0       0       0       0       0       0       0       0       0       0       
       0       0
  8649 ;;      Totals:         5       0       0       0       0       0       0       0       0       0       0       0       
       0       0
  8650 ;;Total ram usage:        5 bytes
  8651 ;; Hardware stack levels used:    1
  8652 ;; Hardware stack levels required when called:    2
  8653 ;; This function calls:
  8654 ;;		Nothing
  8655 ;; This function is called by:
  8656 ;;		_readSI7006
  8657 ;; This function uses a non-reentrant model
  8658 ;;
  8659                           psect	text10,local,class=CODE,delta=2,merge=1,group=0
  8660                           	file	"main.c"
  8661                           	line	192
  8662                           global __ptext10
  8663                           __ptext10:	;psect for function _i2cWrite
  8664  0838                     psect	text10
  8665                           	file	"main.c"
  8666                           	line	192
  8667                           	global	__size_of_i2cWrite
  8668                           	__size_of_i2cWrite	equ	__end_of_i2cWrite-_i2cWrite
  8669  003B                     	
  8670                           _i2cWrite:	
  8671  0838                     ;incstack = 0
  8672                           	opt	stack 12
  8673                           ; Regs used in _i2cWrite: [wreg+fsr1l+fsr1h+status,2+status,0]
  8674                           ;i2cWrite@writeBuffer stored from wreg
  8675                           	movwf	(i2cWrite@writeBuffer)
  8676  0838  00F5               	line	196
  8677                           	
  8678                           l2052:	
  8679  0839                     ;main.c: 192: uint8_t i2cWrite(uint8_t *writeBuffer, uint8_t numBytes, uint8_t address);
                                 main.c: 193: {;main.c: 194:     uint8_t n;;main.c: 196:     SSP1BUF = address << 1;
  8680                           	lslf	(i2cWrite@address),w
  8681  0839  3573               	movlb 3	; select bank3
  8682  083A  0143               	movwf	(396)^0180h	;volatile
  8683  083B  008C               	line	197
  8684                           ;main.c: 197:     while (!PIR3bits.SSP1IF);
  8685                           	goto	l127
  8686  083C  283D               	
  8687                           l128:	
  8688  083D                     	
  8689                           l127:	
  8690  083D                     	movlb 14	; select bank14
  8691  083D  014E               	btfss	(1807)^0700h,0	;volatile
  8692  083E  1C0F               	goto	u2741
  8693  083F  2841               	goto	u2740
  8694  0840  2842               u2741:
  8695  0841                     	goto	l127
  8696  0841  283D               u2740:
  8697  0842                     	
  8698                           l129:	
  8699  0842                     	line	198
  8700                           ;main.c: 198:     PIR3bits.SSP1IF = 0;
  8701                           	bcf	(1807)^0700h,0	;volatile
  8702  0842  100F               	line	199
  8703                           ;main.c: 199:     if (SSP1CON2bits.ACKSTAT)
  8704                           	movlb 3	; select bank3
  8705  0843  0143               	btfss	(401)^0180h,6	;volatile
  8706  0844  1F11               	goto	u2751
  8707  0845  2847               	goto	u2750
  8708  0846  2848               u2751:
  8709  0847                     	goto	l2058
  8710  0847  284B               u2750:
  8711  0848                     	line	200
  8712                           	
  8713                           l2054:	
  8714  0848                     ;main.c: 200:         return 0;
  8715                           	movlw	low(0)
  8716  0848  3000               	goto	l131
  8717  0849  2872               	
  8718                           l2056:	
  8719  084A                     	goto	l131
  8720  084A  2872               	
  8721                           l130:	
  8722  084B                     	line	201
  8723                           	
  8724                           l2058:	
  8725  084B                     ;main.c: 201:     for (n = 0; n < numBytes; n++)
  8726                           	clrf	(i2cWrite@n)
  8727  084B  01F6               	goto	l2068
  8728  084C  2869               	
  8729                           l133:	
  8730  084D                     	line	203
  8731                           	
  8732                           l2060:	
  8733  084D                     ;main.c: 202:     {;main.c: 203:         SSP1BUF = writeBuffer[n];
  8734                           	movf	(i2cWrite@n),w
  8735  084D  0876               	addwf	(i2cWrite@writeBuffer),w
  8736  084E  0775               	movwf	(??_i2cWrite+0)+0
  8737  084F  00F4               	movf	0+(??_i2cWrite+0)+0,w
  8738  0850  0874               	movwf	fsr1l
  8739  0851  0086               	clrf fsr1h	
  8740  0852  0187               	
  8741                           	movf	indf1,w
  8742  0853  0801               	movwf	(396)^0180h	;volatile
  8743  0854  008C               	line	204
  8744                           ;main.c: 204:         while (!PIR3bits.SSP1IF);
  8745                           	goto	l134
  8746  0855  2856               	
  8747                           l135:	
  8748  0856                     	
  8749                           l134:	
  8750  0856                     	movlb 14	; select bank14
  8751  0856  014E               	btfss	(1807)^0700h,0	;volatile
  8752  0857  1C0F               	goto	u2761
  8753  0858  285A               	goto	u2760
  8754  0859  285B               u2761:
  8755  085A                     	goto	l134
  8756  085A  2856               u2760:
  8757  085B                     	
  8758                           l136:	
  8759  085B                     	line	205
  8760                           ;main.c: 205:         PIR3bits.SSP1IF = 0;
  8761                           	bcf	(1807)^0700h,0	;volatile
  8762  085B  100F               	line	206
  8763                           ;main.c: 206:         if (SSP1CON2bits.ACKSTAT)
  8764                           	movlb 3	; select bank3
  8765  085C  0143               	btfss	(401)^0180h,6	;volatile
  8766  085D  1F11               	goto	u2771
  8767  085E  2860               	goto	u2770
  8768  085F  2861               u2771:
  8769  0860                     	goto	l2066
  8770  0860  2864               u2770:
  8771  0861                     	line	207
  8772                           	
  8773                           l2062:	
  8774  0861                     ;main.c: 207:             return n;
  8775                           	movf	(i2cWrite@n),w
  8776  0861  0876               	goto	l131
  8777  0862  2872               	
  8778                           l2064:	
  8779  0863                     	goto	l131
  8780  0863  2872               	
  8781                           l137:	
  8782  0864                     	line	208
  8783                           	
  8784                           l2066:	
  8785  0864                     ;main.c: 208:     }
  8786                           	movlw	low(01h)
  8787  0864  3001               	movwf	(??_i2cWrite+0)+0
  8788  0865  00F4               	movf	(??_i2cWrite+0)+0,w
  8789  0866  0874               	addwf	(i2cWrite@n),f
  8790  0867  07F6               	goto	l2068
  8791  0868  2869               	
  8792                           l132:	
  8793  0869                     	
  8794                           l2068:	
  8795  0869                     	movf	(i2cWrite@numBytes),w
  8796  0869  0872               	subwf	(i2cWrite@n),w
  8797  086A  0276               	skipc
  8798  086B  1C03               	goto	u2781
  8799  086C  286E               	goto	u2780
  8800  086D  286F               u2781:
  8801  086E                     	goto	l2060
  8802  086E  284D               u2780:
  8803  086F                     	goto	l2070
  8804  086F  2870               	
  8805                           l138:	
  8806  0870                     	line	209
  8807                           	
  8808                           l2070:	
  8809  0870                     ;main.c: 209:     return n;
  8810                           	movf	(i2cWrite@n),w
  8811  0870  0876               	goto	l131
  8812  0871  2872               	
  8813                           l2072:	
  8814  0872                     	line	210
  8815                           	
  8816                           l131:	
  8817  0872                     	return
  8818  0872  0008               	opt stack 0
  8819                           GLOBAL	__end_of_i2cWrite
  8820                           	__end_of_i2cWrite:
  8821  0873                     	signat	_i2cWrite,12409
  8822                           	global	_i2cStop
  8823                           
  8824 ;; *************** function _i2cStop *****************
  8825 ;; Defined at:
  8826 ;;		line 170 in file "main.c"
  8827 ;; Parameters:    Size  Location     Type
  8828 ;;		None
  8829 ;; Auto vars:     Size  Location     Type
  8830 ;;		None
  8831 ;; Return value:  Size  Location     Type
  8832 ;;                  1    wreg      void 
  8833 ;; Registers used:
  8834 ;;		None
  8835 ;; Tracked objects:
  8836 ;;		On entry : 0/0
  8837 ;;		On exit  : 0/0
  8838 ;;		Unchanged: 0/0
  8839 ;; Data sizes:     COMMON   BANK0   BANK1   BANK2   BANK3   BANK4   BANK5   BANK6   BANK7   BANK8   BANK9  BANK10  BANK1
       1  BANK12
  8840 ;;      Params:         0       0       0       0       0       0       0       0       0       0       0       0       
       0       0
  8841 ;;      Locals:         0       0       0       0       0       0       0       0       0       0       0       0       
       0       0
  8842 ;;      Temps:          0       0       0       0       0       0       0       0       0       0       0       0       
       0       0
  8843 ;;      Totals:         0       0       0       0       0       0       0       0       0       0       0       0       
       0       0
  8844 ;;Total ram usage:        0 bytes
  8845 ;; Hardware stack levels used:    1
  8846 ;; Hardware stack levels required when called:    2
  8847 ;; This function calls:
  8848 ;;		Nothing
  8849 ;; This function is called by:
  8850 ;;		_readSI7006
  8851 ;; This function uses a non-reentrant model
  8852 ;;
  8853                           psect	text11,local,class=CODE,delta=2,merge=1,group=0
  8854                           	line	170
  8855                           global __ptext11
  8856                           __ptext11:	;psect for function _i2cStop
  8857  07F6                     psect	text11
  8858                           	file	"main.c"
  8859                           	line	170
  8860                           	global	__size_of_i2cStop
  8861                           	__size_of_i2cStop	equ	__end_of_i2cStop-_i2cStop
  8862  000A                     	
  8863                           _i2cStop:	
  8864  07F6                     ;incstack = 0
  8865                           	opt	stack 12
  8866                           ; Regs used in _i2cStop: []
  8867                           	line	172
  8868                           	
  8869                           l2096:	
  8870  07F6                     ;main.c: 172:     SSP1CON2bits.PEN = 1;
  8871                           	movlb 3	; select bank3
  8872  07F6  0143               	bsf	(401)^0180h,2	;volatile
  8873  07F7  1511               	line	173
  8874                           ;main.c: 173:     while (!PIR3bits.SSP1IF);
  8875                           	goto	l115
  8876  07F8  2FF9               	
  8877                           l116:	
  8878  07F9                     	
  8879                           l115:	
  8880  07F9                     	movlb 14	; select bank14
  8881  07F9  014E               	btfss	(1807)^0700h,0	;volatile
  8882  07FA  1C0F               	goto	u2871
  8883  07FB  2FFD               	goto	u2870
  8884  07FC  2FFE               u2871:
  8885  07FD                     	goto	l115
  8886  07FD  2FF9               u2870:
  8887  07FE                     	
  8888                           l117:	
  8889  07FE                     	line	174
  8890                           ;main.c: 174:     PIR3bits.SSP1IF = 0;
  8891                           	bcf	(1807)^0700h,0	;volatile
  8892  07FE  100F               	line	175
  8893                           	
  8894                           l118:	
  8895  07FF                     	return
  8896  07FF  0008               	opt stack 0
  8897                           GLOBAL	__end_of_i2cStop
  8898                           	__end_of_i2cStop:
  8899  0800                     	signat	_i2cStop,89
  8900                           	global	_i2cStart
  8901                           
  8902 ;; *************** function _i2cStart *****************
  8903 ;; Defined at:
  8904 ;;		line 158 in file "main.c"
  8905 ;; Parameters:    Size  Location     Type
  8906 ;;		None
  8907 ;; Auto vars:     Size  Location     Type
  8908 ;;		None
  8909 ;; Return value:  Size  Location     Type
  8910 ;;                  1    wreg      void 
  8911 ;; Registers used:
  8912 ;;		None
  8913 ;; Tracked objects:
  8914 ;;		On entry : 0/0
  8915 ;;		On exit  : 0/0
  8916 ;;		Unchanged: 0/0
  8917 ;; Data sizes:     COMMON   BANK0   BANK1   BANK2   BANK3   BANK4   BANK5   BANK6   BANK7   BANK8   BANK9  BANK10  BANK1
       1  BANK12
  8918 ;;      Params:         0       0       0       0       0       0       0       0       0       0       0       0       
       0       0
  8919 ;;      Locals:         0       0       0       0       0       0       0       0       0       0       0       0       
       0       0
  8920 ;;      Temps:          0       0       0       0       0       0       0       0       0       0       0       0       
       0       0
  8921 ;;      Totals:         0       0       0       0       0       0       0       0       0       0       0       0       
       0       0
  8922 ;;Total ram usage:        0 bytes
  8923 ;; Hardware stack levels used:    1
  8924 ;; Hardware stack levels required when called:    2
  8925 ;; This function calls:
  8926 ;;		Nothing
  8927 ;; This function is called by:
  8928 ;;		_readSI7006
  8929 ;; This function uses a non-reentrant model
  8930 ;;
  8931                           psect	text12,local,class=CODE,delta=2,merge=1,group=0
  8932                           	line	158
  8933                           global __ptext12
  8934                           __ptext12:	;psect for function _i2cStart
  8935  15D4                     psect	text12
  8936                           	file	"main.c"
  8937                           	line	158
  8938                           	global	__size_of_i2cStart
  8939                           	__size_of_i2cStart	equ	__end_of_i2cStart-_i2cStart
  8940  000C                     	
  8941                           _i2cStart:	
  8942  15D4                     ;incstack = 0
  8943                           	opt	stack 12
  8944                           ; Regs used in _i2cStart: []
  8945                           	line	160
  8946                           	
  8947                           l2050:	
  8948  15D4                     ;main.c: 160:     PIR3bits.SSP1IF = 0;
  8949                           	movlb 14	; select bank14
  8950  15D4  014E               	bcf	(1807)^0700h,0	;volatile
  8951  15D5  100F               	line	161
  8952                           ;main.c: 161:     SSP1CON2bits.SEN = 1;
  8953                           	movlb 3	; select bank3
  8954  15D6  0143               	bsf	(401)^0180h,0	;volatile
  8955  15D7  1411               	line	162
  8956                           ;main.c: 162:     while (!PIR3bits.SSP1IF);
  8957                           	goto	l109
  8958  15D8  2DD9               	
  8959                           l110:	
  8960  15D9                     	
  8961                           l109:	
  8962  15D9                     	movlb 14	; select bank14
  8963  15D9  014E               	btfss	(1807)^0700h,0	;volatile
  8964  15DA  1C0F               	goto	u2731
  8965  15DB  2DDD               	goto	u2730
  8966  15DC  2DDE               u2731:
  8967  15DD                     	goto	l109
  8968  15DD  2DD9               u2730:
  8969  15DE                     	
  8970                           l111:	
  8971  15DE                     	line	163
  8972                           ;main.c: 163:     PIR3bits.SSP1IF = 0;
  8973                           	bcf	(1807)^0700h,0	;volatile
  8974  15DE  100F               	line	164
  8975                           	
  8976                           l112:	
  8977  15DF                     	return
  8978  15DF  0008               	opt stack 0
  8979                           GLOBAL	__end_of_i2cStart
  8980                           	__end_of_i2cStart:
  8981  15E0                     	signat	_i2cStart,89
  8982                           	global	_i2cRepeat
  8983                           
  8984 ;; *************** function _i2cRepeat *****************
  8985 ;; Defined at:
  8986 ;;		line 181 in file "main.c"
  8987 ;; Parameters:    Size  Location     Type
  8988 ;;		None
  8989 ;; Auto vars:     Size  Location     Type
  8990 ;;		None
  8991 ;; Return value:  Size  Location     Type
  8992 ;;                  1    wreg      void 
  8993 ;; Registers used:
  8994 ;;		None
  8995 ;; Tracked objects:
  8996 ;;		On entry : 0/0
  8997 ;;		On exit  : 0/0
  8998 ;;		Unchanged: 0/0
  8999 ;; Data sizes:     COMMON   BANK0   BANK1   BANK2   BANK3   BANK4   BANK5   BANK6   BANK7   BANK8   BANK9  BANK10  BANK1
       1  BANK12
  9000 ;;      Params:         0       0       0       0       0       0       0       0       0       0       0       0       
       0       0
  9001 ;;      Locals:         0       0       0       0       0       0       0       0       0       0       0       0       
       0       0
  9002 ;;      Temps:          0       0       0       0       0       0       0       0       0       0       0       0       
       0       0
  9003 ;;      Totals:         0       0       0       0       0       0       0       0       0       0       0       0       
       0       0
  9004 ;;Total ram usage:        0 bytes
  9005 ;; Hardware stack levels used:    1
  9006 ;; Hardware stack levels required when called:    2
  9007 ;; This function calls:
  9008 ;;		Nothing
  9009 ;; This function is called by:
  9010 ;;		_readSI7006
  9011 ;; This function uses a non-reentrant model
  9012 ;;
  9013                           psect	text13,local,class=CODE,delta=2,merge=1,group=0
  9014                           	line	181
  9015                           global __ptext13
  9016                           __ptext13:	;psect for function _i2cRepeat
  9017  0800                     psect	text13
  9018                           	file	"main.c"
  9019                           	line	181
  9020                           	global	__size_of_i2cRepeat
  9021                           	__size_of_i2cRepeat	equ	__end_of_i2cRepeat-_i2cRepeat
  9022  000A                     	
  9023                           _i2cRepeat:	
  9024  0800                     ;incstack = 0
  9025                           	opt	stack 12
  9026                           ; Regs used in _i2cRepeat: []
  9027                           	line	183
  9028                           	
  9029                           l2074:	
  9030  0800                     ;main.c: 183:     SSP1CON2bits.RSEN = 1;
  9031                           	movlb 3	; select bank3
  9032  0800  0143               	bsf	(401)^0180h,1	;volatile
  9033  0801  1491               	line	184
  9034                           ;main.c: 184:     while (!PIR3bits.SSP1IF);
  9035                           	goto	l121
  9036  0802  2803               	
  9037                           l122:	
  9038  0803                     	
  9039                           l121:	
  9040  0803                     	movlb 14	; select bank14
  9041  0803  014E               	btfss	(1807)^0700h,0	;volatile
  9042  0804  1C0F               	goto	u2791
  9043  0805  2807               	goto	u2790
  9044  0806  2808               u2791:
  9045  0807                     	goto	l121
  9046  0807  2803               u2790:
  9047  0808                     	
  9048                           l123:	
  9049  0808                     	line	185
  9050                           ;main.c: 185:     PIR3bits.SSP1IF = 0;
  9051                           	bcf	(1807)^0700h,0	;volatile
  9052  0808  100F               	line	186
  9053                           	
  9054                           l124:	
  9055  0809                     	return
  9056  0809  0008               	opt stack 0
  9057                           GLOBAL	__end_of_i2cRepeat
  9058                           	__end_of_i2cRepeat:
  9059  080A                     	signat	_i2cRepeat,89
  9060                           	global	_i2cRead
  9061                           
  9062 ;; *************** function _i2cRead *****************
  9063 ;; Defined at:
  9064 ;;		line 216 in file "main.c"
  9065 ;; Parameters:    Size  Location     Type
  9066 ;;  readBuffer      1    wreg     PTR unsigned char 
  9067 ;;		 -> readSI7006@buffer(2), 
  9068 ;;  numBytes        1    2[COMMON] unsigned char 
  9069 ;;  address         1    3[COMMON] unsigned char 
  9070 ;; Auto vars:     Size  Location     Type
  9071 ;;  readBuffer      1    5[COMMON] PTR unsigned char 
  9072 ;;		 -> readSI7006@buffer(2), 
  9073 ;; Return value:  Size  Location     Type
  9074 ;;                  1    wreg      unsigned char 
  9075 ;; Registers used:
  9076 ;;		wreg, fsr1l, fsr1h, status,2, status,0
  9077 ;; Tracked objects:
  9078 ;;		On entry : 0/0
  9079 ;;		On exit  : 0/0
  9080 ;;		Unchanged: 0/0
  9081 ;; Data sizes:     COMMON   BANK0   BANK1   BANK2   BANK3   BANK4   BANK5   BANK6   BANK7   BANK8   BANK9  BANK10  BANK1
       1  BANK12
  9082 ;;      Params:         2       0       0       0       0       0       0       0       0       0       0       0       
       0       0
  9083 ;;      Locals:         1       0       0       0       0       0       0       0       0       0       0       0       
       0       0
  9084 ;;      Temps:          1       0       0       0       0       0       0       0       0       0       0       0       
       0       0
  9085 ;;      Totals:         4       0       0       0       0       0       0       0       0       0       0       0       
       0       0
  9086 ;;Total ram usage:        4 bytes
  9087 ;; Hardware stack levels used:    1
  9088 ;; Hardware stack levels required when called:    2
  9089 ;; This function calls:
  9090 ;;		Nothing
  9091 ;; This function is called by:
  9092 ;;		_readSI7006
  9093 ;; This function uses a non-reentrant model
  9094 ;;
  9095                           psect	text14,local,class=CODE,delta=2,merge=1,group=0
  9096                           	line	216
  9097                           global __ptext14
  9098                           __ptext14:	;psect for function _i2cRead
  9099  077F                     psect	text14
  9100                           	file	"main.c"
  9101                           	line	216
  9102                           	global	__size_of_i2cRead
  9103                           	__size_of_i2cRead	equ	__end_of_i2cRead-_i2cRead
  9104  0047                     	
  9105                           _i2cRead:	
  9106  077F                     ;incstack = 0
  9107                           	opt	stack 12
  9108                           ; Regs used in _i2cRead: [wreg+fsr1l+fsr1h+status,2+status,0]
  9109                           ;i2cRead@readBuffer stored from wreg
  9110                           	movwf	(i2cRead@readBuffer)
  9111  077F  00F5               	line	218
  9112                           	
  9113                           l2076:	
  9114  0780                     ;main.c: 216: uint8_t i2cRead(uint8_t *readBuffer, uint8_t numBytes, uint8_t address);ma
                                 in.c: 217: {;main.c: 218:     SSP1BUF = (address << 1) | 0x01;
  9115                           	setc
  9116  0780  1403               	rlf	(i2cRead@address),w
  9117  0781  0D73               	movlb 3	; select bank3
  9118  0782  0143               	movwf	(396)^0180h	;volatile
  9119  0783  008C               	line	219
  9120                           ;main.c: 219:     while (!PIR3bits.SSP1IF);
  9121                           	goto	l141
  9122  0784  2F85               	
  9123                           l142:	
  9124  0785                     	
  9125                           l141:	
  9126  0785                     	movlb 14	; select bank14
  9127  0785  014E               	btfss	(1807)^0700h,0	;volatile
  9128  0786  1C0F               	goto	u2801
  9129  0787  2F89               	goto	u2800
  9130  0788  2F8A               u2801:
  9131  0789                     	goto	l141
  9132  0789  2F85               u2800:
  9133  078A                     	
  9134                           l143:	
  9135  078A                     	line	220
  9136                           ;main.c: 220:     PIR3bits.SSP1IF = 0;
  9137                           	bcf	(1807)^0700h,0	;volatile
  9138  078A  100F               	line	221
  9139                           ;main.c: 221:     if (SSP1CON2bits.ACKSTAT)
  9140                           	movlb 3	; select bank3
  9141  078B  0143               	btfss	(401)^0180h,6	;volatile
  9142  078C  1F11               	goto	u2811
  9143  078D  2F8F               	goto	u2810
  9144  078E  2F90               u2811:
  9145  078F                     	goto	l2090
  9146  078F  2FBB               u2810:
  9147  0790                     	line	222
  9148                           	
  9149                           l2078:	
  9150  0790                     ;main.c: 222:         return 0;
  9151                           	movlw	low(0)
  9152  0790  3000               	goto	l145
  9153  0791  2FC5               	
  9154                           l2080:	
  9155  0792                     	goto	l145
  9156  0792  2FC5               	
  9157                           l144:	
  9158  0793                     	line	223
  9159                           ;main.c: 223:     while (numBytes--)
  9160                           	goto	l2090
  9161  0793  2FBB               	
  9162                           l147:	
  9163  0794                     	line	225
  9164                           ;main.c: 224:     {;main.c: 225:         SSP1CON2bits.RCEN = 1;
  9165                           	movlb 3	; select bank3
  9166  0794  0143               	bsf	(401)^0180h,3	;volatile
  9167  0795  1591               	line	226
  9168                           ;main.c: 226:         while (!PIR3bits.SSP1IF);
  9169                           	goto	l148
  9170  0796  2F97               	
  9171                           l149:	
  9172  0797                     	
  9173                           l148:	
  9174  0797                     	movlb 14	; select bank14
  9175  0797  014E               	btfss	(1807)^0700h,0	;volatile
  9176  0798  1C0F               	goto	u2821
  9177  0799  2F9B               	goto	u2820
  9178  079A  2F9C               u2821:
  9179  079B                     	goto	l148
  9180  079B  2F97               u2820:
  9181  079C                     	
  9182                           l150:	
  9183  079C                     	line	227
  9184                           ;main.c: 227:         PIR3bits.SSP1IF = 0;
  9185                           	bcf	(1807)^0700h,0	;volatile
  9186  079C  100F               	line	228
  9187                           	
  9188                           l2082:	
  9189  079D                     ;main.c: 228:         *readBuffer++ = SSP1BUF;
  9190                           	movlb 3	; select bank3
  9191  079D  0143               	movf	(396)^0180h,w	;volatile
  9192  079E  080C               	movwf	(??_i2cRead+0)+0
  9193  079F  00F4               	movf	(i2cRead@readBuffer),w
  9194  07A0  0875               	movwf	fsr1l
  9195  07A1  0086               	clrf fsr1h	
  9196  07A2  0187               	
  9197                           	movf	(??_i2cRead+0)+0,w
  9198  07A3  0874               	movwf	indf1
  9199  07A4  0081               	
  9200                           l2084:	
  9201  07A5                     	movlw	low(01h)
  9202  07A5  3001               	movwf	(??_i2cRead+0)+0
  9203  07A6  00F4               	movf	(??_i2cRead+0)+0,w
  9204  07A7  0874               	addwf	(i2cRead@readBuffer),f
  9205  07A8  07F5               	line	230
  9206                           	
  9207                           l2086:	
  9208  07A9                     ;main.c: 230:         SSP1CON2bits.ACKDT = (numBytes ? 0 : 1);
  9209                           	movf	((i2cRead@numBytes)),w
  9210  07A9  0872               	btfsc	status,2
  9211  07AA  1903               	goto	u2831
  9212  07AB  2FAD               	goto	u2830
  9213  07AC  2FB0               	
  9214                           u2831:
  9215  07AD                     	movlb 3	; select bank3
  9216  07AD  0143               	bsf	(401)^0180h,5	;volatile
  9217  07AE  1691               	goto	u2844
  9218  07AF  2FB2               u2830:
  9219  07B0                     	movlb 3	; select bank3
  9220  07B0  0143               	bcf	(401)^0180h,5	;volatile
  9221  07B1  1291               u2844:
  9222  07B2                     	line	231
  9223                           	
  9224                           l2088:	
  9225  07B2                     ;main.c: 231:         SSP1CON2bits.ACKEN = 1;
  9226                           	bsf	(401)^0180h,4	;volatile
  9227  07B2  1611               	line	232
  9228                           ;main.c: 232:         while (!PIR3bits.SSP1IF);
  9229                           	goto	l151
  9230  07B3  2FB4               	
  9231                           l152:	
  9232  07B4                     	
  9233                           l151:	
  9234  07B4                     	movlb 14	; select bank14
  9235  07B4  014E               	btfss	(1807)^0700h,0	;volatile
  9236  07B5  1C0F               	goto	u2851
  9237  07B6  2FB8               	goto	u2850
  9238  07B7  2FB9               u2851:
  9239  07B8                     	goto	l151
  9240  07B8  2FB4               u2850:
  9241  07B9                     	
  9242                           l153:	
  9243  07B9                     	line	233
  9244                           ;main.c: 233:         PIR3bits.SSP1IF = 0;
  9245                           	bcf	(1807)^0700h,0	;volatile
  9246  07B9  100F               	goto	l2090
  9247  07BA  2FBB               	line	234
  9248                           ;main.c: 234:     }
  9249                           	
  9250                           l146:	
  9251  07BB                     	line	223
  9252                           	
  9253                           l2090:	
  9254  07BB                     ;main.c: 223:     while (numBytes--)
  9255                           	movlw	01h
  9256  07BB  3001               	subwf	(i2cRead@numBytes),f
  9257  07BC  02F2               		incf	(((i2cRead@numBytes))),w
  9258  07BD  0A72               	btfss	status,2
  9259  07BE  1D03               	goto	u2861
  9260  07BF  2FC1               	goto	u2860
  9261  07C0  2FC2               u2861:
  9262  07C1                     	goto	l147
  9263  07C1  2F94               u2860:
  9264  07C2                     	goto	l2092
  9265  07C2  2FC3               	
  9266                           l154:	
  9267  07C3                     	line	235
  9268                           	
  9269                           l2092:	
  9270  07C3                     ;main.c: 235:     return 1;
  9271                           	movlw	low(01h)
  9272  07C3  3001               	goto	l145
  9273  07C4  2FC5               	
  9274                           l2094:	
  9275  07C5                     	line	236
  9276                           	
  9277                           l145:	
  9278  07C5                     	return
  9279  07C5  0008               	opt stack 0
  9280                           GLOBAL	__end_of_i2cRead
  9281                           	__end_of_i2cRead:
  9282  07C6                     	signat	_i2cRead,12409
  9283                           	global	_initialize
  9284                           
  9285 ;; *************** function _initialize *****************
  9286 ;; Defined at:
  9287 ;;		line 253 in file "main.c"
  9288 ;; Parameters:    Size  Location     Type
  9289 ;;		None
  9290 ;; Auto vars:     Size  Location     Type
  9291 ;;		None
  9292 ;; Return value:  Size  Location     Type
  9293 ;;                  1    wreg      void 
  9294 ;; Registers used:
  9295 ;;		wreg, status,2
  9296 ;; Tracked objects:
  9297 ;;		On entry : 0/0
  9298 ;;		On exit  : 0/0
  9299 ;;		Unchanged: 0/0
  9300 ;; Data sizes:     COMMON   BANK0   BANK1   BANK2   BANK3   BANK4   BANK5   BANK6   BANK7   BANK8   BANK9  BANK10  BANK1
       1  BANK12
  9301 ;;      Params:         0       0       0       0       0       0       0       0       0       0       0       0       
       0       0
  9302 ;;      Locals:         0       0       0       0       0       0       0       0       0       0       0       0       
       0       0
  9303 ;;      Temps:          0       0       0       0       0       0       0       0       0       0       0       0       
       0       0
  9304 ;;      Totals:         0       0       0       0       0       0       0       0       0       0       0       0       
       0       0
  9305 ;;Total ram usage:        0 bytes
  9306 ;; Hardware stack levels used:    1
  9307 ;; Hardware stack levels required when called:    2
  9308 ;; This function calls:
  9309 ;;		Nothing
  9310 ;; This function is called by:
  9311 ;;		_main
  9312 ;; This function uses a non-reentrant model
  9313 ;;
  9314                           psect	text15,local,class=CODE,delta=2,merge=1,group=0
  9315                           	line	253
  9316                           global __ptext15
  9317                           __ptext15:	;psect for function _initialize
  9318  07C6                     psect	text15
  9319                           	file	"main.c"
  9320                           	line	253
  9321                           	global	__size_of_initialize
  9322                           	__size_of_initialize	equ	__end_of_initialize-_initialize
  9323  0030                     	
  9324                           _initialize:	
  9325  07C6                     ;incstack = 0
  9326                           	opt	stack 13
  9327                           ; Regs used in _initialize: [wreg+status,2]
  9328                           	line	256
  9329                           	
  9330                           l2184:	
  9331  07C6                     ;main.c: 256:     OSCFRQ = 0b00000010;
  9332                           	movlw	low(02h)
  9333  07C6  3002               	movlb 17	; select bank17
  9334  07C7  0151               	movwf	(2195)^0880h	;volatile
  9335  07C8  0093               	line	257
  9336                           ;main.c: 257:     OSCCON1 = 0b01100000;
  9337                           	movlw	low(060h)
  9338  07C9  3060               	movwf	(2189)^0880h	;volatile
  9339  07CA  008D               	line	258
  9340                           ;main.c: 258:     while (!OSCCON3bits.ORDY);
  9341                           	goto	l163
  9342  07CB  2FCC               	
  9343                           l164:	
  9344  07CC                     	
  9345                           l163:	
  9346  07CC                     	btfss	(2191)^0880h,4	;volatile
  9347  07CC  1E0F               	goto	u2981
  9348  07CD  2FCF               	goto	u2980
  9349  07CE  2FD0               u2981:
  9350  07CF                     	goto	l163
  9351  07CF  2FCC               u2980:
  9352  07D0                     	goto	l2186
  9353  07D0  2FD1               	
  9354                           l165:	
  9355  07D1                     	line	261
  9356                           	
  9357                           l2186:	
  9358  07D1                     ;main.c: 261:     RC4PPS = 0x0F;
  9359                           	movlw	low(0Fh)
  9360  07D1  300F               	movlb 62	; select bank62
  9361  07D2  017E               	movwf	(7972)^01F00h	;volatile
  9362  07D3  00A4               	line	262
  9363                           ;main.c: 262:     RC1PPS = 0x16;
  9364                           	movlw	low(016h)
  9365  07D4  3016               	movwf	(7969)^01F00h	;volatile
  9366  07D5  00A1               	line	263
  9367                           ;main.c: 263:     SSP1DATPPS = 0x11;
  9368                           	movlw	low(011h)
  9369  07D6  3011               	movlb 61	; select bank61
  9370  07D7  017D               	movwf	(7878)^01E80h	;volatile
  9371  07D8  00C6               	line	264
  9372                           ;main.c: 264:     RC0PPS = 0x15;
  9373                           	movlw	low(015h)
  9374  07D9  3015               	movlb 62	; select bank62
  9375  07DA  017E               	movwf	(7968)^01F00h	;volatile
  9376  07DB  00A0               	line	267
  9377                           	
  9378                           l2188:	
  9379  07DC                     ;main.c: 267:     ANSELA = 0;
  9380                           	clrf	(7992)^01F00h	;volatile
  9381  07DC  01B8               	line	268
  9382                           	
  9383                           l2190:	
  9384  07DD                     ;main.c: 268:     ANSELC = 0;
  9385                           	clrf	(8014)^01F00h	;volatile
  9386  07DD  01CE               	line	271
  9387                           	
  9388                           l2192:	
  9389  07DE                     ;main.c: 271:     TRISA = 0;
  9390                           	movlb 0	; select bank0
  9391  07DE  0140               	clrf	(18)	;volatile
  9392  07DF  0192               	line	272
  9393                           	
  9394                           l2194:	
  9395  07E0                     ;main.c: 272:     TRISC = 0b00100011;
  9396                           	movlw	low(023h)
  9397  07E0  3023               	movwf	(20)	;volatile
  9398  07E1  0094               	line	275
  9399                           	
  9400                           l2196:	
  9401  07E2                     ;main.c: 275:     PIE3 = 0b00100000;
  9402                           	movlw	low(020h)
  9403  07E2  3020               	movlb 14	; select bank14
  9404  07E3  014E               	movwf	(1817)^0700h	;volatile
  9405  07E4  0099               	line	276
  9406                           	
  9407                           l2198:	
  9408  07E5                     ;main.c: 276:     INTCON = 0b11000000;
  9409                           	movlw	low(0C0h)
  9410  07E5  30C0               	movwf	(11)	;volatile
  9411  07E6  008B               	line	280
  9412                           	
  9413                           l2200:	
  9414  07E7                     ;main.c: 280:     BAUD1CON = 0b00001000;
  9415                           	movlw	low(08h)
  9416  07E7  3008               	movlb 2	; select bank2
  9417  07E8  0142               	movwf	(287)^0100h	;volatile
  9418  07E9  009F               	line	281
  9419                           	
  9420                           l2202:	
  9421  07EA                     ;main.c: 281:     SPBRGL = 25;
  9422                           	movlw	low(019h)
  9423  07EA  3019               	movwf	(283)^0100h	;volatile
  9424  07EB  009B               	line	282
  9425                           	
  9426                           l2204:	
  9427  07EC                     ;main.c: 282:     RC1STA = 0b10010000;
  9428                           	movlw	low(090h)
  9429  07EC  3090               	movwf	(285)^0100h	;volatile
  9430  07ED  009D               	line	283
  9431                           	
  9432                           l2206:	
  9433  07EE                     ;main.c: 283:     TX1STA = 0b00100000;
  9434                           	movlw	low(020h)
  9435  07EE  3020               	movwf	(286)^0100h	;volatile
  9436  07EF  009E               	line	286
  9437                           	
  9438                           l2208:	
  9439  07F0                     ;main.c: 286:     SSP1ADD = 0x09;
  9440                           	movlw	low(09h)
  9441  07F0  3009               	movlb 3	; select bank3
  9442  07F1  0143               	movwf	(397)^0180h	;volatile
  9443  07F2  008D               	line	287
  9444                           	
  9445                           l2210:	
  9446  07F3                     ;main.c: 287:     SSP1CON1 = 0b00101000;
  9447                           	movlw	low(028h)
  9448  07F3  3028               	movwf	(400)^0180h	;volatile
  9449  07F4  0090               	line	288
  9450                           	
  9451                           l166:	
  9452  07F5                     	return
  9453  07F5  0008               	opt stack 0
  9454                           GLOBAL	__end_of_initialize
  9455                           	__end_of_initialize:
  9456  07F6                     	signat	_initialize,89
  9457                           	global	_ISR
  9458                           
  9459 ;; *************** function _ISR *****************
  9460 ;; Defined at:
  9461 ;;		line 294 in file "main.c"
  9462 ;; Parameters:    Size  Location     Type
  9463 ;;		None
  9464 ;; Auto vars:     Size  Location     Type
  9465 ;;		None
  9466 ;; Return value:  Size  Location     Type
  9467 ;;                  1    wreg      void 
  9468 ;; Registers used:
  9469 ;;		wreg, status,2, status,0, pclath, cstack
  9470 ;; Tracked objects:
  9471 ;;		On entry : 0/0
  9472 ;;		On exit  : 0/0
  9473 ;;		Unchanged: 0/0
  9474 ;; Data sizes:     COMMON   BANK0   BANK1   BANK2   BANK3   BANK4   BANK5   BANK6   BANK7   BANK8   BANK9  BANK10  BANK1
       1  BANK12
  9475 ;;      Params:         0       0       0       0       0       0       0       0       0       0       0       0       
       0       0
  9476 ;;      Locals:         0       0       0       0       0       0       0       0       0       0       0       0       
       0       0
  9477 ;;      Temps:          0       0       0       0       0       0       0       0       0       0       0       0       
       0       0
  9478 ;;      Totals:         0       0       0       0       0       0       0       0       0       0       0       0       
       0       0
  9479 ;;Total ram usage:        0 bytes
  9480 ;; Hardware stack levels used:    1
  9481 ;; Hardware stack levels required when called:    1
  9482 ;; This function calls:
  9483 ;;		_uartReceiveISR
  9484 ;; This function is called by:
  9485 ;;		Interrupt level 1
  9486 ;; This function uses a non-reentrant model
  9487 ;;
  9488                           psect	intentry,class=CODE,delta=2
  9489                           global __pintentry
  9490                           __pintentry:
  9491  0004                     psect	intentry
  9492                           	file	"main.c"
  9493                           	line	294
  9494                           	global	__size_of_ISR
  9495                           	__size_of_ISR	equ	__end_of_ISR-_ISR
  9496  0017                     	
  9497                           _ISR:	
  9498  0004                     ;incstack = 0
  9499                           	opt	stack 10
  9500                           	bsf int$flags,0 ;set compiler interrupt flag (level 1)
  9501  0004  147E               ; Regs used in _ISR: [wreg+status,2+status,0+pclath+cstack]
  9502                           psect	intentry
  9503                           	pagesel	$
  9504  0005  3180               	line	296
  9505                           	
  9506                           i1l2342:	
  9507  0006                     ;main.c: 296:     if (INTCONbits.PEIE == 1 && PIE3bits.RC1IE == 1 && PIR3bits.RC1IF == 1
                                 )
  9508                           	btfss	(11),6	;volatile
  9509  0006  1F0B               	goto	u310_21
  9510  0007  2809               	goto	u310_20
  9511  0008  280A               u310_21:
  9512  0009                     	goto	i1l172
  9513  0009  2819               u310_20:
  9514  000A                     	
  9515                           i1l2344:	
  9516  000A                     	movlb 14	; select bank14
  9517  000A  014E               	btfss	(1817)^0700h,5	;volatile
  9518  000B  1E99               	goto	u311_21
  9519  000C  280E               	goto	u311_20
  9520  000D  280F               u311_21:
  9521  000E                     	goto	i1l172
  9522  000E  2819               u311_20:
  9523  000F                     	
  9524                           i1l2346:	
  9525  000F                     	btfss	(1807)^0700h,5	;volatile
  9526  000F  1E8F               	goto	u312_21
  9527  0010  2812               	goto	u312_20
  9528  0011  2813               u312_21:
  9529  0012                     	goto	i1l172
  9530  0012  2819               u312_20:
  9531  0013                     	line	298
  9532                           	
  9533                           i1l2348:	
  9534  0013                     ;main.c: 297:     {;main.c: 298:         uartReceiveISR();
  9535                           	fcall	_uartReceiveISR
  9536  0013  3188  200A  3180   	line	299
  9537                           	
  9538                           i1l2350:	
  9539  0016                     ;main.c: 299:         PIR3bits.RC1IF = 0;
  9540                           	movlb 14	; select bank14
  9541  0016  014E               	bcf	(1807)^0700h,5	;volatile
  9542  0017  128F               	goto	i1l172
  9543  0018  2819               	line	300
  9544                           ;main.c: 300:     }
  9545                           	
  9546                           i1l171:	
  9547  0019                     	line	301
  9548                           	
  9549                           i1l172:	
  9550  0019                     	bcf int$flags,0 ;clear compiler interrupt flag (level 1)
  9551  0019  107E               	retfie
  9552  001A  0009               	opt stack 0
  9553                           GLOBAL	__end_of_ISR
  9554                           	__end_of_ISR:
  9555  001B                     	signat	_ISR,89
  9556                           	global	_uartReceiveISR
  9557                           
  9558 ;; *************** function _uartReceiveISR *****************
  9559 ;; Defined at:
  9560 ;;		line 307 in file "main.c"
  9561 ;; Parameters:    Size  Location     Type
  9562 ;;		None
  9563 ;; Auto vars:     Size  Location     Type
  9564 ;;  rxByte          1    1[COMMON] unsigned char 
  9565 ;; Return value:  Size  Location     Type
  9566 ;;                  1    wreg      void 
  9567 ;; Registers used:
  9568 ;;		wreg, status,2, status,0
  9569 ;; Tracked objects:
  9570 ;;		On entry : 0/0
  9571 ;;		On exit  : 0/0
  9572 ;;		Unchanged: 0/0
  9573 ;; Data sizes:     COMMON   BANK0   BANK1   BANK2   BANK3   BANK4   BANK5   BANK6   BANK7   BANK8   BANK9  BANK10  BANK1
       1  BANK12
  9574 ;;      Params:         0       0       0       0       0       0       0       0       0       0       0       0       
       0       0
  9575 ;;      Locals:         1       0       0       0       0       0       0       0       0       0       0       0       
       0       0
  9576 ;;      Temps:          1       0       0       0       0       0       0       0       0       0       0       0       
       0       0
  9577 ;;      Totals:         2       0       0       0       0       0       0       0       0       0       0       0       
       0       0
  9578 ;;Total ram usage:        2 bytes
  9579 ;; Hardware stack levels used:    1
  9580 ;; This function calls:
  9581 ;;		Nothing
  9582 ;; This function is called by:
  9583 ;;		_ISR
  9584 ;; This function uses a non-reentrant model
  9585 ;;
  9586                           psect	text17,local,class=CODE,delta=2,merge=1,group=0
  9587                           	line	307
  9588                           global __ptext17
  9589                           __ptext17:	;psect for function _uartReceiveISR
  9590  080A                     psect	text17
  9591                           	file	"main.c"
  9592                           	line	307
  9593                           	global	__size_of_uartReceiveISR
  9594                           	__size_of_uartReceiveISR	equ	__end_of_uartReceiveISR-_uartReceiveISR
  9595  002E                     	
  9596                           _uartReceiveISR:	
  9597  080A                     ;incstack = 0
  9598                           	opt	stack 10
  9599                           ; Regs used in _uartReceiveISR: [wreg+status,2+status,0]
  9600                           	line	311
  9601                           	
  9602                           i1l2274:	
  9603  080A                     ;main.c: 309:     char rxByte;;main.c: 311:     if (RC1STAbits.OERR)
  9604                           	movlb 2	; select bank2
  9605  080A  0142               	btfss	(285)^0100h,1	;volatile
  9606  080B  1C9D               	goto	u304_21
  9607  080C  280E               	goto	u304_20
  9608  080D  280F               u304_21:
  9609  080E                     	goto	i1l2280
  9610  080E  2816               u304_20:
  9611  080F                     	line	313
  9612                           	
  9613                           i1l2276:	
  9614  080F                     ;main.c: 312:     {;main.c: 313:         RC1STAbits.CREN = 0;
  9615                           	bcf	(285)^0100h,4	;volatile
  9616  080F  121D               	line	314
  9617                           ;main.c: 314:         RC1STAbits.CREN = 1;
  9618                           	bsf	(285)^0100h,4	;volatile
  9619  0810  161D               	line	315
  9620                           	
  9621                           i1l2278:	
  9622  0811                     ;main.c: 315:         g_rxOErrCount++;
  9623                           	movlw	low(01h)
  9624  0811  3001               	movwf	(??_uartReceiveISR+0)+0
  9625  0812  00F0               	movf	(??_uartReceiveISR+0)+0,w
  9626  0813  0870               	addwf	(_g_rxOErrCount),f	;volatile
  9627  0814  07FA               	goto	i1l2280
  9628  0815  2816               	line	316
  9629                           ;main.c: 316:     }
  9630                           	
  9631                           i1l175:	
  9632  0816                     	line	317
  9633                           	
  9634                           i1l2280:	
  9635  0816                     ;main.c: 317:     if (RC1STAbits.FERR)
  9636                           	btfss	(285)^0100h,2	;volatile
  9637  0816  1D1D               	goto	u305_21
  9638  0817  2819               	goto	u305_20
  9639  0818  281A               u305_21:
  9640  0819                     	goto	i1l2286
  9641  0819  2821               u305_20:
  9642  081A                     	line	319
  9643                           	
  9644                           i1l2282:	
  9645  081A                     ;main.c: 318:     {;main.c: 319:         RC1STAbits.SPEN = 0;
  9646                           	bcf	(285)^0100h,7	;volatile
  9647  081A  139D               	line	320
  9648                           ;main.c: 320:         RC1STAbits.SPEN = 1;
  9649                           	bsf	(285)^0100h,7	;volatile
  9650  081B  179D               	line	321
  9651                           	
  9652                           i1l2284:	
  9653  081C                     ;main.c: 321:         g_rxFErrCount++;
  9654                           	movlw	low(01h)
  9655  081C  3001               	movwf	(??_uartReceiveISR+0)+0
  9656  081D  00F0               	movf	(??_uartReceiveISR+0)+0,w
  9657  081E  0870               	addwf	(_g_rxFErrCount),f	;volatile
  9658  081F  07FB               	goto	i1l2286
  9659  0820  2821               	line	322
  9660                           ;main.c: 322:     }
  9661                           	
  9662                           i1l176:	
  9663  0821                     	line	324
  9664                           	
  9665                           i1l2286:	
  9666  0821                     ;main.c: 324:     rxByte = RC1REG;
  9667                           	movf	(281)^0100h,w	;volatile
  9668  0821  0819               	movwf	(??_uartReceiveISR+0)+0
  9669  0822  00F0               	movf	(??_uartReceiveISR+0)+0,w
  9670  0823  0870               	movwf	(uartReceiveISR@rxByte)
  9671  0824  00F1               	line	325
  9672                           	
  9673                           i1l2288:	
  9674  0825                     ;main.c: 325:     if (rxByte == '?')
  9675                           		movlw	63
  9676  0825  303F               	xorwf	((uartReceiveISR@rxByte)),w
  9677  0826  0671               	btfss	status,2
  9678  0827  1D03               	goto	u306_21
  9679  0828  282A               	goto	u306_20
  9680  0829  282B               u306_21:
  9681  082A                     	goto	i1l2292
  9682  082A  2831               u306_20:
  9683  082B                     	line	326
  9684                           	
  9685                           i1l2290:	
  9686  082B                     ;main.c: 326:         g_command = GET_DATA;
  9687                           	movlw	low(01h)
  9688  082B  3001               	movwf	(??_uartReceiveISR+0)+0
  9689  082C  00F0               	movf	(??_uartReceiveISR+0)+0,w
  9690  082D  0870               	movlb 1	; select bank1
  9691  082E  0141               	movwf	(_g_command)^080h	;volatile
  9692  082F  00E0               	goto	i1l179
  9693  0830  2837               	line	327
  9694                           ;main.c: 327:     else
  9695                           	
  9696                           i1l177:	
  9697  0831                     	line	328
  9698                           	
  9699                           i1l2292:	
  9700  0831                     ;main.c: 328:         g_command = UNKNOWN_COMMAND;
  9701                           	movlw	low(02h)
  9702  0831  3002               	movwf	(??_uartReceiveISR+0)+0
  9703  0832  00F0               	movf	(??_uartReceiveISR+0)+0,w
  9704  0833  0870               	movlb 1	; select bank1
  9705  0834  0141               	movwf	(_g_command)^080h	;volatile
  9706  0835  00E0               	goto	i1l179
  9707  0836  2837               	
  9708                           i1l178:	
  9709  0837                     	line	329
  9710                           	
  9711                           i1l179:	
  9712  0837                     	return
  9713  0837  0008               	opt stack 0
  9714                           GLOBAL	__end_of_uartReceiveISR
  9715                           	__end_of_uartReceiveISR:
  9716  0838                     	signat	_uartReceiveISR,89
  9717                           global	___latbits
  9718                           ___latbits	equ	2
  9719  0002                     	global	btemp
  9720                           	btemp set 07Eh
  9721  007E                     
  9722                           	DABS	1,126,2	;btemp
  9723                           	global	int$flags
  9724                           	int$flags	set btemp
  9725  007E                     	global	wtemp0
  9726                           	wtemp0 set btemp+0
  9727  007E                     	end


Data Sizes:
    Strings     0
    Constant    24
    Data        0
    BSS         7
    Persistent  0
    Stack       0

Auto Spaces:
    Space          Size  Autos    Used
    COMMON           14     10      12
    BANK0            80     80      80
    BANK1            80     60      65
    BANK2            80     66      66
    BANK3            80      0       0
    BANK4            80      0       0
    BANK5            80      0       0
    BANK6            80      0       0
    BANK7            80      0       0
    BANK8            80      0       0
    BANK9            80      0       0
    BANK10           80      0       0
    BANK11           80      0       0
    BANK12           48      0       0

Pointer List with Targets:

    i2cRead@readBuffer	PTR unsigned char  size(1) Largest target is 2
		 -> readSI7006@buffer(BANK1[2]), 

    i2cWrite@writeBuffer	PTR unsigned char  size(1) Largest target is 2
		 -> readSI7006@buffer(BANK1[2]), 

    readSI7006@DP	PTR float  size(1) Largest target is 15
		 -> main@dataPacket(BANK1[15]), 

    readSI7006@tempC	PTR float  size(1) Largest target is 15
		 -> main@dataPacket(BANK1[15]), 

    readSI7006@RH	PTR float  size(1) Largest target is 15
		 -> main@dataPacket(BANK1[15]), 

    main@s	PTR unsigned char  size(1) Largest target is 15
		 -> main@dataPacket(BANK1[15]), 


Critical Paths under _main in COMMON

    _readSI7006->___xxtofl
    _logf->___xxtofl
    ___flmul->___xxtofl
    ___fldiv->___xxtofl
    ___fladd->___xxtofl

Critical Paths under _ISR in COMMON

    _ISR->_uartReceiveISR

Critical Paths under _main in BANK0

    _main->_readSI7006
    _readSI7006->___fladd
    _logf->___fladd
    ___flmul->___xxtofl
    ___fldiv->___flmul
    ___fladd->___fldiv

Critical Paths under _ISR in BANK0

    None.

Critical Paths under _main in BANK1

    _main->_readSI7006
    _readSI7006->_logf
    _logf->___fladd

Critical Paths under _ISR in BANK1

    None.

Critical Paths under _main in BANK2

    _readSI7006->_logf

Critical Paths under _ISR in BANK2

    None.

Critical Paths under _main in BANK3

    None.

Critical Paths under _ISR in BANK3

    None.

Critical Paths under _main in BANK4

    None.

Critical Paths under _ISR in BANK4

    None.

Critical Paths under _main in BANK5

    None.

Critical Paths under _ISR in BANK5

    None.

Critical Paths under _main in BANK6

    None.

Critical Paths under _ISR in BANK6

    None.

Critical Paths under _main in BANK7

    None.

Critical Paths under _ISR in BANK7

    None.

Critical Paths under _main in BANK8

    None.

Critical Paths under _ISR in BANK8

    None.

Critical Paths under _main in BANK9

    None.

Critical Paths under _ISR in BANK9

    None.

Critical Paths under _main in BANK10

    None.

Critical Paths under _ISR in BANK10

    None.

Critical Paths under _main in BANK11

    None.

Critical Paths under _ISR in BANK11

    None.

Critical Paths under _main in BANK12

    None.

Critical Paths under _ISR in BANK12

    None.

Call Graph Tables:

 ---------------------------------------------------------------------------------
 (Depth) Function   	        Calls       Base Space   Used Autos Params    Refs
 ---------------------------------------------------------------------------------
 (0) _main                                                20    20      0   31886
                                             40 BANK1     20    20      0
                         _initialize
                         _readSI7006
                       _uartSendByte
 ---------------------------------------------------------------------------------
 (1) _uartSendByte                                         1     1      0      22
                                              2 COMMON     1     1      0
 ---------------------------------------------------------------------------------
 (1) _readSI7006                                          26    24      2   31420
                                             78 BANK0      2     0      2
                                             16 BANK1     24    24      0
                            ___fladd
                            ___fldiv
                            ___flmul
                            ___flneg
                           ___xxtofl
                            _i2cRead
                          _i2cRepeat
                           _i2cStart
                            _i2cStop
                           _i2cWrite
                               _logf
 ---------------------------------------------------------------------------------
 (2) _logf                                                78    74      4   15662
                                              4 BANK1     12     8      4
                                              0 BANK2     66    66      0
                            ___fladd
                            ___fldiv
                            ___flmul
                            ___flneg
                           ___xxtofl
 ---------------------------------------------------------------------------------
 (3) ___xxtofl                                            14    10      4     550
                                              2 COMMON     8     4      4
                                              0 BANK0      6     6      0
 ---------------------------------------------------------------------------------
 (3) ___flneg                                              4     0      4     273
                                              2 COMMON     4     0      4
 ---------------------------------------------------------------------------------
 (3) ___flmul                                             26    18      8    6233
                                              6 BANK0     26    18      8
                          __Umul8_16
                           ___xxtofl (ARG)
 ---------------------------------------------------------------------------------
 (4) __Umul8_16                                            9     7      2     980
                                              2 COMMON     4     2      2
                                              0 BANK0      5     5      0
 ---------------------------------------------------------------------------------
 (3) ___fldiv                                             26    18      8    2337
                                             32 BANK0     26    18      8
                            ___flmul (ARG)
                            ___flneg (ARG)
                           ___xxtofl (ARG)
 ---------------------------------------------------------------------------------
 (3) ___fladd                                             24    16      8    4542
                                             58 BANK0     20    12      8
                                              0 BANK1      4     4      0
                            ___fldiv (ARG)
                            ___flmul (ARG)
                            ___flneg (ARG)
                           ___xxtofl (ARG)
 ---------------------------------------------------------------------------------
 (2) _i2cWrite                                             5     3      2     526
                                              2 COMMON     5     3      2
 ---------------------------------------------------------------------------------
 (2) _i2cStop                                              0     0      0       0
 ---------------------------------------------------------------------------------
 (2) _i2cStart                                             0     0      0       0
 ---------------------------------------------------------------------------------
 (2) _i2cRepeat                                            0     0      0       0
 ---------------------------------------------------------------------------------
 (2) _i2cRead                                              4     2      2     459
                                              2 COMMON     4     2      2
 ---------------------------------------------------------------------------------
 (1) _initialize                                           0     0      0       0
 ---------------------------------------------------------------------------------
 Estimated maximum stack depth 4
 ---------------------------------------------------------------------------------
 (Depth) Function   	        Calls       Base Space   Used Autos Params    Refs
 ---------------------------------------------------------------------------------
 (5) _ISR                                                  0     0      0      23
                     _uartReceiveISR
 ---------------------------------------------------------------------------------
 (6) _uartReceiveISR                                       2     2      0      23
                                              0 COMMON     2     2      0
 ---------------------------------------------------------------------------------
 Estimated maximum stack depth 6
 ---------------------------------------------------------------------------------

 Call Graph Graphs:

 _main (ROOT)
   _initialize
   _readSI7006
     ___fladd
       ___fldiv (ARG)
         ___flmul (ARG)
           __Umul8_16
           ___xxtofl (ARG)
         ___flneg (ARG)
         ___xxtofl (ARG)
       ___flmul (ARG)
         __Umul8_16
         ___xxtofl (ARG)
       ___flneg (ARG)
       ___xxtofl (ARG)
     ___fldiv
       ___flmul (ARG)
         __Umul8_16
         ___xxtofl (ARG)
       ___flneg (ARG)
       ___xxtofl (ARG)
     ___flmul
       __Umul8_16
       ___xxtofl (ARG)
     ___flneg
     ___xxtofl
     _i2cRead
     _i2cRepeat
     _i2cStart
     _i2cStop
     _i2cWrite
     _logf
       ___fladd
         ___fldiv (ARG)
           ___flmul (ARG)
             __Umul8_16
             ___xxtofl (ARG)
           ___flneg (ARG)
           ___xxtofl (ARG)
         ___flmul (ARG)
           __Umul8_16
           ___xxtofl (ARG)
         ___flneg (ARG)
         ___xxtofl (ARG)
       ___fldiv
         ___flmul (ARG)
           __Umul8_16
           ___xxtofl (ARG)
         ___flneg (ARG)
         ___xxtofl (ARG)
       ___flmul
         __Umul8_16
         ___xxtofl (ARG)
       ___flneg
       ___xxtofl
   _uartSendByte

 _ISR (ROOT)
   _uartReceiveISR

 Address spaces:
Name               Size   Autos  Total    Cost      Usage
BIGRAM             3F0      0       0       0        0.0%
NULL                 0      0       0       0        0.0%
CODE                 0      0       0       0        0.0%
BITCOMMON            E      0       0       1        0.0%
BITSFR0              0      0       0       1        0.0%
SFR0                 0      0       0       1        0.0%
COMMON               E      A       C       2       85.7%
BITSFR1              0      0       0       2        0.0%
SFR1                 0      0       0       2        0.0%
BITSFR2              0      0       0       3        0.0%
SFR2                 0      0       0       3        0.0%
STACK                0      0       0       3        0.0%
BITSFR3              0      0       0       4        0.0%
SFR3                 0      0       0       4        0.0%
ABS                  0      0      DF       4        0.0%
BITBANK0            50      0       0       5        0.0%
BITSFR4              0      0       0       5        0.0%
SFR4                 0      0       0       5        0.0%
BANK0               50     50      50       6      100.0%
BITSFR5              0      0       0       6        0.0%
SFR5                 0      0       0       6        0.0%
BITBANK1            50      0       0       7        0.0%
BITSFR6              0      0       0       7        0.0%
SFR6                 0      0       0       7        0.0%
BANK1               50     3C      41       8       81.3%
BITSFR7              0      0       0       8        0.0%
SFR7                 0      0       0       8        0.0%
BITBANK2            50      0       0       9        0.0%
BITSFR8              0      0       0       9        0.0%
SFR8                 0      0       0       9        0.0%
BANK2               50     42      42      10       82.5%
BITSFR9              0      0       0      10        0.0%
SFR9                 0      0       0      10        0.0%
BITBANK3            50      0       0      11        0.0%
BITSFR10             0      0       0      11        0.0%
SFR10                0      0       0      11        0.0%
BANK3               50      0       0      12        0.0%
BITSFR11             0      0       0      12        0.0%
SFR11                0      0       0      12        0.0%
BITBANK4            50      0       0      13        0.0%
BITSFR12             0      0       0      13        0.0%
SFR12                0      0       0      13        0.0%
BANK4               50      0       0      14        0.0%
BITSFR13             0      0       0      14        0.0%
SFR13                0      0       0      14        0.0%
BITBANK5            50      0       0      15        0.0%
BITSFR14             0      0       0      15        0.0%
SFR14                0      0       0      15        0.0%
BANK5               50      0       0      16        0.0%
BITSFR15             0      0       0      16        0.0%
SFR15                0      0       0      16        0.0%
BITBANK6            50      0       0      17        0.0%
BITSFR16             0      0       0      17        0.0%
SFR16                0      0       0      17        0.0%
BANK6               50      0       0      18        0.0%
BITSFR17             0      0       0      18        0.0%
SFR17                0      0       0      18        0.0%
BITBANK7            50      0       0      19        0.0%
BITSFR18             0      0       0      19        0.0%
SFR18                0      0       0      19        0.0%
BANK7               50      0       0      20        0.0%
BITSFR19             0      0       0      20        0.0%
SFR19                0      0       0      20        0.0%
BITBANK8            50      0       0      21        0.0%
BITSFR20             0      0       0      21        0.0%
SFR20                0      0       0      21        0.0%
BANK8               50      0       0      22        0.0%
BITSFR21             0      0       0      22        0.0%
SFR21                0      0       0      22        0.0%
BITBANK9            50      0       0      23        0.0%
BITSFR22             0      0       0      23        0.0%
SFR22                0      0       0      23        0.0%
BANK9               50      0       0      24        0.0%
BITSFR23             0      0       0      24        0.0%
SFR23                0      0       0      24        0.0%
BITBANK10           50      0       0      25        0.0%
BITSFR24             0      0       0      25        0.0%
SFR24                0      0       0      25        0.0%
BANK10              50      0       0      26        0.0%
BITSFR25             0      0       0      26        0.0%
SFR25                0      0       0      26        0.0%
BITBANK11           50      0       0      27        0.0%
BITSFR26             0      0       0      27        0.0%
SFR26                0      0       0      27        0.0%
BANK11              50      0       0      28        0.0%
BITSFR27             0      0       0      28        0.0%
SFR27                0      0       0      28        0.0%
BITBANK12           30      0       0      29        0.0%
BITSFR28             0      0       0      29        0.0%
SFR28                0      0       0      29        0.0%
BANK12              30      0       0      30        0.0%
BITSFR29             0      0       0      30        0.0%
SFR29                0      0       0      30        0.0%
BITSFR30             0      0       0      31        0.0%
SFR30                0      0       0      31        0.0%
DATA                 0      0      DF      31        0.0%
BITSFR31             0      0       0      32        0.0%
SFR31                0      0       0      32        0.0%
BITSFR32             0      0       0      33        0.0%
SFR32                0      0       0      33        0.0%
BITSFR33             0      0       0      34        0.0%
SFR33                0      0       0      34        0.0%
BITSFR34             0      0       0      35        0.0%
SFR34                0      0       0      35        0.0%
BITSFR35             0      0       0      36        0.0%
SFR35                0      0       0      36        0.0%
BITSFR36             0      0       0      37        0.0%
SFR36                0      0       0      37        0.0%
BITSFR37             0      0       0      38        0.0%
SFR37                0      0       0      38        0.0%
BITSFR38             0      0       0      39        0.0%
SFR38                0      0       0      39        0.0%
BITSFR39             0      0       0      40        0.0%
SFR39                0      0       0      40        0.0%
BITSFR40             0      0       0      41        0.0%
SFR40                0      0       0      41        0.0%
BITSFR41             0      0       0      42        0.0%
SFR41                0      0       0      42        0.0%
BITSFR42             0      0       0      43        0.0%
SFR42                0      0       0      43        0.0%
BITSFR43             0      0       0      44        0.0%
SFR43                0      0       0      44        0.0%
BITSFR44             0      0       0      45        0.0%
SFR44                0      0       0      45        0.0%
BITSFR45             0      0       0      46        0.0%
SFR45                0      0       0      46        0.0%
BITSFR46             0      0       0      47        0.0%
SFR46                0      0       0      47        0.0%
BITSFR47             0      0       0      48        0.0%
SFR47                0      0       0      48        0.0%
BITSFR48             0      0       0      49        0.0%
SFR48                0      0       0      49        0.0%
BITSFR49             0      0       0      50        0.0%
SFR49                0      0       0      50        0.0%
BITSFR50             0      0       0      51        0.0%
SFR50                0      0       0      51        0.0%
BITSFR51             0      0       0      52        0.0%
SFR51                0      0       0      52        0.0%
BITSFR52             0      0       0      53        0.0%
SFR52                0      0       0      53        0.0%
BITSFR53             0      0       0      54        0.0%
SFR53                0      0       0      54        0.0%
BITSFR54             0      0       0      55        0.0%
SFR54                0      0       0      55        0.0%
BITSFR55             0      0       0      56        0.0%
SFR55                0      0       0      56        0.0%
BITSFR56             0      0       0      57        0.0%
SFR56                0      0       0      57        0.0%
BITSFR57             0      0       0      58        0.0%
SFR57                0      0       0      58        0.0%
BITSFR58             0      0       0      59        0.0%
SFR58                0      0       0      59        0.0%
BITSFR59             0      0       0      60        0.0%
SFR59                0      0       0      60        0.0%
BITSFR60             0      0       0      61        0.0%
SFR60                0      0       0      61        0.0%
BITSFR61             0      0       0      62        0.0%
SFR61                0      0       0      62        0.0%
BITSFR62             0      0       0      63        0.0%
SFR62                0      0       0      63        0.0%
BITSFR63             0      0       0      64        0.0%
SFR63                0      0       0      64        0.0%


Microchip Technology PIC Macro Assembler V2.00 build -1524193055 
Symbol Table                                                                                   Sat Jan 18 21:53:21 2020

           ___fldiv@aexp 0059             ___fldiv@bexp 0058             ___fldiv@sign 0051  
            __CFG_CP$OFF 0000                       l90 072B                       l91 072E  
                     l92 073C                       l93 075A                       l94 077B  
                     l95 0761                       l87 070A                       l88 076A  
                     l96 0768                       l97 077C                       l89 070C  
                     l98 077D                       l99 077D          i2cRead@numBytes 0072  
    __Umul8_16@word_mpld 0022              __CFG_LVP$ON 0000        i2cRead@readBuffer 0075  
                    l110 15D9                      l102 088F                      l111 15DE  
                    l103 0AC3                      l112 15DF                      l104 08A7  
                    l121 0803                      l105 0927                      l122 0803  
                    l130 084B                      l106 093F                      l123 0808  
                    l115 07F9                      l131 0872                      l124 0809  
                    l116 07F9                      l132 0869                      l141 0785  
                    l109 15D9                      l117 07FE                      l133 084D  
                    l150 079C                      l142 0785                      l118 07FF  
                    l134 0856                      l151 07B4                      l143 078A  
                    l135 0856                      l127 083D                      l152 07B4  
                    l144 0793                      l136 085B                      l128 083D  
                    l160 15F9                      l153 07B9                      l145 07C5  
                    l137 0864                      l129 0842                      l154 07C3  
                    l146 07BB                      l138 0870                      l163 07CC  
                    l147 0794                      l164 07CC                      l148 0797  
                    l500 0EAC                      l165 07D1                      l149 0797  
                    l501 0EB4                      l157 15F3                      l166 07F5  
                    l502 0F75                      l510 0F62                      l158 15F3  
                    l511 0F65                      l503 0F29                      l159 15F9  
                    l520 0FC7                      l512 0F6D                      l504 0F28  
                    l600 0687                      l521 0FE6                      l513 0F74  
                    l505 0F31                      l601 0706                      l514 0F8F  
                    l506 0F4B                      l602 0698                      l523 0FD4  
                    l515 0F84                      l507 0F6E                      l611 06D0  
                    l603 068C                      l524 0FE5                      l516 0F8E  
                    l508 0F4C                      l540 167D                      l372 15EB  
                    l612 06D0                      l604 069F                      l525 0FED  
                    l517 0F8D                      l509 0F5A                      l541 169F  
                    l533 1631                      l373 15EC                      l613 06DC  
                    l605 06B3                      l526 0FF2                      l518 0FC8  
                    l550 1738                      l542 17FF                      l534 1647  
                    l614 06FD                      l606 06A0                      l527 0FFF  
                    l519 0FC8                      l551 1752                      l543 16B6  
                    l535 1644                      l607 06BA                      l631 0199  
                    l480 0D75                      l560 17AA                      l552 1739  
                    l544 1727                      l536 1650                      l608 06C5  
                    l640 01BA                      l481 0D83                      l561 17C5  
                    l553 1746                      l545 16E5                      l537 165F  
                    l609 06BB                      l633 007B                      l490 0E4D  
                    l482 0D9C                      l562 17DF                      l554 1757  
                    l546 1706                      l538 1675                      l570 0AE9  
                    l634 00E2                      l491 0E59                      l483 0D98  
                    l563 17EA                      l555 177C                      l547 16FE  
                    l539 1672                      l643 1606                      l571 0AE7  
                    l635 0651                      l492 0E5C                      l484 0DA5  
                    l476 0D44                      l564 17EE                      l556 1773  
                    l548 1722                      l644 160E                      l580 0D2E  
                    l572 0AF2                      l636 0150                      l493 0E64  
                    l485 0E0B                      l477 0D5D                      l557 177B  
                    l549 172E                      l645 161B                      l581 0C80  
                    l573 0B01                      l637 01BC                      l494 0E7B  
                    l486 0DB7                      l478 0D59                      l558 177A  
                    l646 1620                      l590 0CD8                      l582 0C67  
                    l574 0B16                      l638 01A4                      l495 0EC4  
                    l487 0E4C                      l479 0D67                      l559 17AB  
                    l591 0CF0                      l583 0C74                      l575 0B14  
                    l639 01BB                      l496 0E8F                      l488 0E7B  
                    l592 0D21                      l584 0C85                      l576 0B1F  
                    l497 0FFF                      l489 0E73                      l593 0D09  
                    l585 0CAA                      l577 0B34                      l569 0AD4  
                    l498 0EC3                      l594 0D21                      l586 0CA1  
                    l499 0EA9                      l595 0D1C                      l587 0CA9  
                    l579 0B2A                      l588 0CA8                      l589 0CD9  
                    l598 066D                      l599 0675                      _ISR 0004  
                    _Lg1 180C                      _Lg2 1808                      _Lg3 1804  
                    _Lg4 1800             __CFG_BORV$LO 0000                      wreg 0009  
           ___flmul@aexp 0034             ___flmul@bexp 0039             ___flmul@sign 0033  
           ___flmul@temp 003E             ___flmul@prod 003A            __CFG_BBEN$OFF 0000  
                   ?_ISR 0070             __CFG_ZCD$OFF 0000                     l2010 065D  
                   l2020 068C                     l2012 066D                     l2030 06BB  
                   l2022 0698                     l2014 067D                     l2006 0654  
                   l2200 07E7                     l2040 06F2                     l2032 06C5  
                   l2024 06A0                     l2016 0686                     l2008 0659  
                   l2210 07F3                     l2202 07EA                     l2050 15D4  
                   l2042 06F7                     l2034 06C9                     l2026 06A4  
                   l2018 0687                     l2204 07EC                     l2060 084D  
                   l2052 0839                     l2044 06FB                     l2036 06D4  
                   l2028 06AC                     l2206 07EE                     l2070 0870  
                   l2062 0861                     l2054 0848                     l2046 06FD  
                   l2038 06DE                     l2208 07F0                     l2080 0792  
                   l2072 0872                     l2064 0863                     l2056 084A  
                   l1600 0DEF                     l2400 0AE7                     l2048 0706  
                   l2082 079D                     l2090 07BB                     l2074 0800  
                   l2066 0864                     l2058 084B                     l1602 0DF4  
                   l1610 0E0B                     l2410 0AFF                     l2402 0AE9  
                   l1530 15EC                     l2092 07C3                     l2084 07A5  
                   l2076 0780                     l2068 0869                     l1700 0F95  
                   l1620 0E5C                     l1612 0E0D                     l1604 0DFA  
                   l1540 0D44                     l1532 0D2F                     l2500 0CBB  
                   l2420 0B16                     l2412 0B01                     l2404 0AF2  
                   l1524 15E0                     l2190 07DD                     l2094 07C5  
                   l2086 07A9                     l2078 0790                     l1710 0FD4  
                   l1702 0F9E                     l1630 0E7F                     l1622 0E61  
                   l1614 0E2C                     l1606 0DFF                     l1542 0D4A  
                   l1550 0D5D                     l1534 0D36                     l2510 0CFE  
                   l2502 0CD3                     l2430 0B34                     l2422 0B1F  
                   l2414 0B06                     l2406 0AF7                     l1526 15E8  
                   l2270 15EE                     l2192 07DE                     l2184 07C6  
                   l2088 07B2                     l2096 07F6                     l1720 0FED  
                   l1712 0FDD                     l1704 0FA2                     l1640 0E9C  
                   l1632 0E84                     l1624 0E64                     l1616 0E51  
                   l1608 0E04                     l1560 0D7B                     l1552 0D67  
                   l1544 0D4F                     l1536 0D3C                     l1800 1706  
                   l2520 0D1C                     l2512 0D07                     l2504 0CD9  
                   l2440 0B8F                     l2432 0B41                     l2424 0B24  
                   l2416 0B0B                     l2408 0AFB                     l1528 15EB  
                   l2600 04E3                     l2272 15F1                     l2194 07E0  
                   l2186 07D1                     l1722 0FF8                     l1714 0FE3  
                   l1706 0FC0                     l1650 0EB4                     l1642 0EA1  
                   l1634 0E8E                     l1626 0E6D                     l1618 0E59  
                   l1570 0D98                     l1562 0D80                     l1554 0D6D  
                   l1546 0D59                     l1538 0D41                     l1810 172E  
                   l1802 1718                     l1730 162B                     l2522 0D25  
                   l2514 0D09                     l2506 0CE6                     l2450 0BC4  
                   l2442 0B9C                     l2434 0B4E                     l2426 0B2A  
                   l2418 0B14                     l2610 0651                     l2602 0531  
                   l2530 0053                     l2196 07E2                     l2188 07DC  
                   l1724 0FFD                     l1716 0FE6                     l1708 0FCE  
                   l1660 0F19                     l1652 0EBD                     l1644 0EA9  
                   l1636 0E8F                     l1628 0E73                     l1580 0DB7  
                   l1572 0D9A                     l1564 0D83                     l1556 0D73  
                   l1548 0D5B                     l1820 1746                     l1812 1736  
                   l1804 1719                     l1740 1644                     l1732 162F  
                   l2380 1615                     l2372 15FC                     l2524 0D2E  
                   l2516 0D16                     l2508 0CF0                     l2460 0C07  
                   l2452 0BD1                     l2444 0BA9                     l2436 0B68  
                   l2428 0B33                     l2604 058C                     l2540 00E2  
                   l2532 005C                     l2620 088E                     l2612 0875  
                   l2700 0753                     l2198 07E5                     l1718 0FEA  
                   l1670 0F4A                     l1662 0F1E                     l1646 0EAC  
                   l1638 0E98                     l1654 0EC4                     l1590 0DD4  
                   l1582 0DBD                     l1566 0D89                     l1574 0D9C  
                   l1558 0D75                     l1830 175C                     l1822 174D  
                   l1814 1739                     l1806 1722                     l1750 1659  
                   l1742 1645                     l1734 1631                     l1726 1621  
                   l2382 161B                     l2374 15FE                     l2518 0D1A  
                   l2470 0C5B                     l2462 0C14                     l2454 0BD8  
                   l2446 0BB0                     l2438 0B75                     l2390 0ACE  
                   l2606 05C3                     l2550 0181                     l2542 0101  
                   l2534 007B                     l2526 0029                     l2630 08A7  
                   l2622 088F                     l2614 0878                     l2710 0769  
                   l2702 075A                     l1680 0F62                     l1672 0F4C  
                   l1656 0EDB                     l1664 0F29                     l1648 0EB1  
                   l1592 0DDA                     l1584 0DC3                     l1576 0DAC  
                   l1568 0D8E                     l1840 1789                     l1832 1770  
                   l1816 1740                     l1824 1752                     l1808 1727  
                   l1760 1672                     l1752 165D                     l1736 1636  
                   l1744 1647                     l1728 1627                     l2384 1620  
                   l2376 1606                     l2480 0C7B                     l2472 0C67  
                   l2464 0C28                     l2456 0BEC                     l2448 0BBD  
                   l2392 0AD2                     l2608 05F5                     l2560 01A4  
                   l2552 0190                     l2544 014F                     l2536 009A  
                   l2528 0051                     l2640 0924                     l2632 08AA  
                   l2624 0892                     l2616 087D                     l2704 075E  
                   l2712 076A                     l1690 0F77                     l1682 0F65  
                   l1674 0F53                     l1666 0F3A                     l1658 0F17  
                   l1594 0DDF                     l1586 0DC9                     l1578 0DB0  
                   l1850 17D3                     l1842 178D                     l1834 1777  
                   l1826 1757                     l1818 1744                     l1770 1695  
                   l1762 1673                     l1754 165F                     l1746 1650  
                   l1738 163B                     l2378 160A                     l2490 0C9E  
                   l2474 0C6E                     l2482 0C80                     l2466 0C3D  
                   l2458 0BF3                     l2394 0AD4                     l2386 0AC4  
                   l2570 01E8                     l2562 01AF                     l2546 0150  
                   l2538 00E1                     l2554 0199                     l2650 093E  
                   l2642 0926                     l2634 090D                     l2626 08A4  
                   l2618 088C                     l2706 0761                     l1692 0F7B  
                   l1684 0F6A                     l1676 0F58                     l1668 0F40  
                   l1596 0DE4                     l1588 0DCF                     l1860 17EA  
                   l1852 17D6                     l1844 17A5                     l1836 177C  
                   l1828 1758                     l1780 16B6                     l1772 169E  
                   l1756 1664                     l1764 1675                     l1748 1655  
                   l2492 0CA5                     l2484 0C85                     l2476 0C72  
                   l2468 0C54                     l2396 0AD9                     l2388 0ACA  
                   l2580 02A7                     l2572 021C                     l2564 01B9  
                   l2556 01A2                     l2548 0155                     l2660 0A1E  
                   l2652 093F                     l2644 0927                     l2636 0910  
                   l2628 08A6                     l2708 0765                     l1694 0F81  
                   l1678 0F5F                     l1686 0F6E                     l1598 0DEA  
                   l1862 17F6                     l1854 17DE                     l1838 1781  
                   l1846 17AB                     l1790 16E5                     l1782 16CB  
                   l1766 1685                     l1774 169F                     l1758 1669  
                   l2494 0CAA                     l2486 0C86                     l2478 0C74  
                   l2398 0ADE                     l2590 040B                     l2582 02D9  
                   l2574 0224                     l2558 01A3                     l2566 01BC  
                   l2662 0A32                     l2654 0942                     l2646 092A  
                   l2638 0915                     l2670 0707                     l1696 0F89  
                   l1688 0F75                     l1864 17FF                     l1856 17E4  
                   l1848 17B8                     l1792 16EA                     l1784 16D3  
                   l1776 16A4                     l1768 1691                     l2496 0CAF  
                   l2488 0C8A                     l2592 043D                     l2584 030B  
                   l2576 0233                     l2568 01C5                     l2664 0A64  
                   l2656 09A4                     l2648 093C                     l2680 072B  
                   l2672 070C                     l1698 0F8F                     l1858 17E8  
                   l1794 16F8                     l1786 16DB                     l1778 16B5  
                   l2498 0CB7                     l2594 046F                     l2586 0372  
                   l2578 025F                     l2666 0AC1                     l2658 09CC  
                   l2738 0773                     l2690 073B                     l2682 072E  
                   l2674 0711                     l1796 16FC                     l1788 16E3  
                   l2596 049B                     l2588 03A4                     l2668 0AC3  
                   l2692 073C                     l2684 0732                     l2676 0713  
                   l1798 16FE                     l2598 04CD                     l2694 0743  
                   l2686 0733                     l2678 0727                     l2696 074A  
                   l2688 0734                     l2698 074F                     u2000 0FD3  
                   u2001 0FD2                     u2010 0FE3                     u2011 0FE2  
                   u2020 0FEA                     u2100 1685                     u2021 0FE9  
                   u2101 1684                     u2030 0FFD                     u2110 16A4  
                   u2031 0FFC                     u2111 16A3                     u2120 16EA  
                   u2040 162F                     u2121 16E9                     u2041 162E  
                   u2210 1744                     u2050 1636                     u2211 1743  
                   u2051 1635                     u2300 17B8                     u2060 163B  
                   u2301 17B7                     u2205 173A                     u2061 163A  
                   u2310 17D3                     u2230 1756                     u2150 16FC  
                   u2070 165D                     u3030 15F8                     u2311 17D2  
                   u2231 1755                     u2151 16FB                     u2135 16EB  
                   u2071 165C                     u3031 15F7                     u2320 17E8  
                   u2240 175C                     u2080 1664                     u3200 0B06  
                   u1600 15E8                     u2321 17E7                     u2305 17B4  
                   u2241 175B                     u2225 1747                     u2145 16F2  
                   u2081 1663                     u3201 0B05                     u1601 15E7  
                   u1610 0D41                     u2250 1770                     u2170 1718  
                   u2090 1669                     u3130 160A                     u3210 0B0B  
                   u1611 0D40                     u2315 17CF                     u2251 176F  
                   u2171 1717                     u2091 1668                     u3131 1609  
                   u3211 0B0A                     u1700 0E2C                     u1620 0D4A  
                   u2260 1777                     u2180 172D                     u3300 0C72  
                   u3220 0B24                     u1701 0E2B                     u1621 0D49  
                   u2261 1776                     u2181 172C                     u2165 16FF  
                   u3301 0C71                     u3221 0B23                     u1710 0E36  
                   u1630 0D4F                     u2270 1781                     u2190 1736  
                   u3150 161A                     u3230 0B29                     u1711 0E34  
                   u1631 0D4E                     u2271 1780                     u2191 1735  
                   u2175 1714                     u3151 1619                     u3231 0B28  
                   u1800 0EA1                     u1720 0E37                     u1640 0D73  
                   u2280 178D                     u3400 0CFE                     u3320 0C84  
                   u3160 0AD2                     u2600 065D                     u1801 0EA0  
                   u1705 0E28                     u1641 0D72                     u2281 178C  
                   u3145 160F                     u3401 0CFD                     u3321 0C83  
                   u3161 0AD1                     u2601 065C                     u1810 0EB1  
                   u1730 0E51                     u1650 0D80                     u2290 179B  
                   u3410 0D1A                     u3330 0C8A                     u3170 0AD9  
                   u2610 067D                     u1811 0EB0                     u1731 0E50  
                   u1651 0D7F                     u3411 0D19                     u3331 0C89  
                   u3315 0C75                     u3171 0AD8                     u2611 067C  
                   u1900 0F6A                     u1740 0E61                     u1660 0D89  
                   u3340 0C9E                     u3260 0C33                     u3180 0ADE  
                   u2700 06E8                     u3500 01AF                     u3420 005C  
                   u1901 0F69                     u1741 0E60                     u1661 0D88  
                   u3405 0CFA                     u3341 0C9D                     u3245 0BAA  
                   u3181 0ADD                     u3501 01AE                     u3421 005B  
                   u1910 0F73                     u1830 0EDB                     u1670 0D8E  
                   u3350 0CA5                     u3270 0C4A                     u3190 0AFF  
                   u2710 06F7                     u2630 069E                     u3510 01D9  
                   u3430 0070                     u1911 0F72                     u1831 0EDA  
                   u1671 0D8D                     u2295 1797                     u3351 0CA4  
                   u3255 0BD9                     u3191 0AFE                     u2711 06F6  
                   u2631 069D                     u2800 078A                     u1920 0F7B  
                   u1840 0F1E                     u1760 0E7A                     u1680 0DAC  
                   u3360 0CAF                     u2720 06FB                     u3440 007A  
                   u3520 088C                     u2801 0789                     u1921 0F7A  
                   u1841 0F1D                     u1833 0ED7                     u1825 0EB7  
                   u1761 0E79                     u1681 0DAB                     u3361 0CAE  
                   u3265 0C2F                     u2721 06FA                     u2705 06E4  
                   u2625 0691                     u3441 0079                     u3521 088B  
                   _PIE3 0719                     u2810 0790                     u2730 15DE  
                   u1930 0F81                     u1850 0F3A                     u1770 0E7F  
                   u1690 0DB0                     u3370 0CBB                     u2650 06B9  
                   u3450 0090                     u3530 08A4                     u2811 078F  
                   u2731 15DD                     u1931 0F80                     u1851 0F39  
                   u1771 0E7E                     u1755 0E67                     u1691 0DAF  
                   u3371 0CBA                     u3275 0C46                     u2651 06B8  
                   u3515 01D5                     u3435 006C                     u3531 08A3  
                   u2820 079C                     u2740 0842                     u1940 0F89  
                   u1860 0F40                     u1780 0E84                     u3380 0CC9  
                   u3460 009A                     u3540 0924                     u2821 079B  
                   u2741 0841                     u1941 0F88                     u1861 0F3F  
                   u1781 0E83                     u3285 0C55                     u2645 06AD  
                   u3461 0099                     u3541 0923                     u2830 07B0  
                   u2750 0848                     u1950 0F95                     u1790 0E9C  
                   u3390 0CE6                     u2670 06C9                     u2590 0659  
                   u3470 00F7                     u3550 093C                     u2831 07AD  
                   u2751 0847                     u1951 0F94                     u1791 0E9B  
                   u3391 0CE5                     u3295 0C68                     u2671 06C8  
                   u2591 0658                     u3455 008C                     u3551 093B  
                   u2760 085B                     u1960 0FA2                     u1880 0F58  
                   u2680 06CF                     u3480 0101                     u3560 0727  
                   u2761 085A                     u1961 0FA1                     u1881 0F57  
                   u3385 0CC5                     u2681 06CE                     u2665 06BE  
                   u3481 0100                     u3561 0726                     u2850 07B9  
                   u2770 0861                     u1970 0FB0                     u1890 0F5F  
                   u2690 06D4                     u3490 01A2                     u3570 073A  
                   u2851 07B8                     u2771 0860                     u1891 0F5E  
                   u1875 0F4D                     u3395 0CE2                     u2691 06D3  
                   u3491 01A1                     u3475 00F3                     u3571 0739  
                   u2860 07C2                     u2844 07B2                     u2780 086F  
                   u1980 0FC0                     u3580 0759                     u2861 07C1  
                   u2781 086E                     u1981 0FBF                     u3581 0758  
                   u2790 0808                     u2870 07FE                     u1990 0FCE  
                   u2791 0807                     u2871 07FD                     u1991 0FCD  
                   u1975 0FAC                     u2980 07D0                     u2981 07CF  
          __CFG_FCMEN$ON 0000                     _main 0707                     _logf 0029  
                   fsr0h 0005                     fsr1h 0007                     fsr0l 0004  
                   indf1 0001                     fsr1l 0006                     btemp 007E  
          __CFG_BOREN$ON 0000                     start 001B          ___fldiv@new_exp 0052  
          __CFG_CSWEN$ON 0000            __CFG_MCLRE$ON 0000          __end_of_i2cRead 07C6  
        __end_of_i2cStop 0800             main@checksum 00CA                    ??_ISR 0072  
        __end_of___fladd 1000                    ?_main 0070                    ?_logf 00A4  
        __end_of___fldiv 1800          __end_of___flneg 15ED            __CFG_WDTE$OFF 0000  
        __end_of___flmul 0D2F                    i1l171 0019                    i1l172 0019  
                  i1l175 0816                    i1l176 0821                    i1l177 0831  
                  i1l178 0837                    i1l179 0837                    _TRISA 0012  
                  _TRISC 0014            __CFG_WRTB$OFF 0000            __CFG_WRTC$OFF 0000  
        i2cWrite@address 0073                    main@n 00CC                    main@s 00CB  
                  logf@R 0120                    logf@f 015A                    logf@k 013C  
                  logf@s 0146                    logf@u 0156                    logf@w 014E  
                  logf@x 00A4                    logf@z 014A                    status 0003  
                  wtemp0 007E          __initialization 001D             __end_of_main 077F  
           __end_of_logf 0652         __end_of_i2cStart 15E0         __end_of_i2cWrite 0873  
         __CFG_SAFEN$OFF 0000                   ??_main 00C8                   ??_logf 00A8  
     __size_of_i2cRepeat 000A                   _ANSELA 1F38                   _ANSELC 1F4E  
     __CFG_RSTOSC$HFINT1 0000                   _RC1REG 0119                   _RC0PPS 1F20  
                 _RC1PPS 1F21                   _RC1STA 011D                   _RC4PPS 1F24  
                 i1l2350 0016                   i1l2342 0006                   i1l2280 0816  
                 i1l2344 000A                   i1l2290 082B                   i1l2282 081A  
                 i1l2274 080A                   i1l2346 000F                   i1l2292 0831  
                 i1l2284 081C                   i1l2276 080F                   i1l2348 0013  
                 i1l2286 0821                   i1l2278 0811                   i1l2288 0825  
         __CFG_WDTCCS$SC 0000                   u310_20 000A                   u310_21 0009  
                 u311_20 000F                   u311_21 000E                   u304_20 080F  
                 u312_20 0013                   u304_21 080E                   u312_21 0012  
                 u305_20 081A                   _INTCON 000B                   u305_21 0819  
                 u306_20 082B                   u306_21 082A                   _OSCFRQ 0893  
                 _SPBRGL 011B                   _TX1REG 011A                   _TX1STA 011E  
       __end_of___xxtofl 0707                ??_i2cRead 0074                ??_i2cStop 0072  
         __CFG_PWRTE$OFF 0000                ??___fladd 0062                   _ln2_hi 1814  
              ??___fldiv 0048                   _ln2_lo 1810                ??___flneg 0076  
         __CFG_STVREN$ON 0000                ??___flmul 002E           _readSI7006$783 00B5  
         _readSI7006$784 00B9           _readSI7006$785 00BD                   logf@t1 0124  
                 logf@t2 0128                   logf@dk 0142                   logf@ix 015E  
     __size_of__Umul8_16 0027      i2cWrite@writeBuffer 0075             readSI7006@DP 006F  
           readSI7006@RH 00C5             ___xxtofl@arg 0022             ___xxtofl@exp 0021  
           ___xxtofl@val 0072  __end_of__initialization 0025               ___flneg@f1 0072  
       i2cWrite@numBytes 0072           __pcstackCOMMON 0070           main@dataPacket 00CD  
      __end_of_i2cRepeat 080A     uartReceiveISR@rxByte 0071               __pbssBANK1 00DC  
              ?_i2cStart 0070                ?_i2cWrite 0072  __size_of_uartReceiveISR 002E  
      __end_of__Umul8_16 1621               __pmaintext 0707          __CFG_PPS1WAY$ON 0000  
             __pintentry 0004                ?___xxtofl 0072                  _OSCCON1 088D  
                _SSP1ADD 018D                  _SSP1BUF 018C               ??_i2cStart 0072  
             ??_i2cWrite 0074                  _i2cRead 077F               _readSI7006 0873  
                _i2cStop 07F6                  ___fladd 0D2F                  ___fldiv 1621  
                ___flneg 15E0                  ___flmul 0AC4            ?_uartSendByte 0070  
             _initialize 07C6                  __ptext1 15ED                  __ptext2 0873  
                __ptext3 0029                  __ptext4 0652                  __ptext5 15E0  
                __ptext6 0AC4                  __ptext7 15FA                  __ptext8 1621  
                __ptext9 0D2F          __CFG_WRTAPP$OFF 0000             __size_of_ISR 0017  
             ??___xxtofl 0076          __CFG_WRTSAF$OFF 0000     end_of_initialization 0025  
         ??_uartSendByte 0072    __CFG_WDTCPS$WDTCPS_31 0000              ___fladd@grs 00A3  
          ___xxtofl@sign 0020              ___fldiv@grs 0054              ___fldiv@rem 004D  
       __CFG_FEXTOSC$ECH 0000           _uartReceiveISR 080A              ___flmul@grs 0035  
              i2cWrite@n 0076              ?_readSI7006 006E           __end_of_ln2_hi 1818  
         __end_of_ln2_lo 1814              ?_initialize 0070                _i2cRepeat 0800  
    start_initialization 001D              __end_of_ISR 001B              __end_of_Lg1 1810  
            __end_of_Lg2 180C              __end_of_Lg3 1808              __end_of_Lg4 1804  
 __end_of_uartReceiveISR 0838        __size_of_i2cStart 000C        __size_of_i2cWrite 003B  
       __CFG_LPBOREN$OFF 0000                __Umul8_16 15FA                ___fladd@a 005E  
              ___fladd@b 005A               ?_i2cRepeat 0070                ___fldiv@a 0040  
              ___fldiv@b 0044      __size_of_readSI7006 0251                ___flmul@a 002A  
              ___flmul@b 0026              __pbssCOMMON 007A                ___latbits 0002  
          __pcstackBANK0 0020            __pcstackBANK1 00A0            __pcstackBANK2 0120  
      __size_of___xxtofl 00B5          ?_uartReceiveISR 0070     __end_of_uartSendByte 15FA  
    __size_of_initialize 0030                 ?_i2cRead 0072                 ?_i2cStop 0070  
              _g_command 00E0            _g_rxFErrCount 007B                 ?___fladd 005A  
               ?___fldiv 0040                 ?___flneg 0072                 ?___flmul 0026  
             ?__Umul8_16 0072                 _BAUD1CON 011F            _g_rxOErrCount 007A  
               _PIE3bits 0719                 _PIR3bits 070F        __CFG_BBSIZE$BB512 0000  
               _SSP1CON1 0190              ??_i2cRepeat 0072                 _i2cStart 15D4  
               _i2cWrite 0838             ??_readSI7006 00B0         __size_of_i2cRead 0047  
       __size_of_i2cStop 000A            uartSendByte@s 0072              ??__Umul8_16 0074  
       __size_of___fladd 02D1         __size_of___fldiv 01DF         __size_of___flneg 000D  
       __size_of___flmul 026B             ??_initialize 0072                 ___xxtofl 0652  
     __end_of_readSI7006 0AC4    __size_of_uartSendByte 000D                 __ptext10 0838  
               __ptext11 07F6                 __ptext12 15D4                 __ptext13 0800  
               __ptext14 077F                 __ptext15 07C6                 __ptext17 080A  
           _SSP1CON2bits 0191                 _logf$790 0138                 _logf$786 0152  
               _logf$787 012C                 _logf$788 0130                 _logf$789 0134  
            _OSCCON3bits 088F            __size_of_main 0078            __size_of_logf 0629  
     __end_of_initialize 07F6     __CFG_WDTCWS$WDTCWS_7 0000               _RC1STAbits 011D  
               int$flags 007E             _uartSendByte 15ED                 logf@F459 00DC  
       ??_uartReceiveISR 0070               _INTCONbits 000B                 logf@hfsq 013E  
               intlevel1 0000        __CFG_CLKOUTEN$OFF 0000         readSI7006@buffer 00C6  
          __pstringtext1 1800            __pstringtext2 1804            __pstringtext3 1808  
          __pstringtext4 180C            __pstringtext5 1810            __pstringtext6 1814  
 __Umul8_16@multiplicand 0072               _SSP1DATPPS 1EC6            ___fladd@signs 00A0  
        readSI7006@gamma 00C1          readSI7006@tempC 006E             ___fladd@aexp 00A1  
           ___fladd@bexp 00A2     __Umul8_16@multiplier 0024           i2cRead@address 0073  
      __Umul8_16@product 0020  
