

Microchip MPLAB XC8 Assembler V2.10 build 88905656 
                                                                                               Sun Feb 02 19:34:52 2020

Microchip MPLAB XC8 C Compiler v2.10 (Free license) build 20190730164152 Og1 
     1                           	processor	16F15325
     2                           	opt	pw 120
     3                           	opt	flic
     4                           	psect	stringtext1,global,class=STRCODE,delta=2
     5                           	psect	stringtext2,global,class=STRCODE,delta=2
     6                           	psect	stringtext3,global,class=STRCODE,delta=2
     7                           	psect	stringtext4,global,class=STRCODE,delta=2
     8                           	psect	stringtext5,global,class=STRCODE,delta=2
     9                           	psect	stringtext6,global,class=STRCODE,delta=2
    10                           	psect	cinit,global,class=CODE,merge=1,delta=2
    11                           	psect	bssCOMMON,global,class=COMMON,space=1,delta=1
    12                           	psect	bssBANK1,global,class=BANK1,space=1,delta=1
    13                           	psect	cstackBANK2,global,class=BANK2,space=1,delta=1
    14                           	psect	cstackBANK1,global,class=BANK1,space=1,delta=1
    15                           	psect	cstackCOMMON,global,class=COMMON,space=1,delta=1
    16                           	psect	cstackBANK0,global,class=BANK0,space=1,delta=1
    17                           	psect	maintext,global,class=CODE,merge=1,split=1,delta=2
    18                           	psect	text1,local,class=CODE,merge=1,delta=2
    19                           	psect	text2,local,class=CODE,merge=1,delta=2
    20                           	psect	text3,local,class=CODE,merge=1,delta=2,group=2
    21                           	psect	text4,local,class=CODE,merge=1,delta=2,group=1
    22                           	psect	text5,local,class=CODE,merge=1,delta=2,group=1
    23                           	psect	text6,local,class=CODE,merge=1,delta=2,group=1
    24                           	psect	text7,local,class=CODE,merge=1,delta=2,group=1
    25                           	psect	text8,local,class=CODE,merge=1,delta=2,group=1
    26                           	psect	text9,local,class=CODE,merge=1,delta=2,group=1
    27                           	psect	text10,local,class=CODE,merge=1,delta=2
    28                           	psect	text11,local,class=CODE,merge=1,delta=2
    29                           	psect	text12,local,class=CODE,merge=1,delta=2
    30                           	psect	text13,local,class=CODE,merge=1,delta=2
    31                           	psect	text14,local,class=CODE,merge=1,delta=2
    32                           	psect	text15,local,class=CODE,merge=1,delta=2
    33                           	psect	text16,local,class=CODE,merge=1,delta=2,group=1
    34                           	psect	intentry,global,class=CODE,delta=2
    35                           	psect	text18,local,class=CODE,merge=1,delta=2
    36                           	dabs	1,0x7E,2
    37  0000                     
    38                           ; Version 2.10
    39                           ; Generated 31/07/2019 GMT
    40                           ; 
    41                           ; Copyright © 2019, Microchip Technology Inc. and its subsidiaries ("Microchip")
    42                           ; All rights reserved.
    43                           ; 
    44                           ; This software is developed by Microchip Technology Inc. and its subsidiaries ("Microch
      +                          ip").
    45                           ; 
    46                           ; Redistribution and use in source and binary forms, with or without modification, are
    47                           ; permitted provided that the following conditions are met:
    48                           ; 
    49                           ;     1. Redistributions of source code must retain the above copyright notice, this lis
      +                          t of
    50                           ;        conditions and the following disclaimer.
    51                           ; 
    52                           ;     2. Redistributions in binary form must reproduce the above copyright notice, this 
      +                          list
    53                           ;        of conditions and the following disclaimer in the documentation and/or other
    54                           ;        materials provided with the distribution.
    55                           ; 
    56                           ;     3. Microchip's name may not be used to endorse or promote products derived from th
      +                          is
    57                           ;        software without specific prior written permission.
    58                           ; 
    59                           ; THIS SOFTWARE IS PROVIDED BY MICROCHIP "AS IS" AND ANY EXPRESS OR IMPLIED WARRANTIES,
    60                           ; INCLUDING, BUT NOT LIMITED TO, THE IMPLIED WARRANTIES OF MERCHANTABILITY AND FITNESS F
      +                          OR
    61                           ; PURPOSE ARE DISCLAIMED.  IN NO EVENT SHALL MICROCHIP BE LIABLE FOR ANY DIRECT, INDIREC
      +                          T,
    62                           ; INCIDENTAL, SPECIAL, EXEMPLARY, OR CONSEQUENTIAL DAMAGES (INCLUDING BUT NOT LIMITED TO
    63                           ; PROCUREMENT OF SUBSTITUTE GOODS OR SERVICES; LOSS OF USE, DATA OR PROFITS; OR BUSINESS
    64                           ; INTERRUPTION) HOWSOEVER CAUSED AND ON ANY THEORY OF LIABILITY, WHETHER IN CONTRACT, ST
      +                          RICT
    65                           ; LIABILITY, OR TORT (INCLUDING NEGLIGENCE OR OTHERWISE) ARISING IN ANY WAY OUT OF THE U
      +                          SE OF
    66                           ; THIS SOFTWARE, EVEN IF ADVISED OF THE POSSIBILITY OF SUCH DAMAGE.
    67                           ; 
    68                           ; 
    69                           ; Code-generator required, PIC16F15325 Definitions
    70                           ; 
    71                           ; SFR Addresses
    72  0000                     	;# 
    73  0001                     	;# 
    74  0002                     	;# 
    75  0003                     	;# 
    76  0004                     	;# 
    77  0005                     	;# 
    78  0006                     	;# 
    79  0007                     	;# 
    80  0008                     	;# 
    81  0009                     	;# 
    82  000A                     	;# 
    83  000B                     	;# 
    84  000C                     	;# 
    85  000E                     	;# 
    86  0012                     	;# 
    87  0014                     	;# 
    88  0018                     	;# 
    89  001A                     	;# 
    90  009B                     	;# 
    91  009B                     	;# 
    92  009C                     	;# 
    93  009D                     	;# 
    94  009E                     	;# 
    95  009F                     	;# 
    96  0119                     	;# 
    97  0119                     	;# 
    98  0119                     	;# 
    99  011A                     	;# 
   100  011A                     	;# 
   101  011A                     	;# 
   102  011B                     	;# 
   103  011B                     	;# 
   104  011B                     	;# 
   105  011B                     	;# 
   106  011B                     	;# 
   107  011C                     	;# 
   108  011C                     	;# 
   109  011C                     	;# 
   110  011D                     	;# 
   111  011D                     	;# 
   112  011D                     	;# 
   113  011E                     	;# 
   114  011E                     	;# 
   115  011E                     	;# 
   116  011F                     	;# 
   117  011F                     	;# 
   118  011F                     	;# 
   119  011F                     	;# 
   120  011F                     	;# 
   121  018C                     	;# 
   122  018D                     	;# 
   123  018E                     	;# 
   124  018F                     	;# 
   125  0190                     	;# 
   126  0191                     	;# 
   127  0192                     	;# 
   128  020C                     	;# 
   129  020C                     	;# 
   130  020D                     	;# 
   131  020E                     	;# 
   132  020F                     	;# 
   133  020F                     	;# 
   134  0210                     	;# 
   135  0210                     	;# 
   136  0211                     	;# 
   137  0211                     	;# 
   138  028C                     	;# 
   139  028C                     	;# 
   140  028D                     	;# 
   141  028D                     	;# 
   142  028E                     	;# 
   143  028F                     	;# 
   144  0290                     	;# 
   145  0291                     	;# 
   146  030C                     	;# 
   147  030C                     	;# 
   148  030D                     	;# 
   149  030E                     	;# 
   150  030F                     	;# 
   151  0310                     	;# 
   152  0310                     	;# 
   153  0311                     	;# 
   154  0312                     	;# 
   155  0313                     	;# 
   156  0314                     	;# 
   157  0314                     	;# 
   158  0315                     	;# 
   159  0316                     	;# 
   160  0318                     	;# 
   161  0318                     	;# 
   162  0319                     	;# 
   163  031A                     	;# 
   164  031C                     	;# 
   165  031C                     	;# 
   166  031D                     	;# 
   167  031E                     	;# 
   168  038C                     	;# 
   169  038C                     	;# 
   170  038D                     	;# 
   171  038E                     	;# 
   172  058C                     	;# 
   173  058C                     	;# 
   174  058D                     	;# 
   175  058E                     	;# 
   176  058F                     	;# 
   177  058F                     	;# 
   178  0590                     	;# 
   179  0591                     	;# 
   180  0592                     	;# 
   181  0593                     	;# 
   182  059C                     	;# 
   183  059C                     	;# 
   184  059D                     	;# 
   185  059D                     	;# 
   186  059E                     	;# 
   187  059F                     	;# 
   188  060C                     	;# 
   189  060D                     	;# 
   190  060E                     	;# 
   191  060F                     	;# 
   192  0610                     	;# 
   193  0611                     	;# 
   194  0612                     	;# 
   195  0613                     	;# 
   196  0614                     	;# 
   197  070C                     	;# 
   198  070D                     	;# 
   199  070E                     	;# 
   200  070F                     	;# 
   201  0710                     	;# 
   202  0711                     	;# 
   203  0712                     	;# 
   204  0713                     	;# 
   205  0716                     	;# 
   206  0717                     	;# 
   207  0718                     	;# 
   208  0719                     	;# 
   209  071A                     	;# 
   210  071B                     	;# 
   211  071C                     	;# 
   212  071D                     	;# 
   213  0796                     	;# 
   214  0797                     	;# 
   215  0798                     	;# 
   216  0799                     	;# 
   217  079A                     	;# 
   218  079B                     	;# 
   219  080C                     	;# 
   220  080D                     	;# 
   221  080E                     	;# 
   222  080F                     	;# 
   223  0810                     	;# 
   224  0811                     	;# 
   225  0812                     	;# 
   226  0813                     	;# 
   227  0814                     	;# 
   228  081A                     	;# 
   229  081A                     	;# 
   230  081B                     	;# 
   231  081C                     	;# 
   232  081C                     	;# 
   233  081D                     	;# 
   234  081E                     	;# 
   235  081F                     	;# 
   236  088C                     	;# 
   237  088D                     	;# 
   238  088E                     	;# 
   239  088F                     	;# 
   240  0890                     	;# 
   241  0891                     	;# 
   242  0892                     	;# 
   243  0893                     	;# 
   244  0895                     	;# 
   245  0896                     	;# 
   246  090C                     	;# 
   247  090E                     	;# 
   248  090F                     	;# 
   249  091F                     	;# 
   250  098F                     	;# 
   251  098F                     	;# 
   252  0990                     	;# 
   253  0991                     	;# 
   254  0992                     	;# 
   255  0993                     	;# 
   256  0994                     	;# 
   257  0995                     	;# 
   258  0996                     	;# 
   259  0997                     	;# 
   260  0A19                     	;# 
   261  0A19                     	;# 
   262  0A1A                     	;# 
   263  0A1A                     	;# 
   264  0A1B                     	;# 
   265  0A1B                     	;# 
   266  0A1B                     	;# 
   267  0A1C                     	;# 
   268  0A1C                     	;# 
   269  0A1D                     	;# 
   270  0A1D                     	;# 
   271  0A1E                     	;# 
   272  0A1E                     	;# 
   273  0A1F                     	;# 
   274  0A1F                     	;# 
   275  0A1F                     	;# 
   276  1E0F                     	;# 
   277  1E10                     	;# 
   278  1E11                     	;# 
   279  1E12                     	;# 
   280  1E13                     	;# 
   281  1E14                     	;# 
   282  1E15                     	;# 
   283  1E16                     	;# 
   284  1E17                     	;# 
   285  1E18                     	;# 
   286  1E19                     	;# 
   287  1E1A                     	;# 
   288  1E1B                     	;# 
   289  1E1C                     	;# 
   290  1E1D                     	;# 
   291  1E1E                     	;# 
   292  1E1F                     	;# 
   293  1E20                     	;# 
   294  1E21                     	;# 
   295  1E22                     	;# 
   296  1E23                     	;# 
   297  1E24                     	;# 
   298  1E25                     	;# 
   299  1E26                     	;# 
   300  1E27                     	;# 
   301  1E28                     	;# 
   302  1E29                     	;# 
   303  1E2A                     	;# 
   304  1E2B                     	;# 
   305  1E2C                     	;# 
   306  1E2D                     	;# 
   307  1E2E                     	;# 
   308  1E2F                     	;# 
   309  1E30                     	;# 
   310  1E31                     	;# 
   311  1E32                     	;# 
   312  1E33                     	;# 
   313  1E34                     	;# 
   314  1E35                     	;# 
   315  1E36                     	;# 
   316  1E37                     	;# 
   317  1E8F                     	;# 
   318  1E90                     	;# 
   319  1E91                     	;# 
   320  1E92                     	;# 
   321  1E93                     	;# 
   322  1E9C                     	;# 
   323  1EA1                     	;# 
   324  1EA2                     	;# 
   325  1EB1                     	;# 
   326  1EBB                     	;# 
   327  1EBC                     	;# 
   328  1EBD                     	;# 
   329  1EBE                     	;# 
   330  1EC3                     	;# 
   331  1EC5                     	;# 
   332  1EC6                     	;# 
   333  1EC7                     	;# 
   334  1ECB                     	;# 
   335  1ECC                     	;# 
   336  1ECD                     	;# 
   337  1ECE                     	;# 
   338  1F10                     	;# 
   339  1F11                     	;# 
   340  1F12                     	;# 
   341  1F13                     	;# 
   342  1F14                     	;# 
   343  1F15                     	;# 
   344  1F20                     	;# 
   345  1F21                     	;# 
   346  1F22                     	;# 
   347  1F23                     	;# 
   348  1F24                     	;# 
   349  1F25                     	;# 
   350  1F38                     	;# 
   351  1F39                     	;# 
   352  1F3A                     	;# 
   353  1F3B                     	;# 
   354  1F3C                     	;# 
   355  1F3D                     	;# 
   356  1F3E                     	;# 
   357  1F3F                     	;# 
   358  1F4E                     	;# 
   359  1F4F                     	;# 
   360  1F50                     	;# 
   361  1F51                     	;# 
   362  1F52                     	;# 
   363  1F53                     	;# 
   364  1F54                     	;# 
   365  1F55                     	;# 
   366  1FE4                     	;# 
   367  1FE5                     	;# 
   368  1FE6                     	;# 
   369  1FE7                     	;# 
   370  1FE8                     	;# 
   371  1FE8                     	;# 
   372  1FE9                     	;# 
   373  1FEA                     	;# 
   374  1FEA                     	;# 
   375  1FEB                     	;# 
   376  1FED                     	;# 
   377  1FEE                     	;# 
   378  1FEF                     	;# 
   379                           
   380                           	psect	stringtext1
   381  1800                     __pstringtext1:	
   382  1800                     _Lg4:	
   383  1800  3426               	retlw	38
   384  1801  349E               	retlw	158
   385  1802  3478               	retlw	120
   386  1803  343E               	retlw	62
   387  1804                     __end_of_Lg4:	
   388                           
   389                           	psect	stringtext2
   390  1804                     __pstringtext2:	
   391  1804                     _Lg3:	
   392  1804  34EE               	retlw	238
   393  1805  34E9               	retlw	233
   394  1806  3491               	retlw	145
   395  1807  343E               	retlw	62
   396  1808                     __end_of_Lg3:	
   397                           
   398                           	psect	stringtext3
   399  1808                     __pstringtext3:	
   400  1808                     _Lg2:	
   401  1808  3413               	retlw	19
   402  1809  34CE               	retlw	206
   403  180A  34CC               	retlw	204
   404  180B  343E               	retlw	62
   405  180C                     __end_of_Lg2:	
   406                           
   407                           	psect	stringtext4
   408  180C                     __pstringtext4:	
   409  180C                     _Lg1:	
   410  180C  34AA               	retlw	170
   411  180D  34AA               	retlw	170
   412  180E  342A               	retlw	42
   413  180F  343F               	retlw	63
   414  1810                     __end_of_Lg1:	
   415                           
   416                           	psect	stringtext5
   417  1810                     __pstringtext5:	
   418  1810                     _ln2_lo:	
   419  1810  34D1               	retlw	209
   420  1811  34F7               	retlw	247
   421  1812  3417               	retlw	23
   422  1813  3437               	retlw	55
   423  1814                     __end_of_ln2_lo:	
   424                           
   425                           	psect	stringtext6
   426  1814                     __pstringtext6:	
   427  1814                     _ln2_hi:	
   428  1814  3480               	retlw	128
   429  1815  3471               	retlw	113
   430  1816  3431               	retlw	49
   431  1817  343F               	retlw	63
   432  1818                     __end_of_ln2_hi:	
   433  000B                     _INTCONbits	set	11
   434  000B                     _INTCON	set	11
   435  0014                     _TRISC	set	20
   436  0012                     _TRISA	set	18
   437  0119                     _RC1REG	set	281
   438  011D                     _RC1STAbits	set	285
   439  011E                     _TX1STA	set	286
   440  011D                     _RC1STA	set	285
   441  011B                     _SPBRGL	set	283
   442  011F                     _BAUD1CON	set	287
   443  011A                     _TX1REG	set	282
   444  0190                     _SSP1CON1	set	400
   445  018D                     _SSP1ADD	set	397
   446  018C                     _SSP1BUF	set	396
   447  0191                     _SSP1CON2bits	set	401
   448  0719                     _PIE3bits	set	1817
   449  0719                     _PIE3	set	1817
   450  070F                     _PIR3bits	set	1807
   451  088F                     _OSCCON3bits	set	2191
   452  088D                     _OSCCON1	set	2189
   453  0893                     _OSCFRQ	set	2195
   454  1EC6                     _SSP1DATPPS	set	7878
   455  1F4E                     _ANSELC	set	8014
   456  1F38                     _ANSELA	set	7992
   457  1F20                     _RC0PPS	set	7968
   458  1F21                     _RC1PPS	set	7969
   459  1F24                     _RC4PPS	set	7972
   460                           
   461                           ; #config settings
   462  0000                     
   463                           	psect	cinit
   464  001C                     start_initialization:	
   465  001C                     __initialization:	
   466                           
   467                           ; Clear objects allocated to COMMON
   468  001C  01FA               	clrf	__pbssCOMMON& (0+127)
   469  001D  01FB               	clrf	(__pbssCOMMON+1)& (0+127)
   470                           
   471                           ; Clear objects allocated to BANK1
   472  001E  0141               	movlb	1	; select bank1
   473  001F  01E0               	clrf	__pbssBANK1& (0+127)
   474  0020  01E1               	clrf	(__pbssBANK1+1)& (0+127)
   475  0021  01E2               	clrf	(__pbssBANK1+2)& (0+127)
   476  0022  01E3               	clrf	(__pbssBANK1+3)& (0+127)
   477  0023  01E4               	clrf	(__pbssBANK1+4)& (0+127)
   478  0024                     end_of_initialization:	
   479                           ;End of C runtime variable initialization code
   480                           
   481  0024                     __end_of__initialization:	
   482  0024  107E               	bcf	int$flags,0	;clear compiler interrupt flag (level 1)
   483  0025  0140               	movlb	0
   484  0026  3188  28B3         	ljmp	_main	;jump to C main() function
   485                           
   486                           	psect	bssCOMMON
   487  007A                     __pbssCOMMON:	
   488  007A                     _g_rxOErrCount:	
   489  007A                     	ds	1
   490  007B                     _g_rxFErrCount:	
   491  007B                     	ds	1
   492                           
   493                           	psect	bssBANK1
   494  00E0                     __pbssBANK1:	
   495  00E0                     logf@F469:	
   496  00E0                     	ds	4
   497  00E4                     _g_command:	
   498  00E4                     	ds	1
   499                           
   500                           	psect	cstackBANK2
   501  0120                     __pcstackBANK2:	
   502  0120                     logf@R:	
   503                           
   504                           ; 4 bytes @ 0x0
   505  0120                     	ds	4
   506  0124                     logf@t1:	
   507                           
   508                           ; 4 bytes @ 0x4
   509  0124                     	ds	4
   510  0128                     logf@t2:	
   511                           
   512                           ; 4 bytes @ 0x8
   513  0128                     	ds	4
   514  012C                     _logf$827:	
   515                           
   516                           ; 4 bytes @ 0xC
   517  012C                     	ds	4
   518  0130                     _logf$828:	
   519                           
   520                           ; 4 bytes @ 0x10
   521  0130                     	ds	4
   522  0134                     _logf$829:	
   523                           
   524                           ; 4 bytes @ 0x14
   525  0134                     	ds	4
   526  0138                     _logf$830:	
   527                           
   528                           ; 4 bytes @ 0x18
   529  0138                     	ds	4
   530  013C                     logf@k:	
   531                           
   532                           ; 2 bytes @ 0x1C
   533  013C                     	ds	2
   534  013E                     logf@hfsq:	
   535                           
   536                           ; 4 bytes @ 0x1E
   537  013E                     	ds	4
   538  0142                     logf@dk:	
   539                           
   540                           ; 4 bytes @ 0x22
   541  0142                     	ds	4
   542  0146                     logf@s:	
   543                           
   544                           ; 4 bytes @ 0x26
   545  0146                     	ds	4
   546  014A                     logf@z:	
   547                           
   548                           ; 4 bytes @ 0x2A
   549  014A                     	ds	4
   550  014E                     logf@w:	
   551                           
   552                           ; 4 bytes @ 0x2E
   553  014E                     	ds	4
   554  0152                     _logf$826:	
   555                           
   556                           ; 4 bytes @ 0x32
   557  0152                     	ds	4
   558  0156                     logf@u:	
   559                           
   560                           ; 4 bytes @ 0x36
   561  0156                     	ds	4
   562  015A                     logf@f:	
   563                           
   564                           ; 4 bytes @ 0x3A
   565  015A                     	ds	4
   566  015E                     logf@ix:	
   567                           
   568                           ; 4 bytes @ 0x3E
   569  015E                     	ds	4
   570                           
   571                           	psect	cstackBANK1
   572  00A0                     __pcstackBANK1:	
   573  00A0                     ?___flsub:	
   574  00A0                     ___flsub@a:	
   575                           ; 4 bytes @ 0x0
   576                           
   577                           
   578                           ; 4 bytes @ 0x0
   579  00A0                     	ds	4
   580  00A4                     ___flsub@b:	
   581                           
   582                           ; 4 bytes @ 0x4
   583  00A4                     	ds	4
   584  00A8                     ?_logf:	
   585  00A8                     logf@x:	
   586                           ; 4 bytes @ 0x8
   587                           
   588                           
   589                           ; 4 bytes @ 0x8
   590  00A8                     	ds	4
   591  00AC                     ??_logf:	
   592                           
   593                           ; 1 bytes @ 0xC
   594  00AC                     	ds	8
   595  00B4                     ??_readSI7006:	
   596                           
   597                           ; 1 bytes @ 0x14
   598  00B4                     	ds	5
   599  00B9                     _readSI7006$823:	
   600                           
   601                           ; 4 bytes @ 0x19
   602  00B9                     	ds	4
   603  00BD                     _readSI7006$824:	
   604                           
   605                           ; 4 bytes @ 0x1D
   606  00BD                     	ds	4
   607  00C1                     _readSI7006$825:	
   608                           
   609                           ; 4 bytes @ 0x21
   610  00C1                     	ds	4
   611  00C5                     readSI7006@gamma:	
   612                           
   613                           ; 4 bytes @ 0x25
   614  00C5                     	ds	4
   615  00C9                     readSI7006@RH:	
   616                           
   617                           ; 1 bytes @ 0x29
   618  00C9                     	ds	1
   619  00CA                     readSI7006@buffer:	
   620                           
   621                           ; 2 bytes @ 0x2A
   622  00CA                     	ds	2
   623  00CC                     ??_main:	
   624                           
   625                           ; 1 bytes @ 0x2C
   626  00CC                     	ds	2
   627  00CE                     main@checksum:	
   628                           
   629                           ; 1 bytes @ 0x2E
   630  00CE                     	ds	1
   631  00CF                     main@s:	
   632                           
   633                           ; 1 bytes @ 0x2F
   634  00CF                     	ds	1
   635  00D0                     main@n:	
   636                           
   637                           ; 1 bytes @ 0x30
   638  00D0                     	ds	1
   639  00D1                     main@dataPacket:	
   640                           
   641                           ; 15 bytes @ 0x31
   642  00D1                     	ds	15
   643                           
   644                           	psect	cstackCOMMON
   645  0070                     __pcstackCOMMON:	
   646  0070                     ?_initialize:	
   647  0070                     ?_uartSendByte:	
   648                           ; 1 bytes @ 0x0
   649                           
   650  0070                     ?_i2cStart:	
   651                           ; 1 bytes @ 0x0
   652                           
   653  0070                     ?_i2cRepeat:	
   654                           ; 1 bytes @ 0x0
   655                           
   656  0070                     ?_i2cStop:	
   657                           ; 1 bytes @ 0x0
   658                           
   659  0070                     ?_uartReceiveISR:	
   660                           ; 1 bytes @ 0x0
   661                           
   662  0070                     ??_uartReceiveISR:	
   663                           ; 1 bytes @ 0x0
   664                           
   665  0070                     ?_main:	
   666                           ; 1 bytes @ 0x0
   667                           
   668  0070                     ?_ISR:	
   669                           ; 1 bytes @ 0x0
   670                           
   671                           
   672                           ; 1 bytes @ 0x0
   673  0070                     	ds	1
   674  0071                     uartReceiveISR@rxByte:	
   675                           
   676                           ; 1 bytes @ 0x1
   677  0071                     	ds	1
   678  0072                     ?___flge:	
   679  0072                     ??_initialize:	
   680                           ; 1 bit 
   681                           
   682  0072                     ??_uartSendByte:	
   683                           ; 1 bytes @ 0x2
   684                           
   685  0072                     ??_i2cStart:	
   686                           ; 1 bytes @ 0x2
   687                           
   688  0072                     ?_i2cWrite:	
   689                           ; 1 bytes @ 0x2
   690                           
   691  0072                     ??_i2cRepeat:	
   692                           ; 1 bytes @ 0x2
   693                           
   694  0072                     ?_i2cRead:	
   695                           ; 1 bytes @ 0x2
   696                           
   697  0072                     ??_i2cStop:	
   698                           ; 1 bytes @ 0x2
   699                           
   700  0072                     ??_ISR:	
   701                           ; 1 bytes @ 0x2
   702                           
   703  0072                     ?__Umul8_16:	
   704                           ; 1 bytes @ 0x2
   705                           
   706  0072                     ?___xxtofl:	
   707                           ; 2 bytes @ 0x2
   708                           
   709  0072                     i2cWrite@numBytes:	
   710                           ; 4 bytes @ 0x2
   711                           
   712  0072                     i2cRead@numBytes:	
   713                           ; 1 bytes @ 0x2
   714                           
   715  0072                     uartSendByte@s:	
   716                           ; 1 bytes @ 0x2
   717                           
   718  0072                     __Umul8_16@multiplicand:	
   719                           ; 1 bytes @ 0x2
   720                           
   721  0072                     ___flge@ff1:	
   722                           ; 1 bytes @ 0x2
   723                           
   724  0072                     ___xxtofl@val:	
   725                           ; 4 bytes @ 0x2
   726                           
   727                           
   728                           ; 4 bytes @ 0x2
   729  0072                     	ds	1
   730  0073                     i2cWrite@address:	
   731  0073                     i2cRead@address:	
   732                           ; 1 bytes @ 0x3
   733                           
   734                           
   735                           ; 1 bytes @ 0x3
   736  0073                     	ds	1
   737  0074                     ??_i2cWrite:	
   738  0074                     ??_i2cRead:	
   739                           ; 1 bytes @ 0x4
   740                           
   741  0074                     ??__Umul8_16:	
   742                           ; 1 bytes @ 0x4
   743                           
   744                           
   745                           ; 1 bytes @ 0x4
   746  0074                     	ds	1
   747  0075                     i2cWrite@writeBuffer:	
   748  0075                     i2cRead@readBuffer:	
   749                           ; 1 bytes @ 0x5
   750                           
   751                           
   752                           ; 1 bytes @ 0x5
   753  0075                     	ds	1
   754  0076                     ??___xxtofl:	
   755  0076                     i2cWrite@n:	
   756                           ; 1 bytes @ 0x6
   757                           
   758  0076                     ___flge@ff2:	
   759                           ; 1 bytes @ 0x6
   760                           
   761                           
   762                           ; 4 bytes @ 0x6
   763  0076                     	ds	4
   764  007A                     ??___flsub:	
   765                           
   766                           	psect	cstackBANK0
   767  0020                     __pcstackBANK0:	
   768                           ; 1 bytes @ 0xA
   769                           
   770  0020                     ??___flge:	
   771  0020                     ___xxtofl@sign:	
   772                           ; 1 bytes @ 0x0
   773                           
   774  0020                     __Umul8_16@product:	
   775                           ; 1 bytes @ 0x0
   776                           
   777                           
   778                           ; 2 bytes @ 0x0
   779  0020                     	ds	1
   780  0021                     ___xxtofl@exp:	
   781                           
   782                           ; 1 bytes @ 0x1
   783  0021                     	ds	1
   784  0022                     __Umul8_16@word_mpld:	
   785  0022                     ___xxtofl@arg:	
   786                           ; 2 bytes @ 0x2
   787                           
   788                           
   789                           ; 4 bytes @ 0x2
   790  0022                     	ds	2
   791  0024                     __Umul8_16@multiplier:	
   792                           
   793                           ; 1 bytes @ 0x4
   794  0024                     	ds	2
   795  0026                     ?___flmul:	
   796  0026                     ___flmul@b:	
   797                           ; 4 bytes @ 0x6
   798                           
   799                           
   800                           ; 4 bytes @ 0x6
   801  0026                     	ds	4
   802  002A                     ___flmul@a:	
   803                           
   804                           ; 4 bytes @ 0xA
   805  002A                     	ds	4
   806  002E                     ??___flmul:	
   807                           
   808                           ; 1 bytes @ 0xE
   809  002E                     	ds	5
   810  0033                     ___flmul@sign:	
   811                           
   812                           ; 1 bytes @ 0x13
   813  0033                     	ds	1
   814  0034                     ___flmul@aexp:	
   815                           
   816                           ; 1 bytes @ 0x14
   817  0034                     	ds	1
   818  0035                     ___flmul@grs:	
   819                           
   820                           ; 4 bytes @ 0x15
   821  0035                     	ds	4
   822  0039                     ___flmul@bexp:	
   823                           
   824                           ; 1 bytes @ 0x19
   825  0039                     	ds	1
   826  003A                     ___flmul@prod:	
   827                           
   828                           ; 4 bytes @ 0x1A
   829  003A                     	ds	4
   830  003E                     ___flmul@temp:	
   831                           
   832                           ; 2 bytes @ 0x1E
   833  003E                     	ds	2
   834  0040                     ?___fldiv:	
   835  0040                     ___fldiv@a:	
   836                           ; 4 bytes @ 0x20
   837                           
   838                           
   839                           ; 4 bytes @ 0x20
   840  0040                     	ds	4
   841  0044                     ___fldiv@b:	
   842                           
   843                           ; 4 bytes @ 0x24
   844  0044                     	ds	4
   845  0048                     ??___fldiv:	
   846                           
   847                           ; 1 bytes @ 0x28
   848  0048                     	ds	5
   849  004D                     ___fldiv@rem:	
   850                           
   851                           ; 4 bytes @ 0x2D
   852  004D                     	ds	4
   853  0051                     ___fldiv@sign:	
   854                           
   855                           ; 1 bytes @ 0x31
   856  0051                     	ds	1
   857  0052                     ___fldiv@new_exp:	
   858                           
   859                           ; 2 bytes @ 0x32
   860  0052                     	ds	2
   861  0054                     ___fldiv@grs:	
   862                           
   863                           ; 4 bytes @ 0x34
   864  0054                     	ds	4
   865  0058                     ___fldiv@bexp:	
   866                           
   867                           ; 1 bytes @ 0x38
   868  0058                     	ds	1
   869  0059                     ___fldiv@aexp:	
   870                           
   871                           ; 1 bytes @ 0x39
   872  0059                     	ds	1
   873  005A                     ?___fladd:	
   874  005A                     ___fladd@b:	
   875                           ; 4 bytes @ 0x3A
   876                           
   877                           
   878                           ; 4 bytes @ 0x3A
   879  005A                     	ds	4
   880  005E                     ___fladd@a:	
   881                           
   882                           ; 4 bytes @ 0x3E
   883  005E                     	ds	4
   884  0062                     ??___fladd:	
   885                           
   886                           ; 1 bytes @ 0x42
   887  0062                     	ds	8
   888  006A                     ___fladd@signs:	
   889                           
   890                           ; 1 bytes @ 0x4A
   891  006A                     	ds	1
   892  006B                     ___fladd@aexp:	
   893                           
   894                           ; 1 bytes @ 0x4B
   895  006B                     	ds	1
   896  006C                     ___fladd@bexp:	
   897                           
   898                           ; 1 bytes @ 0x4C
   899  006C                     	ds	1
   900  006D                     ___fladd@grs:	
   901                           
   902                           ; 1 bytes @ 0x4D
   903  006D                     	ds	1
   904  006E                     ?_readSI7006:	
   905  006E                     readSI7006@tempC:	
   906                           ; 1 bytes @ 0x4E
   907                           
   908                           
   909                           ; 1 bytes @ 0x4E
   910  006E                     	ds	1
   911  006F                     readSI7006@DP:	
   912                           
   913                           ; 1 bytes @ 0x4F
   914  006F                     	ds	1
   915                           
   916                           	psect	maintext
   917  08B3                     __pmaintext:	
   918 ;;
   919 ;;Main: autosize = 0, tempsize = 2, incstack = 0, save=0
   920 ;;
   921 ;; *************** function _main *****************
   922 ;; Defined at:
   923 ;;		line 64 in file "main.c"
   924 ;; Parameters:    Size  Location     Type
   925 ;;		None
   926 ;; Auto vars:     Size  Location     Type
   927 ;;  dataPacket     15   49[BANK1 ] struct .
   928 ;;  n               1   48[BANK1 ] unsigned char 
   929 ;;  s               1   47[BANK1 ] PTR unsigned char 
   930 ;;		 -> main@dataPacket(15), 
   931 ;;  checksum        1   46[BANK1 ] unsigned char 
   932 ;; Return value:  Size  Location     Type
   933 ;;                  1    wreg      void 
   934 ;; Registers used:
   935 ;;		wreg, fsr0l, fsr0h, fsr1l, fsr1h, status,2, status,0, pclath, cstack
   936 ;; Tracked objects:
   937 ;;		On entry : B3F/0
   938 ;;		On exit  : 0/0
   939 ;;		Unchanged: 0/0
   940 ;; Data sizes:     COMMON   BANK0   BANK1   BANK2   BANK3   BANK4   BANK5   BANK6   BANK7   BANK8   BANK9  BANK10  BANK1
      +1  BANK12
   941 ;;      Params:         0       0       0       0       0       0       0       0       0       0       0       0       
      +0       0
   942 ;;      Locals:         0       0      18       0       0       0       0       0       0       0       0       0       
      +0       0
   943 ;;      Temps:          0       0       2       0       0       0       0       0       0       0       0       0       
      +0       0
   944 ;;      Totals:         0       0      20       0       0       0       0       0       0       0       0       0       
      +0       0
   945 ;;Total ram usage:       20 bytes
   946 ;; Hardware stack levels required when called:    6
   947 ;; This function calls:
   948 ;;		___flge
   949 ;;		_initialize
   950 ;;		_readSI7006
   951 ;;		_uartSendByte
   952 ;; This function is called by:
   953 ;;		Startup code after reset
   954 ;; This function uses a non-reentrant model
   955 ;;
   956                           
   957                           
   958                           ;psect for function _main
   959  08B3                     _main:	
   960  08B3                     l2817:	
   961                           ;incstack = 0
   962                           ; Regs used in _main: [wreg-fsr1h+status,2+status,0+pclath+cstack]
   963                           
   964                           
   965                           ;main.c: 66:  char *s;;main.c: 67:  char checksum;;main.c: 68:  t_dataPacket dataPacket;
      +                          ;main.c: 69:  uint8_t n;;main.c: 71:  initialize();
   966  08B3  3196  269E  3188   	fcall	_initialize
   967  08B6                     l87:	
   968                           ;main.c: 73:  while (1) {
   969                           
   970  08B6  0064               	clrwdt	;# 
   971                           
   972                           ;main.c: 75:   switch (g_command) {
   973  08B7  29AA               	goto	l2867
   974  08B8                     l2819:	
   975                           
   976                           ;main.c: 77:    dataPacket.header = 0xAA;
   977  08B8  30AA               	movlw	170
   978  08B9  00CC               	movwf	??_main^(0+128)
   979  08BA  084C               	movf	??_main^(0+128),w
   980  08BB  00D1               	movwf	main@dataPacket^(0+128)
   981                           
   982                           ;main.c: 78:    dataPacket.version = 10;
   983  08BC  300A               	movlw	10
   984  08BD  00CC               	movwf	??_main^(0+128)
   985  08BE  084C               	movf	??_main^(0+128),w
   986  08BF  00D2               	movwf	(main@dataPacket^(0+128)+1)
   987  08C0                     l2821:	
   988                           
   989                           ;main.c: 80:    dataPacket.status = 0;
   990  08C0  01D3               	clrf	(main@dataPacket^(0+128)+2)
   991  08C1                     l2823:	
   992                           
   993                           ;main.c: 81:    if (readSI7006(&dataPacket.relHum, &dataPacket.tempC, &dataPacket.dewPoi
      +                          ntC)) {
   994  08C1  30D4               	movlw	(low ((main@dataPacket| 0+3)))& (0+255)
   995  08C2  00CC               	movwf	??_main^(0+128)
   996  08C3  084C               	movf	??_main^(0+128),w
   997  08C4  0140               	movlb	0	; select bank0
   998  08C5  00EE               	movwf	readSI7006@tempC
   999  08C6  30DC               	movlw	(low ((main@dataPacket| 0+11)))& (0+255)
  1000  08C7  0141               	movlb	1	; select bank1
  1001  08C8  00CD               	movwf	(??_main+1)^(0+128)
  1002  08C9  084D               	movf	(??_main+1)^(0+128),w
  1003  08CA  0140               	movlb	0	; select bank0
  1004  08CB  00EF               	movwf	readSI7006@DP
  1005  08CC  30D8               	movlw	(low ((main@dataPacket| 0+7)))& (0+255)
  1006  08CD  3185  25C2  3188   	fcall	_readSI7006
  1007  08D0  3A00               	xorlw	0
  1008  08D1  1903               	skipnz
  1009  08D2  28D4               	goto	u3741
  1010  08D3  28D5               	goto	u3740
  1011  08D4                     u3741:	
  1012  08D4  297A               	goto	l2839
  1013  08D5                     u3740:	
  1014  08D5                     l2825:	
  1015                           
  1016                           ;main.c: 82:     if ((dataPacket.tempC >= -50) && (dataPacket.tempC <= 100) &&
  1017  08D5  3003               	movlw	3
  1018  08D6  3ED1               	addlw	(low (main@dataPacket| 0))& (0+255)
  1019  08D7  0086               	movwf	6
  1020  08D8  0187               	clrf	7
  1021  08D9  3F40               	moviw [0]fsr1
  1022  08DA  00F2               	movwf	___flge@ff1
  1023  08DB  3F41               	moviw [1]fsr1
  1024  08DC  00F3               	movwf	___flge@ff1+1
  1025  08DD  3F42               	moviw [2]fsr1
  1026  08DE  00F4               	movwf	___flge@ff1+2
  1027  08DF  3F43               	moviw [3]fsr1
  1028  08E0  00F5               	movwf	___flge@ff1+3
  1029  08E1  30C2               	movlw	194
  1030  08E2  00F9               	movwf	___flge@ff2+3
  1031  08E3  3048               	movlw	72
  1032  08E4  00F8               	movwf	___flge@ff2+2
  1033  08E5  3000               	movlw	0
  1034  08E6  00F7               	movwf	___flge@ff2+1
  1035  08E7  3000               	movlw	0
  1036  08E8  00F6               	movwf	___flge@ff2
  1037  08E9  3197  2775  3188   	fcall	___flge
  1038  08EC  1C03               	btfss	3,0
  1039  08ED  28EF               	goto	u3751
  1040  08EE  28F0               	goto	u3750
  1041  08EF                     u3751:	
  1042  08EF  297A               	goto	l2839
  1043  08F0                     u3750:	
  1044  08F0                     l2827:	
  1045  08F0  3042               	movlw	66
  1046  08F1  00F5               	movwf	___flge@ff1+3
  1047  08F2  30C8               	movlw	200
  1048  08F3  00F4               	movwf	___flge@ff1+2
  1049  08F4  3000               	movlw	0
  1050  08F5  00F3               	movwf	___flge@ff1+1
  1051  08F6  3000               	movlw	0
  1052  08F7  00F2               	movwf	___flge@ff1
  1053  08F8  3003               	movlw	3
  1054  08F9  3ED1               	addlw	(low (main@dataPacket| 0))& (0+255)
  1055  08FA  0086               	movwf	6
  1056  08FB  0187               	clrf	7
  1057  08FC  3F40               	moviw [0]fsr1
  1058  08FD  00F6               	movwf	___flge@ff2
  1059  08FE  3F41               	moviw [1]fsr1
  1060  08FF  00F7               	movwf	___flge@ff2+1
  1061  0900  3F42               	moviw [2]fsr1
  1062  0901  00F8               	movwf	___flge@ff2+2
  1063  0902  3F43               	moviw [3]fsr1
  1064  0903  00F9               	movwf	___flge@ff2+3
  1065  0904  3197  2775  3188   	fcall	___flge
  1066  0907  1C03               	btfss	3,0
  1067  0908  290A               	goto	u3761
  1068  0909  290B               	goto	u3760
  1069  090A                     u3761:	
  1070  090A  297A               	goto	l2839
  1071  090B                     u3760:	
  1072  090B                     l2829:	
  1073  090B  300B               	movlw	11
  1074  090C  3ED1               	addlw	(low (main@dataPacket| 0))& (0+255)
  1075  090D  0086               	movwf	6
  1076  090E  0187               	clrf	7
  1077  090F  3F40               	moviw [0]fsr1
  1078  0910  00F2               	movwf	___flge@ff1
  1079  0911  3F41               	moviw [1]fsr1
  1080  0912  00F3               	movwf	___flge@ff1+1
  1081  0913  3F42               	moviw [2]fsr1
  1082  0914  00F4               	movwf	___flge@ff1+2
  1083  0915  3F43               	moviw [3]fsr1
  1084  0916  00F5               	movwf	___flge@ff1+3
  1085  0917  30C2               	movlw	194
  1086  0918  00F9               	movwf	___flge@ff2+3
  1087  0919  3048               	movlw	72
  1088  091A  00F8               	movwf	___flge@ff2+2
  1089  091B  3000               	movlw	0
  1090  091C  00F7               	movwf	___flge@ff2+1
  1091  091D  3000               	movlw	0
  1092  091E  00F6               	movwf	___flge@ff2
  1093  091F  3197  2775  3188   	fcall	___flge
  1094  0922  1C03               	btfss	3,0
  1095  0923  2925               	goto	u3771
  1096  0924  2926               	goto	u3770
  1097  0925                     u3771:	
  1098  0925  297A               	goto	l2839
  1099  0926                     u3770:	
  1100  0926                     l2831:	
  1101  0926  3042               	movlw	66
  1102  0927  00F5               	movwf	___flge@ff1+3
  1103  0928  30C8               	movlw	200
  1104  0929  00F4               	movwf	___flge@ff1+2
  1105  092A  3000               	movlw	0
  1106  092B  00F3               	movwf	___flge@ff1+1
  1107  092C  3000               	movlw	0
  1108  092D  00F2               	movwf	___flge@ff1
  1109  092E  300B               	movlw	11
  1110  092F  3ED1               	addlw	(low (main@dataPacket| 0))& (0+255)
  1111  0930  0086               	movwf	6
  1112  0931  0187               	clrf	7
  1113  0932  3F40               	moviw [0]fsr1
  1114  0933  00F6               	movwf	___flge@ff2
  1115  0934  3F41               	moviw [1]fsr1
  1116  0935  00F7               	movwf	___flge@ff2+1
  1117  0936  3F42               	moviw [2]fsr1
  1118  0937  00F8               	movwf	___flge@ff2+2
  1119  0938  3F43               	moviw [3]fsr1
  1120  0939  00F9               	movwf	___flge@ff2+3
  1121  093A  3197  2775  3188   	fcall	___flge
  1122  093D  1C03               	btfss	3,0
  1123  093E  2940               	goto	u3781
  1124  093F  2941               	goto	u3780
  1125  0940                     u3781:	
  1126  0940  297A               	goto	l2839
  1127  0941                     u3780:	
  1128  0941                     l2833:	
  1129  0941  3007               	movlw	7
  1130  0942  3ED1               	addlw	(low (main@dataPacket| 0))& (0+255)
  1131  0943  0086               	movwf	6
  1132  0944  0187               	clrf	7
  1133  0945  3F40               	moviw [0]fsr1
  1134  0946  00F2               	movwf	___flge@ff1
  1135  0947  3F41               	moviw [1]fsr1
  1136  0948  00F3               	movwf	___flge@ff1+1
  1137  0949  3F42               	moviw [2]fsr1
  1138  094A  00F4               	movwf	___flge@ff1+2
  1139  094B  3F43               	moviw [3]fsr1
  1140  094C  00F5               	movwf	___flge@ff1+3
  1141  094D  3000               	movlw	0
  1142  094E  00F9               	movwf	___flge@ff2+3
  1143  094F  3000               	movlw	0
  1144  0950  00F8               	movwf	___flge@ff2+2
  1145  0951  3000               	movlw	0
  1146  0952  00F7               	movwf	___flge@ff2+1
  1147  0953  3000               	movlw	0
  1148  0954  00F6               	movwf	___flge@ff2
  1149  0955  3197  2775  3188   	fcall	___flge
  1150  0958  1C03               	btfss	3,0
  1151  0959  295B               	goto	u3791
  1152  095A  295C               	goto	u3790
  1153  095B                     u3791:	
  1154  095B  297A               	goto	l2839
  1155  095C                     u3790:	
  1156  095C                     l2835:	
  1157  095C  3042               	movlw	66
  1158  095D  00F5               	movwf	___flge@ff1+3
  1159  095E  30C8               	movlw	200
  1160  095F  00F4               	movwf	___flge@ff1+2
  1161  0960  3000               	movlw	0
  1162  0961  00F3               	movwf	___flge@ff1+1
  1163  0962  3000               	movlw	0
  1164  0963  00F2               	movwf	___flge@ff1
  1165  0964  3007               	movlw	7
  1166  0965  3ED1               	addlw	(low (main@dataPacket| 0))& (0+255)
  1167  0966  0086               	movwf	6
  1168  0967  0187               	clrf	7
  1169  0968  3F40               	moviw [0]fsr1
  1170  0969  00F6               	movwf	___flge@ff2
  1171  096A  3F41               	moviw [1]fsr1
  1172  096B  00F7               	movwf	___flge@ff2+1
  1173  096C  3F42               	moviw [2]fsr1
  1174  096D  00F8               	movwf	___flge@ff2+2
  1175  096E  3F43               	moviw [3]fsr1
  1176  096F  00F9               	movwf	___flge@ff2+3
  1177  0970  3197  2775  3188   	fcall	___flge
  1178  0973  1C03               	btfss	3,0
  1179  0974  2976               	goto	u3801
  1180  0975  2977               	goto	u3800
  1181  0976                     u3801:	
  1182  0976  297A               	goto	l2839
  1183  0977                     u3800:	
  1184  0977                     l2837:	
  1185                           
  1186                           ;main.c: 85:      dataPacket.status = 1;
  1187  0977  0141               	movlb	1	; select bank1
  1188  0978  01D3               	clrf	(main@dataPacket^(0+128)+2)
  1189  0979  0AD3               	incf	(main@dataPacket^(0+128)+2),f
  1190  097A                     l2839:	
  1191                           
  1192                           ;main.c: 88:    s = (char *) &dataPacket;
  1193  097A  30D1               	movlw	(low (main@dataPacket| 0))& (0+255)
  1194  097B  0141               	movlb	1	; select bank1
  1195  097C  00CC               	movwf	??_main^(0+128)
  1196  097D  084C               	movf	??_main^(0+128),w
  1197  097E  00CF               	movwf	main@s^(0+128)
  1198  097F                     l2841:	
  1199                           
  1200                           ;main.c: 89:    checksum = 0;
  1201  097F  01CE               	clrf	main@checksum^(0+128)
  1202  0980                     l2843:	
  1203                           
  1204                           ;main.c: 90:    for (n = 0; n < sizeof(t_dataPacket); n++) {
  1205  0980  01D0               	clrf	main@n^(0+128)
  1206  0981                     l2847:	
  1207                           
  1208                           ;main.c: 91:     checksum ^= *s;
  1209  0981  084F               	movf	main@s^(0+128),w
  1210  0982  0086               	movwf	6
  1211  0983  0187               	clrf	7
  1212  0984  0801               	movf	1,w
  1213  0985  00CC               	movwf	??_main^(0+128)
  1214  0986  084C               	movf	??_main^(0+128),w
  1215  0987  06CE               	xorwf	main@checksum^(0+128),f
  1216  0988                     l2849:	
  1217                           
  1218                           ;main.c: 92:     uartSendByte(*(s++));
  1219  0988  084F               	movf	main@s^(0+128),w
  1220  0989  0086               	movwf	6
  1221  098A  0187               	clrf	7
  1222  098B  0801               	movf	1,w
  1223  098C  3196  2644  3188   	fcall	_uartSendByte
  1224  098F                     l2851:	
  1225  098F  3001               	movlw	1
  1226  0990  0141               	movlb	1	; select bank1
  1227  0991  00CC               	movwf	??_main^(0+128)
  1228  0992  084C               	movf	??_main^(0+128),w
  1229  0993  07CF               	addwf	main@s^(0+128),f
  1230  0994                     l2853:	
  1231                           
  1232                           ;main.c: 93:    }
  1233  0994  3001               	movlw	1
  1234  0995  00CC               	movwf	??_main^(0+128)
  1235  0996  084C               	movf	??_main^(0+128),w
  1236  0997  07D0               	addwf	main@n^(0+128),f
  1237  0998                     l2855:	
  1238  0998  300F               	movlw	15
  1239  0999  0250               	subwf	main@n^(0+128),w
  1240  099A  1C03               	skipc
  1241  099B  299D               	goto	u3811
  1242  099C  299E               	goto	u3810
  1243  099D                     u3811:	
  1244  099D  2981               	goto	l2847
  1245  099E                     u3810:	
  1246  099E                     l2857:	
  1247                           
  1248                           ;main.c: 94:    uartSendByte(checksum);
  1249  099E  084E               	movf	main@checksum^(0+128),w
  1250  099F  3196  2644  3188   	fcall	_uartSendByte
  1251  09A2                     l2859:	
  1252                           
  1253                           ;main.c: 96:    g_command = NO_COMMAND;
  1254  09A2  0141               	movlb	1	; select bank1
  1255  09A3  01E4               	clrf	_g_command^(0+128)	;volatile
  1256                           
  1257                           ;main.c: 97:    break;
  1258  09A4  28B6               	goto	l87
  1259  09A5                     l2861:	
  1260                           
  1261                           ;main.c: 99:    uartSendByte(0xFF);
  1262  09A5  30FF               	movlw	255
  1263  09A6  3196  2644  3188   	fcall	_uartSendByte
  1264  09A9  29A2               	goto	l2859
  1265  09AA                     l2867:	
  1266  09AA  0141               	movlb	1	; select bank1
  1267  09AB  0864               	movf	_g_command^(0+128),w	;volatile
  1268  09AC  00CC               	movwf	??_main^(0+128)
  1269  09AD  01CD               	clrf	(??_main^(0+128)+1)
  1270                           
  1271                           ; Switch on 2 bytes has been partitioned into a top level switch of size 1, and 1 sub-sw
      +                          itches
  1272                           ; Switch size 1, requested type "simple"
  1273                           ; Number of cases is 1, Range of values is 0 to 0
  1274                           ; switch strategies available:
  1275                           ; Name         Instructions Cycles
  1276                           ; simple_byte            4     3 (average)
  1277                           ; direct_byte            8     6 (fixed)
  1278                           ; jumptable            260     6 (fixed)
  1279                           ;	Chosen strategy is simple_byte
  1280  09AE  084D               	movf	(??_main+1)^(0+128),w
  1281  09AF  3A00               	xorlw	0	; case 0
  1282  09B0  1903               	skipnz
  1283  09B1  29B3               	goto	l2905
  1284  09B2  28B6               	goto	l87
  1285  09B3                     l2905:	
  1286                           
  1287                           ; Switch size 1, requested type "simple"
  1288                           ; Number of cases is 2, Range of values is 1 to 2
  1289                           ; switch strategies available:
  1290                           ; Name         Instructions Cycles
  1291                           ; simple_byte            7     4 (average)
  1292                           ; direct_byte           13     9 (fixed)
  1293                           ; jumptable            263     9 (fixed)
  1294                           ;	Chosen strategy is simple_byte
  1295  09B3  084C               	movf	??_main^(0+128),w
  1296  09B4  3A01               	xorlw	1	; case 1
  1297  09B5  1903               	skipnz
  1298  09B6  28B8               	goto	l2819
  1299  09B7  3A03               	xorlw	3	; case 2
  1300  09B8  1903               	skipnz
  1301  09B9  29A5               	goto	l2861
  1302  09BA  28B6               	goto	l87
  1303  09BB  3180  281A         	ljmp	start
  1304  09BD                     __end_of_main:	
  1305                           
  1306                           	psect	text1
  1307  1644                     __ptext1:	
  1308 ;; *************** function _uartSendByte *****************
  1309 ;; Defined at:
  1310 ;;		line 231 in file "main.c"
  1311 ;; Parameters:    Size  Location     Type
  1312 ;;  s               1    wreg     unsigned char 
  1313 ;; Auto vars:     Size  Location     Type
  1314 ;;  s               1    2[COMMON] unsigned char 
  1315 ;; Return value:  Size  Location     Type
  1316 ;;                  1    wreg      void 
  1317 ;; Registers used:
  1318 ;;		wreg
  1319 ;; Tracked objects:
  1320 ;;		On entry : 0/0
  1321 ;;		On exit  : 0/0
  1322 ;;		Unchanged: 0/0
  1323 ;; Data sizes:     COMMON   BANK0   BANK1   BANK2   BANK3   BANK4   BANK5   BANK6   BANK7   BANK8   BANK9  BANK10  BANK1
      +1  BANK12
  1324 ;;      Params:         0       0       0       0       0       0       0       0       0       0       0       0       
      +0       0
  1325 ;;      Locals:         1       0       0       0       0       0       0       0       0       0       0       0       
      +0       0
  1326 ;;      Temps:          0       0       0       0       0       0       0       0       0       0       0       0       
      +0       0
  1327 ;;      Totals:         1       0       0       0       0       0       0       0       0       0       0       0       
      +0       0
  1328 ;;Total ram usage:        1 bytes
  1329 ;; Hardware stack levels used:    1
  1330 ;; Hardware stack levels required when called:    2
  1331 ;; This function calls:
  1332 ;;		Nothing
  1333 ;; This function is called by:
  1334 ;;		_main
  1335 ;; This function uses a non-reentrant model
  1336 ;;
  1337                           
  1338                           
  1339                           ;psect for function _uartSendByte
  1340  1644                     _uartSendByte:	
  1341                           
  1342                           ;incstack = 0
  1343                           ; Regs used in _uartSendByte: [wreg]
  1344                           ;uartSendByte@s stored from wreg
  1345  1644  00F2               	movwf	uartSendByte@s
  1346  1645                     l2377:	
  1347                           
  1348                           ;main.c: 231: void uartSendByte(char s);main.c: 232: {;main.c: 233:  TX1REG = s;
  1349  1645  0872               	movf	uartSendByte@s,w
  1350  1646  0142               	movlb	2	; select bank2
  1351  1647  009A               	movwf	26	;volatile
  1352  1648                     l2379:	
  1353                           
  1354                           ;main.c: 234:  __nop();
  1355  1648  0000               	nop
  1356  1649                     l157:	
  1357                           ;main.c: 235:  while (!PIR3bits.TX1IF);
  1358                           
  1359  1649  014E               	movlb	14	; select bank14
  1360  164A  1E0F               	btfss	15,4	;volatile
  1361  164B  2E4D               	goto	u3111
  1362  164C  2E4E               	goto	u3110
  1363  164D                     u3111:	
  1364  164D  2E49               	goto	l157
  1365  164E                     u3110:	
  1366  164E                     l160:	
  1367  164E  0008               	return
  1368  164F                     __end_of_uartSendByte:	
  1369                           
  1370                           	psect	text2
  1371  05C2                     __ptext2:	
  1372 ;; *************** function _readSI7006 *****************
  1373 ;; Defined at:
  1374 ;;		line 112 in file "main.c"
  1375 ;; Parameters:    Size  Location     Type
  1376 ;;  RH              1    wreg     PTR float 
  1377 ;;		 -> main@dataPacket(15), 
  1378 ;;  tempC           1   78[BANK0 ] PTR float 
  1379 ;;		 -> main@dataPacket(15), 
  1380 ;;  DP              1   79[BANK0 ] PTR float 
  1381 ;;		 -> main@dataPacket(15), 
  1382 ;; Auto vars:     Size  Location     Type
  1383 ;;  RH              1   41[BANK1 ] PTR float 
  1384 ;;		 -> main@dataPacket(15), 
  1385 ;;  gamma           4   37[BANK1 ] float 
  1386 ;;  buffer          2   42[BANK1 ] unsigned char [2]
  1387 ;; Return value:  Size  Location     Type
  1388 ;;                  1    wreg      unsigned char 
  1389 ;; Registers used:
  1390 ;;		wreg, fsr1l, fsr1h, status,2, status,0, pclath, cstack
  1391 ;; Tracked objects:
  1392 ;;		On entry : 0/0
  1393 ;;		On exit  : 0/0
  1394 ;;		Unchanged: 0/0
  1395 ;; Data sizes:     COMMON   BANK0   BANK1   BANK2   BANK3   BANK4   BANK5   BANK6   BANK7   BANK8   BANK9  BANK10  BANK1
      +1  BANK12
  1396 ;;      Params:         0       2       0       0       0       0       0       0       0       0       0       0       
      +0       0
  1397 ;;      Locals:         0       0      19       0       0       0       0       0       0       0       0       0       
      +0       0
  1398 ;;      Temps:          0       0       5       0       0       0       0       0       0       0       0       0       
      +0       0
  1399 ;;      Totals:         0       2      24       0       0       0       0       0       0       0       0       0       
      +0       0
  1400 ;;Total ram usage:       26 bytes
  1401 ;; Hardware stack levels used:    1
  1402 ;; Hardware stack levels required when called:    5
  1403 ;; This function calls:
  1404 ;;		___fladd
  1405 ;;		___fldiv
  1406 ;;		___flmul
  1407 ;;		___flsub
  1408 ;;		___xxtofl
  1409 ;;		_i2cRead
  1410 ;;		_i2cRepeat
  1411 ;;		_i2cStart
  1412 ;;		_i2cStop
  1413 ;;		_i2cWrite
  1414 ;;		_logf
  1415 ;; This function is called by:
  1416 ;;		_main
  1417 ;; This function uses a non-reentrant model
  1418 ;;
  1419                           
  1420                           
  1421                           ;psect for function _readSI7006
  1422  05C2                     _readSI7006:	
  1423                           
  1424                           ;incstack = 0
  1425                           ; Regs used in _readSI7006: [wreg+fsr1l+fsr1h+status,2+status,0+pclath+cstack]
  1426                           ;readSI7006@RH stored from wreg
  1427  05C2  0141               	movlb	1	; select bank1
  1428  05C3  00C9               	movwf	readSI7006@RH^(0+128)
  1429  05C4                     l2759:	
  1430                           
  1431                           ;main.c: 112: uint8_t readSI7006(float *RH, float *tempC, float *DP);main.c: 113: {;main
      +                          .c: 114:  uint8_t buffer[2];;main.c: 115:  float gamma;;main.c: 117:  i2cStart();
  1432  05C4  3196  2639  3185   	fcall	_i2cStart
  1433  05C7                     l2761:	
  1434                           
  1435                           ;main.c: 118:  buffer[0] = 0xE5;
  1436  05C7  30E5               	movlw	229
  1437  05C8  0141               	movlb	1	; select bank1
  1438  05C9  00B4               	movwf	??_readSI7006^(0+128)
  1439  05CA  0834               	movf	??_readSI7006^(0+128),w
  1440  05CB  00CA               	movwf	readSI7006@buffer^(0+128)
  1441  05CC                     l2763:	
  1442                           
  1443                           ;main.c: 119:  if (!i2cWrite(buffer, 1, 0x40))
  1444  05CC  01F2               	clrf	i2cWrite@numBytes
  1445  05CD  0AF2               	incf	i2cWrite@numBytes,f
  1446  05CE  3040               	movlw	64
  1447  05CF  00B4               	movwf	??_readSI7006^(0+128)
  1448  05D0  0834               	movf	??_readSI7006^(0+128),w
  1449  05D1  00F3               	movwf	i2cWrite@address
  1450  05D2  30CA               	movlw	(low (readSI7006@buffer| 0))& (0+255)
  1451  05D3  3196  26CC  3185   	fcall	_i2cWrite
  1452  05D6  3A00               	xorlw	0
  1453  05D7  1D03               	skipz
  1454  05D8  2DDA               	goto	u3701
  1455  05D9  2DDB               	goto	u3700
  1456  05DA                     u3701:	
  1457  05DA  2DDD               	goto	l2769
  1458  05DB                     u3700:	
  1459  05DB                     l2765:	
  1460                           
  1461                           ;main.c: 120:   return 0;
  1462  05DB  3000               	movlw	0
  1463  05DC  2FFD               	goto	l103
  1464  05DD                     l2769:	
  1465                           
  1466                           ;main.c: 121:  i2cRepeat();
  1467  05DD  3196  2627  3185   	fcall	_i2cRepeat
  1468  05E0                     l2771:	
  1469                           
  1470                           ;main.c: 122:  if (!i2cRead(buffer, 2, 0x40))
  1471  05E0  3002               	movlw	2
  1472  05E1  0141               	movlb	1	; select bank1
  1473  05E2  00B4               	movwf	??_readSI7006^(0+128)
  1474  05E3  0834               	movf	??_readSI7006^(0+128),w
  1475  05E4  00F2               	movwf	i2cRead@numBytes
  1476  05E5  3040               	movlw	64
  1477  05E6  00B5               	movwf	(??_readSI7006+1)^(0+128)
  1478  05E7  0835               	movf	(??_readSI7006+1)^(0+128),w
  1479  05E8  00F3               	movwf	i2cRead@address
  1480  05E9  30CA               	movlw	(low (readSI7006@buffer| 0))& (0+255)
  1481  05EA  3197  2736  3185   	fcall	_i2cRead
  1482  05ED  3A00               	xorlw	0
  1483  05EE  1D03               	skipz
  1484  05EF  2DF1               	goto	u3711
  1485  05F0  2DF2               	goto	u3710
  1486  05F1                     u3711:	
  1487  05F1  2DF3               	goto	l2777
  1488  05F2                     u3710:	
  1489  05F2  2DDB               	goto	l2765
  1490  05F3                     l2777:	
  1491                           
  1492                           ;main.c: 124:  i2cStop();
  1493  05F3  3196  2630  3185   	fcall	_i2cStop
  1494  05F6                     l2779:	
  1495                           
  1496                           ;main.c: 126:  *RH = (125.0 * ((uint16_t) buffer[0] << 8 | (uint16_t) buffer[1]) / 65536
      +                          ) - 6;
  1497  05F6  30C0               	movlw	192
  1498  05F7  0140               	movlb	0	; select bank0
  1499  05F8  00DD               	movwf	___fladd@b+3
  1500  05F9  30C0               	movlw	192
  1501  05FA  00DC               	movwf	___fladd@b+2
  1502  05FB  3000               	movlw	0
  1503  05FC  00DB               	movwf	___fladd@b+1
  1504  05FD  3000               	movlw	0
  1505  05FE  00DA               	movwf	___fladd@b
  1506  05FF  3047               	movlw	71
  1507  0600  00C3               	movwf	___fldiv@a+3
  1508  0601  3080               	movlw	128
  1509  0602  00C2               	movwf	___fldiv@a+2
  1510  0603  3000               	movlw	0
  1511  0604  00C1               	movwf	___fldiv@a+1
  1512  0605  3000               	movlw	0
  1513  0606  00C0               	movwf	___fldiv@a
  1514  0607  3042               	movlw	66
  1515  0608  00A9               	movwf	___flmul@b+3
  1516  0609  30FA               	movlw	250
  1517  060A  00A8               	movwf	___flmul@b+2
  1518  060B  3000               	movlw	0
  1519  060C  00A7               	movwf	___flmul@b+1
  1520  060D  3000               	movlw	0
  1521  060E  00A6               	movwf	___flmul@b
  1522  060F  0141               	movlb	1	; select bank1
  1523  0610  084B               	movf	(readSI7006@buffer^(0+128)+1),w
  1524  0611  00B4               	movwf	??_readSI7006^(0+128)
  1525  0612  01B5               	clrf	(??_readSI7006^(0+128)+1)
  1526  0613  084A               	movf	readSI7006@buffer^(0+128),w
  1527  0614  00B6               	movwf	(??_readSI7006+2)^(0+128)
  1528  0615  01B7               	clrf	((??_readSI7006+2)^(0+128)+1)
  1529  0616  0836               	movf	(??_readSI7006+2)^(0+128),w
  1530  0617  00B7               	movwf	((??_readSI7006+2)^(0+128)+1)
  1531  0618  01B6               	clrf	(??_readSI7006+2)^(0+128)
  1532  0619  0834               	movf	??_readSI7006^(0+128),w
  1533  061A  0436               	iorwf	(??_readSI7006+2)^(0+128),w
  1534  061B  00F2               	movwf	___xxtofl@val
  1535  061C  0835               	movf	(??_readSI7006+1)^(0+128),w
  1536  061D  0437               	iorwf	(??_readSI7006+3)^(0+128),w
  1537  061E  00F3               	movwf	___xxtofl@val+1
  1538  061F  01F4               	clrf	___xxtofl@val+2
  1539  0620  01F5               	clrf	___xxtofl@val+3
  1540  0621  3000               	movlw	0
  1541  0622  3188  2006  3185   	fcall	___xxtofl
  1542  0625  0875               	movf	?___xxtofl+3,w
  1543  0626  0140               	movlb	0	; select bank0
  1544  0627  00AD               	movwf	___flmul@a+3
  1545  0628  0874               	movf	?___xxtofl+2,w
  1546  0629  00AC               	movwf	___flmul@a+2
  1547  062A  0873               	movf	?___xxtofl+1,w
  1548  062B  00AB               	movwf	___flmul@a+1
  1549  062C  0872               	movf	?___xxtofl,w
  1550  062D  00AA               	movwf	___flmul@a
  1551  062E  318D  25A9  3185   	fcall	___flmul
  1552  0631  0140               	movlb	0	; select bank0
  1553  0632  0829               	movf	?___flmul+3,w
  1554  0633  00C7               	movwf	___fldiv@b+3
  1555  0634  0828               	movf	?___flmul+2,w
  1556  0635  00C6               	movwf	___fldiv@b+2
  1557  0636  0827               	movf	?___flmul+1,w
  1558  0637  00C5               	movwf	___fldiv@b+1
  1559  0638  0826               	movf	?___flmul,w
  1560  0639  00C4               	movwf	___fldiv@b
  1561  063A  3189  21BD  3185   	fcall	___fldiv
  1562  063D  0140               	movlb	0	; select bank0
  1563  063E  0843               	movf	?___fldiv+3,w
  1564  063F  00E1               	movwf	___fladd@a+3
  1565  0640  0842               	movf	?___fldiv+2,w
  1566  0641  00E0               	movwf	___fladd@a+2
  1567  0642  0841               	movf	?___fldiv+1,w
  1568  0643  00DF               	movwf	___fladd@a+1
  1569  0644  0840               	movf	?___fldiv,w
  1570  0645  00DE               	movwf	___fladd@a
  1571  0646  318B  2371  3185   	fcall	___fladd
  1572  0649  0141               	movlb	1	; select bank1
  1573  064A  0849               	movf	readSI7006@RH^(0+128),w
  1574  064B  0086               	movwf	6
  1575  064C  0187               	clrf	7
  1576  064D  0140               	movlb	0	; select bank0
  1577  064E  085A               	movf	?___fladd,w
  1578  064F  3FC0               	movwi [0]fsr1
  1579  0650  085B               	movf	?___fladd+1,w
  1580  0651  3FC1               	movwi [1]fsr1
  1581  0652  085C               	movf	?___fladd+2,w
  1582  0653  3FC2               	movwi [2]fsr1
  1583  0654  085D               	movf	?___fladd+3,w
  1584  0655  3FC3               	movwi [3]fsr1
  1585  0656                     l2781:	
  1586                           
  1587                           ;main.c: 128:  i2cStart();
  1588  0656  3196  2639  3185   	fcall	_i2cStart
  1589  0659                     l2783:	
  1590                           
  1591                           ;main.c: 129:  buffer[0] = 0xE0;
  1592  0659  30E0               	movlw	224
  1593  065A  0141               	movlb	1	; select bank1
  1594  065B  00B4               	movwf	??_readSI7006^(0+128)
  1595  065C  0834               	movf	??_readSI7006^(0+128),w
  1596  065D  00CA               	movwf	readSI7006@buffer^(0+128)
  1597  065E                     l2785:	
  1598                           
  1599                           ;main.c: 130:  if (!i2cWrite(buffer, 1, 0x40))
  1600  065E  01F2               	clrf	i2cWrite@numBytes
  1601  065F  0AF2               	incf	i2cWrite@numBytes,f
  1602  0660  3040               	movlw	64
  1603  0661  00B4               	movwf	??_readSI7006^(0+128)
  1604  0662  0834               	movf	??_readSI7006^(0+128),w
  1605  0663  00F3               	movwf	i2cWrite@address
  1606  0664  30CA               	movlw	(low (readSI7006@buffer| 0))& (0+255)
  1607  0665  3196  26CC  3185   	fcall	_i2cWrite
  1608  0668  3A00               	xorlw	0
  1609  0669  1D03               	skipz
  1610  066A  2E6C               	goto	u3721
  1611  066B  2E6D               	goto	u3720
  1612  066C                     u3721:	
  1613  066C  2E6E               	goto	l2791
  1614  066D                     u3720:	
  1615  066D  2DDB               	goto	l2765
  1616  066E                     l2791:	
  1617                           
  1618                           ;main.c: 132:  i2cRepeat();
  1619  066E  3196  2627  3185   	fcall	_i2cRepeat
  1620  0671                     l2793:	
  1621                           
  1622                           ;main.c: 133:  if (!i2cRead(buffer, 2, 0x40))
  1623  0671  3002               	movlw	2
  1624  0672  0141               	movlb	1	; select bank1
  1625  0673  00B4               	movwf	??_readSI7006^(0+128)
  1626  0674  0834               	movf	??_readSI7006^(0+128),w
  1627  0675  00F2               	movwf	i2cRead@numBytes
  1628  0676  3040               	movlw	64
  1629  0677  00B5               	movwf	(??_readSI7006+1)^(0+128)
  1630  0678  0835               	movf	(??_readSI7006+1)^(0+128),w
  1631  0679  00F3               	movwf	i2cRead@address
  1632  067A  30CA               	movlw	(low (readSI7006@buffer| 0))& (0+255)
  1633  067B  3197  2736  3185   	fcall	_i2cRead
  1634  067E  3A00               	xorlw	0
  1635  067F  1D03               	skipz
  1636  0680  2E82               	goto	u3731
  1637  0681  2E83               	goto	u3730
  1638  0682                     u3731:	
  1639  0682  2E84               	goto	l2799
  1640  0683                     u3730:	
  1641  0683  2DDB               	goto	l2765
  1642  0684                     l2799:	
  1643                           
  1644                           ;main.c: 135:  i2cStop();
  1645  0684  3196  2630  3185   	fcall	_i2cStop
  1646  0687                     l2801:	
  1647                           
  1648                           ;main.c: 137:  *tempC = (175.72 * ((uint16_t) buffer[0] << 8 | (uint16_t) buffer[1]) / 6
      +                          5536) - 46.85;
  1649  0687  30C2               	movlw	194
  1650  0688  0140               	movlb	0	; select bank0
  1651  0689  00DD               	movwf	___fladd@b+3
  1652  068A  303B               	movlw	59
  1653  068B  00DC               	movwf	___fladd@b+2
  1654  068C  3066               	movlw	102
  1655  068D  00DB               	movwf	___fladd@b+1
  1656  068E  3066               	movlw	102
  1657  068F  00DA               	movwf	___fladd@b
  1658  0690  3047               	movlw	71
  1659  0691  00C3               	movwf	___fldiv@a+3
  1660  0692  3080               	movlw	128
  1661  0693  00C2               	movwf	___fldiv@a+2
  1662  0694  3000               	movlw	0
  1663  0695  00C1               	movwf	___fldiv@a+1
  1664  0696  3000               	movlw	0
  1665  0697  00C0               	movwf	___fldiv@a
  1666  0698  3043               	movlw	67
  1667  0699  00A9               	movwf	___flmul@b+3
  1668  069A  302F               	movlw	47
  1669  069B  00A8               	movwf	___flmul@b+2
  1670  069C  30B8               	movlw	184
  1671  069D  00A7               	movwf	___flmul@b+1
  1672  069E  3052               	movlw	82
  1673  069F  00A6               	movwf	___flmul@b
  1674  06A0  0141               	movlb	1	; select bank1
  1675  06A1  084B               	movf	(readSI7006@buffer^(0+128)+1),w
  1676  06A2  00B4               	movwf	??_readSI7006^(0+128)
  1677  06A3  01B5               	clrf	(??_readSI7006^(0+128)+1)
  1678  06A4  084A               	movf	readSI7006@buffer^(0+128),w
  1679  06A5  00B6               	movwf	(??_readSI7006+2)^(0+128)
  1680  06A6  01B7               	clrf	((??_readSI7006+2)^(0+128)+1)
  1681  06A7  0836               	movf	(??_readSI7006+2)^(0+128),w
  1682  06A8  00B7               	movwf	((??_readSI7006+2)^(0+128)+1)
  1683  06A9  01B6               	clrf	(??_readSI7006+2)^(0+128)
  1684  06AA  0834               	movf	??_readSI7006^(0+128),w
  1685  06AB  0436               	iorwf	(??_readSI7006+2)^(0+128),w
  1686  06AC  00F2               	movwf	___xxtofl@val
  1687  06AD  0835               	movf	(??_readSI7006+1)^(0+128),w
  1688  06AE  0437               	iorwf	(??_readSI7006+3)^(0+128),w
  1689  06AF  00F3               	movwf	___xxtofl@val+1
  1690  06B0  01F4               	clrf	___xxtofl@val+2
  1691  06B1  01F5               	clrf	___xxtofl@val+3
  1692  06B2  3000               	movlw	0
  1693  06B3  3188  2006  3185   	fcall	___xxtofl
  1694  06B6  0875               	movf	?___xxtofl+3,w
  1695  06B7  0140               	movlb	0	; select bank0
  1696  06B8  00AD               	movwf	___flmul@a+3
  1697  06B9  0874               	movf	?___xxtofl+2,w
  1698  06BA  00AC               	movwf	___flmul@a+2
  1699  06BB  0873               	movf	?___xxtofl+1,w
  1700  06BC  00AB               	movwf	___flmul@a+1
  1701  06BD  0872               	movf	?___xxtofl,w
  1702  06BE  00AA               	movwf	___flmul@a
  1703  06BF  318D  25A9  3185   	fcall	___flmul
  1704  06C2  0140               	movlb	0	; select bank0
  1705  06C3  0829               	movf	?___flmul+3,w
  1706  06C4  00C7               	movwf	___fldiv@b+3
  1707  06C5  0828               	movf	?___flmul+2,w
  1708  06C6  00C6               	movwf	___fldiv@b+2
  1709  06C7  0827               	movf	?___flmul+1,w
  1710  06C8  00C5               	movwf	___fldiv@b+1
  1711  06C9  0826               	movf	?___flmul,w
  1712  06CA  00C4               	movwf	___fldiv@b
  1713  06CB  3189  21BD  3185   	fcall	___fldiv
  1714  06CE  0140               	movlb	0	; select bank0
  1715  06CF  0843               	movf	?___fldiv+3,w
  1716  06D0  00E1               	movwf	___fladd@a+3
  1717  06D1  0842               	movf	?___fldiv+2,w
  1718  06D2  00E0               	movwf	___fladd@a+2
  1719  06D3  0841               	movf	?___fldiv+1,w
  1720  06D4  00DF               	movwf	___fladd@a+1
  1721  06D5  0840               	movf	?___fldiv,w
  1722  06D6  00DE               	movwf	___fladd@a
  1723  06D7  318B  2371  3185   	fcall	___fladd
  1724  06DA  0140               	movlb	0	; select bank0
  1725  06DB  086E               	movf	readSI7006@tempC,w
  1726  06DC  0086               	movwf	6
  1727  06DD  0187               	clrf	7
  1728  06DE  085A               	movf	?___fladd,w
  1729  06DF  3FC0               	movwi [0]fsr1
  1730  06E0  085B               	movf	?___fladd+1,w
  1731  06E1  3FC1               	movwi [1]fsr1
  1732  06E2  085C               	movf	?___fladd+2,w
  1733  06E3  3FC2               	movwi [2]fsr1
  1734  06E4  085D               	movf	?___fladd+3,w
  1735  06E5  3FC3               	movwi [3]fsr1
  1736  06E6                     l2803:	
  1737                           
  1738                           ;main.c: 139:  gamma = logf(*RH / 100.0) + ((17.67 * *tempC) / (243.5 + *tempC));
  1739  06E6  3042               	movlw	66
  1740  06E7  00C3               	movwf	___fldiv@a+3
  1741  06E8  30C8               	movlw	200
  1742  06E9  00C2               	movwf	___fldiv@a+2
  1743  06EA  3000               	movlw	0
  1744  06EB  00C1               	movwf	___fldiv@a+1
  1745  06EC  3000               	movlw	0
  1746  06ED  00C0               	movwf	___fldiv@a
  1747  06EE  0141               	movlb	1	; select bank1
  1748  06EF  0849               	movf	readSI7006@RH^(0+128),w
  1749  06F0  0086               	movwf	6
  1750  06F1  0187               	clrf	7
  1751  06F2  3F40               	moviw [0]fsr1
  1752  06F3  0140               	movlb	0	; select bank0
  1753  06F4  00C4               	movwf	___fldiv@b
  1754  06F5  3F41               	moviw [1]fsr1
  1755  06F6  00C5               	movwf	___fldiv@b+1
  1756  06F7  3F42               	moviw [2]fsr1
  1757  06F8  00C6               	movwf	___fldiv@b+2
  1758  06F9  3F43               	moviw [3]fsr1
  1759  06FA  00C7               	movwf	___fldiv@b+3
  1760  06FB  3189  21BD  3185   	fcall	___fldiv
  1761  06FE  0140               	movlb	0	; select bank0
  1762  06FF  0843               	movf	?___fldiv+3,w
  1763  0700  0141               	movlb	1	; select bank1
  1764  0701  00BC               	movwf	(_readSI7006$823+3)^(0+128)
  1765  0702  0140               	movlb	0	; select bank0
  1766  0703  0842               	movf	?___fldiv+2,w
  1767  0704  0141               	movlb	1	; select bank1
  1768  0705  00BB               	movwf	(_readSI7006$823+2)^(0+128)
  1769  0706  0140               	movlb	0	; select bank0
  1770  0707  0841               	movf	?___fldiv+1,w
  1771  0708  0141               	movlb	1	; select bank1
  1772  0709  00BA               	movwf	(_readSI7006$823+1)^(0+128)
  1773  070A  0140               	movlb	0	; select bank0
  1774  070B  0840               	movf	?___fldiv,w
  1775  070C  0141               	movlb	1	; select bank1
  1776  070D  00B9               	movwf	_readSI7006$823^(0+128)
  1777  070E                     l2805:	
  1778                           
  1779                           ;main.c: 139:  gamma = logf(*RH / 100.0) + ((17.67 * *tempC) / (243.5 + *tempC));
  1780  070E  3043               	movlw	67
  1781  070F  0140               	movlb	0	; select bank0
  1782  0710  00DD               	movwf	___fladd@b+3
  1783  0711  3073               	movlw	115
  1784  0712  00DC               	movwf	___fladd@b+2
  1785  0713  3080               	movlw	128
  1786  0714  00DB               	movwf	___fladd@b+1
  1787  0715  3000               	movlw	0
  1788  0716  00DA               	movwf	___fladd@b
  1789  0717  086E               	movf	readSI7006@tempC,w
  1790  0718  0086               	movwf	6
  1791  0719  0187               	clrf	7
  1792  071A  3F40               	moviw [0]fsr1
  1793  071B  00DE               	movwf	___fladd@a
  1794  071C  3F41               	moviw [1]fsr1
  1795  071D  00DF               	movwf	___fladd@a+1
  1796  071E  3F42               	moviw [2]fsr1
  1797  071F  00E0               	movwf	___fladd@a+2
  1798  0720  3F43               	moviw [3]fsr1
  1799  0721  00E1               	movwf	___fladd@a+3
  1800  0722  318B  2371  3185   	fcall	___fladd
  1801  0725  0140               	movlb	0	; select bank0
  1802  0726  085D               	movf	?___fladd+3,w
  1803  0727  00C3               	movwf	___fldiv@a+3
  1804  0728  085C               	movf	?___fladd+2,w
  1805  0729  00C2               	movwf	___fldiv@a+2
  1806  072A  085B               	movf	?___fladd+1,w
  1807  072B  00C1               	movwf	___fldiv@a+1
  1808  072C  085A               	movf	?___fladd,w
  1809  072D  00C0               	movwf	___fldiv@a
  1810  072E  3041               	movlw	65
  1811  072F  00A9               	movwf	___flmul@b+3
  1812  0730  308D               	movlw	141
  1813  0731  00A8               	movwf	___flmul@b+2
  1814  0732  305C               	movlw	92
  1815  0733  00A7               	movwf	___flmul@b+1
  1816  0734  3029               	movlw	41
  1817  0735  00A6               	movwf	___flmul@b
  1818  0736  086E               	movf	readSI7006@tempC,w
  1819  0737  0086               	movwf	6
  1820  0738  0187               	clrf	7
  1821  0739  3F40               	moviw [0]fsr1
  1822  073A  00AA               	movwf	___flmul@a
  1823  073B  3F41               	moviw [1]fsr1
  1824  073C  00AB               	movwf	___flmul@a+1
  1825  073D  3F42               	moviw [2]fsr1
  1826  073E  00AC               	movwf	___flmul@a+2
  1827  073F  3F43               	moviw [3]fsr1
  1828  0740  00AD               	movwf	___flmul@a+3
  1829  0741  318D  25A9  3185   	fcall	___flmul
  1830  0744  0140               	movlb	0	; select bank0
  1831  0745  0829               	movf	?___flmul+3,w
  1832  0746  00C7               	movwf	___fldiv@b+3
  1833  0747  0828               	movf	?___flmul+2,w
  1834  0748  00C6               	movwf	___fldiv@b+2
  1835  0749  0827               	movf	?___flmul+1,w
  1836  074A  00C5               	movwf	___fldiv@b+1
  1837  074B  0826               	movf	?___flmul,w
  1838  074C  00C4               	movwf	___fldiv@b
  1839  074D  3189  21BD  3185   	fcall	___fldiv
  1840  0750  0140               	movlb	0	; select bank0
  1841  0751  0843               	movf	?___fldiv+3,w
  1842  0752  0141               	movlb	1	; select bank1
  1843  0753  00C0               	movwf	(_readSI7006$824+3)^(0+128)
  1844  0754  0140               	movlb	0	; select bank0
  1845  0755  0842               	movf	?___fldiv+2,w
  1846  0756  0141               	movlb	1	; select bank1
  1847  0757  00BF               	movwf	(_readSI7006$824+2)^(0+128)
  1848  0758  0140               	movlb	0	; select bank0
  1849  0759  0841               	movf	?___fldiv+1,w
  1850  075A  0141               	movlb	1	; select bank1
  1851  075B  00BE               	movwf	(_readSI7006$824+1)^(0+128)
  1852  075C  0140               	movlb	0	; select bank0
  1853  075D  0840               	movf	?___fldiv,w
  1854  075E  0141               	movlb	1	; select bank1
  1855  075F  00BD               	movwf	_readSI7006$824^(0+128)
  1856  0760                     l2807:	
  1857                           
  1858                           ;main.c: 139:  gamma = logf(*RH / 100.0) + ((17.67 * *tempC) / (243.5 + *tempC));
  1859  0760  083C               	movf	(_readSI7006$823+3)^(0+128),w
  1860  0761  00AB               	movwf	(logf@x+3)^(0+128)
  1861  0762  083B               	movf	(_readSI7006$823+2)^(0+128),w
  1862  0763  00AA               	movwf	(logf@x+2)^(0+128)
  1863  0764  083A               	movf	(_readSI7006$823+1)^(0+128),w
  1864  0765  00A9               	movwf	(logf@x+1)^(0+128)
  1865  0766  0839               	movf	_readSI7006$823^(0+128),w
  1866  0767  00A8               	movwf	logf@x^(0+128)
  1867  0768  3180  2028  3185   	fcall	_logf
  1868  076B  0141               	movlb	1	; select bank1
  1869  076C  082B               	movf	(?_logf+3)^(0+128),w
  1870  076D  00C4               	movwf	(_readSI7006$825+3)^(0+128)
  1871  076E  082A               	movf	(?_logf+2)^(0+128),w
  1872  076F  00C3               	movwf	(_readSI7006$825+2)^(0+128)
  1873  0770  0829               	movf	(?_logf+1)^(0+128),w
  1874  0771  00C2               	movwf	(_readSI7006$825+1)^(0+128)
  1875  0772  0828               	movf	?_logf^(0+128),w
  1876  0773  00C1               	movwf	_readSI7006$825^(0+128)
  1877  0774                     l2809:	
  1878                           
  1879                           ;main.c: 139:  gamma = logf(*RH / 100.0) + ((17.67 * *tempC) / (243.5 + *tempC));
  1880  0774  0840               	movf	(_readSI7006$824+3)^(0+128),w
  1881  0775  0140               	movlb	0	; select bank0
  1882  0776  00DD               	movwf	___fladd@b+3
  1883  0777  0141               	movlb	1	; select bank1
  1884  0778  083F               	movf	(_readSI7006$824+2)^(0+128),w
  1885  0779  0140               	movlb	0	; select bank0
  1886  077A  00DC               	movwf	___fladd@b+2
  1887  077B  0141               	movlb	1	; select bank1
  1888  077C  083E               	movf	(_readSI7006$824+1)^(0+128),w
  1889  077D  0140               	movlb	0	; select bank0
  1890  077E  00DB               	movwf	___fladd@b+1
  1891  077F  0141               	movlb	1	; select bank1
  1892  0780  083D               	movf	_readSI7006$824^(0+128),w
  1893  0781  0140               	movlb	0	; select bank0
  1894  0782  00DA               	movwf	___fladd@b
  1895  0783  0141               	movlb	1	; select bank1
  1896  0784  0844               	movf	(_readSI7006$825+3)^(0+128),w
  1897  0785  0140               	movlb	0	; select bank0
  1898  0786  00E1               	movwf	___fladd@a+3
  1899  0787  0141               	movlb	1	; select bank1
  1900  0788  0843               	movf	(_readSI7006$825+2)^(0+128),w
  1901  0789  0140               	movlb	0	; select bank0
  1902  078A  00E0               	movwf	___fladd@a+2
  1903  078B  0141               	movlb	1	; select bank1
  1904  078C  0842               	movf	(_readSI7006$825+1)^(0+128),w
  1905  078D  0140               	movlb	0	; select bank0
  1906  078E  00DF               	movwf	___fladd@a+1
  1907  078F  0141               	movlb	1	; select bank1
  1908  0790  0841               	movf	_readSI7006$825^(0+128),w
  1909  0791  0140               	movlb	0	; select bank0
  1910  0792  00DE               	movwf	___fladd@a
  1911  0793  318B  2371  3185   	fcall	___fladd
  1912  0796  0140               	movlb	0	; select bank0
  1913  0797  085D               	movf	?___fladd+3,w
  1914  0798  0141               	movlb	1	; select bank1
  1915  0799  00C8               	movwf	(readSI7006@gamma+3)^(0+128)
  1916  079A  0140               	movlb	0	; select bank0
  1917  079B  085C               	movf	?___fladd+2,w
  1918  079C  0141               	movlb	1	; select bank1
  1919  079D  00C7               	movwf	(readSI7006@gamma+2)^(0+128)
  1920  079E  0140               	movlb	0	; select bank0
  1921  079F  085B               	movf	?___fladd+1,w
  1922  07A0  0141               	movlb	1	; select bank1
  1923  07A1  00C6               	movwf	(readSI7006@gamma+1)^(0+128)
  1924  07A2  0140               	movlb	0	; select bank0
  1925  07A3  085A               	movf	?___fladd,w
  1926  07A4  0141               	movlb	1	; select bank1
  1927  07A5  00C5               	movwf	readSI7006@gamma^(0+128)
  1928  07A6                     l2811:	
  1929                           
  1930                           ;main.c: 140:  *DP = (243.5 * gamma) / (17.67 - gamma);
  1931  07A6  0848               	movf	(readSI7006@gamma+3)^(0+128),w
  1932  07A7  00A3               	movwf	(___flsub@a+3)^(0+128)
  1933  07A8  0847               	movf	(readSI7006@gamma+2)^(0+128),w
  1934  07A9  00A2               	movwf	(___flsub@a+2)^(0+128)
  1935  07AA  0846               	movf	(readSI7006@gamma+1)^(0+128),w
  1936  07AB  00A1               	movwf	(___flsub@a+1)^(0+128)
  1937  07AC  0845               	movf	readSI7006@gamma^(0+128),w
  1938  07AD  00A0               	movwf	___flsub@a^(0+128)
  1939  07AE  3041               	movlw	65
  1940  07AF  00A7               	movwf	(___flsub@b+3)^(0+128)
  1941  07B0  308D               	movlw	141
  1942  07B1  00A6               	movwf	(___flsub@b+2)^(0+128)
  1943  07B2  305C               	movlw	92
  1944  07B3  00A5               	movwf	(___flsub@b+1)^(0+128)
  1945  07B4  3029               	movlw	41
  1946  07B5  00A4               	movwf	___flsub@b^(0+128)
  1947  07B6  3197  2700  3185   	fcall	___flsub
  1948  07B9  0141               	movlb	1	; select bank1
  1949  07BA  0823               	movf	(?___flsub+3)^(0+128),w
  1950  07BB  0140               	movlb	0	; select bank0
  1951  07BC  00C3               	movwf	___fldiv@a+3
  1952  07BD  0141               	movlb	1	; select bank1
  1953  07BE  0822               	movf	(?___flsub+2)^(0+128),w
  1954  07BF  0140               	movlb	0	; select bank0
  1955  07C0  00C2               	movwf	___fldiv@a+2
  1956  07C1  0141               	movlb	1	; select bank1
  1957  07C2  0821               	movf	(?___flsub+1)^(0+128),w
  1958  07C3  0140               	movlb	0	; select bank0
  1959  07C4  00C1               	movwf	___fldiv@a+1
  1960  07C5  0141               	movlb	1	; select bank1
  1961  07C6  0820               	movf	?___flsub^(0+128),w
  1962  07C7  0140               	movlb	0	; select bank0
  1963  07C8  00C0               	movwf	___fldiv@a
  1964  07C9  3043               	movlw	67
  1965  07CA  00A9               	movwf	___flmul@b+3
  1966  07CB  3073               	movlw	115
  1967  07CC  00A8               	movwf	___flmul@b+2
  1968  07CD  3080               	movlw	128
  1969  07CE  00A7               	movwf	___flmul@b+1
  1970  07CF  3000               	movlw	0
  1971  07D0  00A6               	movwf	___flmul@b
  1972  07D1  0141               	movlb	1	; select bank1
  1973  07D2  0848               	movf	(readSI7006@gamma+3)^(0+128),w
  1974  07D3  0140               	movlb	0	; select bank0
  1975  07D4  00AD               	movwf	___flmul@a+3
  1976  07D5  0141               	movlb	1	; select bank1
  1977  07D6  0847               	movf	(readSI7006@gamma+2)^(0+128),w
  1978  07D7  0140               	movlb	0	; select bank0
  1979  07D8  00AC               	movwf	___flmul@a+2
  1980  07D9  0141               	movlb	1	; select bank1
  1981  07DA  0846               	movf	(readSI7006@gamma+1)^(0+128),w
  1982  07DB  0140               	movlb	0	; select bank0
  1983  07DC  00AB               	movwf	___flmul@a+1
  1984  07DD  0141               	movlb	1	; select bank1
  1985  07DE  0845               	movf	readSI7006@gamma^(0+128),w
  1986  07DF  0140               	movlb	0	; select bank0
  1987  07E0  00AA               	movwf	___flmul@a
  1988  07E1  318D  25A9  3185   	fcall	___flmul
  1989  07E4  0140               	movlb	0	; select bank0
  1990  07E5  0829               	movf	?___flmul+3,w
  1991  07E6  00C7               	movwf	___fldiv@b+3
  1992  07E7  0828               	movf	?___flmul+2,w
  1993  07E8  00C6               	movwf	___fldiv@b+2
  1994  07E9  0827               	movf	?___flmul+1,w
  1995  07EA  00C5               	movwf	___fldiv@b+1
  1996  07EB  0826               	movf	?___flmul,w
  1997  07EC  00C4               	movwf	___fldiv@b
  1998  07ED  3189  21BD  3185   	fcall	___fldiv
  1999  07F0  0140               	movlb	0	; select bank0
  2000  07F1  086F               	movf	readSI7006@DP,w
  2001  07F2  0086               	movwf	6
  2002  07F3  0187               	clrf	7
  2003  07F4  0840               	movf	?___fldiv,w
  2004  07F5  3FC0               	movwi [0]fsr1
  2005  07F6  0841               	movf	?___fldiv+1,w
  2006  07F7  3FC1               	movwi [1]fsr1
  2007  07F8  0842               	movf	?___fldiv+2,w
  2008  07F9  3FC2               	movwi [2]fsr1
  2009  07FA  0843               	movf	?___fldiv+3,w
  2010  07FB  3FC3               	movwi [3]fsr1
  2011  07FC                     l2813:	
  2012                           
  2013                           ;main.c: 142:  return 1;
  2014  07FC  3001               	movlw	1
  2015  07FD                     l103:	
  2016  07FD  0008               	return
  2017  07FE                     __end_of_readSI7006:	
  2018                           
  2019                           	psect	text3
  2020  0028                     __ptext3:	
  2021 ;; *************** function _logf *****************
  2022 ;; Defined at:
  2023 ;;		line 28 in file "C:\Program Files (x86)\Microchip\xc8\v2.10\pic\sources\c99\common\logf.c"
  2024 ;; Parameters:    Size  Location     Type
  2025 ;;  x               4    8[BANK1 ] float 
  2026 ;; Auto vars:     Size  Location     Type
  2027 ;;  ix              4   62[BANK2 ] unsigned long 
  2028 ;;  f               4   58[BANK2 ] float 
  2029 ;;  u               4   54[BANK2 ] struct .
  2030 ;;  w               4   46[BANK2 ] float 
  2031 ;;  z               4   42[BANK2 ] float 
  2032 ;;  s               4   38[BANK2 ] float 
  2033 ;;  dk              4   34[BANK2 ] float 
  2034 ;;  hfsq            4   30[BANK2 ] float 
  2035 ;;  t2              4    8[BANK2 ] float 
  2036 ;;  t1              4    4[BANK2 ] float 
  2037 ;;  R               4    0[BANK2 ] float 
  2038 ;;  k               2   28[BANK2 ] int 
  2039 ;; Return value:  Size  Location     Type
  2040 ;;                  4    8[BANK1 ] float 
  2041 ;; Registers used:
  2042 ;;		wreg, status,2, status,0, pclath, cstack
  2043 ;; Tracked objects:
  2044 ;;		On entry : 0/0
  2045 ;;		On exit  : 0/0
  2046 ;;		Unchanged: 0/0
  2047 ;; Data sizes:     COMMON   BANK0   BANK1   BANK2   BANK3   BANK4   BANK5   BANK6   BANK7   BANK8   BANK9  BANK10  BANK1
      +1  BANK12
  2048 ;;      Params:         0       0       4       0       0       0       0       0       0       0       0       0       
      +0       0
  2049 ;;      Locals:         0       0       0      66       0       0       0       0       0       0       0       0       
      +0       0
  2050 ;;      Temps:          0       0       8       0       0       0       0       0       0       0       0       0       
      +0       0
  2051 ;;      Totals:         0       0      12      66       0       0       0       0       0       0       0       0       
      +0       0
  2052 ;;Total ram usage:       78 bytes
  2053 ;; Hardware stack levels used:    1
  2054 ;; Hardware stack levels required when called:    4
  2055 ;; This function calls:
  2056 ;;		___fladd
  2057 ;;		___fldiv
  2058 ;;		___flmul
  2059 ;;		___flsub
  2060 ;;		___xxtofl
  2061 ;; This function is called by:
  2062 ;;		_readSI7006
  2063 ;; This function uses a non-reentrant model
  2064 ;;
  2065                           
  2066                           
  2067                           ;psect for function _logf
  2068  0028                     _logf:	
  2069  0028                     l2673:	
  2070                           ;incstack = 0
  2071                           ; Regs used in _logf: [wreg+status,2+status,0+pclath+cstack]
  2072                           
  2073  0028  0141               	movlb	1	; select bank1
  2074  0029  0863               	movf	(logf@F469+3)^(0+128),w
  2075  002A  0142               	movlb	2	; select bank2
  2076  002B  00D9               	movwf	(logf@u+3)^(0+256)
  2077  002C  0141               	movlb	1	; select bank1
  2078  002D  0862               	movf	(logf@F469+2)^(0+128),w
  2079  002E  0142               	movlb	2	; select bank2
  2080  002F  00D8               	movwf	(logf@u+2)^(0+256)
  2081  0030  0141               	movlb	1	; select bank1
  2082  0031  0861               	movf	(logf@F469+1)^(0+128),w
  2083  0032  0142               	movlb	2	; select bank2
  2084  0033  00D7               	movwf	(logf@u+1)^(0+256)
  2085  0034  0141               	movlb	1	; select bank1
  2086  0035  0860               	movf	logf@F469^(0+128),w
  2087  0036  0142               	movlb	2	; select bank2
  2088  0037  00D6               	movwf	logf@u^(0+256)
  2089  0038  0141               	movlb	1	; select bank1
  2090  0039  082B               	movf	(logf@x+3)^(0+128),w
  2091  003A  0142               	movlb	2	; select bank2
  2092  003B  00D9               	movwf	(logf@u+3)^(0+256)
  2093  003C  0141               	movlb	1	; select bank1
  2094  003D  082A               	movf	(logf@x+2)^(0+128),w
  2095  003E  0142               	movlb	2	; select bank2
  2096  003F  00D8               	movwf	(logf@u+2)^(0+256)
  2097  0040  0141               	movlb	1	; select bank1
  2098  0041  0829               	movf	(logf@x+1)^(0+128),w
  2099  0042  0142               	movlb	2	; select bank2
  2100  0043  00D7               	movwf	(logf@u+1)^(0+256)
  2101  0044  0141               	movlb	1	; select bank1
  2102  0045  0828               	movf	logf@x^(0+128),w
  2103  0046  0142               	movlb	2	; select bank2
  2104  0047  00D6               	movwf	logf@u^(0+256)
  2105  0048  0859               	movf	(logf@u+3)^(0+256),w
  2106  0049  00E1               	movwf	(logf@ix+3)^(0+256)
  2107  004A  0858               	movf	(logf@u+2)^(0+256),w
  2108  004B  00E0               	movwf	(logf@ix+2)^(0+256)
  2109  004C  0857               	movf	(logf@u+1)^(0+256),w
  2110  004D  00DF               	movwf	(logf@ix+1)^(0+256)
  2111  004E  0856               	movf	logf@u^(0+256),w
  2112  004F  00DE               	movwf	logf@ix^(0+256)
  2113  0050                     l2675:	
  2114  0050  01BC               	clrf	logf@k^(0+256)
  2115  0051  01BD               	clrf	(logf@k+1)^(0+256)
  2116  0052                     l2677:	
  2117  0052  0861               	movf	(logf@ix+3)^(0+256),w
  2118  0053  1D03               	btfss	3,2
  2119  0054  285B               	goto	u3600
  2120  0055  3080               	movlw	128
  2121  0056  0260               	subwf	(logf@ix+2)^(0+256),w
  2122  0057  1C03               	btfss	3,0
  2123  0058  285A               	goto	u3601
  2124  0059  285B               	goto	u3600
  2125  005A                     u3601:	
  2126  005A  2879               	goto	l2681
  2127  005B                     u3600:	
  2128  005B                     l2679:	
  2129  005B  085E               	movf	logf@ix^(0+256),w
  2130  005C  0141               	movlb	1	; select bank1
  2131  005D  00AC               	movwf	??_logf^(0+128)
  2132  005E  0142               	movlb	2	; select bank2
  2133  005F  085F               	movf	(logf@ix+1)^(0+256),w
  2134  0060  0141               	movlb	1	; select bank1
  2135  0061  00AD               	movwf	(??_logf^(0+128)+1)
  2136  0062  0142               	movlb	2	; select bank2
  2137  0063  0860               	movf	(logf@ix+2)^(0+256),w
  2138  0064  0141               	movlb	1	; select bank1
  2139  0065  00AE               	movwf	(??_logf^(0+128)+2)
  2140  0066  0142               	movlb	2	; select bank2
  2141  0067  0861               	movf	(logf@ix+3)^(0+256),w
  2142  0068  0141               	movlb	1	; select bank1
  2143  0069  00AF               	movwf	(??_logf^(0+128)+3)
  2144  006A  301F               	movlw	31
  2145  006B                     u3615:	
  2146  006B  36AF               	lsrf	(??_logf^(0+128)+3),f
  2147  006C  0CAE               	rrf	(??_logf^(0+128)+2),f
  2148  006D  0CAD               	rrf	(??_logf^(0+128)+1),f
  2149  006E  0CAC               	rrf	??_logf^(0+128),f
  2150  006F                     u3610:	
  2151  006F  0B89               	decfsz	9,f
  2152  0070  286B               	goto	u3615
  2153  0071  082F               	movf	(??_logf+3)^(0+128),w
  2154  0072  042E               	iorwf	(??_logf+2)^(0+128),w
  2155  0073  042D               	iorwf	(??_logf+1)^(0+128),w
  2156  0074  042C               	iorwf	??_logf^(0+128),w
  2157  0075  1903               	skipnz
  2158  0076  2878               	goto	u3621
  2159  0077  2879               	goto	u3620
  2160  0078                     u3621:	
  2161  0078  2988               	goto	l2701
  2162  0079                     u3620:	
  2163  0079                     l2681:	
  2164  0079  0142               	movlb	2	; select bank2
  2165  007A  085E               	movf	logf@ix^(0+256),w
  2166  007B  0141               	movlb	1	; select bank1
  2167  007C  00AC               	movwf	??_logf^(0+128)
  2168  007D  0142               	movlb	2	; select bank2
  2169  007E  085F               	movf	(logf@ix+1)^(0+256),w
  2170  007F  0141               	movlb	1	; select bank1
  2171  0080  00AD               	movwf	(??_logf^(0+128)+1)
  2172  0081  0142               	movlb	2	; select bank2
  2173  0082  0860               	movf	(logf@ix+2)^(0+256),w
  2174  0083  0141               	movlb	1	; select bank1
  2175  0084  00AE               	movwf	(??_logf^(0+128)+2)
  2176  0085  0142               	movlb	2	; select bank2
  2177  0086  0861               	movf	(logf@ix+3)^(0+256),w
  2178  0087  0141               	movlb	1	; select bank1
  2179  0088  00AF               	movwf	(??_logf^(0+128)+3)
  2180  0089  3001               	movlw	1
  2181  008A                     u3635:	
  2182  008A  35AC               	lslf	??_logf^(0+128),f
  2183  008B  0DAD               	rlf	(??_logf^(0+128)+1),f
  2184  008C  0DAE               	rlf	(??_logf^(0+128)+2),f
  2185  008D  0DAF               	rlf	(??_logf^(0+128)+3),f
  2186  008E                     u3630:	
  2187  008E  0B89               	decfsz	9,f
  2188  008F  288A               	goto	u3635
  2189  0090  082F               	movf	(??_logf+3)^(0+128),w
  2190  0091  042E               	iorwf	(??_logf+2)^(0+128),w
  2191  0092  042D               	iorwf	(??_logf+1)^(0+128),w
  2192  0093  042C               	iorwf	??_logf^(0+128),w
  2193  0094  1D03               	skipz
  2194  0095  2897               	goto	u3641
  2195  0096  2898               	goto	u3640
  2196  0097                     u3641:	
  2197  0097  28DF               	goto	l2687
  2198  0098                     u3640:	
  2199  0098                     l2683:	
  2200  0098  082B               	movf	(logf@x+3)^(0+128),w
  2201  0099  0140               	movlb	0	; select bank0
  2202  009A  00A9               	movwf	___flmul@b+3
  2203  009B  0141               	movlb	1	; select bank1
  2204  009C  082A               	movf	(logf@x+2)^(0+128),w
  2205  009D  0140               	movlb	0	; select bank0
  2206  009E  00A8               	movwf	___flmul@b+2
  2207  009F  0141               	movlb	1	; select bank1
  2208  00A0  0829               	movf	(logf@x+1)^(0+128),w
  2209  00A1  0140               	movlb	0	; select bank0
  2210  00A2  00A7               	movwf	___flmul@b+1
  2211  00A3  0141               	movlb	1	; select bank1
  2212  00A4  0828               	movf	logf@x^(0+128),w
  2213  00A5  0140               	movlb	0	; select bank0
  2214  00A6  00A6               	movwf	___flmul@b
  2215  00A7  0141               	movlb	1	; select bank1
  2216  00A8  082B               	movf	(logf@x+3)^(0+128),w
  2217  00A9  0140               	movlb	0	; select bank0
  2218  00AA  00AD               	movwf	___flmul@a+3
  2219  00AB  0141               	movlb	1	; select bank1
  2220  00AC  082A               	movf	(logf@x+2)^(0+128),w
  2221  00AD  0140               	movlb	0	; select bank0
  2222  00AE  00AC               	movwf	___flmul@a+2
  2223  00AF  0141               	movlb	1	; select bank1
  2224  00B0  0829               	movf	(logf@x+1)^(0+128),w
  2225  00B1  0140               	movlb	0	; select bank0
  2226  00B2  00AB               	movwf	___flmul@a+1
  2227  00B3  0141               	movlb	1	; select bank1
  2228  00B4  0828               	movf	logf@x^(0+128),w
  2229  00B5  0140               	movlb	0	; select bank0
  2230  00B6  00AA               	movwf	___flmul@a
  2231  00B7  318D  25A9  3180   	fcall	___flmul
  2232  00BA  0140               	movlb	0	; select bank0
  2233  00BB  0829               	movf	?___flmul+3,w
  2234  00BC  00C3               	movwf	___fldiv@a+3
  2235  00BD  0828               	movf	?___flmul+2,w
  2236  00BE  00C2               	movwf	___fldiv@a+2
  2237  00BF  0827               	movf	?___flmul+1,w
  2238  00C0  00C1               	movwf	___fldiv@a+1
  2239  00C1  0826               	movf	?___flmul,w
  2240  00C2  00C0               	movwf	___fldiv@a
  2241  00C3  30BF               	movlw	191
  2242  00C4  00C7               	movwf	___fldiv@b+3
  2243  00C5  3080               	movlw	128
  2244  00C6  00C6               	movwf	___fldiv@b+2
  2245  00C7  3000               	movlw	0
  2246  00C8  00C5               	movwf	___fldiv@b+1
  2247  00C9  3000               	movlw	0
  2248  00CA  00C4               	movwf	___fldiv@b
  2249  00CB  3189  21BD  3180   	fcall	___fldiv
  2250  00CE  0140               	movlb	0	; select bank0
  2251  00CF  0843               	movf	?___fldiv+3,w
  2252  00D0  0141               	movlb	1	; select bank1
  2253  00D1  00AB               	movwf	(?_logf+3)^(0+128)
  2254  00D2  0140               	movlb	0	; select bank0
  2255  00D3  0842               	movf	?___fldiv+2,w
  2256  00D4  0141               	movlb	1	; select bank1
  2257  00D5  00AA               	movwf	(?_logf+2)^(0+128)
  2258  00D6  0140               	movlb	0	; select bank0
  2259  00D7  0841               	movf	?___fldiv+1,w
  2260  00D8  0141               	movlb	1	; select bank1
  2261  00D9  00A9               	movwf	(?_logf+1)^(0+128)
  2262  00DA  0140               	movlb	0	; select bank0
  2263  00DB  0840               	movf	?___fldiv,w
  2264  00DC  0141               	movlb	1	; select bank1
  2265  00DD  00A8               	movwf	?_logf^(0+128)
  2266  00DE  2DC1               	goto	l718
  2267  00DF                     l2687:	
  2268  00DF  0142               	movlb	2	; select bank2
  2269  00E0  085E               	movf	logf@ix^(0+256),w
  2270  00E1  0141               	movlb	1	; select bank1
  2271  00E2  00AC               	movwf	??_logf^(0+128)
  2272  00E3  0142               	movlb	2	; select bank2
  2273  00E4  085F               	movf	(logf@ix+1)^(0+256),w
  2274  00E5  0141               	movlb	1	; select bank1
  2275  00E6  00AD               	movwf	(??_logf^(0+128)+1)
  2276  00E7  0142               	movlb	2	; select bank2
  2277  00E8  0860               	movf	(logf@ix+2)^(0+256),w
  2278  00E9  0141               	movlb	1	; select bank1
  2279  00EA  00AE               	movwf	(??_logf^(0+128)+2)
  2280  00EB  0142               	movlb	2	; select bank2
  2281  00EC  0861               	movf	(logf@ix+3)^(0+256),w
  2282  00ED  0141               	movlb	1	; select bank1
  2283  00EE  00AF               	movwf	(??_logf^(0+128)+3)
  2284  00EF  301F               	movlw	31
  2285  00F0                     u3655:	
  2286  00F0  36AF               	lsrf	(??_logf^(0+128)+3),f
  2287  00F1  0CAE               	rrf	(??_logf^(0+128)+2),f
  2288  00F2  0CAD               	rrf	(??_logf^(0+128)+1),f
  2289  00F3  0CAC               	rrf	??_logf^(0+128),f
  2290  00F4                     u3650:	
  2291  00F4  0B89               	decfsz	9,f
  2292  00F5  28F0               	goto	u3655
  2293  00F6  082F               	movf	(??_logf+3)^(0+128),w
  2294  00F7  042E               	iorwf	(??_logf+2)^(0+128),w
  2295  00F8  042D               	iorwf	(??_logf+1)^(0+128),w
  2296  00F9  042C               	iorwf	??_logf^(0+128),w
  2297  00FA  1903               	skipnz
  2298  00FB  28FD               	goto	u3661
  2299  00FC  28FE               	goto	u3660
  2300  00FD                     u3661:	
  2301  00FD  293F               	goto	l2693
  2302  00FE                     u3660:	
  2303  00FE                     l2689:	
  2304  00FE  3000               	movlw	0
  2305  00FF  0140               	movlb	0	; select bank0
  2306  0100  00C3               	movwf	___fldiv@a+3
  2307  0101  3000               	movlw	0
  2308  0102  00C2               	movwf	___fldiv@a+2
  2309  0103  3000               	movlw	0
  2310  0104  00C1               	movwf	___fldiv@a+1
  2311  0105  3000               	movlw	0
  2312  0106  00C0               	movwf	___fldiv@a
  2313  0107  0141               	movlb	1	; select bank1
  2314  0108  082B               	movf	(logf@x+3)^(0+128),w
  2315  0109  00A3               	movwf	(___flsub@a+3)^(0+128)
  2316  010A  082A               	movf	(logf@x+2)^(0+128),w
  2317  010B  00A2               	movwf	(___flsub@a+2)^(0+128)
  2318  010C  0829               	movf	(logf@x+1)^(0+128),w
  2319  010D  00A1               	movwf	(___flsub@a+1)^(0+128)
  2320  010E  0828               	movf	logf@x^(0+128),w
  2321  010F  00A0               	movwf	___flsub@a^(0+128)
  2322  0110  082B               	movf	(logf@x+3)^(0+128),w
  2323  0111  00A7               	movwf	(___flsub@b+3)^(0+128)
  2324  0112  082A               	movf	(logf@x+2)^(0+128),w
  2325  0113  00A6               	movwf	(___flsub@b+2)^(0+128)
  2326  0114  0829               	movf	(logf@x+1)^(0+128),w
  2327  0115  00A5               	movwf	(___flsub@b+1)^(0+128)
  2328  0116  0828               	movf	logf@x^(0+128),w
  2329  0117  00A4               	movwf	___flsub@b^(0+128)
  2330  0118  3197  2700  3180   	fcall	___flsub
  2331  011B  0141               	movlb	1	; select bank1
  2332  011C  0823               	movf	(?___flsub+3)^(0+128),w
  2333  011D  0140               	movlb	0	; select bank0
  2334  011E  00C7               	movwf	___fldiv@b+3
  2335  011F  0141               	movlb	1	; select bank1
  2336  0120  0822               	movf	(?___flsub+2)^(0+128),w
  2337  0121  0140               	movlb	0	; select bank0
  2338  0122  00C6               	movwf	___fldiv@b+2
  2339  0123  0141               	movlb	1	; select bank1
  2340  0124  0821               	movf	(?___flsub+1)^(0+128),w
  2341  0125  0140               	movlb	0	; select bank0
  2342  0126  00C5               	movwf	___fldiv@b+1
  2343  0127  0141               	movlb	1	; select bank1
  2344  0128  0820               	movf	?___flsub^(0+128),w
  2345  0129  0140               	movlb	0	; select bank0
  2346  012A  00C4               	movwf	___fldiv@b
  2347  012B  3189  21BD  3180   	fcall	___fldiv
  2348  012E  0140               	movlb	0	; select bank0
  2349  012F  0843               	movf	?___fldiv+3,w
  2350  0130  0141               	movlb	1	; select bank1
  2351  0131  00AB               	movwf	(?_logf+3)^(0+128)
  2352  0132  0140               	movlb	0	; select bank0
  2353  0133  0842               	movf	?___fldiv+2,w
  2354  0134  0141               	movlb	1	; select bank1
  2355  0135  00AA               	movwf	(?_logf+2)^(0+128)
  2356  0136  0140               	movlb	0	; select bank0
  2357  0137  0841               	movf	?___fldiv+1,w
  2358  0138  0141               	movlb	1	; select bank1
  2359  0139  00A9               	movwf	(?_logf+1)^(0+128)
  2360  013A  0140               	movlb	0	; select bank0
  2361  013B  0840               	movf	?___fldiv,w
  2362  013C  0141               	movlb	1	; select bank1
  2363  013D  00A8               	movwf	?_logf^(0+128)
  2364  013E  2DC1               	goto	l718
  2365  013F                     l2693:	
  2366  013F  30E7               	movlw	231
  2367  0140  0142               	movlb	2	; select bank2
  2368  0141  07BC               	addwf	logf@k^(0+256),f
  2369  0142  30FF               	movlw	255
  2370  0143  3DBD               	addwfc	(logf@k+1)^(0+256),f
  2371  0144                     l2695:	
  2372  0144  304C               	movlw	76
  2373  0145  0140               	movlb	0	; select bank0
  2374  0146  00A9               	movwf	___flmul@b+3
  2375  0147  3000               	movlw	0
  2376  0148  00A8               	movwf	___flmul@b+2
  2377  0149  3000               	movlw	0
  2378  014A  00A7               	movwf	___flmul@b+1
  2379  014B  3000               	movlw	0
  2380  014C  00A6               	movwf	___flmul@b
  2381  014D  0141               	movlb	1	; select bank1
  2382  014E  082B               	movf	(logf@x+3)^(0+128),w
  2383  014F  0140               	movlb	0	; select bank0
  2384  0150  00AD               	movwf	___flmul@a+3
  2385  0151  0141               	movlb	1	; select bank1
  2386  0152  082A               	movf	(logf@x+2)^(0+128),w
  2387  0153  0140               	movlb	0	; select bank0
  2388  0154  00AC               	movwf	___flmul@a+2
  2389  0155  0141               	movlb	1	; select bank1
  2390  0156  0829               	movf	(logf@x+1)^(0+128),w
  2391  0157  0140               	movlb	0	; select bank0
  2392  0158  00AB               	movwf	___flmul@a+1
  2393  0159  0141               	movlb	1	; select bank1
  2394  015A  0828               	movf	logf@x^(0+128),w
  2395  015B  0140               	movlb	0	; select bank0
  2396  015C  00AA               	movwf	___flmul@a
  2397  015D  318D  25A9  3180   	fcall	___flmul
  2398  0160  0140               	movlb	0	; select bank0
  2399  0161  0829               	movf	?___flmul+3,w
  2400  0162  0141               	movlb	1	; select bank1
  2401  0163  00AB               	movwf	(logf@x+3)^(0+128)
  2402  0164  0140               	movlb	0	; select bank0
  2403  0165  0828               	movf	?___flmul+2,w
  2404  0166  0141               	movlb	1	; select bank1
  2405  0167  00AA               	movwf	(logf@x+2)^(0+128)
  2406  0168  0140               	movlb	0	; select bank0
  2407  0169  0827               	movf	?___flmul+1,w
  2408  016A  0141               	movlb	1	; select bank1
  2409  016B  00A9               	movwf	(logf@x+1)^(0+128)
  2410  016C  0140               	movlb	0	; select bank0
  2411  016D  0826               	movf	?___flmul,w
  2412  016E  0141               	movlb	1	; select bank1
  2413  016F  00A8               	movwf	logf@x^(0+128)
  2414  0170                     l2697:	
  2415  0170  082B               	movf	(logf@x+3)^(0+128),w
  2416  0171  0142               	movlb	2	; select bank2
  2417  0172  00D9               	movwf	(logf@u+3)^(0+256)
  2418  0173  0141               	movlb	1	; select bank1
  2419  0174  082A               	movf	(logf@x+2)^(0+128),w
  2420  0175  0142               	movlb	2	; select bank2
  2421  0176  00D8               	movwf	(logf@u+2)^(0+256)
  2422  0177  0141               	movlb	1	; select bank1
  2423  0178  0829               	movf	(logf@x+1)^(0+128),w
  2424  0179  0142               	movlb	2	; select bank2
  2425  017A  00D7               	movwf	(logf@u+1)^(0+256)
  2426  017B  0141               	movlb	1	; select bank1
  2427  017C  0828               	movf	logf@x^(0+128),w
  2428  017D  0142               	movlb	2	; select bank2
  2429  017E  00D6               	movwf	logf@u^(0+256)
  2430  017F                     l2699:	
  2431  017F  0859               	movf	(logf@u+3)^(0+256),w
  2432  0180  00E1               	movwf	(logf@ix+3)^(0+256)
  2433  0181  0858               	movf	(logf@u+2)^(0+256),w
  2434  0182  00E0               	movwf	(logf@ix+2)^(0+256)
  2435  0183  0857               	movf	(logf@u+1)^(0+256),w
  2436  0184  00DF               	movwf	(logf@ix+1)^(0+256)
  2437  0185  0856               	movf	logf@u^(0+256),w
  2438  0186  00DE               	movwf	logf@ix^(0+256)
  2439  0187  29A7               	goto	l2713
  2440  0188                     l2701:	
  2441  0188  3080               	movlw	128
  2442  0189  0142               	movlb	2	; select bank2
  2443  018A  0260               	subwf	(logf@ix+2)^(0+256),w
  2444  018B  307F               	movlw	127
  2445  018C  3B61               	subwfb	(logf@ix+3)^(0+256),w
  2446  018D  1C03               	btfss	3,0
  2447  018E  2990               	goto	u3671
  2448  018F  2991               	goto	u3670
  2449  0190                     u3671:	
  2450  0190  2992               	goto	l2707
  2451  0191                     u3670:	
  2452  0191                     l2703:	
  2453  0191  2DC1               	goto	l718
  2454  0192                     l2707:	
  2455  0192  3080               	movlw	128
  2456  0193  0660               	xorwf	(logf@ix+2)^(0+256),w
  2457  0194  303F               	movlw	63
  2458  0195  1903               	skipnz
  2459  0196  0661               	xorwf	(logf@ix+3)^(0+256),w
  2460  0197  045E               	iorwf	logf@ix^(0+256),w
  2461  0198  045F               	iorwf	(logf@ix+1)^(0+256),w
  2462  0199  1D03               	btfss	3,2
  2463  019A  299C               	goto	u3681
  2464  019B  299D               	goto	u3680
  2465  019C                     u3681:	
  2466  019C  29A7               	goto	l2713
  2467  019D                     u3680:	
  2468  019D                     l2709:	
  2469  019D  3000               	movlw	0
  2470  019E  0141               	movlb	1	; select bank1
  2471  019F  00AB               	movwf	(?_logf+3)^(0+128)
  2472  01A0  3000               	movlw	0
  2473  01A1  00AA               	movwf	(?_logf+2)^(0+128)
  2474  01A2  3000               	movlw	0
  2475  01A3  00A9               	movwf	(?_logf+1)^(0+128)
  2476  01A4  3000               	movlw	0
  2477  01A5  00A8               	movwf	?_logf^(0+128)
  2478  01A6  2DC1               	goto	l718
  2479  01A7                     l2713:	
  2480  01A7  300D               	movlw	13
  2481  01A8  07DE               	addwf	logf@ix^(0+256),f
  2482  01A9  30FB               	movlw	251
  2483  01AA  3DDF               	addwfc	(logf@ix+1)^(0+256),f
  2484  01AB  304A               	movlw	74
  2485  01AC  3DE0               	addwfc	(logf@ix+2)^(0+256),f
  2486  01AD  3000               	movlw	0
  2487  01AE  3DE1               	addwfc	(logf@ix+3)^(0+256),f
  2488  01AF                     l2715:	
  2489  01AF  085E               	movf	logf@ix^(0+256),w
  2490  01B0  0141               	movlb	1	; select bank1
  2491  01B1  00AC               	movwf	??_logf^(0+128)
  2492  01B2  0142               	movlb	2	; select bank2
  2493  01B3  085F               	movf	(logf@ix+1)^(0+256),w
  2494  01B4  0141               	movlb	1	; select bank1
  2495  01B5  00AD               	movwf	(??_logf^(0+128)+1)
  2496  01B6  0142               	movlb	2	; select bank2
  2497  01B7  0860               	movf	(logf@ix+2)^(0+256),w
  2498  01B8  0141               	movlb	1	; select bank1
  2499  01B9  00AE               	movwf	(??_logf^(0+128)+2)
  2500  01BA  0142               	movlb	2	; select bank2
  2501  01BB  0861               	movf	(logf@ix+3)^(0+256),w
  2502  01BC  0141               	movlb	1	; select bank1
  2503  01BD  00AF               	movwf	(??_logf^(0+128)+3)
  2504  01BE  3017               	movlw	23
  2505  01BF                     u3695:	
  2506  01BF  36AF               	lsrf	(??_logf^(0+128)+3),f
  2507  01C0  0CAE               	rrf	(??_logf^(0+128)+2),f
  2508  01C1  0CAD               	rrf	(??_logf^(0+128)+1),f
  2509  01C2  0CAC               	rrf	??_logf^(0+128),f
  2510  01C3                     u3690:	
  2511  01C3  0B89               	decfsz	9,f
  2512  01C4  29BF               	goto	u3695
  2513  01C5  082C               	movf	??_logf^(0+128),w
  2514  01C6  3E81               	addlw	129
  2515  01C7  00B0               	movwf	(??_logf+4)^(0+128)
  2516  01C8  30FF               	movlw	255
  2517  01C9  3D2D               	addwfc	(??_logf+1)^(0+128),w
  2518  01CA  00B1               	movwf	(??_logf+5)^(0+128)
  2519  01CB  0830               	movf	(??_logf+4)^(0+128),w
  2520  01CC  0142               	movlb	2	; select bank2
  2521  01CD  07BC               	addwf	logf@k^(0+256),f
  2522  01CE  0141               	movlb	1	; select bank1
  2523  01CF  0831               	movf	(??_logf+5)^(0+128),w
  2524  01D0  0142               	movlb	2	; select bank2
  2525  01D1  3DBD               	addwfc	(logf@k+1)^(0+256),f
  2526  01D2                     l2717:	
  2527  01D2  30F3               	movlw	243
  2528  01D3  0141               	movlb	1	; select bank1
  2529  01D4  00AC               	movwf	??_logf^(0+128)
  2530  01D5  3004               	movlw	4
  2531  01D6  00AD               	movwf	(??_logf^(0+128)+1)
  2532  01D7  3035               	movlw	53
  2533  01D8  00AE               	movwf	(??_logf^(0+128)+2)
  2534  01D9  303F               	movlw	63
  2535  01DA  00AF               	movwf	(??_logf^(0+128)+3)
  2536  01DB  30FF               	movlw	255
  2537  01DC  0142               	movlb	2	; select bank2
  2538  01DD  055E               	andwf	logf@ix^(0+256),w
  2539  01DE  0141               	movlb	1	; select bank1
  2540  01DF  00B0               	movwf	(??_logf+4)^(0+128)
  2541  01E0  30FF               	movlw	255
  2542  01E1  0142               	movlb	2	; select bank2
  2543  01E2  055F               	andwf	(logf@ix+1)^(0+256),w
  2544  01E3  0141               	movlb	1	; select bank1
  2545  01E4  00B1               	movwf	((??_logf+4)^(0+128)+1)
  2546  01E5  307F               	movlw	127
  2547  01E6  0142               	movlb	2	; select bank2
  2548  01E7  0560               	andwf	(logf@ix+2)^(0+256),w
  2549  01E8  0141               	movlb	1	; select bank1
  2550  01E9  00B2               	movwf	((??_logf+4)^(0+128)+2)
  2551  01EA  3000               	movlw	0
  2552  01EB  0142               	movlb	2	; select bank2
  2553  01EC  0561               	andwf	(logf@ix+3)^(0+256),w
  2554  01ED  0141               	movlb	1	; select bank1
  2555  01EE  00B3               	movwf	((??_logf+4)^(0+128)+3)
  2556  01EF  0830               	movf	(??_logf+4)^(0+128),w
  2557  01F0  07AC               	addwf	??_logf^(0+128),f
  2558  01F1  0831               	movf	(??_logf+5)^(0+128),w
  2559  01F2  3DAD               	addwfc	(??_logf^(0+128)+1),f
  2560  01F3  0832               	movf	(??_logf+6)^(0+128),w
  2561  01F4  3DAE               	addwfc	(??_logf^(0+128)+2),f
  2562  01F5  0833               	movf	(??_logf+7)^(0+128),w
  2563  01F6  3DAF               	addwfc	(??_logf^(0+128)+3),f
  2564  01F7  082F               	movf	(??_logf+3)^(0+128),w
  2565  01F8  0142               	movlb	2	; select bank2
  2566  01F9  00E1               	movwf	(logf@ix+3)^(0+256)
  2567  01FA  0141               	movlb	1	; select bank1
  2568  01FB  082E               	movf	(??_logf+2)^(0+128),w
  2569  01FC  0142               	movlb	2	; select bank2
  2570  01FD  00E0               	movwf	(logf@ix+2)^(0+256)
  2571  01FE  0141               	movlb	1	; select bank1
  2572  01FF  082D               	movf	(??_logf+1)^(0+128),w
  2573  0200  0142               	movlb	2	; select bank2
  2574  0201  00DF               	movwf	(logf@ix+1)^(0+256)
  2575  0202  0141               	movlb	1	; select bank1
  2576  0203  082C               	movf	??_logf^(0+128),w
  2577  0204  0142               	movlb	2	; select bank2
  2578  0205  00DE               	movwf	logf@ix^(0+256)
  2579  0206                     l2719:	
  2580  0206  0861               	movf	(logf@ix+3)^(0+256),w
  2581  0207  00D9               	movwf	(logf@u+3)^(0+256)
  2582  0208  0860               	movf	(logf@ix+2)^(0+256),w
  2583  0209  00D8               	movwf	(logf@u+2)^(0+256)
  2584  020A  085F               	movf	(logf@ix+1)^(0+256),w
  2585  020B  00D7               	movwf	(logf@u+1)^(0+256)
  2586  020C  085E               	movf	logf@ix^(0+256),w
  2587  020D  00D6               	movwf	logf@u^(0+256)
  2588  020E                     l2721:	
  2589  020E  0859               	movf	(logf@u+3)^(0+256),w
  2590  020F  0141               	movlb	1	; select bank1
  2591  0210  00AB               	movwf	(logf@x+3)^(0+128)
  2592  0211  0142               	movlb	2	; select bank2
  2593  0212  0858               	movf	(logf@u+2)^(0+256),w
  2594  0213  0141               	movlb	1	; select bank1
  2595  0214  00AA               	movwf	(logf@x+2)^(0+128)
  2596  0215  0142               	movlb	2	; select bank2
  2597  0216  0857               	movf	(logf@u+1)^(0+256),w
  2598  0217  0141               	movlb	1	; select bank1
  2599  0218  00A9               	movwf	(logf@x+1)^(0+128)
  2600  0219  0142               	movlb	2	; select bank2
  2601  021A  0856               	movf	logf@u^(0+256),w
  2602  021B  0141               	movlb	1	; select bank1
  2603  021C  00A8               	movwf	logf@x^(0+128)
  2604  021D                     l2723:	
  2605  021D  30BF               	movlw	191
  2606  021E  0140               	movlb	0	; select bank0
  2607  021F  00DD               	movwf	___fladd@b+3
  2608  0220  3080               	movlw	128
  2609  0221  00DC               	movwf	___fladd@b+2
  2610  0222  3000               	movlw	0
  2611  0223  00DB               	movwf	___fladd@b+1
  2612  0224  3000               	movlw	0
  2613  0225  00DA               	movwf	___fladd@b
  2614  0226  0141               	movlb	1	; select bank1
  2615  0227  082B               	movf	(logf@x+3)^(0+128),w
  2616  0228  0140               	movlb	0	; select bank0
  2617  0229  00E1               	movwf	___fladd@a+3
  2618  022A  0141               	movlb	1	; select bank1
  2619  022B  082A               	movf	(logf@x+2)^(0+128),w
  2620  022C  0140               	movlb	0	; select bank0
  2621  022D  00E0               	movwf	___fladd@a+2
  2622  022E  0141               	movlb	1	; select bank1
  2623  022F  0829               	movf	(logf@x+1)^(0+128),w
  2624  0230  0140               	movlb	0	; select bank0
  2625  0231  00DF               	movwf	___fladd@a+1
  2626  0232  0141               	movlb	1	; select bank1
  2627  0233  0828               	movf	logf@x^(0+128),w
  2628  0234  0140               	movlb	0	; select bank0
  2629  0235  00DE               	movwf	___fladd@a
  2630  0236  318B  2371  3180   	fcall	___fladd
  2631  0239  0140               	movlb	0	; select bank0
  2632  023A  085D               	movf	?___fladd+3,w
  2633  023B  0142               	movlb	2	; select bank2
  2634  023C  00DD               	movwf	(logf@f+3)^(0+256)
  2635  023D  0140               	movlb	0	; select bank0
  2636  023E  085C               	movf	?___fladd+2,w
  2637  023F  0142               	movlb	2	; select bank2
  2638  0240  00DC               	movwf	(logf@f+2)^(0+256)
  2639  0241  0140               	movlb	0	; select bank0
  2640  0242  085B               	movf	?___fladd+1,w
  2641  0243  0142               	movlb	2	; select bank2
  2642  0244  00DB               	movwf	(logf@f+1)^(0+256)
  2643  0245  0140               	movlb	0	; select bank0
  2644  0246  085A               	movf	?___fladd,w
  2645  0247  0142               	movlb	2	; select bank2
  2646  0248  00DA               	movwf	logf@f^(0+256)
  2647  0249                     l2725:	
  2648  0249  3040               	movlw	64
  2649  024A  0140               	movlb	0	; select bank0
  2650  024B  00DD               	movwf	___fladd@b+3
  2651  024C  3000               	movlw	0
  2652  024D  00DC               	movwf	___fladd@b+2
  2653  024E  3000               	movlw	0
  2654  024F  00DB               	movwf	___fladd@b+1
  2655  0250  3000               	movlw	0
  2656  0251  00DA               	movwf	___fladd@b
  2657  0252  0142               	movlb	2	; select bank2
  2658  0253  085D               	movf	(logf@f+3)^(0+256),w
  2659  0254  0140               	movlb	0	; select bank0
  2660  0255  00E1               	movwf	___fladd@a+3
  2661  0256  0142               	movlb	2	; select bank2
  2662  0257  085C               	movf	(logf@f+2)^(0+256),w
  2663  0258  0140               	movlb	0	; select bank0
  2664  0259  00E0               	movwf	___fladd@a+2
  2665  025A  0142               	movlb	2	; select bank2
  2666  025B  085B               	movf	(logf@f+1)^(0+256),w
  2667  025C  0140               	movlb	0	; select bank0
  2668  025D  00DF               	movwf	___fladd@a+1
  2669  025E  0142               	movlb	2	; select bank2
  2670  025F  085A               	movf	logf@f^(0+256),w
  2671  0260  0140               	movlb	0	; select bank0
  2672  0261  00DE               	movwf	___fladd@a
  2673  0262  318B  2371  3180   	fcall	___fladd
  2674  0265  0140               	movlb	0	; select bank0
  2675  0266  085D               	movf	?___fladd+3,w
  2676  0267  00C3               	movwf	___fldiv@a+3
  2677  0268  085C               	movf	?___fladd+2,w
  2678  0269  00C2               	movwf	___fldiv@a+2
  2679  026A  085B               	movf	?___fladd+1,w
  2680  026B  00C1               	movwf	___fldiv@a+1
  2681  026C  085A               	movf	?___fladd,w
  2682  026D  00C0               	movwf	___fldiv@a
  2683  026E  0142               	movlb	2	; select bank2
  2684  026F  085D               	movf	(logf@f+3)^(0+256),w
  2685  0270  0140               	movlb	0	; select bank0
  2686  0271  00C7               	movwf	___fldiv@b+3
  2687  0272  0142               	movlb	2	; select bank2
  2688  0273  085C               	movf	(logf@f+2)^(0+256),w
  2689  0274  0140               	movlb	0	; select bank0
  2690  0275  00C6               	movwf	___fldiv@b+2
  2691  0276  0142               	movlb	2	; select bank2
  2692  0277  085B               	movf	(logf@f+1)^(0+256),w
  2693  0278  0140               	movlb	0	; select bank0
  2694  0279  00C5               	movwf	___fldiv@b+1
  2695  027A  0142               	movlb	2	; select bank2
  2696  027B  085A               	movf	logf@f^(0+256),w
  2697  027C  0140               	movlb	0	; select bank0
  2698  027D  00C4               	movwf	___fldiv@b
  2699  027E  3189  21BD  3180   	fcall	___fldiv
  2700  0281  0140               	movlb	0	; select bank0
  2701  0282  0843               	movf	?___fldiv+3,w
  2702  0283  0142               	movlb	2	; select bank2
  2703  0284  00C9               	movwf	(logf@s+3)^(0+256)
  2704  0285  0140               	movlb	0	; select bank0
  2705  0286  0842               	movf	?___fldiv+2,w
  2706  0287  0142               	movlb	2	; select bank2
  2707  0288  00C8               	movwf	(logf@s+2)^(0+256)
  2708  0289  0140               	movlb	0	; select bank0
  2709  028A  0841               	movf	?___fldiv+1,w
  2710  028B  0142               	movlb	2	; select bank2
  2711  028C  00C7               	movwf	(logf@s+1)^(0+256)
  2712  028D  0140               	movlb	0	; select bank0
  2713  028E  0840               	movf	?___fldiv,w
  2714  028F  0142               	movlb	2	; select bank2
  2715  0290  00C6               	movwf	logf@s^(0+256)
  2716  0291                     l2727:	
  2717  0291  0849               	movf	(logf@s+3)^(0+256),w
  2718  0292  0140               	movlb	0	; select bank0
  2719  0293  00A9               	movwf	___flmul@b+3
  2720  0294  0142               	movlb	2	; select bank2
  2721  0295  0848               	movf	(logf@s+2)^(0+256),w
  2722  0296  0140               	movlb	0	; select bank0
  2723  0297  00A8               	movwf	___flmul@b+2
  2724  0298  0142               	movlb	2	; select bank2
  2725  0299  0847               	movf	(logf@s+1)^(0+256),w
  2726  029A  0140               	movlb	0	; select bank0
  2727  029B  00A7               	movwf	___flmul@b+1
  2728  029C  0142               	movlb	2	; select bank2
  2729  029D  0846               	movf	logf@s^(0+256),w
  2730  029E  0140               	movlb	0	; select bank0
  2731  029F  00A6               	movwf	___flmul@b
  2732  02A0  0142               	movlb	2	; select bank2
  2733  02A1  0849               	movf	(logf@s+3)^(0+256),w
  2734  02A2  0140               	movlb	0	; select bank0
  2735  02A3  00AD               	movwf	___flmul@a+3
  2736  02A4  0142               	movlb	2	; select bank2
  2737  02A5  0848               	movf	(logf@s+2)^(0+256),w
  2738  02A6  0140               	movlb	0	; select bank0
  2739  02A7  00AC               	movwf	___flmul@a+2
  2740  02A8  0142               	movlb	2	; select bank2
  2741  02A9  0847               	movf	(logf@s+1)^(0+256),w
  2742  02AA  0140               	movlb	0	; select bank0
  2743  02AB  00AB               	movwf	___flmul@a+1
  2744  02AC  0142               	movlb	2	; select bank2
  2745  02AD  0846               	movf	logf@s^(0+256),w
  2746  02AE  0140               	movlb	0	; select bank0
  2747  02AF  00AA               	movwf	___flmul@a
  2748  02B0  318D  25A9  3180   	fcall	___flmul
  2749  02B3  0140               	movlb	0	; select bank0
  2750  02B4  0829               	movf	?___flmul+3,w
  2751  02B5  0142               	movlb	2	; select bank2
  2752  02B6  00CD               	movwf	(logf@z+3)^(0+256)
  2753  02B7  0140               	movlb	0	; select bank0
  2754  02B8  0828               	movf	?___flmul+2,w
  2755  02B9  0142               	movlb	2	; select bank2
  2756  02BA  00CC               	movwf	(logf@z+2)^(0+256)
  2757  02BB  0140               	movlb	0	; select bank0
  2758  02BC  0827               	movf	?___flmul+1,w
  2759  02BD  0142               	movlb	2	; select bank2
  2760  02BE  00CB               	movwf	(logf@z+1)^(0+256)
  2761  02BF  0140               	movlb	0	; select bank0
  2762  02C0  0826               	movf	?___flmul,w
  2763  02C1  0142               	movlb	2	; select bank2
  2764  02C2  00CA               	movwf	logf@z^(0+256)
  2765  02C3                     l2729:	
  2766  02C3  084D               	movf	(logf@z+3)^(0+256),w
  2767  02C4  0140               	movlb	0	; select bank0
  2768  02C5  00A9               	movwf	___flmul@b+3
  2769  02C6  0142               	movlb	2	; select bank2
  2770  02C7  084C               	movf	(logf@z+2)^(0+256),w
  2771  02C8  0140               	movlb	0	; select bank0
  2772  02C9  00A8               	movwf	___flmul@b+2
  2773  02CA  0142               	movlb	2	; select bank2
  2774  02CB  084B               	movf	(logf@z+1)^(0+256),w
  2775  02CC  0140               	movlb	0	; select bank0
  2776  02CD  00A7               	movwf	___flmul@b+1
  2777  02CE  0142               	movlb	2	; select bank2
  2778  02CF  084A               	movf	logf@z^(0+256),w
  2779  02D0  0140               	movlb	0	; select bank0
  2780  02D1  00A6               	movwf	___flmul@b
  2781  02D2  0142               	movlb	2	; select bank2
  2782  02D3  084D               	movf	(logf@z+3)^(0+256),w
  2783  02D4  0140               	movlb	0	; select bank0
  2784  02D5  00AD               	movwf	___flmul@a+3
  2785  02D6  0142               	movlb	2	; select bank2
  2786  02D7  084C               	movf	(logf@z+2)^(0+256),w
  2787  02D8  0140               	movlb	0	; select bank0
  2788  02D9  00AC               	movwf	___flmul@a+2
  2789  02DA  0142               	movlb	2	; select bank2
  2790  02DB  084B               	movf	(logf@z+1)^(0+256),w
  2791  02DC  0140               	movlb	0	; select bank0
  2792  02DD  00AB               	movwf	___flmul@a+1
  2793  02DE  0142               	movlb	2	; select bank2
  2794  02DF  084A               	movf	logf@z^(0+256),w
  2795  02E0  0140               	movlb	0	; select bank0
  2796  02E1  00AA               	movwf	___flmul@a
  2797  02E2  318D  25A9  3180   	fcall	___flmul
  2798  02E5  0140               	movlb	0	; select bank0
  2799  02E6  0829               	movf	?___flmul+3,w
  2800  02E7  0142               	movlb	2	; select bank2
  2801  02E8  00D1               	movwf	(logf@w+3)^(0+256)
  2802  02E9  0140               	movlb	0	; select bank0
  2803  02EA  0828               	movf	?___flmul+2,w
  2804  02EB  0142               	movlb	2	; select bank2
  2805  02EC  00D0               	movwf	(logf@w+2)^(0+256)
  2806  02ED  0140               	movlb	0	; select bank0
  2807  02EE  0827               	movf	?___flmul+1,w
  2808  02EF  0142               	movlb	2	; select bank2
  2809  02F0  00CF               	movwf	(logf@w+1)^(0+256)
  2810  02F1  0140               	movlb	0	; select bank0
  2811  02F2  0826               	movf	?___flmul,w
  2812  02F3  0142               	movlb	2	; select bank2
  2813  02F4  00CE               	movwf	logf@w^(0+256)
  2814  02F5                     l2731:	
  2815  02F5  303E               	movlw	62
  2816  02F6  0140               	movlb	0	; select bank0
  2817  02F7  00DD               	movwf	___fladd@b+3
  2818  02F8  30CC               	movlw	204
  2819  02F9  00DC               	movwf	___fladd@b+2
  2820  02FA  30CE               	movlw	206
  2821  02FB  00DB               	movwf	___fladd@b+1
  2822  02FC  3013               	movlw	19
  2823  02FD  00DA               	movwf	___fladd@b
  2824  02FE  303E               	movlw	62
  2825  02FF  00A9               	movwf	___flmul@b+3
  2826  0300  3078               	movlw	120
  2827  0301  00A8               	movwf	___flmul@b+2
  2828  0302  309E               	movlw	158
  2829  0303  00A7               	movwf	___flmul@b+1
  2830  0304  3026               	movlw	38
  2831  0305  00A6               	movwf	___flmul@b
  2832  0306  0142               	movlb	2	; select bank2
  2833  0307  0851               	movf	(logf@w+3)^(0+256),w
  2834  0308  0140               	movlb	0	; select bank0
  2835  0309  00AD               	movwf	___flmul@a+3
  2836  030A  0142               	movlb	2	; select bank2
  2837  030B  0850               	movf	(logf@w+2)^(0+256),w
  2838  030C  0140               	movlb	0	; select bank0
  2839  030D  00AC               	movwf	___flmul@a+2
  2840  030E  0142               	movlb	2	; select bank2
  2841  030F  084F               	movf	(logf@w+1)^(0+256),w
  2842  0310  0140               	movlb	0	; select bank0
  2843  0311  00AB               	movwf	___flmul@a+1
  2844  0312  0142               	movlb	2	; select bank2
  2845  0313  084E               	movf	logf@w^(0+256),w
  2846  0314  0140               	movlb	0	; select bank0
  2847  0315  00AA               	movwf	___flmul@a
  2848  0316  318D  25A9  3180   	fcall	___flmul
  2849  0319  0140               	movlb	0	; select bank0
  2850  031A  0829               	movf	?___flmul+3,w
  2851  031B  00E1               	movwf	___fladd@a+3
  2852  031C  0828               	movf	?___flmul+2,w
  2853  031D  00E0               	movwf	___fladd@a+2
  2854  031E  0827               	movf	?___flmul+1,w
  2855  031F  00DF               	movwf	___fladd@a+1
  2856  0320  0826               	movf	?___flmul,w
  2857  0321  00DE               	movwf	___fladd@a
  2858  0322  318B  2371  3180   	fcall	___fladd
  2859  0325  0140               	movlb	0	; select bank0
  2860  0326  085D               	movf	?___fladd+3,w
  2861  0327  0142               	movlb	2	; select bank2
  2862  0328  00D5               	movwf	(_logf$826+3)^(0+256)
  2863  0329  0140               	movlb	0	; select bank0
  2864  032A  085C               	movf	?___fladd+2,w
  2865  032B  0142               	movlb	2	; select bank2
  2866  032C  00D4               	movwf	(_logf$826+2)^(0+256)
  2867  032D  0140               	movlb	0	; select bank0
  2868  032E  085B               	movf	?___fladd+1,w
  2869  032F  0142               	movlb	2	; select bank2
  2870  0330  00D3               	movwf	(_logf$826+1)^(0+256)
  2871  0331  0140               	movlb	0	; select bank0
  2872  0332  085A               	movf	?___fladd,w
  2873  0333  0142               	movlb	2	; select bank2
  2874  0334  00D2               	movwf	_logf$826^(0+256)
  2875  0335                     l2733:	
  2876  0335  0851               	movf	(logf@w+3)^(0+256),w
  2877  0336  0140               	movlb	0	; select bank0
  2878  0337  00A9               	movwf	___flmul@b+3
  2879  0338  0142               	movlb	2	; select bank2
  2880  0339  0850               	movf	(logf@w+2)^(0+256),w
  2881  033A  0140               	movlb	0	; select bank0
  2882  033B  00A8               	movwf	___flmul@b+2
  2883  033C  0142               	movlb	2	; select bank2
  2884  033D  084F               	movf	(logf@w+1)^(0+256),w
  2885  033E  0140               	movlb	0	; select bank0
  2886  033F  00A7               	movwf	___flmul@b+1
  2887  0340  0142               	movlb	2	; select bank2
  2888  0341  084E               	movf	logf@w^(0+256),w
  2889  0342  0140               	movlb	0	; select bank0
  2890  0343  00A6               	movwf	___flmul@b
  2891  0344  0142               	movlb	2	; select bank2
  2892  0345  0855               	movf	(_logf$826+3)^(0+256),w
  2893  0346  0140               	movlb	0	; select bank0
  2894  0347  00AD               	movwf	___flmul@a+3
  2895  0348  0142               	movlb	2	; select bank2
  2896  0349  0854               	movf	(_logf$826+2)^(0+256),w
  2897  034A  0140               	movlb	0	; select bank0
  2898  034B  00AC               	movwf	___flmul@a+2
  2899  034C  0142               	movlb	2	; select bank2
  2900  034D  0853               	movf	(_logf$826+1)^(0+256),w
  2901  034E  0140               	movlb	0	; select bank0
  2902  034F  00AB               	movwf	___flmul@a+1
  2903  0350  0142               	movlb	2	; select bank2
  2904  0351  0852               	movf	_logf$826^(0+256),w
  2905  0352  0140               	movlb	0	; select bank0
  2906  0353  00AA               	movwf	___flmul@a
  2907  0354  318D  25A9  3180   	fcall	___flmul
  2908  0357  0140               	movlb	0	; select bank0
  2909  0358  0829               	movf	?___flmul+3,w
  2910  0359  0142               	movlb	2	; select bank2
  2911  035A  00A7               	movwf	(logf@t1+3)^(0+256)
  2912  035B  0140               	movlb	0	; select bank0
  2913  035C  0828               	movf	?___flmul+2,w
  2914  035D  0142               	movlb	2	; select bank2
  2915  035E  00A6               	movwf	(logf@t1+2)^(0+256)
  2916  035F  0140               	movlb	0	; select bank0
  2917  0360  0827               	movf	?___flmul+1,w
  2918  0361  0142               	movlb	2	; select bank2
  2919  0362  00A5               	movwf	(logf@t1+1)^(0+256)
  2920  0363  0140               	movlb	0	; select bank0
  2921  0364  0826               	movf	?___flmul,w
  2922  0365  0142               	movlb	2	; select bank2
  2923  0366  00A4               	movwf	logf@t1^(0+256)
  2924  0367                     l2735:	
  2925  0367  303F               	movlw	63
  2926  0368  0140               	movlb	0	; select bank0
  2927  0369  00DD               	movwf	___fladd@b+3
  2928  036A  302A               	movlw	42
  2929  036B  00DC               	movwf	___fladd@b+2
  2930  036C  30AA               	movlw	170
  2931  036D  00DB               	movwf	___fladd@b+1
  2932  036E  30AA               	movlw	170
  2933  036F  00DA               	movwf	___fladd@b
  2934  0370  303E               	movlw	62
  2935  0371  00A9               	movwf	___flmul@b+3
  2936  0372  3091               	movlw	145
  2937  0373  00A8               	movwf	___flmul@b+2
  2938  0374  30E9               	movlw	233
  2939  0375  00A7               	movwf	___flmul@b+1
  2940  0376  30EE               	movlw	238
  2941  0377  00A6               	movwf	___flmul@b
  2942  0378  0142               	movlb	2	; select bank2
  2943  0379  0851               	movf	(logf@w+3)^(0+256),w
  2944  037A  0140               	movlb	0	; select bank0
  2945  037B  00AD               	movwf	___flmul@a+3
  2946  037C  0142               	movlb	2	; select bank2
  2947  037D  0850               	movf	(logf@w+2)^(0+256),w
  2948  037E  0140               	movlb	0	; select bank0
  2949  037F  00AC               	movwf	___flmul@a+2
  2950  0380  0142               	movlb	2	; select bank2
  2951  0381  084F               	movf	(logf@w+1)^(0+256),w
  2952  0382  0140               	movlb	0	; select bank0
  2953  0383  00AB               	movwf	___flmul@a+1
  2954  0384  0142               	movlb	2	; select bank2
  2955  0385  084E               	movf	logf@w^(0+256),w
  2956  0386  0140               	movlb	0	; select bank0
  2957  0387  00AA               	movwf	___flmul@a
  2958  0388  318D  25A9  3180   	fcall	___flmul
  2959  038B  0140               	movlb	0	; select bank0
  2960  038C  0829               	movf	?___flmul+3,w
  2961  038D  00E1               	movwf	___fladd@a+3
  2962  038E  0828               	movf	?___flmul+2,w
  2963  038F  00E0               	movwf	___fladd@a+2
  2964  0390  0827               	movf	?___flmul+1,w
  2965  0391  00DF               	movwf	___fladd@a+1
  2966  0392  0826               	movf	?___flmul,w
  2967  0393  00DE               	movwf	___fladd@a
  2968  0394  318B  2371  3180   	fcall	___fladd
  2969  0397  0140               	movlb	0	; select bank0
  2970  0398  085D               	movf	?___fladd+3,w
  2971  0399  0142               	movlb	2	; select bank2
  2972  039A  00D5               	movwf	(_logf$826+3)^(0+256)
  2973  039B  0140               	movlb	0	; select bank0
  2974  039C  085C               	movf	?___fladd+2,w
  2975  039D  0142               	movlb	2	; select bank2
  2976  039E  00D4               	movwf	(_logf$826+2)^(0+256)
  2977  039F  0140               	movlb	0	; select bank0
  2978  03A0  085B               	movf	?___fladd+1,w
  2979  03A1  0142               	movlb	2	; select bank2
  2980  03A2  00D3               	movwf	(_logf$826+1)^(0+256)
  2981  03A3  0140               	movlb	0	; select bank0
  2982  03A4  085A               	movf	?___fladd,w
  2983  03A5  0142               	movlb	2	; select bank2
  2984  03A6  00D2               	movwf	_logf$826^(0+256)
  2985  03A7                     l2737:	
  2986  03A7  084D               	movf	(logf@z+3)^(0+256),w
  2987  03A8  0140               	movlb	0	; select bank0
  2988  03A9  00A9               	movwf	___flmul@b+3
  2989  03AA  0142               	movlb	2	; select bank2
  2990  03AB  084C               	movf	(logf@z+2)^(0+256),w
  2991  03AC  0140               	movlb	0	; select bank0
  2992  03AD  00A8               	movwf	___flmul@b+2
  2993  03AE  0142               	movlb	2	; select bank2
  2994  03AF  084B               	movf	(logf@z+1)^(0+256),w
  2995  03B0  0140               	movlb	0	; select bank0
  2996  03B1  00A7               	movwf	___flmul@b+1
  2997  03B2  0142               	movlb	2	; select bank2
  2998  03B3  084A               	movf	logf@z^(0+256),w
  2999  03B4  0140               	movlb	0	; select bank0
  3000  03B5  00A6               	movwf	___flmul@b
  3001  03B6  0142               	movlb	2	; select bank2
  3002  03B7  0855               	movf	(_logf$826+3)^(0+256),w
  3003  03B8  0140               	movlb	0	; select bank0
  3004  03B9  00AD               	movwf	___flmul@a+3
  3005  03BA  0142               	movlb	2	; select bank2
  3006  03BB  0854               	movf	(_logf$826+2)^(0+256),w
  3007  03BC  0140               	movlb	0	; select bank0
  3008  03BD  00AC               	movwf	___flmul@a+2
  3009  03BE  0142               	movlb	2	; select bank2
  3010  03BF  0853               	movf	(_logf$826+1)^(0+256),w
  3011  03C0  0140               	movlb	0	; select bank0
  3012  03C1  00AB               	movwf	___flmul@a+1
  3013  03C2  0142               	movlb	2	; select bank2
  3014  03C3  0852               	movf	_logf$826^(0+256),w
  3015  03C4  0140               	movlb	0	; select bank0
  3016  03C5  00AA               	movwf	___flmul@a
  3017  03C6  318D  25A9  3180   	fcall	___flmul
  3018  03C9  0140               	movlb	0	; select bank0
  3019  03CA  0829               	movf	?___flmul+3,w
  3020  03CB  0142               	movlb	2	; select bank2
  3021  03CC  00AB               	movwf	(logf@t2+3)^(0+256)
  3022  03CD  0140               	movlb	0	; select bank0
  3023  03CE  0828               	movf	?___flmul+2,w
  3024  03CF  0142               	movlb	2	; select bank2
  3025  03D0  00AA               	movwf	(logf@t2+2)^(0+256)
  3026  03D1  0140               	movlb	0	; select bank0
  3027  03D2  0827               	movf	?___flmul+1,w
  3028  03D3  0142               	movlb	2	; select bank2
  3029  03D4  00A9               	movwf	(logf@t2+1)^(0+256)
  3030  03D5  0140               	movlb	0	; select bank0
  3031  03D6  0826               	movf	?___flmul,w
  3032  03D7  0142               	movlb	2	; select bank2
  3033  03D8  00A8               	movwf	logf@t2^(0+256)
  3034  03D9                     l2739:	
  3035  03D9  0827               	movf	(logf@t1+3)^(0+256),w
  3036  03DA  0140               	movlb	0	; select bank0
  3037  03DB  00DD               	movwf	___fladd@b+3
  3038  03DC  0142               	movlb	2	; select bank2
  3039  03DD  0826               	movf	(logf@t1+2)^(0+256),w
  3040  03DE  0140               	movlb	0	; select bank0
  3041  03DF  00DC               	movwf	___fladd@b+2
  3042  03E0  0142               	movlb	2	; select bank2
  3043  03E1  0825               	movf	(logf@t1+1)^(0+256),w
  3044  03E2  0140               	movlb	0	; select bank0
  3045  03E3  00DB               	movwf	___fladd@b+1
  3046  03E4  0142               	movlb	2	; select bank2
  3047  03E5  0824               	movf	logf@t1^(0+256),w
  3048  03E6  0140               	movlb	0	; select bank0
  3049  03E7  00DA               	movwf	___fladd@b
  3050  03E8  0142               	movlb	2	; select bank2
  3051  03E9  082B               	movf	(logf@t2+3)^(0+256),w
  3052  03EA  0140               	movlb	0	; select bank0
  3053  03EB  00E1               	movwf	___fladd@a+3
  3054  03EC  0142               	movlb	2	; select bank2
  3055  03ED  082A               	movf	(logf@t2+2)^(0+256),w
  3056  03EE  0140               	movlb	0	; select bank0
  3057  03EF  00E0               	movwf	___fladd@a+2
  3058  03F0  0142               	movlb	2	; select bank2
  3059  03F1  0829               	movf	(logf@t2+1)^(0+256),w
  3060  03F2  0140               	movlb	0	; select bank0
  3061  03F3  00DF               	movwf	___fladd@a+1
  3062  03F4  0142               	movlb	2	; select bank2
  3063  03F5  0828               	movf	logf@t2^(0+256),w
  3064  03F6  0140               	movlb	0	; select bank0
  3065  03F7  00DE               	movwf	___fladd@a
  3066  03F8  318B  2371  3180   	fcall	___fladd
  3067  03FB  0140               	movlb	0	; select bank0
  3068  03FC  085D               	movf	?___fladd+3,w
  3069  03FD  0142               	movlb	2	; select bank2
  3070  03FE  00A3               	movwf	(logf@R+3)^(0+256)
  3071  03FF  0140               	movlb	0	; select bank0
  3072  0400  085C               	movf	?___fladd+2,w
  3073  0401  0142               	movlb	2	; select bank2
  3074  0402  00A2               	movwf	(logf@R+2)^(0+256)
  3075  0403  0140               	movlb	0	; select bank0
  3076  0404  085B               	movf	?___fladd+1,w
  3077  0405  0142               	movlb	2	; select bank2
  3078  0406  00A1               	movwf	(logf@R+1)^(0+256)
  3079  0407  0140               	movlb	0	; select bank0
  3080  0408  085A               	movf	?___fladd,w
  3081  0409  0142               	movlb	2	; select bank2
  3082  040A  00A0               	movwf	logf@R^(0+256)
  3083  040B                     l2741:	
  3084  040B  303F               	movlw	63
  3085  040C  0140               	movlb	0	; select bank0
  3086  040D  00A9               	movwf	___flmul@b+3
  3087  040E  3000               	movlw	0
  3088  040F  00A8               	movwf	___flmul@b+2
  3089  0410  3000               	movlw	0
  3090  0411  00A7               	movwf	___flmul@b+1
  3091  0412  3000               	movlw	0
  3092  0413  00A6               	movwf	___flmul@b
  3093  0414  0142               	movlb	2	; select bank2
  3094  0415  085D               	movf	(logf@f+3)^(0+256),w
  3095  0416  0140               	movlb	0	; select bank0
  3096  0417  00AD               	movwf	___flmul@a+3
  3097  0418  0142               	movlb	2	; select bank2
  3098  0419  085C               	movf	(logf@f+2)^(0+256),w
  3099  041A  0140               	movlb	0	; select bank0
  3100  041B  00AC               	movwf	___flmul@a+2
  3101  041C  0142               	movlb	2	; select bank2
  3102  041D  085B               	movf	(logf@f+1)^(0+256),w
  3103  041E  0140               	movlb	0	; select bank0
  3104  041F  00AB               	movwf	___flmul@a+1
  3105  0420  0142               	movlb	2	; select bank2
  3106  0421  085A               	movf	logf@f^(0+256),w
  3107  0422  0140               	movlb	0	; select bank0
  3108  0423  00AA               	movwf	___flmul@a
  3109  0424  318D  25A9  3180   	fcall	___flmul
  3110  0427  0140               	movlb	0	; select bank0
  3111  0428  0829               	movf	?___flmul+3,w
  3112  0429  0142               	movlb	2	; select bank2
  3113  042A  00D5               	movwf	(_logf$826+3)^(0+256)
  3114  042B  0140               	movlb	0	; select bank0
  3115  042C  0828               	movf	?___flmul+2,w
  3116  042D  0142               	movlb	2	; select bank2
  3117  042E  00D4               	movwf	(_logf$826+2)^(0+256)
  3118  042F  0140               	movlb	0	; select bank0
  3119  0430  0827               	movf	?___flmul+1,w
  3120  0431  0142               	movlb	2	; select bank2
  3121  0432  00D3               	movwf	(_logf$826+1)^(0+256)
  3122  0433  0140               	movlb	0	; select bank0
  3123  0434  0826               	movf	?___flmul,w
  3124  0435  0142               	movlb	2	; select bank2
  3125  0436  00D2               	movwf	_logf$826^(0+256)
  3126  0437                     l2743:	
  3127  0437  085D               	movf	(logf@f+3)^(0+256),w
  3128  0438  0140               	movlb	0	; select bank0
  3129  0439  00A9               	movwf	___flmul@b+3
  3130  043A  0142               	movlb	2	; select bank2
  3131  043B  085C               	movf	(logf@f+2)^(0+256),w
  3132  043C  0140               	movlb	0	; select bank0
  3133  043D  00A8               	movwf	___flmul@b+2
  3134  043E  0142               	movlb	2	; select bank2
  3135  043F  085B               	movf	(logf@f+1)^(0+256),w
  3136  0440  0140               	movlb	0	; select bank0
  3137  0441  00A7               	movwf	___flmul@b+1
  3138  0442  0142               	movlb	2	; select bank2
  3139  0443  085A               	movf	logf@f^(0+256),w
  3140  0444  0140               	movlb	0	; select bank0
  3141  0445  00A6               	movwf	___flmul@b
  3142  0446  0142               	movlb	2	; select bank2
  3143  0447  0855               	movf	(_logf$826+3)^(0+256),w
  3144  0448  0140               	movlb	0	; select bank0
  3145  0449  00AD               	movwf	___flmul@a+3
  3146  044A  0142               	movlb	2	; select bank2
  3147  044B  0854               	movf	(_logf$826+2)^(0+256),w
  3148  044C  0140               	movlb	0	; select bank0
  3149  044D  00AC               	movwf	___flmul@a+2
  3150  044E  0142               	movlb	2	; select bank2
  3151  044F  0853               	movf	(_logf$826+1)^(0+256),w
  3152  0450  0140               	movlb	0	; select bank0
  3153  0451  00AB               	movwf	___flmul@a+1
  3154  0452  0142               	movlb	2	; select bank2
  3155  0453  0852               	movf	_logf$826^(0+256),w
  3156  0454  0140               	movlb	0	; select bank0
  3157  0455  00AA               	movwf	___flmul@a
  3158  0456  318D  25A9  3180   	fcall	___flmul
  3159  0459  0140               	movlb	0	; select bank0
  3160  045A  0829               	movf	?___flmul+3,w
  3161  045B  0142               	movlb	2	; select bank2
  3162  045C  00C1               	movwf	(logf@hfsq+3)^(0+256)
  3163  045D  0140               	movlb	0	; select bank0
  3164  045E  0828               	movf	?___flmul+2,w
  3165  045F  0142               	movlb	2	; select bank2
  3166  0460  00C0               	movwf	(logf@hfsq+2)^(0+256)
  3167  0461  0140               	movlb	0	; select bank0
  3168  0462  0827               	movf	?___flmul+1,w
  3169  0463  0142               	movlb	2	; select bank2
  3170  0464  00BF               	movwf	(logf@hfsq+1)^(0+256)
  3171  0465  0140               	movlb	0	; select bank0
  3172  0466  0826               	movf	?___flmul,w
  3173  0467  0142               	movlb	2	; select bank2
  3174  0468  00BE               	movwf	logf@hfsq^(0+256)
  3175  0469                     l2745:	
  3176  0469  083C               	movf	logf@k^(0+256),w
  3177  046A  00F2               	movwf	___xxtofl@val
  3178  046B  083D               	movf	(logf@k+1)^(0+256),w
  3179  046C  00F3               	movwf	___xxtofl@val+1
  3180  046D  0D89               	rlf	9,f
  3181  046E  3B89               	subwfb	9,f
  3182  046F  0989               	comf	9,f
  3183  0470  00F4               	movwf	___xxtofl@val+2
  3184  0471  00F5               	movwf	___xxtofl@val+3
  3185  0472  3001               	movlw	1
  3186  0473  3188  2006  3180   	fcall	___xxtofl
  3187  0476  0875               	movf	?___xxtofl+3,w
  3188  0477  0142               	movlb	2	; select bank2
  3189  0478  00C5               	movwf	(logf@dk+3)^(0+256)
  3190  0479  0874               	movf	?___xxtofl+2,w
  3191  047A  00C4               	movwf	(logf@dk+2)^(0+256)
  3192  047B  0873               	movf	?___xxtofl+1,w
  3193  047C  00C3               	movwf	(logf@dk+1)^(0+256)
  3194  047D  0872               	movf	?___xxtofl,w
  3195  047E  00C2               	movwf	logf@dk^(0+256)
  3196  047F                     l2747:	
  3197  047F  0849               	movf	(logf@s+3)^(0+256),w
  3198  0480  0140               	movlb	0	; select bank0
  3199  0481  00A9               	movwf	___flmul@b+3
  3200  0482  0142               	movlb	2	; select bank2
  3201  0483  0848               	movf	(logf@s+2)^(0+256),w
  3202  0484  0140               	movlb	0	; select bank0
  3203  0485  00A8               	movwf	___flmul@b+2
  3204  0486  0142               	movlb	2	; select bank2
  3205  0487  0847               	movf	(logf@s+1)^(0+256),w
  3206  0488  0140               	movlb	0	; select bank0
  3207  0489  00A7               	movwf	___flmul@b+1
  3208  048A  0142               	movlb	2	; select bank2
  3209  048B  0846               	movf	logf@s^(0+256),w
  3210  048C  0140               	movlb	0	; select bank0
  3211  048D  00A6               	movwf	___flmul@b
  3212  048E  0142               	movlb	2	; select bank2
  3213  048F  0823               	movf	(logf@R+3)^(0+256),w
  3214  0490  0140               	movlb	0	; select bank0
  3215  0491  00DD               	movwf	___fladd@b+3
  3216  0492  0142               	movlb	2	; select bank2
  3217  0493  0822               	movf	(logf@R+2)^(0+256),w
  3218  0494  0140               	movlb	0	; select bank0
  3219  0495  00DC               	movwf	___fladd@b+2
  3220  0496  0142               	movlb	2	; select bank2
  3221  0497  0821               	movf	(logf@R+1)^(0+256),w
  3222  0498  0140               	movlb	0	; select bank0
  3223  0499  00DB               	movwf	___fladd@b+1
  3224  049A  0142               	movlb	2	; select bank2
  3225  049B  0820               	movf	logf@R^(0+256),w
  3226  049C  0140               	movlb	0	; select bank0
  3227  049D  00DA               	movwf	___fladd@b
  3228  049E  0142               	movlb	2	; select bank2
  3229  049F  0841               	movf	(logf@hfsq+3)^(0+256),w
  3230  04A0  0140               	movlb	0	; select bank0
  3231  04A1  00E1               	movwf	___fladd@a+3
  3232  04A2  0142               	movlb	2	; select bank2
  3233  04A3  0840               	movf	(logf@hfsq+2)^(0+256),w
  3234  04A4  0140               	movlb	0	; select bank0
  3235  04A5  00E0               	movwf	___fladd@a+2
  3236  04A6  0142               	movlb	2	; select bank2
  3237  04A7  083F               	movf	(logf@hfsq+1)^(0+256),w
  3238  04A8  0140               	movlb	0	; select bank0
  3239  04A9  00DF               	movwf	___fladd@a+1
  3240  04AA  0142               	movlb	2	; select bank2
  3241  04AB  083E               	movf	logf@hfsq^(0+256),w
  3242  04AC  0140               	movlb	0	; select bank0
  3243  04AD  00DE               	movwf	___fladd@a
  3244  04AE  318B  2371  3180   	fcall	___fladd
  3245  04B1  0140               	movlb	0	; select bank0
  3246  04B2  085D               	movf	?___fladd+3,w
  3247  04B3  00AD               	movwf	___flmul@a+3
  3248  04B4  085C               	movf	?___fladd+2,w
  3249  04B5  00AC               	movwf	___flmul@a+2
  3250  04B6  085B               	movf	?___fladd+1,w
  3251  04B7  00AB               	movwf	___flmul@a+1
  3252  04B8  085A               	movf	?___fladd,w
  3253  04B9  00AA               	movwf	___flmul@a
  3254  04BA  318D  25A9  3180   	fcall	___flmul
  3255  04BD  0140               	movlb	0	; select bank0
  3256  04BE  0829               	movf	?___flmul+3,w
  3257  04BF  0142               	movlb	2	; select bank2
  3258  04C0  00AF               	movwf	(_logf$827+3)^(0+256)
  3259  04C1  0140               	movlb	0	; select bank0
  3260  04C2  0828               	movf	?___flmul+2,w
  3261  04C3  0142               	movlb	2	; select bank2
  3262  04C4  00AE               	movwf	(_logf$827+2)^(0+256)
  3263  04C5  0140               	movlb	0	; select bank0
  3264  04C6  0827               	movf	?___flmul+1,w
  3265  04C7  0142               	movlb	2	; select bank2
  3266  04C8  00AD               	movwf	(_logf$827+1)^(0+256)
  3267  04C9  0140               	movlb	0	; select bank0
  3268  04CA  0826               	movf	?___flmul,w
  3269  04CB  0142               	movlb	2	; select bank2
  3270  04CC  00AC               	movwf	_logf$827^(0+256)
  3271  04CD                     l2749:	
  3272  04CD  3037               	movlw	55
  3273  04CE  0140               	movlb	0	; select bank0
  3274  04CF  00A9               	movwf	___flmul@b+3
  3275  04D0  3017               	movlw	23
  3276  04D1  00A8               	movwf	___flmul@b+2
  3277  04D2  30F7               	movlw	247
  3278  04D3  00A7               	movwf	___flmul@b+1
  3279  04D4  30D1               	movlw	209
  3280  04D5  00A6               	movwf	___flmul@b
  3281  04D6  0142               	movlb	2	; select bank2
  3282  04D7  0845               	movf	(logf@dk+3)^(0+256),w
  3283  04D8  0140               	movlb	0	; select bank0
  3284  04D9  00AD               	movwf	___flmul@a+3
  3285  04DA  0142               	movlb	2	; select bank2
  3286  04DB  0844               	movf	(logf@dk+2)^(0+256),w
  3287  04DC  0140               	movlb	0	; select bank0
  3288  04DD  00AC               	movwf	___flmul@a+2
  3289  04DE  0142               	movlb	2	; select bank2
  3290  04DF  0843               	movf	(logf@dk+1)^(0+256),w
  3291  04E0  0140               	movlb	0	; select bank0
  3292  04E1  00AB               	movwf	___flmul@a+1
  3293  04E2  0142               	movlb	2	; select bank2
  3294  04E3  0842               	movf	logf@dk^(0+256),w
  3295  04E4  0140               	movlb	0	; select bank0
  3296  04E5  00AA               	movwf	___flmul@a
  3297  04E6  318D  25A9  3180   	fcall	___flmul
  3298  04E9  0140               	movlb	0	; select bank0
  3299  04EA  0829               	movf	?___flmul+3,w
  3300  04EB  00DD               	movwf	___fladd@b+3
  3301  04EC  0828               	movf	?___flmul+2,w
  3302  04ED  00DC               	movwf	___fladd@b+2
  3303  04EE  0827               	movf	?___flmul+1,w
  3304  04EF  00DB               	movwf	___fladd@b+1
  3305  04F0  0826               	movf	?___flmul,w
  3306  04F1  00DA               	movwf	___fladd@b
  3307  04F2  0142               	movlb	2	; select bank2
  3308  04F3  082F               	movf	(_logf$827+3)^(0+256),w
  3309  04F4  0140               	movlb	0	; select bank0
  3310  04F5  00E1               	movwf	___fladd@a+3
  3311  04F6  0142               	movlb	2	; select bank2
  3312  04F7  082E               	movf	(_logf$827+2)^(0+256),w
  3313  04F8  0140               	movlb	0	; select bank0
  3314  04F9  00E0               	movwf	___fladd@a+2
  3315  04FA  0142               	movlb	2	; select bank2
  3316  04FB  082D               	movf	(_logf$827+1)^(0+256),w
  3317  04FC  0140               	movlb	0	; select bank0
  3318  04FD  00DF               	movwf	___fladd@a+1
  3319  04FE  0142               	movlb	2	; select bank2
  3320  04FF  082C               	movf	_logf$827^(0+256),w
  3321  0500  0140               	movlb	0	; select bank0
  3322  0501  00DE               	movwf	___fladd@a
  3323  0502  318B  2371  3180   	fcall	___fladd
  3324  0505  0140               	movlb	0	; select bank0
  3325  0506  085D               	movf	?___fladd+3,w
  3326  0507  0142               	movlb	2	; select bank2
  3327  0508  00B3               	movwf	(_logf$828+3)^(0+256)
  3328  0509  0140               	movlb	0	; select bank0
  3329  050A  085C               	movf	?___fladd+2,w
  3330  050B  0142               	movlb	2	; select bank2
  3331  050C  00B2               	movwf	(_logf$828+2)^(0+256)
  3332  050D  0140               	movlb	0	; select bank0
  3333  050E  085B               	movf	?___fladd+1,w
  3334  050F  0142               	movlb	2	; select bank2
  3335  0510  00B1               	movwf	(_logf$828+1)^(0+256)
  3336  0511  0140               	movlb	0	; select bank0
  3337  0512  085A               	movf	?___fladd,w
  3338  0513  0142               	movlb	2	; select bank2
  3339  0514  00B0               	movwf	_logf$828^(0+256)
  3340  0515                     l2751:	
  3341  0515  0841               	movf	(logf@hfsq+3)^(0+256),w
  3342  0516  0141               	movlb	1	; select bank1
  3343  0517  00A3               	movwf	(___flsub@a+3)^(0+128)
  3344  0518  0142               	movlb	2	; select bank2
  3345  0519  0840               	movf	(logf@hfsq+2)^(0+256),w
  3346  051A  0141               	movlb	1	; select bank1
  3347  051B  00A2               	movwf	(___flsub@a+2)^(0+128)
  3348  051C  0142               	movlb	2	; select bank2
  3349  051D  083F               	movf	(logf@hfsq+1)^(0+256),w
  3350  051E  0141               	movlb	1	; select bank1
  3351  051F  00A1               	movwf	(___flsub@a+1)^(0+128)
  3352  0520  0142               	movlb	2	; select bank2
  3353  0521  083E               	movf	logf@hfsq^(0+256),w
  3354  0522  0141               	movlb	1	; select bank1
  3355  0523  00A0               	movwf	___flsub@a^(0+128)
  3356  0524  0142               	movlb	2	; select bank2
  3357  0525  0833               	movf	(_logf$828+3)^(0+256),w
  3358  0526  0141               	movlb	1	; select bank1
  3359  0527  00A7               	movwf	(___flsub@b+3)^(0+128)
  3360  0528  0142               	movlb	2	; select bank2
  3361  0529  0832               	movf	(_logf$828+2)^(0+256),w
  3362  052A  0141               	movlb	1	; select bank1
  3363  052B  00A6               	movwf	(___flsub@b+2)^(0+128)
  3364  052C  0142               	movlb	2	; select bank2
  3365  052D  0831               	movf	(_logf$828+1)^(0+256),w
  3366  052E  0141               	movlb	1	; select bank1
  3367  052F  00A5               	movwf	(___flsub@b+1)^(0+128)
  3368  0530  0142               	movlb	2	; select bank2
  3369  0531  0830               	movf	_logf$828^(0+256),w
  3370  0532  0141               	movlb	1	; select bank1
  3371  0533  00A4               	movwf	___flsub@b^(0+128)
  3372  0534  3197  2700  3180   	fcall	___flsub
  3373  0537  0141               	movlb	1	; select bank1
  3374  0538  0823               	movf	(?___flsub+3)^(0+128),w
  3375  0539  0142               	movlb	2	; select bank2
  3376  053A  00B7               	movwf	(_logf$829+3)^(0+256)
  3377  053B  0141               	movlb	1	; select bank1
  3378  053C  0822               	movf	(?___flsub+2)^(0+128),w
  3379  053D  0142               	movlb	2	; select bank2
  3380  053E  00B6               	movwf	(_logf$829+2)^(0+256)
  3381  053F  0141               	movlb	1	; select bank1
  3382  0540  0821               	movf	(?___flsub+1)^(0+128),w
  3383  0541  0142               	movlb	2	; select bank2
  3384  0542  00B5               	movwf	(_logf$829+1)^(0+256)
  3385  0543  0141               	movlb	1	; select bank1
  3386  0544  0820               	movf	?___flsub^(0+128),w
  3387  0545  0142               	movlb	2	; select bank2
  3388  0546  00B4               	movwf	_logf$829^(0+256)
  3389  0547                     l2753:	
  3390  0547  085D               	movf	(logf@f+3)^(0+256),w
  3391  0548  0140               	movlb	0	; select bank0
  3392  0549  00DD               	movwf	___fladd@b+3
  3393  054A  0142               	movlb	2	; select bank2
  3394  054B  085C               	movf	(logf@f+2)^(0+256),w
  3395  054C  0140               	movlb	0	; select bank0
  3396  054D  00DC               	movwf	___fladd@b+2
  3397  054E  0142               	movlb	2	; select bank2
  3398  054F  085B               	movf	(logf@f+1)^(0+256),w
  3399  0550  0140               	movlb	0	; select bank0
  3400  0551  00DB               	movwf	___fladd@b+1
  3401  0552  0142               	movlb	2	; select bank2
  3402  0553  085A               	movf	logf@f^(0+256),w
  3403  0554  0140               	movlb	0	; select bank0
  3404  0555  00DA               	movwf	___fladd@b
  3405  0556  0142               	movlb	2	; select bank2
  3406  0557  0837               	movf	(_logf$829+3)^(0+256),w
  3407  0558  0140               	movlb	0	; select bank0
  3408  0559  00E1               	movwf	___fladd@a+3
  3409  055A  0142               	movlb	2	; select bank2
  3410  055B  0836               	movf	(_logf$829+2)^(0+256),w
  3411  055C  0140               	movlb	0	; select bank0
  3412  055D  00E0               	movwf	___fladd@a+2
  3413  055E  0142               	movlb	2	; select bank2
  3414  055F  0835               	movf	(_logf$829+1)^(0+256),w
  3415  0560  0140               	movlb	0	; select bank0
  3416  0561  00DF               	movwf	___fladd@a+1
  3417  0562  0142               	movlb	2	; select bank2
  3418  0563  0834               	movf	_logf$829^(0+256),w
  3419  0564  0140               	movlb	0	; select bank0
  3420  0565  00DE               	movwf	___fladd@a
  3421  0566  318B  2371  3180   	fcall	___fladd
  3422  0569  0140               	movlb	0	; select bank0
  3423  056A  085D               	movf	?___fladd+3,w
  3424  056B  0142               	movlb	2	; select bank2
  3425  056C  00BB               	movwf	(_logf$830+3)^(0+256)
  3426  056D  0140               	movlb	0	; select bank0
  3427  056E  085C               	movf	?___fladd+2,w
  3428  056F  0142               	movlb	2	; select bank2
  3429  0570  00BA               	movwf	(_logf$830+2)^(0+256)
  3430  0571  0140               	movlb	0	; select bank0
  3431  0572  085B               	movf	?___fladd+1,w
  3432  0573  0142               	movlb	2	; select bank2
  3433  0574  00B9               	movwf	(_logf$830+1)^(0+256)
  3434  0575  0140               	movlb	0	; select bank0
  3435  0576  085A               	movf	?___fladd,w
  3436  0577  0142               	movlb	2	; select bank2
  3437  0578  00B8               	movwf	_logf$830^(0+256)
  3438  0579                     l2755:	
  3439  0579  303F               	movlw	63
  3440  057A  0140               	movlb	0	; select bank0
  3441  057B  00A9               	movwf	___flmul@b+3
  3442  057C  3031               	movlw	49
  3443  057D  00A8               	movwf	___flmul@b+2
  3444  057E  3071               	movlw	113
  3445  057F  00A7               	movwf	___flmul@b+1
  3446  0580  3080               	movlw	128
  3447  0581  00A6               	movwf	___flmul@b
  3448  0582  0142               	movlb	2	; select bank2
  3449  0583  0845               	movf	(logf@dk+3)^(0+256),w
  3450  0584  0140               	movlb	0	; select bank0
  3451  0585  00AD               	movwf	___flmul@a+3
  3452  0586  0142               	movlb	2	; select bank2
  3453  0587  0844               	movf	(logf@dk+2)^(0+256),w
  3454  0588  0140               	movlb	0	; select bank0
  3455  0589  00AC               	movwf	___flmul@a+2
  3456  058A  0142               	movlb	2	; select bank2
  3457  058B  0843               	movf	(logf@dk+1)^(0+256),w
  3458  058C  0140               	movlb	0	; select bank0
  3459  058D  00AB               	movwf	___flmul@a+1
  3460  058E  0142               	movlb	2	; select bank2
  3461  058F  0842               	movf	logf@dk^(0+256),w
  3462  0590  0140               	movlb	0	; select bank0
  3463  0591  00AA               	movwf	___flmul@a
  3464  0592  318D  25A9  3180   	fcall	___flmul
  3465  0595  0140               	movlb	0	; select bank0
  3466  0596  0829               	movf	?___flmul+3,w
  3467  0597  00DD               	movwf	___fladd@b+3
  3468  0598  0828               	movf	?___flmul+2,w
  3469  0599  00DC               	movwf	___fladd@b+2
  3470  059A  0827               	movf	?___flmul+1,w
  3471  059B  00DB               	movwf	___fladd@b+1
  3472  059C  0826               	movf	?___flmul,w
  3473  059D  00DA               	movwf	___fladd@b
  3474  059E  0142               	movlb	2	; select bank2
  3475  059F  083B               	movf	(_logf$830+3)^(0+256),w
  3476  05A0  0140               	movlb	0	; select bank0
  3477  05A1  00E1               	movwf	___fladd@a+3
  3478  05A2  0142               	movlb	2	; select bank2
  3479  05A3  083A               	movf	(_logf$830+2)^(0+256),w
  3480  05A4  0140               	movlb	0	; select bank0
  3481  05A5  00E0               	movwf	___fladd@a+2
  3482  05A6  0142               	movlb	2	; select bank2
  3483  05A7  0839               	movf	(_logf$830+1)^(0+256),w
  3484  05A8  0140               	movlb	0	; select bank0
  3485  05A9  00DF               	movwf	___fladd@a+1
  3486  05AA  0142               	movlb	2	; select bank2
  3487  05AB  0838               	movf	_logf$830^(0+256),w
  3488  05AC  0140               	movlb	0	; select bank0
  3489  05AD  00DE               	movwf	___fladd@a
  3490  05AE  318B  2371  3180   	fcall	___fladd
  3491  05B1  0140               	movlb	0	; select bank0
  3492  05B2  085D               	movf	?___fladd+3,w
  3493  05B3  0141               	movlb	1	; select bank1
  3494  05B4  00AB               	movwf	(?_logf+3)^(0+128)
  3495  05B5  0140               	movlb	0	; select bank0
  3496  05B6  085C               	movf	?___fladd+2,w
  3497  05B7  0141               	movlb	1	; select bank1
  3498  05B8  00AA               	movwf	(?_logf+2)^(0+128)
  3499  05B9  0140               	movlb	0	; select bank0
  3500  05BA  085B               	movf	?___fladd+1,w
  3501  05BB  0141               	movlb	1	; select bank1
  3502  05BC  00A9               	movwf	(?_logf+1)^(0+128)
  3503  05BD  0140               	movlb	0	; select bank0
  3504  05BE  085A               	movf	?___fladd,w
  3505  05BF  0141               	movlb	1	; select bank1
  3506  05C0  00A8               	movwf	?_logf^(0+128)
  3507  05C1                     l718:	
  3508  05C1  0008               	return
  3509  05C2                     __end_of_logf:	
  3510                           
  3511                           	psect	text4
  3512  0806                     __ptext4:	
  3513 ;; *************** function ___xxtofl *****************
  3514 ;; Defined at:
  3515 ;;		line 10 in file "C:\Program Files (x86)\Microchip\xc8\v2.10\pic\sources\c99\common\xxtofl.c"
  3516 ;; Parameters:    Size  Location     Type
  3517 ;;  sign            1    wreg     unsigned char 
  3518 ;;  val             4    2[COMMON] long 
  3519 ;; Auto vars:     Size  Location     Type
  3520 ;;  sign            1    0[BANK0 ] unsigned char 
  3521 ;;  arg             4    2[BANK0 ] unsigned long 
  3522 ;;  exp             1    1[BANK0 ] unsigned char 
  3523 ;; Return value:  Size  Location     Type
  3524 ;;                  4    2[COMMON] unsigned char 
  3525 ;; Registers used:
  3526 ;;		wreg, status,2, status,0
  3527 ;; Tracked objects:
  3528 ;;		On entry : 0/0
  3529 ;;		On exit  : 0/0
  3530 ;;		Unchanged: 0/0
  3531 ;; Data sizes:     COMMON   BANK0   BANK1   BANK2   BANK3   BANK4   BANK5   BANK6   BANK7   BANK8   BANK9  BANK10  BANK1
      +1  BANK12
  3532 ;;      Params:         4       0       0       0       0       0       0       0       0       0       0       0       
      +0       0
  3533 ;;      Locals:         0       6       0       0       0       0       0       0       0       0       0       0       
      +0       0
  3534 ;;      Temps:          4       0       0       0       0       0       0       0       0       0       0       0       
      +0       0
  3535 ;;      Totals:         8       6       0       0       0       0       0       0       0       0       0       0       
      +0       0
  3536 ;;Total ram usage:       14 bytes
  3537 ;; Hardware stack levels used:    1
  3538 ;; Hardware stack levels required when called:    2
  3539 ;; This function calls:
  3540 ;;		Nothing
  3541 ;; This function is called by:
  3542 ;;		_readSI7006
  3543 ;;		_logf
  3544 ;; This function uses a non-reentrant model
  3545 ;;
  3546                           
  3547                           
  3548                           ;psect for function ___xxtofl
  3549  0806                     ___xxtofl:	
  3550                           
  3551                           ;incstack = 0
  3552                           ; Regs used in ___xxtofl: [wreg+status,2+status,0]
  3553                           ;___xxtofl@sign stored from wreg
  3554  0806  0140               	movlb	0	; select bank0
  3555  0807  00A0               	movwf	___xxtofl@sign
  3556  0808                     l2113:	
  3557  0808  0820               	movf	___xxtofl@sign,w
  3558  0809  1903               	btfsc	3,2
  3559  080A  280C               	goto	u2671
  3560  080B  280D               	goto	u2670
  3561  080C                     u2671:	
  3562  080C  2821               	goto	l2119
  3563  080D                     u2670:	
  3564  080D                     l2115:	
  3565  080D  1FF5               	btfss	___xxtofl@val+3,7
  3566  080E  2810               	goto	u2681
  3567  080F  2811               	goto	u2680
  3568  0810                     u2681:	
  3569  0810  2821               	goto	l2119
  3570  0811                     u2680:	
  3571  0811                     l2117:	
  3572  0811  0972               	comf	___xxtofl@val,w
  3573  0812  00A2               	movwf	___xxtofl@arg
  3574  0813  0973               	comf	___xxtofl@val+1,w
  3575  0814  00A3               	movwf	___xxtofl@arg+1
  3576  0815  0974               	comf	___xxtofl@val+2,w
  3577  0816  00A4               	movwf	___xxtofl@arg+2
  3578  0817  0975               	comf	___xxtofl@val+3,w
  3579  0818  00A5               	movwf	___xxtofl@arg+3
  3580  0819  0AA2               	incf	___xxtofl@arg,f
  3581  081A  1903               	skipnz
  3582  081B  0AA3               	incf	___xxtofl@arg+1,f
  3583  081C  1903               	skipnz
  3584  081D  0AA4               	incf	___xxtofl@arg+2,f
  3585  081E  1903               	skipnz
  3586  081F  0AA5               	incf	___xxtofl@arg+3,f
  3587  0820  2829               	goto	l682
  3588  0821                     l2119:	
  3589  0821  0875               	movf	___xxtofl@val+3,w
  3590  0822  00A5               	movwf	___xxtofl@arg+3
  3591  0823  0874               	movf	___xxtofl@val+2,w
  3592  0824  00A4               	movwf	___xxtofl@arg+2
  3593  0825  0873               	movf	___xxtofl@val+1,w
  3594  0826  00A3               	movwf	___xxtofl@arg+1
  3595  0827  0872               	movf	___xxtofl@val,w
  3596  0828  00A2               	movwf	___xxtofl@arg
  3597  0829                     l682:	
  3598  0829  0875               	movf	___xxtofl@val+3,w
  3599  082A  0474               	iorwf	___xxtofl@val+2,w
  3600  082B  0473               	iorwf	___xxtofl@val+1,w
  3601  082C  0472               	iorwf	___xxtofl@val,w
  3602  082D  1D03               	skipz
  3603  082E  2830               	goto	u2691
  3604  082F  2831               	goto	u2690
  3605  0830                     u2691:	
  3606  0830  283A               	goto	l2125
  3607  0831                     u2690:	
  3608  0831                     l2121:	
  3609  0831  3000               	movlw	0
  3610  0832  00F5               	movwf	?___xxtofl+3
  3611  0833  3000               	movlw	0
  3612  0834  00F4               	movwf	?___xxtofl+2
  3613  0835  3000               	movlw	0
  3614  0836  00F3               	movwf	?___xxtofl+1
  3615  0837  3000               	movlw	0
  3616  0838  00F2               	movwf	?___xxtofl
  3617  0839  28B2               	goto	l684
  3618  083A                     l2125:	
  3619  083A  3096               	movlw	150
  3620  083B  00F6               	movwf	??___xxtofl
  3621  083C  0876               	movf	??___xxtofl,w
  3622  083D  00A1               	movwf	___xxtofl@exp
  3623  083E  284A               	goto	l2129
  3624  083F                     l2127:	
  3625  083F  3001               	movlw	1
  3626  0840  00F6               	movwf	??___xxtofl
  3627  0841  0876               	movf	??___xxtofl,w
  3628  0842  07A1               	addwf	___xxtofl@exp,f
  3629  0843  3001               	movlw	1
  3630  0844                     u2705:	
  3631  0844  36A5               	lsrf	___xxtofl@arg+3,f
  3632  0845  0CA4               	rrf	___xxtofl@arg+2,f
  3633  0846  0CA3               	rrf	___xxtofl@arg+1,f
  3634  0847  0CA2               	rrf	___xxtofl@arg,f
  3635  0848  0B89               	decfsz	9,f
  3636  0849  2844               	goto	u2705
  3637  084A                     l2129:	
  3638  084A  30FE               	movlw	254
  3639  084B  0525               	andwf	___xxtofl@arg+3,w
  3640  084C  1D03               	btfss	3,2
  3641  084D  284F               	goto	u2711
  3642  084E  2850               	goto	u2710
  3643  084F                     u2711:	
  3644  084F  283F               	goto	l2127
  3645  0850                     u2710:	
  3646  0850  2864               	goto	l688
  3647  0851                     l2131:	
  3648  0851  3001               	movlw	1
  3649  0852  00F6               	movwf	??___xxtofl
  3650  0853  0876               	movf	??___xxtofl,w
  3651  0854  07A1               	addwf	___xxtofl@exp,f
  3652  0855                     l2133:	
  3653  0855  3001               	movlw	1
  3654  0856  07A2               	addwf	___xxtofl@arg,f
  3655  0857  3000               	movlw	0
  3656  0858  3DA3               	addwfc	___xxtofl@arg+1,f
  3657  0859  3000               	movlw	0
  3658  085A  3DA4               	addwfc	___xxtofl@arg+2,f
  3659  085B  3000               	movlw	0
  3660  085C  3DA5               	addwfc	___xxtofl@arg+3,f
  3661  085D                     l2135:	
  3662  085D  3001               	movlw	1
  3663  085E                     u2725:	
  3664  085E  36A5               	lsrf	___xxtofl@arg+3,f
  3665  085F  0CA4               	rrf	___xxtofl@arg+2,f
  3666  0860  0CA3               	rrf	___xxtofl@arg+1,f
  3667  0861  0CA2               	rrf	___xxtofl@arg,f
  3668  0862  0B89               	decfsz	9,f
  3669  0863  285E               	goto	u2725
  3670  0864                     l688:	
  3671  0864  30FF               	movlw	255
  3672  0865  0525               	andwf	___xxtofl@arg+3,w
  3673  0866  1D03               	btfss	3,2
  3674  0867  2869               	goto	u2731
  3675  0868  286A               	goto	u2730
  3676  0869                     u2731:	
  3677  0869  2851               	goto	l2131
  3678  086A                     u2730:	
  3679  086A  2874               	goto	l2139
  3680  086B                     l2137:	
  3681  086B  3001               	movlw	1
  3682  086C  02A1               	subwf	___xxtofl@exp,f
  3683  086D  3001               	movlw	1
  3684  086E                     u2745:	
  3685  086E  35A2               	lslf	___xxtofl@arg,f
  3686  086F  0DA3               	rlf	___xxtofl@arg+1,f
  3687  0870  0DA4               	rlf	___xxtofl@arg+2,f
  3688  0871  0DA5               	rlf	___xxtofl@arg+3,f
  3689  0872  0B89               	decfsz	9,f
  3690  0873  286E               	goto	u2745
  3691  0874                     l2139:	
  3692  0874  1BA4               	btfsc	___xxtofl@arg+2,7
  3693  0875  2877               	goto	u2751
  3694  0876  2878               	goto	u2750
  3695  0877                     u2751:	
  3696  0877  287E               	goto	l695
  3697  0878                     u2750:	
  3698  0878                     l2141:	
  3699  0878  3002               	movlw	2
  3700  0879  0221               	subwf	___xxtofl@exp,w
  3701  087A  1803               	skipnc
  3702  087B  287D               	goto	u2761
  3703  087C  287E               	goto	u2760
  3704  087D                     u2761:	
  3705  087D  286B               	goto	l2137
  3706  087E                     u2760:	
  3707  087E                     l695:	
  3708  087E  1821               	btfsc	___xxtofl@exp,0
  3709  087F  2881               	goto	u2771
  3710  0880  2882               	goto	u2770
  3711  0881                     u2771:	
  3712  0881  288A               	goto	l696
  3713  0882                     u2770:	
  3714  0882                     l2143:	
  3715  0882  30FF               	movlw	255
  3716  0883  05A2               	andwf	___xxtofl@arg,f
  3717  0884  30FF               	movlw	255
  3718  0885  05A3               	andwf	___xxtofl@arg+1,f
  3719  0886  307F               	movlw	127
  3720  0887  05A4               	andwf	___xxtofl@arg+2,f
  3721  0888  30FF               	movlw	255
  3722  0889  05A5               	andwf	___xxtofl@arg+3,f
  3723  088A                     l696:	
  3724  088A  1003               	clrc
  3725  088B  0CA1               	rrf	___xxtofl@exp,f
  3726  088C                     l2145:	
  3727  088C  0821               	movf	___xxtofl@exp,w
  3728  088D  00F6               	movwf	??___xxtofl
  3729  088E  01F7               	clrf	??___xxtofl+1
  3730  088F  01F8               	clrf	??___xxtofl+2
  3731  0890  01F9               	clrf	??___xxtofl+3
  3732  0891  3018               	movlw	24
  3733  0892                     u2785:	
  3734  0892  35F6               	lslf	??___xxtofl,f
  3735  0893  0DF7               	rlf	??___xxtofl+1,f
  3736  0894  0DF8               	rlf	??___xxtofl+2,f
  3737  0895  0DF9               	rlf	??___xxtofl+3,f
  3738  0896                     u2780:	
  3739  0896  0B89               	decfsz	9,f
  3740  0897  2892               	goto	u2785
  3741  0898  0876               	movf	??___xxtofl,w
  3742  0899  04A2               	iorwf	___xxtofl@arg,f
  3743  089A  0877               	movf	??___xxtofl+1,w
  3744  089B  04A3               	iorwf	___xxtofl@arg+1,f
  3745  089C  0878               	movf	??___xxtofl+2,w
  3746  089D  04A4               	iorwf	___xxtofl@arg+2,f
  3747  089E  0879               	movf	??___xxtofl+3,w
  3748  089F  04A5               	iorwf	___xxtofl@arg+3,f
  3749  08A0                     l2147:	
  3750  08A0  0820               	movf	___xxtofl@sign,w
  3751  08A1  1903               	btfsc	3,2
  3752  08A2  28A4               	goto	u2791
  3753  08A3  28A5               	goto	u2790
  3754  08A4                     u2791:	
  3755  08A4  28AA               	goto	l2153
  3756  08A5                     u2790:	
  3757  08A5                     l2149:	
  3758  08A5  1FF5               	btfss	___xxtofl@val+3,7
  3759  08A6  28A8               	goto	u2801
  3760  08A7  28A9               	goto	u2800
  3761  08A8                     u2801:	
  3762  08A8  28AA               	goto	l2153
  3763  08A9                     u2800:	
  3764  08A9                     l2151:	
  3765  08A9  17A5               	bsf	___xxtofl@arg+3,7
  3766  08AA                     l2153:	
  3767  08AA  0825               	movf	___xxtofl@arg+3,w
  3768  08AB  00F5               	movwf	?___xxtofl+3
  3769  08AC  0824               	movf	___xxtofl@arg+2,w
  3770  08AD  00F4               	movwf	?___xxtofl+2
  3771  08AE  0823               	movf	___xxtofl@arg+1,w
  3772  08AF  00F3               	movwf	?___xxtofl+1
  3773  08B0  0822               	movf	___xxtofl@arg,w
  3774  08B1  00F2               	movwf	?___xxtofl
  3775  08B2                     l684:	
  3776  08B2  0008               	return
  3777  08B3                     __end_of___xxtofl:	
  3778                           
  3779                           	psect	text5
  3780  1700                     __ptext5:	
  3781 ;; *************** function ___flsub *****************
  3782 ;; Defined at:
  3783 ;;		line 242 in file "C:\Program Files (x86)\Microchip\xc8\v2.10\pic\sources\c99\common\sprcadd.c"
  3784 ;; Parameters:    Size  Location     Type
  3785 ;;  a               4    0[BANK1 ] unsigned char 
  3786 ;;  b               4    4[BANK1 ] unsigned char 
  3787 ;; Auto vars:     Size  Location     Type
  3788 ;;		None
  3789 ;; Return value:  Size  Location     Type
  3790 ;;                  4    0[BANK1 ] unsigned char 
  3791 ;; Registers used:
  3792 ;;		wreg, status,2, status,0, pclath, cstack
  3793 ;; Tracked objects:
  3794 ;;		On entry : 0/0
  3795 ;;		On exit  : 0/0
  3796 ;;		Unchanged: 0/0
  3797 ;; Data sizes:     COMMON   BANK0   BANK1   BANK2   BANK3   BANK4   BANK5   BANK6   BANK7   BANK8   BANK9  BANK10  BANK1
      +1  BANK12
  3798 ;;      Params:         0       0       8       0       0       0       0       0       0       0       0       0       
      +0       0
  3799 ;;      Locals:         0       0       0       0       0       0       0       0       0       0       0       0       
      +0       0
  3800 ;;      Temps:          0       0       0       0       0       0       0       0       0       0       0       0       
      +0       0
  3801 ;;      Totals:         0       0       8       0       0       0       0       0       0       0       0       0       
      +0       0
  3802 ;;Total ram usage:        8 bytes
  3803 ;; Hardware stack levels used:    1
  3804 ;; Hardware stack levels required when called:    3
  3805 ;; This function calls:
  3806 ;;		___fladd
  3807 ;; This function is called by:
  3808 ;;		_readSI7006
  3809 ;;		_logf
  3810 ;; This function uses a non-reentrant model
  3811 ;;
  3812                           
  3813                           
  3814                           ;psect for function ___flsub
  3815  1700                     ___flsub:	
  3816  1700                     l1827:	
  3817                           ;incstack = 0
  3818                           ; Regs used in ___flsub: [wreg+status,2+status,0+pclath+cstack]
  3819                           
  3820  1700  3080               	movlw	128
  3821  1701  0141               	movlb	1	; select bank1
  3822  1702  06A3               	xorwf	(___flsub@a+3)^(0+128),f
  3823  1703                     l1829:	
  3824  1703  0827               	movf	(___flsub@b+3)^(0+128),w
  3825  1704  0140               	movlb	0	; select bank0
  3826  1705  00DD               	movwf	___fladd@b+3
  3827  1706  0141               	movlb	1	; select bank1
  3828  1707  0826               	movf	(___flsub@b+2)^(0+128),w
  3829  1708  0140               	movlb	0	; select bank0
  3830  1709  00DC               	movwf	___fladd@b+2
  3831  170A  0141               	movlb	1	; select bank1
  3832  170B  0825               	movf	(___flsub@b+1)^(0+128),w
  3833  170C  0140               	movlb	0	; select bank0
  3834  170D  00DB               	movwf	___fladd@b+1
  3835  170E  0141               	movlb	1	; select bank1
  3836  170F  0824               	movf	___flsub@b^(0+128),w
  3837  1710  0140               	movlb	0	; select bank0
  3838  1711  00DA               	movwf	___fladd@b
  3839  1712  0141               	movlb	1	; select bank1
  3840  1713  0823               	movf	(___flsub@a+3)^(0+128),w
  3841  1714  0140               	movlb	0	; select bank0
  3842  1715  00E1               	movwf	___fladd@a+3
  3843  1716  0141               	movlb	1	; select bank1
  3844  1717  0822               	movf	(___flsub@a+2)^(0+128),w
  3845  1718  0140               	movlb	0	; select bank0
  3846  1719  00E0               	movwf	___fladd@a+2
  3847  171A  0141               	movlb	1	; select bank1
  3848  171B  0821               	movf	(___flsub@a+1)^(0+128),w
  3849  171C  0140               	movlb	0	; select bank0
  3850  171D  00DF               	movwf	___fladd@a+1
  3851  171E  0141               	movlb	1	; select bank1
  3852  171F  0820               	movf	___flsub@a^(0+128),w
  3853  1720  0140               	movlb	0	; select bank0
  3854  1721  00DE               	movwf	___fladd@a
  3855  1722  318B  2371  3197   	fcall	___fladd
  3856  1725  0140               	movlb	0	; select bank0
  3857  1726  085D               	movf	?___fladd+3,w
  3858  1727  0141               	movlb	1	; select bank1
  3859  1728  00A3               	movwf	(?___flsub+3)^(0+128)
  3860  1729  0140               	movlb	0	; select bank0
  3861  172A  085C               	movf	?___fladd+2,w
  3862  172B  0141               	movlb	1	; select bank1
  3863  172C  00A2               	movwf	(?___flsub+2)^(0+128)
  3864  172D  0140               	movlb	0	; select bank0
  3865  172E  085B               	movf	?___fladd+1,w
  3866  172F  0141               	movlb	1	; select bank1
  3867  1730  00A1               	movwf	(?___flsub+1)^(0+128)
  3868  1731  0140               	movlb	0	; select bank0
  3869  1732  085A               	movf	?___fladd,w
  3870  1733  0141               	movlb	1	; select bank1
  3871  1734  00A0               	movwf	?___flsub^(0+128)
  3872  1735                     l594:	
  3873  1735  0008               	return
  3874  1736                     __end_of___flsub:	
  3875                           
  3876                           	psect	text6
  3877  0B71                     __ptext6:	
  3878 ;; *************** function ___fladd *****************
  3879 ;; Defined at:
  3880 ;;		line 10 in file "C:\Program Files (x86)\Microchip\xc8\v2.10\pic\sources\c99\common\sprcadd.c"
  3881 ;; Parameters:    Size  Location     Type
  3882 ;;  b               4   58[BANK0 ] unsigned char 
  3883 ;;  a               4   62[BANK0 ] unsigned char 
  3884 ;; Auto vars:     Size  Location     Type
  3885 ;;  grs             1   77[BANK0 ] unsigned char 
  3886 ;;  bexp            1   76[BANK0 ] unsigned char 
  3887 ;;  aexp            1   75[BANK0 ] unsigned char 
  3888 ;;  signs           1   74[BANK0 ] unsigned char 
  3889 ;; Return value:  Size  Location     Type
  3890 ;;                  4   58[BANK0 ] unsigned char 
  3891 ;; Registers used:
  3892 ;;		wreg, status,2, status,0
  3893 ;; Tracked objects:
  3894 ;;		On entry : 0/0
  3895 ;;		On exit  : 0/0
  3896 ;;		Unchanged: 0/0
  3897 ;; Data sizes:     COMMON   BANK0   BANK1   BANK2   BANK3   BANK4   BANK5   BANK6   BANK7   BANK8   BANK9  BANK10  BANK1
      +1  BANK12
  3898 ;;      Params:         0       8       0       0       0       0       0       0       0       0       0       0       
      +0       0
  3899 ;;      Locals:         0       4       0       0       0       0       0       0       0       0       0       0       
      +0       0
  3900 ;;      Temps:          0       8       0       0       0       0       0       0       0       0       0       0       
      +0       0
  3901 ;;      Totals:         0      20       0       0       0       0       0       0       0       0       0       0       
      +0       0
  3902 ;;Total ram usage:       20 bytes
  3903 ;; Hardware stack levels used:    1
  3904 ;; Hardware stack levels required when called:    2
  3905 ;; This function calls:
  3906 ;;		Nothing
  3907 ;; This function is called by:
  3908 ;;		_readSI7006
  3909 ;;		___flsub
  3910 ;;		_logf
  3911 ;; This function uses a non-reentrant model
  3912 ;;
  3913                           
  3914                           
  3915                           ;psect for function ___fladd
  3916  0B71                     ___fladd:	
  3917  0B71                     l1619:	
  3918                           ;incstack = 0
  3919                           ; Regs used in ___fladd: [wreg+status,2+status,0]
  3920                           
  3921  0B71  0140               	movlb	0	; select bank0
  3922  0B72  085D               	movf	___fladd@b+3,w
  3923  0B73  3980               	andlw	128
  3924  0B74  00E2               	movwf	??___fladd
  3925  0B75  0862               	movf	??___fladd,w
  3926  0B76  00EA               	movwf	___fladd@signs
  3927  0B77                     l1621:	
  3928  0B77  355D               	lslf	___fladd@b+3,w
  3929  0B78  00E2               	movwf	??___fladd
  3930  0B79  0862               	movf	??___fladd,w
  3931  0B7A  00EC               	movwf	___fladd@bexp
  3932  0B7B                     l1623:	
  3933  0B7B  1FDC               	btfss	___fladd@b+2,7
  3934  0B7C  2B7E               	goto	u1661
  3935  0B7D  2B7F               	goto	u1660
  3936  0B7E                     u1661:	
  3937  0B7E  2B80               	goto	l1627
  3938  0B7F                     u1660:	
  3939  0B7F                     l1625:	
  3940  0B7F  146C               	bsf	___fladd@bexp,0
  3941  0B80                     l1627:	
  3942  0B80  086C               	movf	___fladd@bexp,w
  3943  0B81  1903               	btfsc	3,2
  3944  0B82  2B84               	goto	u1671
  3945  0B83  2B85               	goto	u1670
  3946  0B84                     u1671:	
  3947  0B84  2B95               	goto	l1637
  3948  0B85                     u1670:	
  3949  0B85                     l1629:	
  3950  0B85  0A6C               	incf	___fladd@bexp,w
  3951  0B86  1D03               	btfss	3,2
  3952  0B87  2B89               	goto	u1681
  3953  0B88  2B8A               	goto	u1680
  3954  0B89                     u1681:	
  3955  0B89  2B92               	goto	l1633
  3956  0B8A                     u1680:	
  3957  0B8A                     l1631:	
  3958  0B8A  3000               	movlw	0
  3959  0B8B  00DD               	movwf	___fladd@b+3
  3960  0B8C  3000               	movlw	0
  3961  0B8D  00DC               	movwf	___fladd@b+2
  3962  0B8E  3000               	movlw	0
  3963  0B8F  00DB               	movwf	___fladd@b+1
  3964  0B90  3000               	movlw	0
  3965  0B91  00DA               	movwf	___fladd@b
  3966  0B92                     l1633:	
  3967  0B92  17DC               	bsf	___fladd@b+2,7
  3968  0B93                     l1635:	
  3969  0B93  01DD               	clrf	___fladd@b+3
  3970  0B94  2B9D               	goto	l1639
  3971  0B95                     l1637:	
  3972  0B95  3000               	movlw	0
  3973  0B96  00DD               	movwf	___fladd@b+3
  3974  0B97  3000               	movlw	0
  3975  0B98  00DC               	movwf	___fladd@b+2
  3976  0B99  3000               	movlw	0
  3977  0B9A  00DB               	movwf	___fladd@b+1
  3978  0B9B  3000               	movlw	0
  3979  0B9C  00DA               	movwf	___fladd@b
  3980  0B9D                     l1639:	
  3981  0B9D  0861               	movf	___fladd@a+3,w
  3982  0B9E  3980               	andlw	128
  3983  0B9F  00E2               	movwf	??___fladd
  3984  0BA0  0862               	movf	??___fladd,w
  3985  0BA1  00EB               	movwf	___fladd@aexp
  3986  0BA2                     l1641:	
  3987  0BA2  086B               	movf	___fladd@aexp,w
  3988  0BA3  066A               	xorwf	___fladd@signs,w
  3989  0BA4  1903               	skipnz
  3990  0BA5  2BA7               	goto	u1691
  3991  0BA6  2BA8               	goto	u1690
  3992  0BA7                     u1691:	
  3993  0BA7  2BA9               	goto	l1645
  3994  0BA8                     u1690:	
  3995  0BA8                     l1643:	
  3996  0BA8  176A               	bsf	___fladd@signs,6
  3997  0BA9                     l1645:	
  3998  0BA9  3561               	lslf	___fladd@a+3,w
  3999  0BAA  00E2               	movwf	??___fladd
  4000  0BAB  0862               	movf	??___fladd,w
  4001  0BAC  00EB               	movwf	___fladd@aexp
  4002  0BAD                     l1647:	
  4003  0BAD  1FE0               	btfss	___fladd@a+2,7
  4004  0BAE  2BB0               	goto	u1701
  4005  0BAF  2BB1               	goto	u1700
  4006  0BB0                     u1701:	
  4007  0BB0  2BB2               	goto	l1651
  4008  0BB1                     u1700:	
  4009  0BB1                     l1649:	
  4010  0BB1  146B               	bsf	___fladd@aexp,0
  4011  0BB2                     l1651:	
  4012  0BB2  086B               	movf	___fladd@aexp,w
  4013  0BB3  1903               	btfsc	3,2
  4014  0BB4  2BB6               	goto	u1711
  4015  0BB5  2BB7               	goto	u1710
  4016  0BB6                     u1711:	
  4017  0BB6  2BC7               	goto	l1661
  4018  0BB7                     u1710:	
  4019  0BB7                     l1653:	
  4020  0BB7  0A6B               	incf	___fladd@aexp,w
  4021  0BB8  1D03               	btfss	3,2
  4022  0BB9  2BBB               	goto	u1721
  4023  0BBA  2BBC               	goto	u1720
  4024  0BBB                     u1721:	
  4025  0BBB  2BC4               	goto	l1657
  4026  0BBC                     u1720:	
  4027  0BBC                     l1655:	
  4028  0BBC  3000               	movlw	0
  4029  0BBD  00E1               	movwf	___fladd@a+3
  4030  0BBE  3000               	movlw	0
  4031  0BBF  00E0               	movwf	___fladd@a+2
  4032  0BC0  3000               	movlw	0
  4033  0BC1  00DF               	movwf	___fladd@a+1
  4034  0BC2  3000               	movlw	0
  4035  0BC3  00DE               	movwf	___fladd@a
  4036  0BC4                     l1657:	
  4037  0BC4  17E0               	bsf	___fladd@a+2,7
  4038  0BC5                     l1659:	
  4039  0BC5  01E1               	clrf	___fladd@a+3
  4040  0BC6  2BCF               	goto	l548
  4041  0BC7                     l1661:	
  4042  0BC7  3000               	movlw	0
  4043  0BC8  00E1               	movwf	___fladd@a+3
  4044  0BC9  3000               	movlw	0
  4045  0BCA  00E0               	movwf	___fladd@a+2
  4046  0BCB  3000               	movlw	0
  4047  0BCC  00DF               	movwf	___fladd@a+1
  4048  0BCD  3000               	movlw	0
  4049  0BCE  00DE               	movwf	___fladd@a
  4050  0BCF                     l548:	
  4051  0BCF  086C               	movf	___fladd@bexp,w
  4052  0BD0  026B               	subwf	___fladd@aexp,w
  4053  0BD1  1803               	skipnc
  4054  0BD2  2BD4               	goto	u1731
  4055  0BD3  2BD5               	goto	u1730
  4056  0BD4                     u1731:	
  4057  0BD4  2C19               	goto	l1697
  4058  0BD5                     u1730:	
  4059  0BD5                     l1663:	
  4060  0BD5  1F6A               	btfss	___fladd@signs,6
  4061  0BD6  2BD8               	goto	u1741
  4062  0BD7  2BD9               	goto	u1740
  4063  0BD8                     u1741:	
  4064  0BD8  2BDD               	goto	l1667
  4065  0BD9                     u1740:	
  4066  0BD9                     l1665:	
  4067  0BD9  3080               	movlw	128
  4068  0BDA  00E2               	movwf	??___fladd
  4069  0BDB  0862               	movf	??___fladd,w
  4070  0BDC  06EA               	xorwf	___fladd@signs,f
  4071  0BDD                     l1667:	
  4072  0BDD  086C               	movf	___fladd@bexp,w
  4073  0BDE  00E2               	movwf	??___fladd
  4074  0BDF  0862               	movf	??___fladd,w
  4075  0BE0  00ED               	movwf	___fladd@grs
  4076  0BE1                     l1669:	
  4077  0BE1  086B               	movf	___fladd@aexp,w
  4078  0BE2  00E2               	movwf	??___fladd
  4079  0BE3  0862               	movf	??___fladd,w
  4080  0BE4  00EC               	movwf	___fladd@bexp
  4081  0BE5                     l1671:	
  4082  0BE5  086D               	movf	___fladd@grs,w
  4083  0BE6  00E2               	movwf	??___fladd
  4084  0BE7  0862               	movf	??___fladd,w
  4085  0BE8  00EB               	movwf	___fladd@aexp
  4086  0BE9                     l1673:	
  4087  0BE9  085A               	movf	___fladd@b,w
  4088  0BEA  00E2               	movwf	??___fladd
  4089  0BEB  0862               	movf	??___fladd,w
  4090  0BEC  00ED               	movwf	___fladd@grs
  4091  0BED                     l1675:	
  4092  0BED  085E               	movf	___fladd@a,w
  4093  0BEE  00E2               	movwf	??___fladd
  4094  0BEF  0862               	movf	??___fladd,w
  4095  0BF0  00DA               	movwf	___fladd@b
  4096  0BF1                     l1677:	
  4097  0BF1  086D               	movf	___fladd@grs,w
  4098  0BF2  00E2               	movwf	??___fladd
  4099  0BF3  0862               	movf	??___fladd,w
  4100  0BF4  00DE               	movwf	___fladd@a
  4101  0BF5                     l1679:	
  4102  0BF5  085B               	movf	___fladd@b+1,w
  4103  0BF6  00E2               	movwf	??___fladd
  4104  0BF7  0862               	movf	??___fladd,w
  4105  0BF8  00ED               	movwf	___fladd@grs
  4106  0BF9                     l1681:	
  4107  0BF9  085F               	movf	___fladd@a+1,w
  4108  0BFA  00E2               	movwf	??___fladd
  4109  0BFB  0862               	movf	??___fladd,w
  4110  0BFC  00DB               	movwf	___fladd@b+1
  4111  0BFD                     l1683:	
  4112  0BFD  086D               	movf	___fladd@grs,w
  4113  0BFE  00E2               	movwf	??___fladd
  4114  0BFF  0862               	movf	??___fladd,w
  4115  0C00  00DF               	movwf	___fladd@a+1
  4116  0C01                     l1685:	
  4117  0C01  085C               	movf	___fladd@b+2,w
  4118  0C02  00E2               	movwf	??___fladd
  4119  0C03  0862               	movf	??___fladd,w
  4120  0C04  00ED               	movwf	___fladd@grs
  4121  0C05                     l1687:	
  4122  0C05  0860               	movf	___fladd@a+2,w
  4123  0C06  00E2               	movwf	??___fladd
  4124  0C07  0862               	movf	??___fladd,w
  4125  0C08  00DC               	movwf	___fladd@b+2
  4126  0C09                     l1689:	
  4127  0C09  086D               	movf	___fladd@grs,w
  4128  0C0A  00E2               	movwf	??___fladd
  4129  0C0B  0862               	movf	??___fladd,w
  4130  0C0C  00E0               	movwf	___fladd@a+2
  4131  0C0D                     l1691:	
  4132  0C0D  085D               	movf	___fladd@b+3,w
  4133  0C0E  00E2               	movwf	??___fladd
  4134  0C0F  0862               	movf	??___fladd,w
  4135  0C10  00ED               	movwf	___fladd@grs
  4136  0C11                     l1693:	
  4137  0C11  0861               	movf	___fladd@a+3,w
  4138  0C12  00E2               	movwf	??___fladd
  4139  0C13  0862               	movf	??___fladd,w
  4140  0C14  00DD               	movwf	___fladd@b+3
  4141  0C15                     l1695:	
  4142  0C15  086D               	movf	___fladd@grs,w
  4143  0C16  00E2               	movwf	??___fladd
  4144  0C17  0862               	movf	??___fladd,w
  4145  0C18  00E1               	movwf	___fladd@a+3
  4146  0C19                     l1697:	
  4147  0C19  01ED               	clrf	___fladd@grs
  4148  0C1A                     l1699:	
  4149  0C1A  086B               	movf	___fladd@aexp,w
  4150  0C1B  00E2               	movwf	??___fladd
  4151  0C1C  01E3               	clrf	??___fladd+1
  4152  0C1D  0863               	movf	??___fladd+1,w
  4153  0C1E  00E5               	movwf	??___fladd+3
  4154  0C1F  086C               	movf	___fladd@bexp,w
  4155  0C20  0262               	subwf	??___fladd,w
  4156  0C21  00E4               	movwf	??___fladd+2
  4157  0C22  1C03               	skipc
  4158  0C23  03E5               	decf	??___fladd+3,f
  4159  0C24  0865               	movf	??___fladd+3,w
  4160  0C25  3A80               	xorlw	128
  4161  0C26  00E6               	movwf	??___fladd+4
  4162  0C27  3080               	movlw	128
  4163  0C28  0266               	subwf	??___fladd+4,w
  4164  0C29  1D03               	skipz
  4165  0C2A  2C2D               	goto	u1755
  4166  0C2B  301A               	movlw	26
  4167  0C2C  0264               	subwf	??___fladd+2,w
  4168  0C2D                     u1755:	
  4169  0C2D  1C03               	skipc
  4170  0C2E  2C30               	goto	u1751
  4171  0C2F  2C31               	goto	u1750
  4172  0C30                     u1751:	
  4173  0C30  2C69               	goto	l1715
  4174  0C31                     u1750:	
  4175  0C31                     l1701:	
  4176  0C31  0140               	movlb	0	; select bank0
  4177  0C32  085D               	movf	___fladd@b+3,w
  4178  0C33  045C               	iorwf	___fladd@b+2,w
  4179  0C34  045B               	iorwf	___fladd@b+1,w
  4180  0C35  045A               	iorwf	___fladd@b,w
  4181  0C36  1D03               	skipz
  4182  0C37  2C39               	goto	u1761
  4183  0C38  2C3B               	goto	u1760
  4184  0C39                     u1761:	
  4185  0C39  3001               	movlw	1
  4186  0C3A  2C3C               	goto	u1770
  4187  0C3B                     u1760:	
  4188  0C3B  3000               	movlw	0
  4189  0C3C                     u1770:	
  4190  0C3C  00E2               	movwf	??___fladd
  4191  0C3D  0862               	movf	??___fladd,w
  4192  0C3E  00ED               	movwf	___fladd@grs
  4193  0C3F  3000               	movlw	0
  4194  0C40  00DD               	movwf	___fladd@b+3
  4195  0C41  3000               	movlw	0
  4196  0C42  00DC               	movwf	___fladd@b+2
  4197  0C43  3000               	movlw	0
  4198  0C44  00DB               	movwf	___fladd@b+1
  4199  0C45  3000               	movlw	0
  4200  0C46  00DA               	movwf	___fladd@b
  4201  0C47  086B               	movf	___fladd@aexp,w
  4202  0C48  00E2               	movwf	??___fladd
  4203  0C49  0862               	movf	??___fladd,w
  4204  0C4A  00EC               	movwf	___fladd@bexp
  4205  0C4B  2C70               	goto	l552
  4206  0C4C                     l554:	
  4207  0C4C  1C6D               	btfss	___fladd@grs,0
  4208  0C4D  2C4F               	goto	u1781
  4209  0C4E  2C50               	goto	u1780
  4210  0C4F                     u1781:	
  4211  0C4F  2C56               	goto	l1705
  4212  0C50                     u1780:	
  4213  0C50                     l1703:	
  4214  0C50  366D               	lsrf	___fladd@grs,w
  4215  0C51  3801               	iorlw	1
  4216  0C52  00E2               	movwf	??___fladd
  4217  0C53  0862               	movf	??___fladd,w
  4218  0C54  00ED               	movwf	___fladd@grs
  4219  0C55  2C58               	goto	l1707
  4220  0C56                     l1705:	
  4221  0C56  1003               	clrc
  4222  0C57  0CED               	rrf	___fladd@grs,f
  4223  0C58                     l1707:	
  4224  0C58  1C5A               	btfss	___fladd@b,0
  4225  0C59  2C5B               	goto	u1791
  4226  0C5A  2C5C               	goto	u1790
  4227  0C5B                     u1791:	
  4228  0C5B  2C5D               	goto	l1711
  4229  0C5C                     u1790:	
  4230  0C5C                     l1709:	
  4231  0C5C  17ED               	bsf	___fladd@grs,7
  4232  0C5D                     l1711:	
  4233  0C5D  3001               	movlw	1
  4234  0C5E  00E2               	movwf	??___fladd
  4235  0C5F                     u1805:	
  4236  0C5F  37DD               	asrf	___fladd@b+3,f
  4237  0C60  0CDC               	rrf	___fladd@b+2,f
  4238  0C61  0CDB               	rrf	___fladd@b+1,f
  4239  0C62  0CDA               	rrf	___fladd@b,f
  4240  0C63  0BE2               	decfsz	??___fladd& (0+127),f
  4241  0C64  2C5F               	goto	u1805
  4242  0C65                     l1713:	
  4243  0C65  3001               	movlw	1
  4244  0C66  00E2               	movwf	??___fladd
  4245  0C67  0862               	movf	??___fladd,w
  4246  0C68  07EC               	addwf	___fladd@bexp,f
  4247  0C69                     l1715:	
  4248  0C69  0140               	movlb	0	; select bank0
  4249  0C6A  086B               	movf	___fladd@aexp,w
  4250  0C6B  026C               	subwf	___fladd@bexp,w
  4251  0C6C  1C03               	skipc
  4252  0C6D  2C6F               	goto	u1811
  4253  0C6E  2C70               	goto	u1810
  4254  0C6F                     u1811:	
  4255  0C6F  2C4C               	goto	l554
  4256  0C70                     u1810:	
  4257  0C70                     l552:	
  4258  0C70  1B6A               	btfsc	___fladd@signs,6
  4259  0C71  2C73               	goto	u1821
  4260  0C72  2C74               	goto	u1820
  4261  0C73                     u1821:	
  4262  0C73  2CAC               	goto	l1741
  4263  0C74                     u1820:	
  4264  0C74                     l1717:	
  4265  0C74  086C               	movf	___fladd@bexp,w
  4266  0C75  1D03               	btfss	3,2
  4267  0C76  2C78               	goto	u1831
  4268  0C77  2C79               	goto	u1830
  4269  0C78                     u1831:	
  4270  0C78  2C82               	goto	l1723
  4271  0C79                     u1830:	
  4272  0C79                     l1719:	
  4273  0C79  3000               	movlw	0
  4274  0C7A  00DD               	movwf	?___fladd+3
  4275  0C7B  3000               	movlw	0
  4276  0C7C  00DC               	movwf	?___fladd+2
  4277  0C7D  3000               	movlw	0
  4278  0C7E  00DB               	movwf	?___fladd+1
  4279  0C7F  3000               	movlw	0
  4280  0C80  00DA               	movwf	?___fladd
  4281  0C81  2DA8               	goto	l561
  4282  0C82                     l1723:	
  4283  0C82  085E               	movf	___fladd@a,w
  4284  0C83  07DA               	addwf	___fladd@b,f
  4285  0C84  085F               	movf	___fladd@a+1,w
  4286  0C85  3DDB               	addwfc	___fladd@b+1,f
  4287  0C86  0860               	movf	___fladd@a+2,w
  4288  0C87  3DDC               	addwfc	___fladd@b+2,f
  4289  0C88  0861               	movf	___fladd@a+3,w
  4290  0C89  3DDD               	addwfc	___fladd@b+3,f
  4291  0C8A                     l1725:	
  4292  0C8A  1C5D               	btfss	___fladd@b+3,0
  4293  0C8B  2C8D               	goto	u1841
  4294  0C8C  2C8E               	goto	u1840
  4295  0C8D                     u1841:	
  4296  0C8D  2D38               	goto	l1775
  4297  0C8E                     u1840:	
  4298  0C8E                     l1727:	
  4299  0C8E  1C6D               	btfss	___fladd@grs,0
  4300  0C8F  2C91               	goto	u1851
  4301  0C90  2C92               	goto	u1850
  4302  0C91                     u1851:	
  4303  0C91  2C98               	goto	l1731
  4304  0C92                     u1850:	
  4305  0C92                     l1729:	
  4306  0C92  366D               	lsrf	___fladd@grs,w
  4307  0C93  3801               	iorlw	1
  4308  0C94  00E2               	movwf	??___fladd
  4309  0C95  0862               	movf	??___fladd,w
  4310  0C96  00ED               	movwf	___fladd@grs
  4311  0C97  2C9A               	goto	l1733
  4312  0C98                     l1731:	
  4313  0C98  1003               	clrc
  4314  0C99  0CED               	rrf	___fladd@grs,f
  4315  0C9A                     l1733:	
  4316  0C9A  1C5A               	btfss	___fladd@b,0
  4317  0C9B  2C9D               	goto	u1861
  4318  0C9C  2C9E               	goto	u1860
  4319  0C9D                     u1861:	
  4320  0C9D  2C9F               	goto	l1737
  4321  0C9E                     u1860:	
  4322  0C9E                     l1735:	
  4323  0C9E  17ED               	bsf	___fladd@grs,7
  4324  0C9F                     l1737:	
  4325  0C9F  3001               	movlw	1
  4326  0CA0  00E2               	movwf	??___fladd
  4327  0CA1                     u1875:	
  4328  0CA1  37DD               	asrf	___fladd@b+3,f
  4329  0CA2  0CDC               	rrf	___fladd@b+2,f
  4330  0CA3  0CDB               	rrf	___fladd@b+1,f
  4331  0CA4  0CDA               	rrf	___fladd@b,f
  4332  0CA5  0BE2               	decfsz	??___fladd& (0+127),f
  4333  0CA6  2CA1               	goto	u1875
  4334  0CA7                     l1739:	
  4335  0CA7  3001               	movlw	1
  4336  0CA8  00E2               	movwf	??___fladd
  4337  0CA9  0862               	movf	??___fladd,w
  4338  0CAA  07EC               	addwf	___fladd@bexp,f
  4339  0CAB  2D38               	goto	l1775
  4340  0CAC                     l1741:	
  4341  0CAC  085D               	movf	___fladd@b+3,w
  4342  0CAD  3A80               	xorlw	128
  4343  0CAE  00E2               	movwf	??___fladd
  4344  0CAF  0861               	movf	___fladd@a+3,w
  4345  0CB0  3A80               	xorlw	128
  4346  0CB1  0262               	subwf	??___fladd,w
  4347  0CB2  1D03               	skipz
  4348  0CB3  2CBE               	goto	u1883
  4349  0CB4  0860               	movf	___fladd@a+2,w
  4350  0CB5  025C               	subwf	___fladd@b+2,w
  4351  0CB6  1D03               	skipz
  4352  0CB7  2CBE               	goto	u1883
  4353  0CB8  085F               	movf	___fladd@a+1,w
  4354  0CB9  025B               	subwf	___fladd@b+1,w
  4355  0CBA  1D03               	skipz
  4356  0CBB  2CBE               	goto	u1883
  4357  0CBC  085E               	movf	___fladd@a,w
  4358  0CBD  025A               	subwf	___fladd@b,w
  4359  0CBE                     u1883:	
  4360  0CBE  1803               	skipnc
  4361  0CBF  2CC1               	goto	u1881
  4362  0CC0  2CC2               	goto	u1880
  4363  0CC1                     u1881:	
  4364  0CC1  2CFA               	goto	l1751
  4365  0CC2                     u1880:	
  4366  0CC2                     l1743:	
  4367  0CC2  30FF               	movlw	255
  4368  0CC3  00E2               	movwf	??___fladd
  4369  0CC4  30FF               	movlw	255
  4370  0CC5  00E3               	movwf	??___fladd+1
  4371  0CC6  30FF               	movlw	255
  4372  0CC7  00E4               	movwf	??___fladd+2
  4373  0CC8  30FF               	movlw	255
  4374  0CC9  00E5               	movwf	??___fladd+3
  4375  0CCA  085A               	movf	___fladd@b,w
  4376  0CCB  025E               	subwf	___fladd@a,w
  4377  0CCC  00E6               	movwf	??___fladd+4
  4378  0CCD  085B               	movf	___fladd@b+1,w
  4379  0CCE  3B5F               	subwfb	___fladd@a+1,w
  4380  0CCF  00E7               	movwf	??___fladd+5
  4381  0CD0  085C               	movf	___fladd@b+2,w
  4382  0CD1  3B60               	subwfb	___fladd@a+2,w
  4383  0CD2  00E8               	movwf	??___fladd+6
  4384  0CD3  085D               	movf	___fladd@b+3,w
  4385  0CD4  3B61               	subwfb	___fladd@a+3,w
  4386  0CD5  00E9               	movwf	??___fladd+7
  4387  0CD6  0866               	movf	??___fladd+4,w
  4388  0CD7  07E2               	addwf	??___fladd,f
  4389  0CD8  0867               	movf	??___fladd+5,w
  4390  0CD9  3DE3               	addwfc	??___fladd+1,f
  4391  0CDA  0868               	movf	??___fladd+6,w
  4392  0CDB  3DE4               	addwfc	??___fladd+2,f
  4393  0CDC  0869               	movf	??___fladd+7,w
  4394  0CDD  3DE5               	addwfc	??___fladd+3,f
  4395  0CDE  0865               	movf	??___fladd+3,w
  4396  0CDF  00DD               	movwf	___fladd@b+3
  4397  0CE0  0864               	movf	??___fladd+2,w
  4398  0CE1  00DC               	movwf	___fladd@b+2
  4399  0CE2  0863               	movf	??___fladd+1,w
  4400  0CE3  00DB               	movwf	___fladd@b+1
  4401  0CE4  0862               	movf	??___fladd,w
  4402  0CE5  00DA               	movwf	___fladd@b
  4403  0CE6                     l1745:	
  4404  0CE6  3080               	movlw	128
  4405  0CE7  00E2               	movwf	??___fladd
  4406  0CE8  0862               	movf	??___fladd,w
  4407  0CE9  06EA               	xorwf	___fladd@signs,f
  4408  0CEA  09ED               	comf	___fladd@grs,f
  4409  0CEB  0AED               	incf	___fladd@grs,f
  4410  0CEC                     l1747:	
  4411  0CEC  086D               	movf	___fladd@grs,w
  4412  0CED  1D03               	btfss	3,2
  4413  0CEE  2CF0               	goto	u1891
  4414  0CEF  2CF1               	goto	u1890
  4415  0CF0                     u1891:	
  4416  0CF0  2D02               	goto	l569
  4417  0CF1                     u1890:	
  4418  0CF1                     l1749:	
  4419  0CF1  3001               	movlw	1
  4420  0CF2  07DA               	addwf	___fladd@b,f
  4421  0CF3  3000               	movlw	0
  4422  0CF4  3DDB               	addwfc	___fladd@b+1,f
  4423  0CF5  3000               	movlw	0
  4424  0CF6  3DDC               	addwfc	___fladd@b+2,f
  4425  0CF7  3000               	movlw	0
  4426  0CF8  3DDD               	addwfc	___fladd@b+3,f
  4427  0CF9  2D02               	goto	l569
  4428  0CFA                     l1751:	
  4429  0CFA  085E               	movf	___fladd@a,w
  4430  0CFB  02DA               	subwf	___fladd@b,f
  4431  0CFC  085F               	movf	___fladd@a+1,w
  4432  0CFD  3BDB               	subwfb	___fladd@b+1,f
  4433  0CFE  0860               	movf	___fladd@a+2,w
  4434  0CFF  3BDC               	subwfb	___fladd@b+2,f
  4435  0D00  0861               	movf	___fladd@a+3,w
  4436  0D01  3BDD               	subwfb	___fladd@b+3,f
  4437  0D02                     l569:	
  4438  0D02  085D               	movf	___fladd@b+3,w
  4439  0D03  045C               	iorwf	___fladd@b+2,w
  4440  0D04  045B               	iorwf	___fladd@b+1,w
  4441  0D05  045A               	iorwf	___fladd@b,w
  4442  0D06  1D03               	skipz
  4443  0D07  2D09               	goto	u1901
  4444  0D08  2D0A               	goto	u1900
  4445  0D09                     u1901:	
  4446  0D09  2D34               	goto	l1773
  4447  0D0A                     u1900:	
  4448  0D0A                     l1753:	
  4449  0D0A  086D               	movf	___fladd@grs,w
  4450  0D0B  1D03               	btfss	3,2
  4451  0D0C  2D0E               	goto	u1911
  4452  0D0D  2D0F               	goto	u1910
  4453  0D0E                     u1911:	
  4454  0D0E  2D34               	goto	l1773
  4455  0D0F                     u1910:	
  4456  0D0F                     l1755:	
  4457  0D0F  3000               	movlw	0
  4458  0D10  00DD               	movwf	?___fladd+3
  4459  0D11  3000               	movlw	0
  4460  0D12  00DC               	movwf	?___fladd+2
  4461  0D13  3000               	movlw	0
  4462  0D14  00DB               	movwf	?___fladd+1
  4463  0D15  3000               	movlw	0
  4464  0D16  00DA               	movwf	?___fladd
  4465  0D17  2DA8               	goto	l561
  4466  0D18                     l1759:	
  4467  0D18  3001               	movlw	1
  4468  0D19                     u1925:	
  4469  0D19  35DA               	lslf	___fladd@b,f
  4470  0D1A  0DDB               	rlf	___fladd@b+1,f
  4471  0D1B  0DDC               	rlf	___fladd@b+2,f
  4472  0D1C  0DDD               	rlf	___fladd@b+3,f
  4473  0D1D  0B89               	decfsz	9,f
  4474  0D1E  2D19               	goto	u1925
  4475  0D1F                     l1761:	
  4476  0D1F  1FED               	btfss	___fladd@grs,7
  4477  0D20  2D22               	goto	u1931
  4478  0D21  2D23               	goto	u1930
  4479  0D22                     u1931:	
  4480  0D22  2D24               	goto	l573
  4481  0D23                     u1930:	
  4482  0D23                     l1763:	
  4483  0D23  145A               	bsf	___fladd@b,0
  4484  0D24                     l573:	
  4485  0D24  1C6D               	btfss	___fladd@grs,0
  4486  0D25  2D27               	goto	u1941
  4487  0D26  2D28               	goto	u1940
  4488  0D27                     u1941:	
  4489  0D27  2D2B               	goto	l1767
  4490  0D28                     u1940:	
  4491  0D28                     l1765:	
  4492  0D28  1403               	setc
  4493  0D29  0DED               	rlf	___fladd@grs,f
  4494  0D2A  2D2D               	goto	l1769
  4495  0D2B                     l1767:	
  4496  0D2B  1003               	clrc
  4497  0D2C  0DED               	rlf	___fladd@grs,f
  4498  0D2D                     l1769:	
  4499  0D2D  086C               	movf	___fladd@bexp,w
  4500  0D2E  1903               	btfsc	3,2
  4501  0D2F  2D31               	goto	u1951
  4502  0D30  2D32               	goto	u1950
  4503  0D31                     u1951:	
  4504  0D31  2D34               	goto	l1773
  4505  0D32                     u1950:	
  4506  0D32                     l1771:	
  4507  0D32  3001               	movlw	1
  4508  0D33  02EC               	subwf	___fladd@bexp,f
  4509  0D34                     l1773:	
  4510  0D34  1FDC               	btfss	___fladd@b+2,7
  4511  0D35  2D37               	goto	u1961
  4512  0D36  2D38               	goto	u1960
  4513  0D37                     u1961:	
  4514  0D37  2D18               	goto	l1759
  4515  0D38                     u1960:	
  4516  0D38                     l1775:	
  4517  0D38  01EB               	clrf	___fladd@aexp
  4518  0D39                     l1777:	
  4519  0D39  1FED               	btfss	___fladd@grs,7
  4520  0D3A  2D3C               	goto	u1971
  4521  0D3B  2D3D               	goto	u1970
  4522  0D3C                     u1971:	
  4523  0D3C  2D4B               	goto	l1785
  4524  0D3D                     u1970:	
  4525  0D3D                     l1779:	
  4526  0D3D  086D               	movf	___fladd@grs,w
  4527  0D3E  397F               	andlw	127
  4528  0D3F  1903               	btfsc	3,2
  4529  0D40  2D42               	goto	u1981
  4530  0D41  2D43               	goto	u1980
  4531  0D42                     u1981:	
  4532  0D42  2D46               	goto	l579
  4533  0D43                     u1980:	
  4534  0D43                     l1781:	
  4535  0D43  01EB               	clrf	___fladd@aexp
  4536  0D44  0AEB               	incf	___fladd@aexp,f
  4537  0D45  2D4B               	goto	l1785
  4538  0D46                     l579:	
  4539  0D46  1C5A               	btfss	___fladd@b,0
  4540  0D47  2D49               	goto	u1991
  4541  0D48  2D4A               	goto	u1990
  4542  0D49                     u1991:	
  4543  0D49  2D4B               	goto	l1785
  4544  0D4A                     u1990:	
  4545  0D4A  2D43               	goto	l1781
  4546  0D4B                     l1785:	
  4547  0D4B  086B               	movf	___fladd@aexp,w
  4548  0D4C  1903               	btfsc	3,2
  4549  0D4D  2D4F               	goto	u2001
  4550  0D4E  2D50               	goto	u2000
  4551  0D4F                     u2001:	
  4552  0D4F  2D7D               	goto	l582
  4553  0D50                     u2000:	
  4554  0D50                     l1787:	
  4555  0D50  3001               	movlw	1
  4556  0D51  07DA               	addwf	___fladd@b,f
  4557  0D52  3000               	movlw	0
  4558  0D53  3DDB               	addwfc	___fladd@b+1,f
  4559  0D54  3000               	movlw	0
  4560  0D55  3DDC               	addwfc	___fladd@b+2,f
  4561  0D56  3000               	movlw	0
  4562  0D57  3DDD               	addwfc	___fladd@b+3,f
  4563  0D58                     l1789:	
  4564  0D58  1C5D               	btfss	___fladd@b+3,0
  4565  0D59  2D5B               	goto	u2011
  4566  0D5A  2D5C               	goto	u2010
  4567  0D5B                     u2011:	
  4568  0D5B  2D7D               	goto	l582
  4569  0D5C                     u2010:	
  4570  0D5C                     l1791:	
  4571  0D5C  085A               	movf	___fladd@b,w
  4572  0D5D  00E2               	movwf	??___fladd
  4573  0D5E  085B               	movf	___fladd@b+1,w
  4574  0D5F  00E3               	movwf	??___fladd+1
  4575  0D60  085C               	movf	___fladd@b+2,w
  4576  0D61  00E4               	movwf	??___fladd+2
  4577  0D62  085D               	movf	___fladd@b+3,w
  4578  0D63  00E5               	movwf	??___fladd+3
  4579  0D64  3001               	movlw	1
  4580  0D65  00E6               	movwf	??___fladd+4
  4581  0D66                     u2025:	
  4582  0D66  37E5               	asrf	??___fladd+3,f
  4583  0D67  0CE4               	rrf	??___fladd+2,f
  4584  0D68  0CE3               	rrf	??___fladd+1,f
  4585  0D69  0CE2               	rrf	??___fladd,f
  4586  0D6A                     u2020:	
  4587  0D6A  0BE6               	decfsz	??___fladd+4,f
  4588  0D6B  2D66               	goto	u2025
  4589  0D6C  0865               	movf	??___fladd+3,w
  4590  0D6D  00DD               	movwf	___fladd@b+3
  4591  0D6E  0864               	movf	??___fladd+2,w
  4592  0D6F  00DC               	movwf	___fladd@b+2
  4593  0D70  0863               	movf	??___fladd+1,w
  4594  0D71  00DB               	movwf	___fladd@b+1
  4595  0D72  0862               	movf	??___fladd,w
  4596  0D73  00DA               	movwf	___fladd@b
  4597  0D74  0A6C               	incf	___fladd@bexp,w
  4598  0D75  1903               	btfsc	3,2
  4599  0D76  2D78               	goto	u2031
  4600  0D77  2D79               	goto	u2030
  4601  0D78                     u2031:	
  4602  0D78  2D7D               	goto	l582
  4603  0D79                     u2030:	
  4604  0D79                     l1793:	
  4605  0D79  3001               	movlw	1
  4606  0D7A  00E2               	movwf	??___fladd
  4607  0D7B  0862               	movf	??___fladd,w
  4608  0D7C  07EC               	addwf	___fladd@bexp,f
  4609  0D7D                     l582:	
  4610  0D7D  0A6C               	incf	___fladd@bexp,w
  4611  0D7E  1903               	btfsc	3,2
  4612  0D7F  2D81               	goto	u2041
  4613  0D80  2D82               	goto	u2040
  4614  0D81                     u2041:	
  4615  0D81  2D87               	goto	l1797
  4616  0D82                     u2040:	
  4617  0D82                     l1795:	
  4618  0D82  086C               	movf	___fladd@bexp,w
  4619  0D83  1D03               	btfss	3,2
  4620  0D84  2D86               	goto	u2051
  4621  0D85  2D87               	goto	u2050
  4622  0D86                     u2051:	
  4623  0D86  2D95               	goto	l1803
  4624  0D87                     u2050:	
  4625  0D87                     l1797:	
  4626  0D87  3000               	movlw	0
  4627  0D88  00DD               	movwf	___fladd@b+3
  4628  0D89  3000               	movlw	0
  4629  0D8A  00DC               	movwf	___fladd@b+2
  4630  0D8B  3000               	movlw	0
  4631  0D8C  00DB               	movwf	___fladd@b+1
  4632  0D8D  3000               	movlw	0
  4633  0D8E  00DA               	movwf	___fladd@b
  4634  0D8F                     l1799:	
  4635  0D8F  086C               	movf	___fladd@bexp,w
  4636  0D90  1D03               	btfss	3,2
  4637  0D91  2D93               	goto	u2061
  4638  0D92  2D94               	goto	u2060
  4639  0D93                     u2061:	
  4640  0D93  2D95               	goto	l1803
  4641  0D94                     u2060:	
  4642  0D94                     l1801:	
  4643  0D94  01EA               	clrf	___fladd@signs
  4644  0D95                     l1803:	
  4645  0D95  1C6C               	btfss	___fladd@bexp,0
  4646  0D96  2D98               	goto	u2071
  4647  0D97  2D99               	goto	u2070
  4648  0D98                     u2071:	
  4649  0D98  2D9B               	goto	l1807
  4650  0D99                     u2070:	
  4651  0D99                     l1805:	
  4652  0D99  17DC               	bsf	___fladd@b+2,7
  4653  0D9A  2D9F               	goto	l590
  4654  0D9B                     l1807:	
  4655  0D9B  307F               	movlw	127
  4656  0D9C  00E2               	movwf	??___fladd
  4657  0D9D  0862               	movf	??___fladd,w
  4658  0D9E  05DC               	andwf	___fladd@b+2,f
  4659  0D9F                     l590:	
  4660  0D9F  366C               	lsrf	___fladd@bexp,w
  4661  0DA0  00E2               	movwf	??___fladd
  4662  0DA1  0862               	movf	??___fladd,w
  4663  0DA2  00DD               	movwf	___fladd@b+3
  4664  0DA3                     l1809:	
  4665  0DA3  1FEA               	btfss	___fladd@signs,7
  4666  0DA4  2DA6               	goto	u2081
  4667  0DA5  2DA7               	goto	u2080
  4668  0DA6                     u2081:	
  4669  0DA6  2DA8               	goto	l591
  4670  0DA7                     u2080:	
  4671  0DA7                     l1811:	
  4672  0DA7  17DD               	bsf	___fladd@b+3,7
  4673  0DA8                     l591:	
  4674  0DA8                     l561:	
  4675  0DA8  0008               	return
  4676  0DA9                     __end_of___fladd:	
  4677                           
  4678                           	psect	text7
  4679  0DA9                     __ptext7:	
  4680 ;; *************** function ___flmul *****************
  4681 ;; Defined at:
  4682 ;;		line 8 in file "C:\Program Files (x86)\Microchip\xc8\v2.10\pic\sources\c99\common\sprcmul.c"
  4683 ;; Parameters:    Size  Location     Type
  4684 ;;  b               4    6[BANK0 ] unsigned char 
  4685 ;;  a               4   10[BANK0 ] unsigned char 
  4686 ;; Auto vars:     Size  Location     Type
  4687 ;;  prod            4   26[BANK0 ] struct .
  4688 ;;  grs             4   21[BANK0 ] unsigned long 
  4689 ;;  temp            2   30[BANK0 ] struct .
  4690 ;;  bexp            1   25[BANK0 ] unsigned char 
  4691 ;;  aexp            1   20[BANK0 ] unsigned char 
  4692 ;;  sign            1   19[BANK0 ] unsigned char 
  4693 ;; Return value:  Size  Location     Type
  4694 ;;                  4    6[BANK0 ] unsigned char 
  4695 ;; Registers used:
  4696 ;;		wreg, status,2, status,0, pclath, cstack
  4697 ;; Tracked objects:
  4698 ;;		On entry : 0/0
  4699 ;;		On exit  : 0/0
  4700 ;;		Unchanged: 0/0
  4701 ;; Data sizes:     COMMON   BANK0   BANK1   BANK2   BANK3   BANK4   BANK5   BANK6   BANK7   BANK8   BANK9  BANK10  BANK1
      +1  BANK12
  4702 ;;      Params:         0       8       0       0       0       0       0       0       0       0       0       0       
      +0       0
  4703 ;;      Locals:         0      13       0       0       0       0       0       0       0       0       0       0       
      +0       0
  4704 ;;      Temps:          0       5       0       0       0       0       0       0       0       0       0       0       
      +0       0
  4705 ;;      Totals:         0      26       0       0       0       0       0       0       0       0       0       0       
      +0       0
  4706 ;;Total ram usage:       26 bytes
  4707 ;; Hardware stack levels used:    1
  4708 ;; Hardware stack levels required when called:    3
  4709 ;; This function calls:
  4710 ;;		__Umul8_16
  4711 ;; This function is called by:
  4712 ;;		_readSI7006
  4713 ;;		_logf
  4714 ;; This function uses a non-reentrant model
  4715 ;;
  4716                           
  4717                           
  4718                           ;psect for function ___flmul
  4719  0DA9                     ___flmul:	
  4720  0DA9                     l2533:	
  4721                           ;incstack = 0
  4722                           ; Regs used in ___flmul: [wreg+status,2+status,0+pclath+cstack]
  4723                           
  4724  0DA9  0140               	movlb	0	; select bank0
  4725  0DAA  0829               	movf	___flmul@b+3,w
  4726  0DAB  3980               	andlw	128
  4727  0DAC  00AE               	movwf	??___flmul
  4728  0DAD  082E               	movf	??___flmul,w
  4729  0DAE  00B3               	movwf	___flmul@sign
  4730  0DAF                     l2535:	
  4731  0DAF  3529               	lslf	___flmul@b+3,w
  4732  0DB0  00AE               	movwf	??___flmul
  4733  0DB1  082E               	movf	??___flmul,w
  4734  0DB2  00B9               	movwf	___flmul@bexp
  4735  0DB3                     l2537:	
  4736  0DB3  1FA8               	btfss	___flmul@b+2,7
  4737  0DB4  2DB6               	goto	u3341
  4738  0DB5  2DB7               	goto	u3340
  4739  0DB6                     u3341:	
  4740  0DB6  2DB8               	goto	l2541
  4741  0DB7                     u3340:	
  4742  0DB7                     l2539:	
  4743  0DB7  1439               	bsf	___flmul@bexp,0
  4744  0DB8                     l2541:	
  4745  0DB8  0839               	movf	___flmul@bexp,w
  4746  0DB9  1903               	btfsc	3,2
  4747  0DBA  2DBC               	goto	u3351
  4748  0DBB  2DBD               	goto	u3350
  4749  0DBC                     u3351:	
  4750  0DBC  2DCC               	goto	l2549
  4751  0DBD                     u3350:	
  4752  0DBD                     l2543:	
  4753  0DBD  0A39               	incf	___flmul@bexp,w
  4754  0DBE  1D03               	btfss	3,2
  4755  0DBF  2DC1               	goto	u3361
  4756  0DC0  2DC2               	goto	u3360
  4757  0DC1                     u3361:	
  4758  0DC1  2DCA               	goto	l2547
  4759  0DC2                     u3360:	
  4760  0DC2                     l2545:	
  4761  0DC2  3000               	movlw	0
  4762  0DC3  00A9               	movwf	___flmul@b+3
  4763  0DC4  3000               	movlw	0
  4764  0DC5  00A8               	movwf	___flmul@b+2
  4765  0DC6  3000               	movlw	0
  4766  0DC7  00A7               	movwf	___flmul@b+1
  4767  0DC8  3000               	movlw	0
  4768  0DC9  00A6               	movwf	___flmul@b
  4769  0DCA                     l2547:	
  4770  0DCA  17A8               	bsf	___flmul@b+2,7
  4771  0DCB  2DD4               	goto	l2551
  4772  0DCC                     l2549:	
  4773  0DCC  3000               	movlw	0
  4774  0DCD  00A9               	movwf	___flmul@b+3
  4775  0DCE  3000               	movlw	0
  4776  0DCF  00A8               	movwf	___flmul@b+2
  4777  0DD0  3000               	movlw	0
  4778  0DD1  00A7               	movwf	___flmul@b+1
  4779  0DD2  3000               	movlw	0
  4780  0DD3  00A6               	movwf	___flmul@b
  4781  0DD4                     l2551:	
  4782  0DD4  082D               	movf	___flmul@a+3,w
  4783  0DD5  3980               	andlw	128
  4784  0DD6  00AE               	movwf	??___flmul
  4785  0DD7  082E               	movf	??___flmul,w
  4786  0DD8  06B3               	xorwf	___flmul@sign,f
  4787  0DD9                     l2553:	
  4788  0DD9  352D               	lslf	___flmul@a+3,w
  4789  0DDA  00AE               	movwf	??___flmul
  4790  0DDB  082E               	movf	??___flmul,w
  4791  0DDC  00B4               	movwf	___flmul@aexp
  4792  0DDD                     l2555:	
  4793  0DDD  1FAC               	btfss	___flmul@a+2,7
  4794  0DDE  2DE0               	goto	u3371
  4795  0DDF  2DE1               	goto	u3370
  4796  0DE0                     u3371:	
  4797  0DE0  2DE2               	goto	l2559
  4798  0DE1                     u3370:	
  4799  0DE1                     l2557:	
  4800  0DE1  1434               	bsf	___flmul@aexp,0
  4801  0DE2                     l2559:	
  4802  0DE2  0834               	movf	___flmul@aexp,w
  4803  0DE3  1903               	btfsc	3,2
  4804  0DE4  2DE6               	goto	u3381
  4805  0DE5  2DE7               	goto	u3380
  4806  0DE6                     u3381:	
  4807  0DE6  2DF6               	goto	l2567
  4808  0DE7                     u3380:	
  4809  0DE7                     l2561:	
  4810  0DE7  0A34               	incf	___flmul@aexp,w
  4811  0DE8  1D03               	btfss	3,2
  4812  0DE9  2DEB               	goto	u3391
  4813  0DEA  2DEC               	goto	u3390
  4814  0DEB                     u3391:	
  4815  0DEB  2DF4               	goto	l2565
  4816  0DEC                     u3390:	
  4817  0DEC                     l2563:	
  4818  0DEC  3000               	movlw	0
  4819  0DED  00AD               	movwf	___flmul@a+3
  4820  0DEE  3000               	movlw	0
  4821  0DEF  00AC               	movwf	___flmul@a+2
  4822  0DF0  3000               	movlw	0
  4823  0DF1  00AB               	movwf	___flmul@a+1
  4824  0DF2  3000               	movlw	0
  4825  0DF3  00AA               	movwf	___flmul@a
  4826  0DF4                     l2565:	
  4827  0DF4  17AC               	bsf	___flmul@a+2,7
  4828  0DF5  2DFE               	goto	l2569
  4829  0DF6                     l2567:	
  4830  0DF6  3000               	movlw	0
  4831  0DF7  00AD               	movwf	___flmul@a+3
  4832  0DF8  3000               	movlw	0
  4833  0DF9  00AC               	movwf	___flmul@a+2
  4834  0DFA  3000               	movlw	0
  4835  0DFB  00AB               	movwf	___flmul@a+1
  4836  0DFC  3000               	movlw	0
  4837  0DFD  00AA               	movwf	___flmul@a
  4838  0DFE                     l2569:	
  4839  0DFE  0834               	movf	___flmul@aexp,w
  4840  0DFF  1903               	btfsc	3,2
  4841  0E00  2E02               	goto	u3401
  4842  0E01  2E03               	goto	u3400
  4843  0E02                     u3401:	
  4844  0E02  2E08               	goto	l2573
  4845  0E03                     u3400:	
  4846  0E03                     l2571:	
  4847  0E03  0839               	movf	___flmul@bexp,w
  4848  0E04  1D03               	btfss	3,2
  4849  0E05  2E07               	goto	u3411
  4850  0E06  2E08               	goto	u3410
  4851  0E07                     u3411:	
  4852  0E07  2E11               	goto	l2577
  4853  0E08                     u3410:	
  4854  0E08                     l2573:	
  4855  0E08  3000               	movlw	0
  4856  0E09  00A9               	movwf	?___flmul+3
  4857  0E0A  3000               	movlw	0
  4858  0E0B  00A8               	movwf	?___flmul+2
  4859  0E0C  3000               	movlw	0
  4860  0E0D  00A7               	movwf	?___flmul+1
  4861  0E0E  3000               	movlw	0
  4862  0E0F  00A6               	movwf	?___flmul
  4863  0E10  2FFF               	goto	l644
  4864  0E11                     l2577:	
  4865  0E11  0826               	movf	___flmul@b,w
  4866  0E12  00AE               	movwf	??___flmul
  4867  0E13  082E               	movf	??___flmul,w
  4868  0E14  00F2               	movwf	__Umul8_16@multiplicand
  4869  0E15  082C               	movf	___flmul@a+2,w
  4870  0E16  3196  264F  318D   	fcall	__Umul8_16
  4871  0E19  0873               	movf	?__Umul8_16+1,w
  4872  0E1A  0140               	movlb	0	; select bank0
  4873  0E1B  00BF               	movwf	___flmul@temp+1
  4874  0E1C  0872               	movf	?__Umul8_16,w
  4875  0E1D  00BE               	movwf	___flmul@temp
  4876  0E1E                     l2579:	
  4877  0E1E  083E               	movf	___flmul@temp,w
  4878  0E1F  00AE               	movwf	??___flmul
  4879  0E20  01AF               	clrf	??___flmul+1
  4880  0E21  01B0               	clrf	??___flmul+2
  4881  0E22  01B1               	clrf	??___flmul+3
  4882  0E23  0831               	movf	??___flmul+3,w
  4883  0E24  00B8               	movwf	___flmul@grs+3
  4884  0E25  0830               	movf	??___flmul+2,w
  4885  0E26  00B7               	movwf	___flmul@grs+2
  4886  0E27  082F               	movf	??___flmul+1,w
  4887  0E28  00B6               	movwf	___flmul@grs+1
  4888  0E29  082E               	movf	??___flmul,w
  4889  0E2A  00B5               	movwf	___flmul@grs
  4890  0E2B                     l2581:	
  4891  0E2B  083F               	movf	___flmul@temp+1,w
  4892  0E2C  00AE               	movwf	??___flmul
  4893  0E2D  01AF               	clrf	??___flmul+1
  4894  0E2E  01B0               	clrf	??___flmul+2
  4895  0E2F  01B1               	clrf	??___flmul+3
  4896  0E30  0831               	movf	??___flmul+3,w
  4897  0E31  00BD               	movwf	___flmul@prod+3
  4898  0E32  0830               	movf	??___flmul+2,w
  4899  0E33  00BC               	movwf	___flmul@prod+2
  4900  0E34  082F               	movf	??___flmul+1,w
  4901  0E35  00BB               	movwf	___flmul@prod+1
  4902  0E36  082E               	movf	??___flmul,w
  4903  0E37  00BA               	movwf	___flmul@prod
  4904  0E38  0827               	movf	___flmul@b+1,w
  4905  0E39  00AE               	movwf	??___flmul
  4906  0E3A  082E               	movf	??___flmul,w
  4907  0E3B  00F2               	movwf	__Umul8_16@multiplicand
  4908  0E3C  082B               	movf	___flmul@a+1,w
  4909  0E3D  3196  264F  318D   	fcall	__Umul8_16
  4910  0E40  0873               	movf	?__Umul8_16+1,w
  4911  0E41  0140               	movlb	0	; select bank0
  4912  0E42  00BF               	movwf	___flmul@temp+1
  4913  0E43  0872               	movf	?__Umul8_16,w
  4914  0E44  00BE               	movwf	___flmul@temp
  4915  0E45                     l2583:	
  4916  0E45  083E               	movf	___flmul@temp,w
  4917  0E46  00AE               	movwf	??___flmul
  4918  0E47  01AF               	clrf	??___flmul+1
  4919  0E48  01B0               	clrf	??___flmul+2
  4920  0E49  01B1               	clrf	??___flmul+3
  4921  0E4A  082E               	movf	??___flmul,w
  4922  0E4B  07B5               	addwf	___flmul@grs,f
  4923  0E4C  082F               	movf	??___flmul+1,w
  4924  0E4D  3DB6               	addwfc	___flmul@grs+1,f
  4925  0E4E  0830               	movf	??___flmul+2,w
  4926  0E4F  3DB7               	addwfc	___flmul@grs+2,f
  4927  0E50  0831               	movf	??___flmul+3,w
  4928  0E51  3DB8               	addwfc	___flmul@grs+3,f
  4929  0E52                     l2585:	
  4930  0E52  083F               	movf	___flmul@temp+1,w
  4931  0E53  00AE               	movwf	??___flmul
  4932  0E54  01AF               	clrf	??___flmul+1
  4933  0E55  01B0               	clrf	??___flmul+2
  4934  0E56  01B1               	clrf	??___flmul+3
  4935  0E57  082E               	movf	??___flmul,w
  4936  0E58  07BA               	addwf	___flmul@prod,f
  4937  0E59  082F               	movf	??___flmul+1,w
  4938  0E5A  3DBB               	addwfc	___flmul@prod+1,f
  4939  0E5B  0830               	movf	??___flmul+2,w
  4940  0E5C  3DBC               	addwfc	___flmul@prod+2,f
  4941  0E5D  0831               	movf	??___flmul+3,w
  4942  0E5E  3DBD               	addwfc	___flmul@prod+3,f
  4943  0E5F  0828               	movf	___flmul@b+2,w
  4944  0E60  00AE               	movwf	??___flmul
  4945  0E61  082E               	movf	??___flmul,w
  4946  0E62  00F2               	movwf	__Umul8_16@multiplicand
  4947  0E63  082A               	movf	___flmul@a,w
  4948  0E64  3196  264F  318D   	fcall	__Umul8_16
  4949  0E67  0873               	movf	?__Umul8_16+1,w
  4950  0E68  0140               	movlb	0	; select bank0
  4951  0E69  00BF               	movwf	___flmul@temp+1
  4952  0E6A  0872               	movf	?__Umul8_16,w
  4953  0E6B  00BE               	movwf	___flmul@temp
  4954  0E6C                     l2587:	
  4955  0E6C  083E               	movf	___flmul@temp,w
  4956  0E6D  00AE               	movwf	??___flmul
  4957  0E6E  01AF               	clrf	??___flmul+1
  4958  0E6F  01B0               	clrf	??___flmul+2
  4959  0E70  01B1               	clrf	??___flmul+3
  4960  0E71  082E               	movf	??___flmul,w
  4961  0E72  07B5               	addwf	___flmul@grs,f
  4962  0E73  082F               	movf	??___flmul+1,w
  4963  0E74  3DB6               	addwfc	___flmul@grs+1,f
  4964  0E75  0830               	movf	??___flmul+2,w
  4965  0E76  3DB7               	addwfc	___flmul@grs+2,f
  4966  0E77  0831               	movf	??___flmul+3,w
  4967  0E78  3DB8               	addwfc	___flmul@grs+3,f
  4968  0E79                     l2589:	
  4969  0E79  083F               	movf	___flmul@temp+1,w
  4970  0E7A  00AE               	movwf	??___flmul
  4971  0E7B  01AF               	clrf	??___flmul+1
  4972  0E7C  01B0               	clrf	??___flmul+2
  4973  0E7D  01B1               	clrf	??___flmul+3
  4974  0E7E  082E               	movf	??___flmul,w
  4975  0E7F  07BA               	addwf	___flmul@prod,f
  4976  0E80  082F               	movf	??___flmul+1,w
  4977  0E81  3DBB               	addwfc	___flmul@prod+1,f
  4978  0E82  0830               	movf	??___flmul+2,w
  4979  0E83  3DBC               	addwfc	___flmul@prod+2,f
  4980  0E84  0831               	movf	??___flmul+3,w
  4981  0E85  3DBD               	addwfc	___flmul@prod+3,f
  4982  0E86                     l2591:	
  4983  0E86  3008               	movlw	8
  4984  0E87                     u3425:	
  4985  0E87  35B5               	lslf	___flmul@grs,f
  4986  0E88  0DB6               	rlf	___flmul@grs+1,f
  4987  0E89  0DB7               	rlf	___flmul@grs+2,f
  4988  0E8A  0DB8               	rlf	___flmul@grs+3,f
  4989  0E8B  0B89               	decfsz	9,f
  4990  0E8C  2E87               	goto	u3425
  4991  0E8D                     l2593:	
  4992  0E8D  0827               	movf	___flmul@b+1,w
  4993  0E8E  00AE               	movwf	??___flmul
  4994  0E8F  082E               	movf	??___flmul,w
  4995  0E90  00F2               	movwf	__Umul8_16@multiplicand
  4996  0E91  082A               	movf	___flmul@a,w
  4997  0E92  3196  264F  318D   	fcall	__Umul8_16
  4998  0E95  0873               	movf	?__Umul8_16+1,w
  4999  0E96  0140               	movlb	0	; select bank0
  5000  0E97  00BF               	movwf	___flmul@temp+1
  5001  0E98  0872               	movf	?__Umul8_16,w
  5002  0E99  00BE               	movwf	___flmul@temp
  5003  0E9A                     l2595:	
  5004  0E9A  083E               	movf	___flmul@temp,w
  5005  0E9B  07B5               	addwf	___flmul@grs,f
  5006  0E9C  083F               	movf	___flmul@temp+1,w
  5007  0E9D  3DB6               	addwfc	___flmul@grs+1,f
  5008  0E9E  3000               	movlw	0
  5009  0E9F  3DB7               	addwfc	___flmul@grs+2,f
  5010  0EA0  3DB8               	addwfc	___flmul@grs+3,f
  5011  0EA1                     l2597:	
  5012  0EA1  0826               	movf	___flmul@b,w
  5013  0EA2  00AE               	movwf	??___flmul
  5014  0EA3  082E               	movf	??___flmul,w
  5015  0EA4  00F2               	movwf	__Umul8_16@multiplicand
  5016  0EA5  082B               	movf	___flmul@a+1,w
  5017  0EA6  3196  264F  318D   	fcall	__Umul8_16
  5018  0EA9  0873               	movf	?__Umul8_16+1,w
  5019  0EAA  0140               	movlb	0	; select bank0
  5020  0EAB  00BF               	movwf	___flmul@temp+1
  5021  0EAC  0872               	movf	?__Umul8_16,w
  5022  0EAD  00BE               	movwf	___flmul@temp
  5023  0EAE                     l2599:	
  5024  0EAE  083E               	movf	___flmul@temp,w
  5025  0EAF  07B5               	addwf	___flmul@grs,f
  5026  0EB0  083F               	movf	___flmul@temp+1,w
  5027  0EB1  3DB6               	addwfc	___flmul@grs+1,f
  5028  0EB2  3000               	movlw	0
  5029  0EB3  3DB7               	addwfc	___flmul@grs+2,f
  5030  0EB4  3DB8               	addwfc	___flmul@grs+3,f
  5031  0EB5                     l2601:	
  5032  0EB5  3008               	movlw	8
  5033  0EB6                     u3435:	
  5034  0EB6  35B5               	lslf	___flmul@grs,f
  5035  0EB7  0DB6               	rlf	___flmul@grs+1,f
  5036  0EB8  0DB7               	rlf	___flmul@grs+2,f
  5037  0EB9  0DB8               	rlf	___flmul@grs+3,f
  5038  0EBA  0B89               	decfsz	9,f
  5039  0EBB  2EB6               	goto	u3435
  5040  0EBC  0826               	movf	___flmul@b,w
  5041  0EBD  00AE               	movwf	??___flmul
  5042  0EBE  082E               	movf	??___flmul,w
  5043  0EBF  00F2               	movwf	__Umul8_16@multiplicand
  5044  0EC0  082A               	movf	___flmul@a,w
  5045  0EC1  3196  264F  318D   	fcall	__Umul8_16
  5046  0EC4  0873               	movf	?__Umul8_16+1,w
  5047  0EC5  0140               	movlb	0	; select bank0
  5048  0EC6  00BF               	movwf	___flmul@temp+1
  5049  0EC7  0872               	movf	?__Umul8_16,w
  5050  0EC8  00BE               	movwf	___flmul@temp
  5051  0EC9                     l2603:	
  5052  0EC9  083E               	movf	___flmul@temp,w
  5053  0ECA  07B5               	addwf	___flmul@grs,f
  5054  0ECB  083F               	movf	___flmul@temp+1,w
  5055  0ECC  3DB6               	addwfc	___flmul@grs+1,f
  5056  0ECD  3000               	movlw	0
  5057  0ECE  3DB7               	addwfc	___flmul@grs+2,f
  5058  0ECF  3DB8               	addwfc	___flmul@grs+3,f
  5059  0ED0                     l2605:	
  5060  0ED0  0827               	movf	___flmul@b+1,w
  5061  0ED1  00AE               	movwf	??___flmul
  5062  0ED2  082E               	movf	??___flmul,w
  5063  0ED3  00F2               	movwf	__Umul8_16@multiplicand
  5064  0ED4  082C               	movf	___flmul@a+2,w
  5065  0ED5  3196  264F  318D   	fcall	__Umul8_16
  5066  0ED8  0873               	movf	?__Umul8_16+1,w
  5067  0ED9  0140               	movlb	0	; select bank0
  5068  0EDA  00BF               	movwf	___flmul@temp+1
  5069  0EDB  0872               	movf	?__Umul8_16,w
  5070  0EDC  00BE               	movwf	___flmul@temp
  5071  0EDD  083E               	movf	___flmul@temp,w
  5072  0EDE  07BA               	addwf	___flmul@prod,f
  5073  0EDF  083F               	movf	___flmul@temp+1,w
  5074  0EE0  3DBB               	addwfc	___flmul@prod+1,f
  5075  0EE1  3000               	movlw	0
  5076  0EE2  3DBC               	addwfc	___flmul@prod+2,f
  5077  0EE3  3DBD               	addwfc	___flmul@prod+3,f
  5078  0EE4                     l2607:	
  5079  0EE4  0828               	movf	___flmul@b+2,w
  5080  0EE5  00AE               	movwf	??___flmul
  5081  0EE6  082E               	movf	??___flmul,w
  5082  0EE7  00F2               	movwf	__Umul8_16@multiplicand
  5083  0EE8  082B               	movf	___flmul@a+1,w
  5084  0EE9  3196  264F  318D   	fcall	__Umul8_16
  5085  0EEC  0873               	movf	?__Umul8_16+1,w
  5086  0EED  0140               	movlb	0	; select bank0
  5087  0EEE  00BF               	movwf	___flmul@temp+1
  5088  0EEF  0872               	movf	?__Umul8_16,w
  5089  0EF0  00BE               	movwf	___flmul@temp
  5090  0EF1                     l2609:	
  5091  0EF1  083E               	movf	___flmul@temp,w
  5092  0EF2  07BA               	addwf	___flmul@prod,f
  5093  0EF3  083F               	movf	___flmul@temp+1,w
  5094  0EF4  3DBB               	addwfc	___flmul@prod+1,f
  5095  0EF5  3000               	movlw	0
  5096  0EF6  3DBC               	addwfc	___flmul@prod+2,f
  5097  0EF7  3DBD               	addwfc	___flmul@prod+3,f
  5098  0EF8  0828               	movf	___flmul@b+2,w
  5099  0EF9  00AE               	movwf	??___flmul
  5100  0EFA  082E               	movf	??___flmul,w
  5101  0EFB  00F2               	movwf	__Umul8_16@multiplicand
  5102  0EFC  082C               	movf	___flmul@a+2,w
  5103  0EFD  3196  264F  318D   	fcall	__Umul8_16
  5104  0F00  0873               	movf	?__Umul8_16+1,w
  5105  0F01  0140               	movlb	0	; select bank0
  5106  0F02  00BF               	movwf	___flmul@temp+1
  5107  0F03  0872               	movf	?__Umul8_16,w
  5108  0F04  00BE               	movwf	___flmul@temp
  5109  0F05                     l2611:	
  5110  0F05  083E               	movf	___flmul@temp,w
  5111  0F06  00AE               	movwf	??___flmul
  5112  0F07  083F               	movf	___flmul@temp+1,w
  5113  0F08  00AF               	movwf	??___flmul+1
  5114  0F09  01B0               	clrf	??___flmul+2
  5115  0F0A  01B1               	clrf	??___flmul+3
  5116  0F0B  3008               	movlw	8
  5117  0F0C                     u3445:	
  5118  0F0C  35AE               	lslf	??___flmul,f
  5119  0F0D  0DAF               	rlf	??___flmul+1,f
  5120  0F0E  0DB0               	rlf	??___flmul+2,f
  5121  0F0F  0DB1               	rlf	??___flmul+3,f
  5122  0F10                     u3440:	
  5123  0F10  0B89               	decfsz	9,f
  5124  0F11  2F0C               	goto	u3445
  5125  0F12  082E               	movf	??___flmul,w
  5126  0F13  07BA               	addwf	___flmul@prod,f
  5127  0F14  082F               	movf	??___flmul+1,w
  5128  0F15  3DBB               	addwfc	___flmul@prod+1,f
  5129  0F16  0830               	movf	??___flmul+2,w
  5130  0F17  3DBC               	addwfc	___flmul@prod+2,f
  5131  0F18  0831               	movf	??___flmul+3,w
  5132  0F19  3DBD               	addwfc	___flmul@prod+3,f
  5133  0F1A                     l2613:	
  5134  0F1A  0835               	movf	___flmul@grs,w
  5135  0F1B  00AE               	movwf	??___flmul
  5136  0F1C  0836               	movf	___flmul@grs+1,w
  5137  0F1D  00AF               	movwf	??___flmul+1
  5138  0F1E  0837               	movf	___flmul@grs+2,w
  5139  0F1F  00B0               	movwf	??___flmul+2
  5140  0F20  0838               	movf	___flmul@grs+3,w
  5141  0F21  00B1               	movwf	??___flmul+3
  5142  0F22  3018               	movlw	24
  5143  0F23                     u3455:	
  5144  0F23  36B1               	lsrf	??___flmul+3,f
  5145  0F24  0CB0               	rrf	??___flmul+2,f
  5146  0F25  0CAF               	rrf	??___flmul+1,f
  5147  0F26  0CAE               	rrf	??___flmul,f
  5148  0F27                     u3450:	
  5149  0F27  0B89               	decfsz	9,f
  5150  0F28  2F23               	goto	u3455
  5151  0F29  082E               	movf	??___flmul,w
  5152  0F2A  07BA               	addwf	___flmul@prod,f
  5153  0F2B  082F               	movf	??___flmul+1,w
  5154  0F2C  3DBB               	addwfc	___flmul@prod+1,f
  5155  0F2D  0830               	movf	??___flmul+2,w
  5156  0F2E  3DBC               	addwfc	___flmul@prod+2,f
  5157  0F2F  0831               	movf	??___flmul+3,w
  5158  0F30  3DBD               	addwfc	___flmul@prod+3,f
  5159  0F31                     l2615:	
  5160  0F31  3008               	movlw	8
  5161  0F32                     u3465:	
  5162  0F32  35B5               	lslf	___flmul@grs,f
  5163  0F33  0DB6               	rlf	___flmul@grs+1,f
  5164  0F34  0DB7               	rlf	___flmul@grs+2,f
  5165  0F35  0DB8               	rlf	___flmul@grs+3,f
  5166  0F36  0B89               	decfsz	9,f
  5167  0F37  2F32               	goto	u3465
  5168  0F38                     l2617:	
  5169  0F38  0839               	movf	___flmul@bexp,w
  5170  0F39  0734               	addwf	___flmul@aexp,w
  5171  0F3A  00AE               	movwf	??___flmul
  5172  0F3B  01AF               	clrf	??___flmul+1
  5173  0F3C  0DAF               	rlf	??___flmul+1,f
  5174  0F3D  082E               	movf	??___flmul,w
  5175  0F3E  3E82               	addlw	130
  5176  0F3F  00BE               	movwf	___flmul@temp
  5177  0F40  30FF               	movlw	255
  5178  0F41  3D2F               	addwfc	??___flmul+1,w
  5179  0F42  00BF               	movwf	___flmul@temp+1
  5180  0F43  2F5B               	goto	l2629
  5181  0F44                     l2619:	
  5182  0F44  3001               	movlw	1
  5183  0F45                     u3475:	
  5184  0F45  35BA               	lslf	___flmul@prod,f
  5185  0F46  0DBB               	rlf	___flmul@prod+1,f
  5186  0F47  0DBC               	rlf	___flmul@prod+2,f
  5187  0F48  0DBD               	rlf	___flmul@prod+3,f
  5188  0F49  0B89               	decfsz	9,f
  5189  0F4A  2F45               	goto	u3475
  5190  0F4B                     l2621:	
  5191  0F4B  1FB8               	btfss	___flmul@grs+3,7
  5192  0F4C  2F4E               	goto	u3481
  5193  0F4D  2F4F               	goto	u3480
  5194  0F4E                     u3481:	
  5195  0F4E  2F50               	goto	l2625
  5196  0F4F                     u3480:	
  5197  0F4F                     l2623:	
  5198  0F4F  143A               	bsf	___flmul@prod,0
  5199  0F50                     l2625:	
  5200  0F50  3001               	movlw	1
  5201  0F51                     u3495:	
  5202  0F51  35B5               	lslf	___flmul@grs,f
  5203  0F52  0DB6               	rlf	___flmul@grs+1,f
  5204  0F53  0DB7               	rlf	___flmul@grs+2,f
  5205  0F54  0DB8               	rlf	___flmul@grs+3,f
  5206  0F55  0B89               	decfsz	9,f
  5207  0F56  2F51               	goto	u3495
  5208  0F57                     l2627:	
  5209  0F57  30FF               	movlw	255
  5210  0F58  07BE               	addwf	___flmul@temp,f
  5211  0F59  30FF               	movlw	255
  5212  0F5A  3DBF               	addwfc	___flmul@temp+1,f
  5213  0F5B                     l2629:	
  5214  0F5B  1FBC               	btfss	___flmul@prod+2,7
  5215  0F5C  2F5E               	goto	u3501
  5216  0F5D  2F5F               	goto	u3500
  5217  0F5E                     u3501:	
  5218  0F5E  2F44               	goto	l2619
  5219  0F5F                     u3500:	
  5220  0F5F                     l2631:	
  5221  0F5F  01B4               	clrf	___flmul@aexp
  5222  0F60                     l2633:	
  5223  0F60  1FB8               	btfss	___flmul@grs+3,7
  5224  0F61  2F63               	goto	u3511
  5225  0F62  2F64               	goto	u3510
  5226  0F63                     u3511:	
  5227  0F63  2F80               	goto	l2641
  5228  0F64                     u3510:	
  5229  0F64                     l2635:	
  5230  0F64  30FF               	movlw	255
  5231  0F65  0535               	andwf	___flmul@grs,w
  5232  0F66  00AE               	movwf	??___flmul
  5233  0F67  30FF               	movlw	255
  5234  0F68  0536               	andwf	___flmul@grs+1,w
  5235  0F69  00AF               	movwf	??___flmul+1
  5236  0F6A  30FF               	movlw	255
  5237  0F6B  0537               	andwf	___flmul@grs+2,w
  5238  0F6C  00B0               	movwf	??___flmul+2
  5239  0F6D  307F               	movlw	127
  5240  0F6E  0538               	andwf	___flmul@grs+3,w
  5241  0F6F  00B1               	movwf	??___flmul+3
  5242  0F70  0831               	movf	??___flmul+3,w
  5243  0F71  0430               	iorwf	??___flmul+2,w
  5244  0F72  042F               	iorwf	??___flmul+1,w
  5245  0F73  042E               	iorwf	??___flmul,w
  5246  0F74  1903               	skipnz
  5247  0F75  2F77               	goto	u3521
  5248  0F76  2F78               	goto	u3520
  5249  0F77                     u3521:	
  5250  0F77  2F7B               	goto	l650
  5251  0F78                     u3520:	
  5252  0F78                     l2637:	
  5253  0F78  01B4               	clrf	___flmul@aexp
  5254  0F79  0AB4               	incf	___flmul@aexp,f
  5255  0F7A  2F80               	goto	l2641
  5256  0F7B                     l650:	
  5257  0F7B  1C3A               	btfss	___flmul@prod,0
  5258  0F7C  2F7E               	goto	u3531
  5259  0F7D  2F7F               	goto	u3530
  5260  0F7E                     u3531:	
  5261  0F7E  2F80               	goto	l2641
  5262  0F7F                     u3530:	
  5263  0F7F  2F78               	goto	l2637
  5264  0F80                     l2641:	
  5265  0F80  0834               	movf	___flmul@aexp,w
  5266  0F81  1903               	btfsc	3,2
  5267  0F82  2F84               	goto	u3541
  5268  0F83  2F85               	goto	u3540
  5269  0F84                     u3541:	
  5270  0F84  2FAD               	goto	l2651
  5271  0F85                     u3540:	
  5272  0F85                     l2643:	
  5273  0F85  3001               	movlw	1
  5274  0F86  07BA               	addwf	___flmul@prod,f
  5275  0F87  3000               	movlw	0
  5276  0F88  3DBB               	addwfc	___flmul@prod+1,f
  5277  0F89  3000               	movlw	0
  5278  0F8A  3DBC               	addwfc	___flmul@prod+2,f
  5279  0F8B  3000               	movlw	0
  5280  0F8C  3DBD               	addwfc	___flmul@prod+3,f
  5281  0F8D                     l2645:	
  5282  0F8D  1C3D               	btfss	___flmul@prod+3,0
  5283  0F8E  2F90               	goto	u3551
  5284  0F8F  2F91               	goto	u3550
  5285  0F90                     u3551:	
  5286  0F90  2FAD               	goto	l2651
  5287  0F91                     u3550:	
  5288  0F91                     l2647:	
  5289  0F91  083A               	movf	___flmul@prod,w
  5290  0F92  00AE               	movwf	??___flmul
  5291  0F93  083B               	movf	___flmul@prod+1,w
  5292  0F94  00AF               	movwf	??___flmul+1
  5293  0F95  083C               	movf	___flmul@prod+2,w
  5294  0F96  00B0               	movwf	??___flmul+2
  5295  0F97  083D               	movf	___flmul@prod+3,w
  5296  0F98  00B1               	movwf	??___flmul+3
  5297  0F99  3001               	movlw	1
  5298  0F9A  00B2               	movwf	??___flmul+4
  5299  0F9B                     u3565:	
  5300  0F9B  37B1               	asrf	??___flmul+3,f
  5301  0F9C  0CB0               	rrf	??___flmul+2,f
  5302  0F9D  0CAF               	rrf	??___flmul+1,f
  5303  0F9E  0CAE               	rrf	??___flmul,f
  5304  0F9F                     u3560:	
  5305  0F9F  0BB2               	decfsz	??___flmul+4,f
  5306  0FA0  2F9B               	goto	u3565
  5307  0FA1  0831               	movf	??___flmul+3,w
  5308  0FA2  00BD               	movwf	___flmul@prod+3
  5309  0FA3  0830               	movf	??___flmul+2,w
  5310  0FA4  00BC               	movwf	___flmul@prod+2
  5311  0FA5  082F               	movf	??___flmul+1,w
  5312  0FA6  00BB               	movwf	___flmul@prod+1
  5313  0FA7  082E               	movf	??___flmul,w
  5314  0FA8  00BA               	movwf	___flmul@prod
  5315  0FA9                     l2649:	
  5316  0FA9  3001               	movlw	1
  5317  0FAA  07BE               	addwf	___flmul@temp,f
  5318  0FAB  3000               	movlw	0
  5319  0FAC  3DBF               	addwfc	___flmul@temp+1,f
  5320  0FAD                     l2651:	
  5321  0FAD  083F               	movf	___flmul@temp+1,w
  5322  0FAE  3A80               	xorlw	128
  5323  0FAF  00AE               	movwf	??___flmul
  5324  0FB0  3080               	movlw	128
  5325  0FB1  022E               	subwf	??___flmul,w
  5326  0FB2  1D03               	skipz
  5327  0FB3  2FB6               	goto	u3575
  5328  0FB4  30FF               	movlw	255
  5329  0FB5  023E               	subwf	___flmul@temp,w
  5330  0FB6                     u3575:	
  5331  0FB6  1C03               	skipc
  5332  0FB7  2FB9               	goto	u3571
  5333  0FB8  2FBA               	goto	u3570
  5334  0FB9                     u3571:	
  5335  0FB9  2FC4               	goto	l2655
  5336  0FBA                     u3570:	
  5337  0FBA                     l2653:	
  5338  0FBA  307F               	movlw	127
  5339  0FBB  0140               	movlb	0	; select bank0
  5340  0FBC  00BD               	movwf	___flmul@prod+3
  5341  0FBD  3080               	movlw	128
  5342  0FBE  00BC               	movwf	___flmul@prod+2
  5343  0FBF  3000               	movlw	0
  5344  0FC0  00BB               	movwf	___flmul@prod+1
  5345  0FC1  3000               	movlw	0
  5346  0FC2  00BA               	movwf	___flmul@prod
  5347  0FC3  2FF3               	goto	l656
  5348  0FC4                     l2655:	
  5349  0FC4  0140               	movlb	0	; select bank0
  5350  0FC5  083F               	movf	___flmul@temp+1,w
  5351  0FC6  3A80               	xorlw	128
  5352  0FC7  00AE               	movwf	??___flmul
  5353  0FC8  3080               	movlw	128
  5354  0FC9  022E               	subwf	??___flmul,w
  5355  0FCA  1D03               	skipz
  5356  0FCB  2FCE               	goto	u3585
  5357  0FCC  3001               	movlw	1
  5358  0FCD  023E               	subwf	___flmul@temp,w
  5359  0FCE                     u3585:	
  5360  0FCE  1803               	skipnc
  5361  0FCF  2FD1               	goto	u3581
  5362  0FD0  2FD2               	goto	u3580
  5363  0FD1                     u3581:	
  5364  0FD1  2FDD               	goto	l2661
  5365  0FD2                     u3580:	
  5366  0FD2                     l2657:	
  5367  0FD2  3000               	movlw	0
  5368  0FD3  0140               	movlb	0	; select bank0
  5369  0FD4  00BD               	movwf	___flmul@prod+3
  5370  0FD5  3000               	movlw	0
  5371  0FD6  00BC               	movwf	___flmul@prod+2
  5372  0FD7  3000               	movlw	0
  5373  0FD8  00BB               	movwf	___flmul@prod+1
  5374  0FD9  3000               	movlw	0
  5375  0FDA  00BA               	movwf	___flmul@prod
  5376  0FDB                     l2659:	
  5377  0FDB  01B3               	clrf	___flmul@sign
  5378  0FDC  2FF3               	goto	l656
  5379  0FDD                     l2661:	
  5380  0FDD  0140               	movlb	0	; select bank0
  5381  0FDE  083E               	movf	___flmul@temp,w
  5382  0FDF  00AE               	movwf	??___flmul
  5383  0FE0  082E               	movf	??___flmul,w
  5384  0FE1  00B9               	movwf	___flmul@bexp
  5385  0FE2  30FF               	movlw	255
  5386  0FE3  05BA               	andwf	___flmul@prod,f
  5387  0FE4  30FF               	movlw	255
  5388  0FE5  05BB               	andwf	___flmul@prod+1,f
  5389  0FE6  307F               	movlw	127
  5390  0FE7  05BC               	andwf	___flmul@prod+2,f
  5391  0FE8  3000               	movlw	0
  5392  0FE9  05BD               	andwf	___flmul@prod+3,f
  5393  0FEA                     l2663:	
  5394  0FEA  1C39               	btfss	___flmul@bexp,0
  5395  0FEB  2FED               	goto	u3591
  5396  0FEC  2FEE               	goto	u3590
  5397  0FED                     u3591:	
  5398  0FED  2FEF               	goto	l2667
  5399  0FEE                     u3590:	
  5400  0FEE                     l2665:	
  5401  0FEE  17BC               	bsf	___flmul@prod+2,7
  5402  0FEF                     l2667:	
  5403  0FEF  3639               	lsrf	___flmul@bexp,w
  5404  0FF0  00AE               	movwf	??___flmul
  5405  0FF1  082E               	movf	??___flmul,w
  5406  0FF2  00BD               	movwf	___flmul@prod+3
  5407  0FF3                     l656:	
  5408  0FF3  0833               	movf	___flmul@sign,w
  5409  0FF4  00AE               	movwf	??___flmul
  5410  0FF5  082E               	movf	??___flmul,w
  5411  0FF6  04BD               	iorwf	___flmul@prod+3,f
  5412  0FF7                     l2669:	
  5413  0FF7  083D               	movf	___flmul@prod+3,w
  5414  0FF8  00A9               	movwf	?___flmul+3
  5415  0FF9  083C               	movf	___flmul@prod+2,w
  5416  0FFA  00A8               	movwf	?___flmul+2
  5417  0FFB  083B               	movf	___flmul@prod+1,w
  5418  0FFC  00A7               	movwf	?___flmul+1
  5419  0FFD  083A               	movf	___flmul@prod,w
  5420  0FFE  00A6               	movwf	?___flmul
  5421  0FFF                     l644:	
  5422  0FFF  0008               	return
  5423  1000                     __end_of___flmul:	
  5424                           
  5425                           	psect	text8
  5426  164F                     __ptext8:	
  5427 ;; *************** function __Umul8_16 *****************
  5428 ;; Defined at:
  5429 ;;		line 4 in file "C:\Program Files (x86)\Microchip\xc8\v2.10\pic\sources\c99\common\Umul8_16.c"
  5430 ;; Parameters:    Size  Location     Type
  5431 ;;  multiplier      1    wreg     unsigned char 
  5432 ;;  multiplicand    1    2[COMMON] unsigned char 
  5433 ;; Auto vars:     Size  Location     Type
  5434 ;;  multiplier      1    4[BANK0 ] unsigned char 
  5435 ;;  word_mpld       2    2[BANK0 ] unsigned int 
  5436 ;;  product         2    0[BANK0 ] unsigned int 
  5437 ;; Return value:  Size  Location     Type
  5438 ;;                  2    2[COMMON] unsigned int 
  5439 ;; Registers used:
  5440 ;;		wreg, status,2, status,0
  5441 ;; Tracked objects:
  5442 ;;		On entry : 0/0
  5443 ;;		On exit  : 0/0
  5444 ;;		Unchanged: 0/0
  5445 ;; Data sizes:     COMMON   BANK0   BANK1   BANK2   BANK3   BANK4   BANK5   BANK6   BANK7   BANK8   BANK9  BANK10  BANK1
      +1  BANK12
  5446 ;;      Params:         2       0       0       0       0       0       0       0       0       0       0       0       
      +0       0
  5447 ;;      Locals:         0       5       0       0       0       0       0       0       0       0       0       0       
      +0       0
  5448 ;;      Temps:          2       0       0       0       0       0       0       0       0       0       0       0       
      +0       0
  5449 ;;      Totals:         4       5       0       0       0       0       0       0       0       0       0       0       
      +0       0
  5450 ;;Total ram usage:        9 bytes
  5451 ;; Hardware stack levels used:    1
  5452 ;; Hardware stack levels required when called:    2
  5453 ;; This function calls:
  5454 ;;		Nothing
  5455 ;; This function is called by:
  5456 ;;		___flmul
  5457 ;; This function uses a non-reentrant model
  5458 ;;
  5459                           
  5460                           
  5461                           ;psect for function __Umul8_16
  5462  164F                     __Umul8_16:	
  5463                           
  5464                           ;incstack = 0
  5465                           ; Regs used in __Umul8_16: [wreg+status,2+status,0]
  5466                           ;__Umul8_16@multiplier stored from wreg
  5467  164F  0140               	movlb	0	; select bank0
  5468  1650  00A4               	movwf	__Umul8_16@multiplier
  5469  1651                     l2519:	
  5470  1651  01A0               	clrf	__Umul8_16@product
  5471  1652  01A1               	clrf	__Umul8_16@product+1
  5472  1653                     l2521:	
  5473  1653  0872               	movf	__Umul8_16@multiplicand,w
  5474  1654  00F4               	movwf	??__Umul8_16
  5475  1655  01F5               	clrf	??__Umul8_16+1
  5476  1656  0874               	movf	??__Umul8_16,w
  5477  1657  00A2               	movwf	__Umul8_16@word_mpld
  5478  1658  0875               	movf	??__Umul8_16+1,w
  5479  1659  00A3               	movwf	__Umul8_16@word_mpld+1
  5480  165A                     l2523:	
  5481  165A  1C24               	btfss	__Umul8_16@multiplier,0
  5482  165B  2E5D               	goto	u3311
  5483  165C  2E5E               	goto	u3310
  5484  165D                     u3311:	
  5485  165D  2E62               	goto	l727
  5486  165E                     u3310:	
  5487  165E                     l2525:	
  5488  165E  0822               	movf	__Umul8_16@word_mpld,w
  5489  165F  07A0               	addwf	__Umul8_16@product,f
  5490  1660  0823               	movf	__Umul8_16@word_mpld+1,w
  5491  1661  3DA1               	addwfc	__Umul8_16@product+1,f
  5492  1662                     l727:	
  5493  1662  3001               	movlw	1
  5494  1663                     u3325:	
  5495  1663  35A2               	lslf	__Umul8_16@word_mpld,f
  5496  1664  0DA3               	rlf	__Umul8_16@word_mpld+1,f
  5497  1665  0B89               	decfsz	9,f
  5498  1666  2E63               	goto	u3325
  5499  1667  1003               	clrc
  5500  1668  0CA4               	rrf	__Umul8_16@multiplier,f
  5501  1669                     l2527:	
  5502  1669  0824               	movf	__Umul8_16@multiplier,w
  5503  166A  1D03               	btfss	3,2
  5504  166B  2E6D               	goto	u3331
  5505  166C  2E6E               	goto	u3330
  5506  166D                     u3331:	
  5507  166D  2E5A               	goto	l2523
  5508  166E                     u3330:	
  5509  166E                     l2529:	
  5510  166E  0821               	movf	__Umul8_16@product+1,w
  5511  166F  00F3               	movwf	?__Umul8_16+1
  5512  1670  0820               	movf	__Umul8_16@product,w
  5513  1671  00F2               	movwf	?__Umul8_16
  5514  1672                     l729:	
  5515  1672  0008               	return
  5516  1673                     __end_of__Umul8_16:	
  5517                           
  5518                           	psect	text9
  5519  09BD                     __ptext9:	
  5520 ;; *************** function ___fldiv *****************
  5521 ;; Defined at:
  5522 ;;		line 8 in file "C:\Program Files (x86)\Microchip\xc8\v2.10\pic\sources\c99\common\sprcdiv.c"
  5523 ;; Parameters:    Size  Location     Type
  5524 ;;  a               4   32[BANK0 ] unsigned int 
  5525 ;;  b               4   36[BANK0 ] unsigned int 
  5526 ;; Auto vars:     Size  Location     Type
  5527 ;;  grs             4   52[BANK0 ] unsigned long 
  5528 ;;  rem             4   45[BANK0 ] unsigned long 
  5529 ;;  new_exp         2   50[BANK0 ] int 
  5530 ;;  aexp            1   57[BANK0 ] unsigned char 
  5531 ;;  bexp            1   56[BANK0 ] unsigned char 
  5532 ;;  sign            1   49[BANK0 ] unsigned char 
  5533 ;; Return value:  Size  Location     Type
  5534 ;;                  4   32[BANK0 ] unsigned char 
  5535 ;; Registers used:
  5536 ;;		wreg, status,2, status,0
  5537 ;; Tracked objects:
  5538 ;;		On entry : 0/0
  5539 ;;		On exit  : 0/0
  5540 ;;		Unchanged: 0/0
  5541 ;; Data sizes:     COMMON   BANK0   BANK1   BANK2   BANK3   BANK4   BANK5   BANK6   BANK7   BANK8   BANK9  BANK10  BANK1
      +1  BANK12
  5542 ;;      Params:         0       8       0       0       0       0       0       0       0       0       0       0       
      +0       0
  5543 ;;      Locals:         0      13       0       0       0       0       0       0       0       0       0       0       
      +0       0
  5544 ;;      Temps:          0       5       0       0       0       0       0       0       0       0       0       0       
      +0       0
  5545 ;;      Totals:         0      26       0       0       0       0       0       0       0       0       0       0       
      +0       0
  5546 ;;Total ram usage:       26 bytes
  5547 ;; Hardware stack levels used:    1
  5548 ;; Hardware stack levels required when called:    2
  5549 ;; This function calls:
  5550 ;;		Nothing
  5551 ;; This function is called by:
  5552 ;;		_readSI7006
  5553 ;;		_logf
  5554 ;; This function uses a non-reentrant model
  5555 ;;
  5556                           
  5557                           
  5558                           ;psect for function ___fldiv
  5559  09BD                     ___fldiv:	
  5560  09BD                     l1833:	
  5561                           ;incstack = 0
  5562                           ; Regs used in ___fldiv: [wreg+status,2+status,0]
  5563                           
  5564  09BD  0140               	movlb	0	; select bank0
  5565  09BE  0847               	movf	___fldiv@b+3,w
  5566  09BF  3980               	andlw	128
  5567  09C0  00C8               	movwf	??___fldiv
  5568  09C1  0848               	movf	??___fldiv,w
  5569  09C2  00D1               	movwf	___fldiv@sign
  5570  09C3                     l1835:	
  5571  09C3  3547               	lslf	___fldiv@b+3,w
  5572  09C4  00C8               	movwf	??___fldiv
  5573  09C5  0848               	movf	??___fldiv,w
  5574  09C6  00D8               	movwf	___fldiv@bexp
  5575  09C7                     l1837:	
  5576  09C7  1FC6               	btfss	___fldiv@b+2,7
  5577  09C8  29CA               	goto	u2121
  5578  09C9  29CB               	goto	u2120
  5579  09CA                     u2121:	
  5580  09CA  29CC               	goto	l1841
  5581  09CB                     u2120:	
  5582  09CB                     l1839:	
  5583  09CB  1458               	bsf	___fldiv@bexp,0
  5584  09CC                     l1841:	
  5585  09CC  0858               	movf	___fldiv@bexp,w
  5586  09CD  1903               	btfsc	3,2
  5587  09CE  29D0               	goto	u2131
  5588  09CF  29D1               	goto	u2130
  5589  09D0                     u2131:	
  5590  09D0  29E1               	goto	l1851
  5591  09D1                     u2130:	
  5592  09D1                     l1843:	
  5593  09D1  0A58               	incf	___fldiv@bexp,w
  5594  09D2  1D03               	btfss	3,2
  5595  09D3  29D5               	goto	u2141
  5596  09D4  29D6               	goto	u2140
  5597  09D5                     u2141:	
  5598  09D5  29DE               	goto	l1847
  5599  09D6                     u2140:	
  5600  09D6                     l1845:	
  5601  09D6  3000               	movlw	0
  5602  09D7  00C7               	movwf	___fldiv@b+3
  5603  09D8  3000               	movlw	0
  5604  09D9  00C6               	movwf	___fldiv@b+2
  5605  09DA  3000               	movlw	0
  5606  09DB  00C5               	movwf	___fldiv@b+1
  5607  09DC  3000               	movlw	0
  5608  09DD  00C4               	movwf	___fldiv@b
  5609  09DE                     l1847:	
  5610  09DE  17C6               	bsf	___fldiv@b+2,7
  5611  09DF                     l1849:	
  5612  09DF  01C7               	clrf	___fldiv@b+3
  5613  09E0  29E9               	goto	l1853
  5614  09E1                     l1851:	
  5615  09E1  3000               	movlw	0
  5616  09E2  00C7               	movwf	___fldiv@b+3
  5617  09E3  3000               	movlw	0
  5618  09E4  00C6               	movwf	___fldiv@b+2
  5619  09E5  3000               	movlw	0
  5620  09E6  00C5               	movwf	___fldiv@b+1
  5621  09E7  3000               	movlw	0
  5622  09E8  00C4               	movwf	___fldiv@b
  5623  09E9                     l1853:	
  5624  09E9  0843               	movf	___fldiv@a+3,w
  5625  09EA  3980               	andlw	128
  5626  09EB  00C8               	movwf	??___fldiv
  5627  09EC  0848               	movf	??___fldiv,w
  5628  09ED  06D1               	xorwf	___fldiv@sign,f
  5629  09EE                     l1855:	
  5630  09EE  3543               	lslf	___fldiv@a+3,w
  5631  09EF  00C8               	movwf	??___fldiv
  5632  09F0  0848               	movf	??___fldiv,w
  5633  09F1  00D9               	movwf	___fldiv@aexp
  5634  09F2                     l1857:	
  5635  09F2  1FC2               	btfss	___fldiv@a+2,7
  5636  09F3  29F5               	goto	u2151
  5637  09F4  29F6               	goto	u2150
  5638  09F5                     u2151:	
  5639  09F5  29F7               	goto	l1861
  5640  09F6                     u2150:	
  5641  09F6                     l1859:	
  5642  09F6  1459               	bsf	___fldiv@aexp,0
  5643  09F7                     l1861:	
  5644  09F7  0859               	movf	___fldiv@aexp,w
  5645  09F8  1903               	btfsc	3,2
  5646  09F9  29FB               	goto	u2161
  5647  09FA  29FC               	goto	u2160
  5648  09FB                     u2161:	
  5649  09FB  2A0C               	goto	l1871
  5650  09FC                     u2160:	
  5651  09FC                     l1863:	
  5652  09FC  0A59               	incf	___fldiv@aexp,w
  5653  09FD  1D03               	btfss	3,2
  5654  09FE  2A00               	goto	u2171
  5655  09FF  2A01               	goto	u2170
  5656  0A00                     u2171:	
  5657  0A00  2A09               	goto	l1867
  5658  0A01                     u2170:	
  5659  0A01                     l1865:	
  5660  0A01  3000               	movlw	0
  5661  0A02  00C3               	movwf	___fldiv@a+3
  5662  0A03  3000               	movlw	0
  5663  0A04  00C2               	movwf	___fldiv@a+2
  5664  0A05  3000               	movlw	0
  5665  0A06  00C1               	movwf	___fldiv@a+1
  5666  0A07  3000               	movlw	0
  5667  0A08  00C0               	movwf	___fldiv@a
  5668  0A09                     l1867:	
  5669  0A09  17C2               	bsf	___fldiv@a+2,7
  5670  0A0A                     l1869:	
  5671  0A0A  01C3               	clrf	___fldiv@a+3
  5672  0A0B  2A14               	goto	l604
  5673  0A0C                     l1871:	
  5674  0A0C  3000               	movlw	0
  5675  0A0D  00C3               	movwf	___fldiv@a+3
  5676  0A0E  3000               	movlw	0
  5677  0A0F  00C2               	movwf	___fldiv@a+2
  5678  0A10  3000               	movlw	0
  5679  0A11  00C1               	movwf	___fldiv@a+1
  5680  0A12  3000               	movlw	0
  5681  0A13  00C0               	movwf	___fldiv@a
  5682  0A14                     l604:	
  5683  0A14  0843               	movf	___fldiv@a+3,w
  5684  0A15  0442               	iorwf	___fldiv@a+2,w
  5685  0A16  0441               	iorwf	___fldiv@a+1,w
  5686  0A17  0440               	iorwf	___fldiv@a,w
  5687  0A18  1D03               	skipz
  5688  0A19  2A1B               	goto	u2181
  5689  0A1A  2A1C               	goto	u2180
  5690  0A1B                     u2181:	
  5691  0A1B  2A35               	goto	l1881
  5692  0A1C                     u2180:	
  5693  0A1C                     l1873:	
  5694  0A1C  3000               	movlw	0
  5695  0A1D  00C7               	movwf	___fldiv@b+3
  5696  0A1E  3000               	movlw	0
  5697  0A1F  00C6               	movwf	___fldiv@b+2
  5698  0A20  3000               	movlw	0
  5699  0A21  00C5               	movwf	___fldiv@b+1
  5700  0A22  3000               	movlw	0
  5701  0A23  00C4               	movwf	___fldiv@b
  5702  0A24  3080               	movlw	128
  5703  0A25  04C6               	iorwf	___fldiv@b+2,f
  5704  0A26  307F               	movlw	127
  5705  0A27  04C7               	iorwf	___fldiv@b+3,f
  5706  0A28                     l1875:	
  5707  0A28  0851               	movf	___fldiv@sign,w
  5708  0A29  00C8               	movwf	??___fldiv
  5709  0A2A  0848               	movf	??___fldiv,w
  5710  0A2B  04C7               	iorwf	___fldiv@b+3,f
  5711  0A2C                     l1877:	
  5712  0A2C  0847               	movf	___fldiv@b+3,w
  5713  0A2D  00C3               	movwf	?___fldiv+3
  5714  0A2E  0846               	movf	___fldiv@b+2,w
  5715  0A2F  00C2               	movwf	?___fldiv+2
  5716  0A30  0845               	movf	___fldiv@b+1,w
  5717  0A31  00C1               	movwf	?___fldiv+1
  5718  0A32  0844               	movf	___fldiv@b,w
  5719  0A33  00C0               	movwf	?___fldiv
  5720  0A34  2B70               	goto	l606
  5721  0A35                     l1881:	
  5722  0A35  0858               	movf	___fldiv@bexp,w
  5723  0A36  1D03               	btfss	3,2
  5724  0A37  2A39               	goto	u2191
  5725  0A38  2A3A               	goto	u2190
  5726  0A39                     u2191:	
  5727  0A39  2A43               	goto	l1887
  5728  0A3A                     u2190:	
  5729  0A3A                     l1883:	
  5730  0A3A  3000               	movlw	0
  5731  0A3B  00C3               	movwf	?___fldiv+3
  5732  0A3C  3000               	movlw	0
  5733  0A3D  00C2               	movwf	?___fldiv+2
  5734  0A3E  3000               	movlw	0
  5735  0A3F  00C1               	movwf	?___fldiv+1
  5736  0A40  3000               	movlw	0
  5737  0A41  00C0               	movwf	?___fldiv
  5738  0A42  2B70               	goto	l606
  5739  0A43                     l1887:	
  5740  0A43  0858               	movf	___fldiv@bexp,w
  5741  0A44  00C8               	movwf	??___fldiv
  5742  0A45  01C9               	clrf	??___fldiv+1
  5743  0A46  0849               	movf	??___fldiv+1,w
  5744  0A47  00CB               	movwf	??___fldiv+3
  5745  0A48  0859               	movf	___fldiv@aexp,w
  5746  0A49  0248               	subwf	??___fldiv,w
  5747  0A4A  00CA               	movwf	??___fldiv+2
  5748  0A4B  1C03               	skipc
  5749  0A4C  03CB               	decf	??___fldiv+3,f
  5750  0A4D  084A               	movf	??___fldiv+2,w
  5751  0A4E  3E7F               	addlw	127
  5752  0A4F  00D2               	movwf	___fldiv@new_exp
  5753  0A50  3000               	movlw	0
  5754  0A51  3D4B               	addwfc	??___fldiv+3,w
  5755  0A52  00D3               	movwf	___fldiv@new_exp+1
  5756  0A53                     l1889:	
  5757  0A53  0847               	movf	___fldiv@b+3,w
  5758  0A54  00D0               	movwf	___fldiv@rem+3
  5759  0A55  0846               	movf	___fldiv@b+2,w
  5760  0A56  00CF               	movwf	___fldiv@rem+2
  5761  0A57  0845               	movf	___fldiv@b+1,w
  5762  0A58  00CE               	movwf	___fldiv@rem+1
  5763  0A59  0844               	movf	___fldiv@b,w
  5764  0A5A  00CD               	movwf	___fldiv@rem
  5765  0A5B                     l1891:	
  5766  0A5B  3000               	movlw	0
  5767  0A5C  00C7               	movwf	___fldiv@b+3
  5768  0A5D  3000               	movlw	0
  5769  0A5E  00C6               	movwf	___fldiv@b+2
  5770  0A5F  3000               	movlw	0
  5771  0A60  00C5               	movwf	___fldiv@b+1
  5772  0A61  3000               	movlw	0
  5773  0A62  00C4               	movwf	___fldiv@b
  5774  0A63                     l1893:	
  5775  0A63  3000               	movlw	0
  5776  0A64  00D7               	movwf	___fldiv@grs+3
  5777  0A65  3000               	movlw	0
  5778  0A66  00D6               	movwf	___fldiv@grs+2
  5779  0A67  3000               	movlw	0
  5780  0A68  00D5               	movwf	___fldiv@grs+1
  5781  0A69  3000               	movlw	0
  5782  0A6A  00D4               	movwf	___fldiv@grs
  5783  0A6B                     l1895:	
  5784  0A6B  01D9               	clrf	___fldiv@aexp
  5785  0A6C  2AAB               	goto	l1915
  5786  0A6D                     l1897:	
  5787  0A6D  0859               	movf	___fldiv@aexp,w
  5788  0A6E  1903               	btfsc	3,2
  5789  0A6F  2A71               	goto	u2201
  5790  0A70  2A72               	goto	u2200
  5791  0A71                     u2201:	
  5792  0A71  2A8C               	goto	l1907
  5793  0A72                     u2200:	
  5794  0A72                     l1899:	
  5795  0A72  3001               	movlw	1
  5796  0A73                     u2215:	
  5797  0A73  35CD               	lslf	___fldiv@rem,f
  5798  0A74  0DCE               	rlf	___fldiv@rem+1,f
  5799  0A75  0DCF               	rlf	___fldiv@rem+2,f
  5800  0A76  0DD0               	rlf	___fldiv@rem+3,f
  5801  0A77  0B89               	decfsz	9,f
  5802  0A78  2A73               	goto	u2215
  5803  0A79  3001               	movlw	1
  5804  0A7A                     u2225:	
  5805  0A7A  35C4               	lslf	___fldiv@b,f
  5806  0A7B  0DC5               	rlf	___fldiv@b+1,f
  5807  0A7C  0DC6               	rlf	___fldiv@b+2,f
  5808  0A7D  0DC7               	rlf	___fldiv@b+3,f
  5809  0A7E  0B89               	decfsz	9,f
  5810  0A7F  2A7A               	goto	u2225
  5811  0A80                     l1901:	
  5812  0A80  1FD7               	btfss	___fldiv@grs+3,7
  5813  0A81  2A83               	goto	u2231
  5814  0A82  2A84               	goto	u2230
  5815  0A83                     u2231:	
  5816  0A83  2A85               	goto	l1905
  5817  0A84                     u2230:	
  5818  0A84                     l1903:	
  5819  0A84  1444               	bsf	___fldiv@b,0
  5820  0A85                     l1905:	
  5821  0A85  3001               	movlw	1
  5822  0A86                     u2245:	
  5823  0A86  35D4               	lslf	___fldiv@grs,f
  5824  0A87  0DD5               	rlf	___fldiv@grs+1,f
  5825  0A88  0DD6               	rlf	___fldiv@grs+2,f
  5826  0A89  0DD7               	rlf	___fldiv@grs+3,f
  5827  0A8A  0B89               	decfsz	9,f
  5828  0A8B  2A86               	goto	u2245
  5829  0A8C                     l1907:	
  5830  0A8C  0843               	movf	___fldiv@a+3,w
  5831  0A8D  0250               	subwf	___fldiv@rem+3,w
  5832  0A8E  1D03               	skipz
  5833  0A8F  2A9A               	goto	u2255
  5834  0A90  0842               	movf	___fldiv@a+2,w
  5835  0A91  024F               	subwf	___fldiv@rem+2,w
  5836  0A92  1D03               	skipz
  5837  0A93  2A9A               	goto	u2255
  5838  0A94  0841               	movf	___fldiv@a+1,w
  5839  0A95  024E               	subwf	___fldiv@rem+1,w
  5840  0A96  1D03               	skipz
  5841  0A97  2A9A               	goto	u2255
  5842  0A98  0840               	movf	___fldiv@a,w
  5843  0A99  024D               	subwf	___fldiv@rem,w
  5844  0A9A                     u2255:	
  5845  0A9A  1C03               	skipc
  5846  0A9B  2A9D               	goto	u2251
  5847  0A9C  2A9E               	goto	u2250
  5848  0A9D                     u2251:	
  5849  0A9D  2AA7               	goto	l1913
  5850  0A9E                     u2250:	
  5851  0A9E                     l1909:	
  5852  0A9E  1757               	bsf	___fldiv@grs+3,6
  5853  0A9F                     l1911:	
  5854  0A9F  0840               	movf	___fldiv@a,w
  5855  0AA0  02CD               	subwf	___fldiv@rem,f
  5856  0AA1  0841               	movf	___fldiv@a+1,w
  5857  0AA2  3BCE               	subwfb	___fldiv@rem+1,f
  5858  0AA3  0842               	movf	___fldiv@a+2,w
  5859  0AA4  3BCF               	subwfb	___fldiv@rem+2,f
  5860  0AA5  0843               	movf	___fldiv@a+3,w
  5861  0AA6  3BD0               	subwfb	___fldiv@rem+3,f
  5862  0AA7                     l1913:	
  5863  0AA7  3001               	movlw	1
  5864  0AA8  00C8               	movwf	??___fldiv
  5865  0AA9  0848               	movf	??___fldiv,w
  5866  0AAA  07D9               	addwf	___fldiv@aexp,f
  5867  0AAB                     l1915:	
  5868  0AAB  301A               	movlw	26
  5869  0AAC  0259               	subwf	___fldiv@aexp,w
  5870  0AAD  1C03               	skipc
  5871  0AAE  2AB0               	goto	u2261
  5872  0AAF  2AB1               	goto	u2260
  5873  0AB0                     u2261:	
  5874  0AB0  2A6D               	goto	l1897
  5875  0AB1                     u2260:	
  5876  0AB1                     l1917:	
  5877  0AB1  0850               	movf	___fldiv@rem+3,w
  5878  0AB2  044F               	iorwf	___fldiv@rem+2,w
  5879  0AB3  044E               	iorwf	___fldiv@rem+1,w
  5880  0AB4  044D               	iorwf	___fldiv@rem,w
  5881  0AB5  1903               	skipnz
  5882  0AB6  2AB8               	goto	u2271
  5883  0AB7  2AB9               	goto	u2270
  5884  0AB8                     u2271:	
  5885  0AB8  2AD2               	goto	l1931
  5886  0AB9                     u2270:	
  5887  0AB9                     l1919:	
  5888  0AB9  1454               	bsf	___fldiv@grs,0
  5889  0ABA  2AD2               	goto	l1931
  5890  0ABB                     l1921:	
  5891  0ABB  3001               	movlw	1
  5892  0ABC                     u2285:	
  5893  0ABC  35C4               	lslf	___fldiv@b,f
  5894  0ABD  0DC5               	rlf	___fldiv@b+1,f
  5895  0ABE  0DC6               	rlf	___fldiv@b+2,f
  5896  0ABF  0DC7               	rlf	___fldiv@b+3,f
  5897  0AC0  0B89               	decfsz	9,f
  5898  0AC1  2ABC               	goto	u2285
  5899  0AC2                     l1923:	
  5900  0AC2  1FD7               	btfss	___fldiv@grs+3,7
  5901  0AC3  2AC5               	goto	u2291
  5902  0AC4  2AC6               	goto	u2290
  5903  0AC5                     u2291:	
  5904  0AC5  2AC7               	goto	l1927
  5905  0AC6                     u2290:	
  5906  0AC6                     l1925:	
  5907  0AC6  1444               	bsf	___fldiv@b,0
  5908  0AC7                     l1927:	
  5909  0AC7  3001               	movlw	1
  5910  0AC8                     u2305:	
  5911  0AC8  35D4               	lslf	___fldiv@grs,f
  5912  0AC9  0DD5               	rlf	___fldiv@grs+1,f
  5913  0ACA  0DD6               	rlf	___fldiv@grs+2,f
  5914  0ACB  0DD7               	rlf	___fldiv@grs+3,f
  5915  0ACC  0B89               	decfsz	9,f
  5916  0ACD  2AC8               	goto	u2305
  5917  0ACE                     l1929:	
  5918  0ACE  30FF               	movlw	255
  5919  0ACF  07D2               	addwf	___fldiv@new_exp,f
  5920  0AD0  30FF               	movlw	255
  5921  0AD1  3DD3               	addwfc	___fldiv@new_exp+1,f
  5922  0AD2                     l1931:	
  5923  0AD2  1FC6               	btfss	___fldiv@b+2,7
  5924  0AD3  2AD5               	goto	u2311
  5925  0AD4  2AD6               	goto	u2310
  5926  0AD5                     u2311:	
  5927  0AD5  2ABB               	goto	l1921
  5928  0AD6                     u2310:	
  5929  0AD6                     l1933:	
  5930  0AD6  01D9               	clrf	___fldiv@aexp
  5931  0AD7                     l1935:	
  5932  0AD7  1FD7               	btfss	___fldiv@grs+3,7
  5933  0AD8  2ADA               	goto	u2321
  5934  0AD9  2ADB               	goto	u2320
  5935  0ADA                     u2321:	
  5936  0ADA  2AF7               	goto	l1943
  5937  0ADB                     u2320:	
  5938  0ADB                     l1937:	
  5939  0ADB  30FF               	movlw	255
  5940  0ADC  0554               	andwf	___fldiv@grs,w
  5941  0ADD  00C8               	movwf	??___fldiv
  5942  0ADE  30FF               	movlw	255
  5943  0ADF  0555               	andwf	___fldiv@grs+1,w
  5944  0AE0  00C9               	movwf	??___fldiv+1
  5945  0AE1  30FF               	movlw	255
  5946  0AE2  0556               	andwf	___fldiv@grs+2,w
  5947  0AE3  00CA               	movwf	??___fldiv+2
  5948  0AE4  307F               	movlw	127
  5949  0AE5  0557               	andwf	___fldiv@grs+3,w
  5950  0AE6  00CB               	movwf	??___fldiv+3
  5951  0AE7  084B               	movf	??___fldiv+3,w
  5952  0AE8  044A               	iorwf	??___fldiv+2,w
  5953  0AE9  0449               	iorwf	??___fldiv+1,w
  5954  0AEA  0448               	iorwf	??___fldiv,w
  5955  0AEB  1903               	skipnz
  5956  0AEC  2AEE               	goto	u2331
  5957  0AED  2AEF               	goto	u2330
  5958  0AEE                     u2331:	
  5959  0AEE  2AF2               	goto	l620
  5960  0AEF                     u2330:	
  5961  0AEF                     l1939:	
  5962  0AEF  01D9               	clrf	___fldiv@aexp
  5963  0AF0  0AD9               	incf	___fldiv@aexp,f
  5964  0AF1  2AF7               	goto	l1943
  5965  0AF2                     l620:	
  5966  0AF2  1C44               	btfss	___fldiv@b,0
  5967  0AF3  2AF5               	goto	u2341
  5968  0AF4  2AF6               	goto	u2340
  5969  0AF5                     u2341:	
  5970  0AF5  2AF7               	goto	l1943
  5971  0AF6                     u2340:	
  5972  0AF6  2AEF               	goto	l1939
  5973  0AF7                     l1943:	
  5974  0AF7  0859               	movf	___fldiv@aexp,w
  5975  0AF8  1903               	btfsc	3,2
  5976  0AF9  2AFB               	goto	u2351
  5977  0AFA  2AFC               	goto	u2350
  5978  0AFB                     u2351:	
  5979  0AFB  2B24               	goto	l1953
  5980  0AFC                     u2350:	
  5981  0AFC                     l1945:	
  5982  0AFC  3001               	movlw	1
  5983  0AFD  07C4               	addwf	___fldiv@b,f
  5984  0AFE  3000               	movlw	0
  5985  0AFF  3DC5               	addwfc	___fldiv@b+1,f
  5986  0B00  3000               	movlw	0
  5987  0B01  3DC6               	addwfc	___fldiv@b+2,f
  5988  0B02  3000               	movlw	0
  5989  0B03  3DC7               	addwfc	___fldiv@b+3,f
  5990  0B04                     l1947:	
  5991  0B04  1C47               	btfss	___fldiv@b+3,0
  5992  0B05  2B07               	goto	u2361
  5993  0B06  2B08               	goto	u2360
  5994  0B07                     u2361:	
  5995  0B07  2B24               	goto	l1953
  5996  0B08                     u2360:	
  5997  0B08                     l1949:	
  5998  0B08  0844               	movf	___fldiv@b,w
  5999  0B09  00C8               	movwf	??___fldiv
  6000  0B0A  0845               	movf	___fldiv@b+1,w
  6001  0B0B  00C9               	movwf	??___fldiv+1
  6002  0B0C  0846               	movf	___fldiv@b+2,w
  6003  0B0D  00CA               	movwf	??___fldiv+2
  6004  0B0E  0847               	movf	___fldiv@b+3,w
  6005  0B0F  00CB               	movwf	??___fldiv+3
  6006  0B10  3001               	movlw	1
  6007  0B11  00CC               	movwf	??___fldiv+4
  6008  0B12                     u2375:	
  6009  0B12  37CB               	asrf	??___fldiv+3,f
  6010  0B13  0CCA               	rrf	??___fldiv+2,f
  6011  0B14  0CC9               	rrf	??___fldiv+1,f
  6012  0B15  0CC8               	rrf	??___fldiv,f
  6013  0B16                     u2370:	
  6014  0B16  0BCC               	decfsz	??___fldiv+4,f
  6015  0B17  2B12               	goto	u2375
  6016  0B18  084B               	movf	??___fldiv+3,w
  6017  0B19  00C7               	movwf	___fldiv@b+3
  6018  0B1A  084A               	movf	??___fldiv+2,w
  6019  0B1B  00C6               	movwf	___fldiv@b+2
  6020  0B1C  0849               	movf	??___fldiv+1,w
  6021  0B1D  00C5               	movwf	___fldiv@b+1
  6022  0B1E  0848               	movf	??___fldiv,w
  6023  0B1F  00C4               	movwf	___fldiv@b
  6024  0B20                     l1951:	
  6025  0B20  3001               	movlw	1
  6026  0B21  07D2               	addwf	___fldiv@new_exp,f
  6027  0B22  3000               	movlw	0
  6028  0B23  3DD3               	addwfc	___fldiv@new_exp+1,f
  6029  0B24                     l1953:	
  6030  0B24  0853               	movf	___fldiv@new_exp+1,w
  6031  0B25  3A80               	xorlw	128
  6032  0B26  00C8               	movwf	??___fldiv
  6033  0B27  3080               	movlw	128
  6034  0B28  0248               	subwf	??___fldiv,w
  6035  0B29  1D03               	skipz
  6036  0B2A  2B2D               	goto	u2385
  6037  0B2B  30FF               	movlw	255
  6038  0B2C  0252               	subwf	___fldiv@new_exp,w
  6039  0B2D                     u2385:	
  6040  0B2D  1C03               	skipc
  6041  0B2E  2B30               	goto	u2381
  6042  0B2F  2B31               	goto	u2380
  6043  0B30                     u2381:	
  6044  0B30  2B3E               	goto	l625
  6045  0B31                     u2380:	
  6046  0B31                     l1955:	
  6047  0B31  30FF               	movlw	255
  6048  0B32  0140               	movlb	0	; select bank0
  6049  0B33  00D2               	movwf	___fldiv@new_exp
  6050  0B34  3000               	movlw	0
  6051  0B35  00D3               	movwf	___fldiv@new_exp+1
  6052  0B36  3000               	movlw	0
  6053  0B37  00C7               	movwf	___fldiv@b+3
  6054  0B38  3000               	movlw	0
  6055  0B39  00C6               	movwf	___fldiv@b+2
  6056  0B3A  3000               	movlw	0
  6057  0B3B  00C5               	movwf	___fldiv@b+1
  6058  0B3C  3000               	movlw	0
  6059  0B3D  00C4               	movwf	___fldiv@b
  6060  0B3E                     l625:	
  6061  0B3E  0140               	movlb	0	; select bank0
  6062  0B3F  0853               	movf	___fldiv@new_exp+1,w
  6063  0B40  3A80               	xorlw	128
  6064  0B41  00C8               	movwf	??___fldiv
  6065  0B42  3080               	movlw	128
  6066  0B43  0248               	subwf	??___fldiv,w
  6067  0B44  1D03               	skipz
  6068  0B45  2B48               	goto	u2395
  6069  0B46  3001               	movlw	1
  6070  0B47  0252               	subwf	___fldiv@new_exp,w
  6071  0B48                     u2395:	
  6072  0B48  1803               	skipnc
  6073  0B49  2B4B               	goto	u2391
  6074  0B4A  2B4C               	goto	u2390
  6075  0B4B                     u2391:	
  6076  0B4B  2B58               	goto	l626
  6077  0B4C                     u2390:	
  6078  0B4C                     l1957:	
  6079  0B4C  0140               	movlb	0	; select bank0
  6080  0B4D  01D2               	clrf	___fldiv@new_exp
  6081  0B4E  01D3               	clrf	___fldiv@new_exp+1
  6082  0B4F                     l1959:	
  6083  0B4F  3000               	movlw	0
  6084  0B50  00C7               	movwf	___fldiv@b+3
  6085  0B51  3000               	movlw	0
  6086  0B52  00C6               	movwf	___fldiv@b+2
  6087  0B53  3000               	movlw	0
  6088  0B54  00C5               	movwf	___fldiv@b+1
  6089  0B55  3000               	movlw	0
  6090  0B56  00C4               	movwf	___fldiv@b
  6091  0B57                     l1961:	
  6092  0B57  01D1               	clrf	___fldiv@sign
  6093  0B58                     l626:	
  6094  0B58  0140               	movlb	0	; select bank0
  6095  0B59  0852               	movf	___fldiv@new_exp,w
  6096  0B5A  00C8               	movwf	??___fldiv
  6097  0B5B  0848               	movf	??___fldiv,w
  6098  0B5C  00D8               	movwf	___fldiv@bexp
  6099  0B5D                     l1963:	
  6100  0B5D  1C58               	btfss	___fldiv@bexp,0
  6101  0B5E  2B60               	goto	u2401
  6102  0B5F  2B61               	goto	u2400
  6103  0B60                     u2401:	
  6104  0B60  2B63               	goto	l1967
  6105  0B61                     u2400:	
  6106  0B61                     l1965:	
  6107  0B61  17C6               	bsf	___fldiv@b+2,7
  6108  0B62  2B67               	goto	l628
  6109  0B63                     l1967:	
  6110  0B63  307F               	movlw	127
  6111  0B64  00C8               	movwf	??___fldiv
  6112  0B65  0848               	movf	??___fldiv,w
  6113  0B66  05C6               	andwf	___fldiv@b+2,f
  6114  0B67                     l628:	
  6115  0B67  3658               	lsrf	___fldiv@bexp,w
  6116  0B68  00C8               	movwf	??___fldiv
  6117  0B69  0848               	movf	??___fldiv,w
  6118  0B6A  00C7               	movwf	___fldiv@b+3
  6119  0B6B  0851               	movf	___fldiv@sign,w
  6120  0B6C  00C8               	movwf	??___fldiv
  6121  0B6D  0848               	movf	??___fldiv,w
  6122  0B6E  04C7               	iorwf	___fldiv@b+3,f
  6123  0B6F  2A2C               	goto	l1877
  6124  0B70                     l606:	
  6125  0B70  0008               	return
  6126  0B71                     __end_of___fldiv:	
  6127                           
  6128                           	psect	text10
  6129  16CC                     __ptext10:	
  6130 ;; *************** function _i2cWrite *****************
  6131 ;; Defined at:
  6132 ;;		line 183 in file "main.c"
  6133 ;; Parameters:    Size  Location     Type
  6134 ;;  writeBuffer     1    wreg     PTR unsigned char 
  6135 ;;		 -> readSI7006@buffer(2), 
  6136 ;;  numBytes        1    2[COMMON] unsigned char 
  6137 ;;  address         1    3[COMMON] unsigned char 
  6138 ;; Auto vars:     Size  Location     Type
  6139 ;;  writeBuffer     1    5[COMMON] PTR unsigned char 
  6140 ;;		 -> readSI7006@buffer(2), 
  6141 ;;  n               1    6[COMMON] unsigned char 
  6142 ;; Return value:  Size  Location     Type
  6143 ;;                  1    wreg      unsigned char 
  6144 ;; Registers used:
  6145 ;;		wreg, fsr1l, fsr1h, status,2, status,0
  6146 ;; Tracked objects:
  6147 ;;		On entry : 0/0
  6148 ;;		On exit  : 0/0
  6149 ;;		Unchanged: 0/0
  6150 ;; Data sizes:     COMMON   BANK0   BANK1   BANK2   BANK3   BANK4   BANK5   BANK6   BANK7   BANK8   BANK9  BANK10  BANK1
      +1  BANK12
  6151 ;;      Params:         2       0       0       0       0       0       0       0       0       0       0       0       
      +0       0
  6152 ;;      Locals:         2       0       0       0       0       0       0       0       0       0       0       0       
      +0       0
  6153 ;;      Temps:          1       0       0       0       0       0       0       0       0       0       0       0       
      +0       0
  6154 ;;      Totals:         5       0       0       0       0       0       0       0       0       0       0       0       
      +0       0
  6155 ;;Total ram usage:        5 bytes
  6156 ;; Hardware stack levels used:    1
  6157 ;; Hardware stack levels required when called:    2
  6158 ;; This function calls:
  6159 ;;		Nothing
  6160 ;; This function is called by:
  6161 ;;		_readSI7006
  6162 ;; This function uses a non-reentrant model
  6163 ;;
  6164                           
  6165                           
  6166                           ;psect for function _i2cWrite
  6167  16CC                     _i2cWrite:	
  6168                           
  6169                           ;incstack = 0
  6170                           ; Regs used in _i2cWrite: [wreg+fsr1l+fsr1h+status,2+status,0]
  6171                           ;i2cWrite@writeBuffer stored from wreg
  6172  16CC  00F5               	movwf	i2cWrite@writeBuffer
  6173  16CD                     l2159:	
  6174                           
  6175                           ;main.c: 183: uint8_t i2cWrite(uint8_t *writeBuffer, uint8_t numBytes, uint8_t address);
      +                          main.c: 184: {;main.c: 185:  uint8_t n;;main.c: 187:  SSP1BUF = address << 1;
  6176  16CD  3573               	lslf	i2cWrite@address,w
  6177  16CE  0143               	movlb	3	; select bank3
  6178  16CF  008C               	movwf	12	;volatile
  6179  16D0                     l127:	
  6180                           ;main.c: 188:  while (!PIR3bits.SSP1IF);
  6181                           
  6182  16D0  014E               	movlb	14	; select bank14
  6183  16D1  1C0F               	btfss	15,0	;volatile
  6184  16D2  2ED4               	goto	u2821
  6185  16D3  2ED5               	goto	u2820
  6186  16D4                     u2821:	
  6187  16D4  2ED0               	goto	l127
  6188  16D5                     u2820:	
  6189  16D5                     l129:	
  6190                           
  6191                           ;main.c: 189:  PIR3bits.SSP1IF = 0;
  6192  16D5  100F               	bcf	15,0	;volatile
  6193                           
  6194                           ;main.c: 190:  if (SSP1CON2bits.ACKSTAT)
  6195  16D6  0143               	movlb	3	; select bank3
  6196  16D7  1F11               	btfss	17,6	;volatile
  6197  16D8  2EDA               	goto	u2831
  6198  16D9  2EDB               	goto	u2830
  6199  16DA                     u2831:	
  6200  16DA  2EDD               	goto	l2165
  6201  16DB                     u2830:	
  6202  16DB                     l2161:	
  6203                           
  6204                           ;main.c: 191:   return 0;
  6205  16DB  3000               	movlw	0
  6206  16DC  2EFF               	goto	l131
  6207  16DD                     l2165:	
  6208                           
  6209                           ;main.c: 192:  for (n = 0; n < numBytes; n++) {
  6210  16DD  01F6               	clrf	i2cWrite@n
  6211  16DE  2EF8               	goto	l2175
  6212  16DF                     l2167:	
  6213                           
  6214                           ;main.c: 193:   SSP1BUF = writeBuffer[n];
  6215  16DF  0876               	movf	i2cWrite@n,w
  6216  16E0  0775               	addwf	i2cWrite@writeBuffer,w
  6217  16E1  00F4               	movwf	??_i2cWrite
  6218  16E2  0874               	movf	??_i2cWrite,w
  6219  16E3  0086               	movwf	6
  6220  16E4  0187               	clrf	7
  6221  16E5  0801               	movf	1,w
  6222  16E6  008C               	movwf	12	;volatile
  6223  16E7                     l134:	
  6224                           ;main.c: 194:   while (!PIR3bits.SSP1IF);
  6225                           
  6226  16E7  014E               	movlb	14	; select bank14
  6227  16E8  1C0F               	btfss	15,0	;volatile
  6228  16E9  2EEB               	goto	u2841
  6229  16EA  2EEC               	goto	u2840
  6230  16EB                     u2841:	
  6231  16EB  2EE7               	goto	l134
  6232  16EC                     u2840:	
  6233  16EC                     l136:	
  6234                           
  6235                           ;main.c: 195:   PIR3bits.SSP1IF = 0;
  6236  16EC  100F               	bcf	15,0	;volatile
  6237                           
  6238                           ;main.c: 196:   if (SSP1CON2bits.ACKSTAT)
  6239  16ED  0143               	movlb	3	; select bank3
  6240  16EE  1F11               	btfss	17,6	;volatile
  6241  16EF  2EF1               	goto	u2851
  6242  16F0  2EF2               	goto	u2850
  6243  16F1                     u2851:	
  6244  16F1  2EF4               	goto	l2173
  6245  16F2                     u2850:	
  6246  16F2                     l2169:	
  6247                           
  6248                           ;main.c: 197:    return n;
  6249  16F2  0876               	movf	i2cWrite@n,w
  6250  16F3  2EFF               	goto	l131
  6251  16F4                     l2173:	
  6252                           
  6253                           ;main.c: 198:  }
  6254  16F4  3001               	movlw	1
  6255  16F5  00F4               	movwf	??_i2cWrite
  6256  16F6  0874               	movf	??_i2cWrite,w
  6257  16F7  07F6               	addwf	i2cWrite@n,f
  6258  16F8                     l2175:	
  6259  16F8  0872               	movf	i2cWrite@numBytes,w
  6260  16F9  0276               	subwf	i2cWrite@n,w
  6261  16FA  1C03               	skipc
  6262  16FB  2EFD               	goto	u2861
  6263  16FC  2EFE               	goto	u2860
  6264  16FD                     u2861:	
  6265  16FD  2EDF               	goto	l2167
  6266  16FE                     u2860:	
  6267  16FE  2EF2               	goto	l2169
  6268  16FF                     l131:	
  6269  16FF  0008               	return
  6270  1700                     __end_of_i2cWrite:	
  6271                           
  6272                           	psect	text11
  6273  1630                     __ptext11:	
  6274 ;; *************** function _i2cStop *****************
  6275 ;; Defined at:
  6276 ;;		line 161 in file "main.c"
  6277 ;; Parameters:    Size  Location     Type
  6278 ;;		None
  6279 ;; Auto vars:     Size  Location     Type
  6280 ;;		None
  6281 ;; Return value:  Size  Location     Type
  6282 ;;                  1    wreg      void 
  6283 ;; Registers used:
  6284 ;;		None
  6285 ;; Tracked objects:
  6286 ;;		On entry : 0/0
  6287 ;;		On exit  : 0/0
  6288 ;;		Unchanged: 0/0
  6289 ;; Data sizes:     COMMON   BANK0   BANK1   BANK2   BANK3   BANK4   BANK5   BANK6   BANK7   BANK8   BANK9  BANK10  BANK1
      +1  BANK12
  6290 ;;      Params:         0       0       0       0       0       0       0       0       0       0       0       0       
      +0       0
  6291 ;;      Locals:         0       0       0       0       0       0       0       0       0       0       0       0       
      +0       0
  6292 ;;      Temps:          0       0       0       0       0       0       0       0       0       0       0       0       
      +0       0
  6293 ;;      Totals:         0       0       0       0       0       0       0       0       0       0       0       0       
      +0       0
  6294 ;;Total ram usage:        0 bytes
  6295 ;; Hardware stack levels used:    1
  6296 ;; Hardware stack levels required when called:    2
  6297 ;; This function calls:
  6298 ;;		Nothing
  6299 ;; This function is called by:
  6300 ;;		_readSI7006
  6301 ;; This function uses a non-reentrant model
  6302 ;;
  6303                           
  6304                           
  6305                           ;psect for function _i2cStop
  6306  1630                     _i2cStop:	
  6307  1630                     l2203:	
  6308                           ;incstack = 0
  6309                           ; Regs used in _i2cStop: []
  6310                           
  6311                           
  6312                           ;main.c: 163:  SSP1CON2bits.PEN = 1;
  6313  1630  0143               	movlb	3	; select bank3
  6314  1631  1511               	bsf	17,2	;volatile
  6315  1632                     l115:	
  6316                           ;main.c: 164:  while (!PIR3bits.SSP1IF);
  6317                           
  6318  1632  014E               	movlb	14	; select bank14
  6319  1633  1C0F               	btfss	15,0	;volatile
  6320  1634  2E36               	goto	u2951
  6321  1635  2E37               	goto	u2950
  6322  1636                     u2951:	
  6323  1636  2E32               	goto	l115
  6324  1637                     u2950:	
  6325  1637                     l117:	
  6326                           
  6327                           ;main.c: 165:  PIR3bits.SSP1IF = 0;
  6328  1637  100F               	bcf	15,0	;volatile
  6329  1638                     l118:	
  6330  1638  0008               	return
  6331  1639                     __end_of_i2cStop:	
  6332                           
  6333                           	psect	text12
  6334  1639                     __ptext12:	
  6335 ;; *************** function _i2cStart *****************
  6336 ;; Defined at:
  6337 ;;		line 149 in file "main.c"
  6338 ;; Parameters:    Size  Location     Type
  6339 ;;		None
  6340 ;; Auto vars:     Size  Location     Type
  6341 ;;		None
  6342 ;; Return value:  Size  Location     Type
  6343 ;;                  1    wreg      void 
  6344 ;; Registers used:
  6345 ;;		None
  6346 ;; Tracked objects:
  6347 ;;		On entry : 0/0
  6348 ;;		On exit  : 0/0
  6349 ;;		Unchanged: 0/0
  6350 ;; Data sizes:     COMMON   BANK0   BANK1   BANK2   BANK3   BANK4   BANK5   BANK6   BANK7   BANK8   BANK9  BANK10  BANK1
      +1  BANK12
  6351 ;;      Params:         0       0       0       0       0       0       0       0       0       0       0       0       
      +0       0
  6352 ;;      Locals:         0       0       0       0       0       0       0       0       0       0       0       0       
      +0       0
  6353 ;;      Temps:          0       0       0       0       0       0       0       0       0       0       0       0       
      +0       0
  6354 ;;      Totals:         0       0       0       0       0       0       0       0       0       0       0       0       
      +0       0
  6355 ;;Total ram usage:        0 bytes
  6356 ;; Hardware stack levels used:    1
  6357 ;; Hardware stack levels required when called:    2
  6358 ;; This function calls:
  6359 ;;		Nothing
  6360 ;; This function is called by:
  6361 ;;		_readSI7006
  6362 ;; This function uses a non-reentrant model
  6363 ;;
  6364                           
  6365                           
  6366                           ;psect for function _i2cStart
  6367  1639                     _i2cStart:	
  6368  1639                     l2157:	
  6369                           ;incstack = 0
  6370                           ; Regs used in _i2cStart: []
  6371                           
  6372                           
  6373                           ;main.c: 151:  PIR3bits.SSP1IF = 0;
  6374  1639  014E               	movlb	14	; select bank14
  6375  163A  100F               	bcf	15,0	;volatile
  6376                           
  6377                           ;main.c: 152:  SSP1CON2bits.SEN = 1;
  6378  163B  0143               	movlb	3	; select bank3
  6379  163C  1411               	bsf	17,0	;volatile
  6380  163D                     l109:	
  6381                           ;main.c: 153:  while (!PIR3bits.SSP1IF);
  6382                           
  6383  163D  014E               	movlb	14	; select bank14
  6384  163E  1C0F               	btfss	15,0	;volatile
  6385  163F  2E41               	goto	u2811
  6386  1640  2E42               	goto	u2810
  6387  1641                     u2811:	
  6388  1641  2E3D               	goto	l109
  6389  1642                     u2810:	
  6390  1642                     l111:	
  6391                           
  6392                           ;main.c: 154:  PIR3bits.SSP1IF = 0;
  6393  1642  100F               	bcf	15,0	;volatile
  6394  1643                     l112:	
  6395  1643  0008               	return
  6396  1644                     __end_of_i2cStart:	
  6397                           
  6398                           	psect	text13
  6399  1627                     __ptext13:	
  6400 ;; *************** function _i2cRepeat *****************
  6401 ;; Defined at:
  6402 ;;		line 172 in file "main.c"
  6403 ;; Parameters:    Size  Location     Type
  6404 ;;		None
  6405 ;; Auto vars:     Size  Location     Type
  6406 ;;		None
  6407 ;; Return value:  Size  Location     Type
  6408 ;;                  1    wreg      void 
  6409 ;; Registers used:
  6410 ;;		None
  6411 ;; Tracked objects:
  6412 ;;		On entry : 0/0
  6413 ;;		On exit  : 0/0
  6414 ;;		Unchanged: 0/0
  6415 ;; Data sizes:     COMMON   BANK0   BANK1   BANK2   BANK3   BANK4   BANK5   BANK6   BANK7   BANK8   BANK9  BANK10  BANK1
      +1  BANK12
  6416 ;;      Params:         0       0       0       0       0       0       0       0       0       0       0       0       
      +0       0
  6417 ;;      Locals:         0       0       0       0       0       0       0       0       0       0       0       0       
      +0       0
  6418 ;;      Temps:          0       0       0       0       0       0       0       0       0       0       0       0       
      +0       0
  6419 ;;      Totals:         0       0       0       0       0       0       0       0       0       0       0       0       
      +0       0
  6420 ;;Total ram usage:        0 bytes
  6421 ;; Hardware stack levels used:    1
  6422 ;; Hardware stack levels required when called:    2
  6423 ;; This function calls:
  6424 ;;		Nothing
  6425 ;; This function is called by:
  6426 ;;		_readSI7006
  6427 ;; This function uses a non-reentrant model
  6428 ;;
  6429                           
  6430                           
  6431                           ;psect for function _i2cRepeat
  6432  1627                     _i2cRepeat:	
  6433  1627                     l2181:	
  6434                           ;incstack = 0
  6435                           ; Regs used in _i2cRepeat: []
  6436                           
  6437                           
  6438                           ;main.c: 174:  SSP1CON2bits.RSEN = 1;
  6439  1627  0143               	movlb	3	; select bank3
  6440  1628  1491               	bsf	17,1	;volatile
  6441  1629                     l121:	
  6442                           ;main.c: 175:  while (!PIR3bits.SSP1IF);
  6443                           
  6444  1629  014E               	movlb	14	; select bank14
  6445  162A  1C0F               	btfss	15,0	;volatile
  6446  162B  2E2D               	goto	u2871
  6447  162C  2E2E               	goto	u2870
  6448  162D                     u2871:	
  6449  162D  2E29               	goto	l121
  6450  162E                     u2870:	
  6451  162E                     l123:	
  6452                           
  6453                           ;main.c: 176:  PIR3bits.SSP1IF = 0;
  6454  162E  100F               	bcf	15,0	;volatile
  6455  162F                     l124:	
  6456  162F  0008               	return
  6457  1630                     __end_of_i2cRepeat:	
  6458                           
  6459                           	psect	text14
  6460  1736                     __ptext14:	
  6461 ;; *************** function _i2cRead *****************
  6462 ;; Defined at:
  6463 ;;		line 206 in file "main.c"
  6464 ;; Parameters:    Size  Location     Type
  6465 ;;  readBuffer      1    wreg     PTR unsigned char 
  6466 ;;		 -> readSI7006@buffer(2), 
  6467 ;;  numBytes        1    2[COMMON] unsigned char 
  6468 ;;  address         1    3[COMMON] unsigned char 
  6469 ;; Auto vars:     Size  Location     Type
  6470 ;;  readBuffer      1    5[COMMON] PTR unsigned char 
  6471 ;;		 -> readSI7006@buffer(2), 
  6472 ;; Return value:  Size  Location     Type
  6473 ;;                  1    wreg      unsigned char 
  6474 ;; Registers used:
  6475 ;;		wreg, fsr1l, fsr1h, status,2, status,0
  6476 ;; Tracked objects:
  6477 ;;		On entry : 0/0
  6478 ;;		On exit  : 0/0
  6479 ;;		Unchanged: 0/0
  6480 ;; Data sizes:     COMMON   BANK0   BANK1   BANK2   BANK3   BANK4   BANK5   BANK6   BANK7   BANK8   BANK9  BANK10  BANK1
      +1  BANK12
  6481 ;;      Params:         2       0       0       0       0       0       0       0       0       0       0       0       
      +0       0
  6482 ;;      Locals:         1       0       0       0       0       0       0       0       0       0       0       0       
      +0       0
  6483 ;;      Temps:          1       0       0       0       0       0       0       0       0       0       0       0       
      +0       0
  6484 ;;      Totals:         4       0       0       0       0       0       0       0       0       0       0       0       
      +0       0
  6485 ;;Total ram usage:        4 bytes
  6486 ;; Hardware stack levels used:    1
  6487 ;; Hardware stack levels required when called:    2
  6488 ;; This function calls:
  6489 ;;		Nothing
  6490 ;; This function is called by:
  6491 ;;		_readSI7006
  6492 ;; This function uses a non-reentrant model
  6493 ;;
  6494                           
  6495                           
  6496                           ;psect for function _i2cRead
  6497  1736                     _i2cRead:	
  6498                           
  6499                           ;incstack = 0
  6500                           ; Regs used in _i2cRead: [wreg+fsr1l+fsr1h+status,2+status,0]
  6501                           ;i2cRead@readBuffer stored from wreg
  6502  1736  00F5               	movwf	i2cRead@readBuffer
  6503  1737                     l2183:	
  6504                           
  6505                           ;main.c: 206: uint8_t i2cRead(uint8_t *readBuffer, uint8_t numBytes, uint8_t address);ma
      +                          in.c: 207: {;main.c: 208:  SSP1BUF = (address << 1) | 0x01;
  6506  1737  1403               	setc
  6507  1738  0D73               	rlf	i2cRead@address,w
  6508  1739  0143               	movlb	3	; select bank3
  6509  173A  008C               	movwf	12	;volatile
  6510  173B                     l141:	
  6511                           ;main.c: 209:  while (!PIR3bits.SSP1IF);
  6512                           
  6513  173B  014E               	movlb	14	; select bank14
  6514  173C  1C0F               	btfss	15,0	;volatile
  6515  173D  2F3F               	goto	u2881
  6516  173E  2F40               	goto	u2880
  6517  173F                     u2881:	
  6518  173F  2F3B               	goto	l141
  6519  1740                     u2880:	
  6520  1740                     l143:	
  6521                           
  6522                           ;main.c: 210:  PIR3bits.SSP1IF = 0;
  6523  1740  100F               	bcf	15,0	;volatile
  6524                           
  6525                           ;main.c: 211:  if (SSP1CON2bits.ACKSTAT)
  6526  1741  0143               	movlb	3	; select bank3
  6527  1742  1F11               	btfss	17,6	;volatile
  6528  1743  2F45               	goto	u2891
  6529  1744  2F46               	goto	u2890
  6530  1745                     u2891:	
  6531  1745  2F6C               	goto	l2197
  6532  1746                     u2890:	
  6533  1746                     l2185:	
  6534                           
  6535                           ;main.c: 212:   return 0;
  6536  1746  3000               	movlw	0
  6537  1747  2F74               	goto	l145
  6538  1748                     l147:	
  6539                           
  6540                           ;main.c: 214:   SSP1CON2bits.RCEN = 1;
  6541  1748  0143               	movlb	3	; select bank3
  6542  1749  1591               	bsf	17,3	;volatile
  6543  174A                     l148:	
  6544                           ;main.c: 215:   while (!PIR3bits.SSP1IF);
  6545                           
  6546  174A  014E               	movlb	14	; select bank14
  6547  174B  1C0F               	btfss	15,0	;volatile
  6548  174C  2F4E               	goto	u2901
  6549  174D  2F4F               	goto	u2900
  6550  174E                     u2901:	
  6551  174E  2F4A               	goto	l148
  6552  174F                     u2900:	
  6553  174F                     l150:	
  6554                           
  6555                           ;main.c: 216:   PIR3bits.SSP1IF = 0;
  6556  174F  100F               	bcf	15,0	;volatile
  6557  1750                     l2189:	
  6558                           
  6559                           ;main.c: 217:   *readBuffer++ = SSP1BUF;
  6560  1750  0143               	movlb	3	; select bank3
  6561  1751  080C               	movf	12,w	;volatile
  6562  1752  00F4               	movwf	??_i2cRead
  6563  1753  0875               	movf	i2cRead@readBuffer,w
  6564  1754  0086               	movwf	6
  6565  1755  0187               	clrf	7
  6566  1756  0874               	movf	??_i2cRead,w
  6567  1757  0081               	movwf	1
  6568  1758                     l2191:	
  6569  1758  3001               	movlw	1
  6570  1759  00F4               	movwf	??_i2cRead
  6571  175A  0874               	movf	??_i2cRead,w
  6572  175B  07F5               	addwf	i2cRead@readBuffer,f
  6573  175C                     l2193:	
  6574                           
  6575                           ;main.c: 219:   SSP1CON2bits.ACKDT = (numBytes ? 0 : 1);
  6576  175C  0872               	movf	i2cRead@numBytes,w
  6577  175D  1903               	btfsc	3,2
  6578  175E  2F60               	goto	u2911
  6579  175F  2F63               	goto	u2910
  6580  1760                     u2911:	
  6581  1760  0143               	movlb	3	; select bank3
  6582  1761  1691               	bsf	17,5	;volatile
  6583  1762  2F65               	goto	u2924
  6584  1763                     u2910:	
  6585  1763  0143               	movlb	3	; select bank3
  6586  1764  1291               	bcf	17,5	;volatile
  6587  1765                     u2924:	
  6588  1765                     l2195:	
  6589                           
  6590                           ;main.c: 220:   SSP1CON2bits.ACKEN = 1;
  6591  1765  1611               	bsf	17,4	;volatile
  6592  1766                     l151:	
  6593                           ;main.c: 221:   while (!PIR3bits.SSP1IF);
  6594                           
  6595  1766  014E               	movlb	14	; select bank14
  6596  1767  1C0F               	btfss	15,0	;volatile
  6597  1768  2F6A               	goto	u2931
  6598  1769  2F6B               	goto	u2930
  6599  176A                     u2931:	
  6600  176A  2F66               	goto	l151
  6601  176B                     u2930:	
  6602  176B                     l153:	
  6603                           
  6604                           ;main.c: 222:   PIR3bits.SSP1IF = 0;
  6605  176B  100F               	bcf	15,0	;volatile
  6606  176C                     l2197:	
  6607                           
  6608                           ;main.c: 213:  while (numBytes--) {
  6609  176C  3001               	movlw	1
  6610  176D  02F2               	subwf	i2cRead@numBytes,f
  6611  176E  0A72               	incf	i2cRead@numBytes,w
  6612  176F  1D03               	btfss	3,2
  6613  1770  2F72               	goto	u2941
  6614  1771  2F73               	goto	u2940
  6615  1772                     u2941:	
  6616  1772  2F48               	goto	l147
  6617  1773                     u2940:	
  6618  1773                     l2199:	
  6619                           
  6620                           ;main.c: 224:  return 1;
  6621  1773  3001               	movlw	1
  6622  1774                     l145:	
  6623  1774  0008               	return
  6624  1775                     __end_of_i2cRead:	
  6625                           
  6626                           	psect	text15
  6627  169E                     __ptext15:	
  6628 ;; *************** function _initialize *****************
  6629 ;; Defined at:
  6630 ;;		line 242 in file "main.c"
  6631 ;; Parameters:    Size  Location     Type
  6632 ;;		None
  6633 ;; Auto vars:     Size  Location     Type
  6634 ;;		None
  6635 ;; Return value:  Size  Location     Type
  6636 ;;                  1    wreg      void 
  6637 ;; Registers used:
  6638 ;;		wreg, status,2
  6639 ;; Tracked objects:
  6640 ;;		On entry : 0/0
  6641 ;;		On exit  : 0/0
  6642 ;;		Unchanged: 0/0
  6643 ;; Data sizes:     COMMON   BANK0   BANK1   BANK2   BANK3   BANK4   BANK5   BANK6   BANK7   BANK8   BANK9  BANK10  BANK1
      +1  BANK12
  6644 ;;      Params:         0       0       0       0       0       0       0       0       0       0       0       0       
      +0       0
  6645 ;;      Locals:         0       0       0       0       0       0       0       0       0       0       0       0       
      +0       0
  6646 ;;      Temps:          0       0       0       0       0       0       0       0       0       0       0       0       
      +0       0
  6647 ;;      Totals:         0       0       0       0       0       0       0       0       0       0       0       0       
      +0       0
  6648 ;;Total ram usage:        0 bytes
  6649 ;; Hardware stack levels used:    1
  6650 ;; Hardware stack levels required when called:    2
  6651 ;; This function calls:
  6652 ;;		Nothing
  6653 ;; This function is called by:
  6654 ;;		_main
  6655 ;; This function uses a non-reentrant model
  6656 ;;
  6657                           
  6658                           
  6659                           ;psect for function _initialize
  6660  169E                     _initialize:	
  6661  169E                     l2291:	
  6662                           ;incstack = 0
  6663                           ; Regs used in _initialize: [wreg+status,2]
  6664                           
  6665                           
  6666                           ;main.c: 245:  OSCFRQ = 0b00000010;
  6667  169E  3002               	movlw	2
  6668  169F  0151               	movlb	17	; select bank17
  6669  16A0  0093               	movwf	19	;volatile
  6670                           
  6671                           ;main.c: 246:  OSCCON1 = 0b01100000;
  6672  16A1  3060               	movlw	96
  6673  16A2  008D               	movwf	13	;volatile
  6674  16A3                     l163:	
  6675                           ;main.c: 247:  while (!OSCCON3bits.ORDY);
  6676                           
  6677  16A3  1E0F               	btfss	15,4	;volatile
  6678  16A4  2EA6               	goto	u3061
  6679  16A5  2EA7               	goto	u3060
  6680  16A6                     u3061:	
  6681  16A6  2EA3               	goto	l163
  6682  16A7                     u3060:	
  6683  16A7                     l2293:	
  6684                           
  6685                           ;main.c: 250:  RC4PPS = 0x0F;
  6686  16A7  300F               	movlw	15
  6687  16A8  017E               	movlb	62	; select bank62
  6688  16A9  00A4               	movwf	36	;volatile
  6689                           
  6690                           ;main.c: 251:  RC1PPS = 0x16;
  6691  16AA  3016               	movlw	22
  6692  16AB  00A1               	movwf	33	;volatile
  6693                           
  6694                           ;main.c: 252:  SSP1DATPPS = 0x11;
  6695  16AC  3011               	movlw	17
  6696  16AD  017D               	movlb	61	; select bank61
  6697  16AE  00C6               	movwf	70	;volatile
  6698                           
  6699                           ;main.c: 253:  RC0PPS = 0x15;
  6700  16AF  3015               	movlw	21
  6701  16B0  017E               	movlb	62	; select bank62
  6702  16B1  00A0               	movwf	32	;volatile
  6703  16B2                     l2295:	
  6704                           
  6705                           ;main.c: 256:  ANSELA = 0;
  6706  16B2  01B8               	clrf	56	;volatile
  6707  16B3                     l2297:	
  6708                           
  6709                           ;main.c: 257:  ANSELC = 0;
  6710  16B3  01CE               	clrf	78	;volatile
  6711  16B4                     l2299:	
  6712                           
  6713                           ;main.c: 260:  TRISA = 0;
  6714  16B4  0140               	movlb	0	; select bank0
  6715  16B5  0192               	clrf	18	;volatile
  6716  16B6                     l2301:	
  6717                           
  6718                           ;main.c: 261:  TRISC = 0b00100011;
  6719  16B6  3023               	movlw	35
  6720  16B7  0094               	movwf	20	;volatile
  6721  16B8                     l2303:	
  6722                           
  6723                           ;main.c: 264:  PIE3 = 0b00100000;
  6724  16B8  3020               	movlw	32
  6725  16B9  014E               	movlb	14	; select bank14
  6726  16BA  0099               	movwf	25	;volatile
  6727  16BB                     l2305:	
  6728                           
  6729                           ;main.c: 265:  INTCON = 0b11000000;
  6730  16BB  30C0               	movlw	192
  6731  16BC  008B               	movwf	11	;volatile
  6732  16BD                     l2307:	
  6733                           
  6734                           ;main.c: 269:  BAUD1CON = 0b00001000;
  6735  16BD  3008               	movlw	8
  6736  16BE  0142               	movlb	2	; select bank2
  6737  16BF  009F               	movwf	31	;volatile
  6738  16C0                     l2309:	
  6739                           
  6740                           ;main.c: 270:  SPBRGL = 25;
  6741  16C0  3019               	movlw	25
  6742  16C1  009B               	movwf	27	;volatile
  6743  16C2                     l2311:	
  6744                           
  6745                           ;main.c: 271:  RC1STA = 0b10010000;
  6746  16C2  3090               	movlw	144
  6747  16C3  009D               	movwf	29	;volatile
  6748  16C4                     l2313:	
  6749                           
  6750                           ;main.c: 272:  TX1STA = 0b00100000;
  6751  16C4  3020               	movlw	32
  6752  16C5  009E               	movwf	30	;volatile
  6753  16C6                     l2315:	
  6754                           
  6755                           ;main.c: 275:  SSP1ADD = 0x09;
  6756  16C6  3009               	movlw	9
  6757  16C7  0143               	movlb	3	; select bank3
  6758  16C8  008D               	movwf	13	;volatile
  6759  16C9                     l2317:	
  6760                           
  6761                           ;main.c: 276:  SSP1CON1 = 0b00101000;
  6762  16C9  3028               	movlw	40
  6763  16CA  0090               	movwf	16	;volatile
  6764  16CB                     l166:	
  6765  16CB  0008               	return
  6766  16CC                     __end_of_initialize:	
  6767                           
  6768                           	psect	text16
  6769  1775                     __ptext16:	
  6770 ;; *************** function ___flge *****************
  6771 ;; Defined at:
  6772 ;;		line 4 in file "C:\Program Files (x86)\Microchip\xc8\v2.10\pic\sources\c99\common\flge.c"
  6773 ;; Parameters:    Size  Location     Type
  6774 ;;  ff1             4    2[COMMON] void 
  6775 ;;  ff2             4    6[COMMON] void 
  6776 ;; Auto vars:     Size  Location     Type
  6777 ;;		None
  6778 ;; Return value:  Size  Location     Type
  6779 ;;		None               void
  6780 ;; Registers used:
  6781 ;;		wreg, status,2, status,0
  6782 ;; Tracked objects:
  6783 ;;		On entry : 0/0
  6784 ;;		On exit  : 0/0
  6785 ;;		Unchanged: 0/0
  6786 ;; Data sizes:     COMMON   BANK0   BANK1   BANK2   BANK3   BANK4   BANK5   BANK6   BANK7   BANK8   BANK9  BANK10  BANK1
      +1  BANK12
  6787 ;;      Params:         8       0       0       0       0       0       0       0       0       0       0       0       
      +0       0
  6788 ;;      Locals:         0       0       0       0       0       0       0       0       0       0       0       0       
      +0       0
  6789 ;;      Temps:          0       4       0       0       0       0       0       0       0       0       0       0       
      +0       0
  6790 ;;      Totals:         8       4       0       0       0       0       0       0       0       0       0       0       
      +0       0
  6791 ;;Total ram usage:       12 bytes
  6792 ;; Hardware stack levels used:    1
  6793 ;; Hardware stack levels required when called:    2
  6794 ;; This function calls:
  6795 ;;		Nothing
  6796 ;; This function is called by:
  6797 ;;		_main
  6798 ;; This function uses a non-reentrant model
  6799 ;;
  6800                           
  6801                           
  6802                           ;psect for function ___flge
  6803  1775                     ___flge:	
  6804  1775                     l2401:	
  6805                           ;incstack = 0
  6806                           ; Regs used in ___flge: [wreg+status,2+status,0]
  6807                           
  6808  1775  3000               	movlw	0
  6809  1776  0572               	andwf	___flge@ff1,w
  6810  1777  0140               	movlb	0	; select bank0
  6811  1778  00A0               	movwf	??___flge
  6812  1779  3000               	movlw	0
  6813  177A  0573               	andwf	___flge@ff1+1,w
  6814  177B  00A1               	movwf	??___flge+1
  6815  177C  3080               	movlw	128
  6816  177D  0574               	andwf	___flge@ff1+2,w
  6817  177E  00A2               	movwf	??___flge+2
  6818  177F  307F               	movlw	127
  6819  1780  0575               	andwf	___flge@ff1+3,w
  6820  1781  00A3               	movwf	??___flge+3
  6821  1782  0823               	movf	??___flge+3,w
  6822  1783  0422               	iorwf	??___flge+2,w
  6823  1784  0421               	iorwf	??___flge+1,w
  6824  1785  0420               	iorwf	??___flge,w
  6825  1786  1D03               	skipz
  6826  1787  2F89               	goto	u3151
  6827  1788  2F8A               	goto	u3150
  6828  1789                     u3151:	
  6829  1789  2F92               	goto	l425
  6830  178A                     u3150:	
  6831  178A                     l2403:	
  6832  178A  3000               	movlw	0
  6833  178B  00F5               	movwf	___flge@ff1+3
  6834  178C  3000               	movlw	0
  6835  178D  00F4               	movwf	___flge@ff1+2
  6836  178E  3000               	movlw	0
  6837  178F  00F3               	movwf	___flge@ff1+1
  6838  1790  3000               	movlw	0
  6839  1791  00F2               	movwf	___flge@ff1
  6840  1792                     l425:	
  6841  1792  3000               	movlw	0
  6842  1793  0576               	andwf	___flge@ff2,w
  6843  1794  00A0               	movwf	??___flge
  6844  1795  3000               	movlw	0
  6845  1796  0577               	andwf	___flge@ff2+1,w
  6846  1797  00A1               	movwf	??___flge+1
  6847  1798  3080               	movlw	128
  6848  1799  0578               	andwf	___flge@ff2+2,w
  6849  179A  00A2               	movwf	??___flge+2
  6850  179B  307F               	movlw	127
  6851  179C  0579               	andwf	___flge@ff2+3,w
  6852  179D  00A3               	movwf	??___flge+3
  6853  179E  0823               	movf	??___flge+3,w
  6854  179F  0422               	iorwf	??___flge+2,w
  6855  17A0  0421               	iorwf	??___flge+1,w
  6856  17A1  0420               	iorwf	??___flge,w
  6857  17A2  1D03               	skipz
  6858  17A3  2FA5               	goto	u3161
  6859  17A4  2FA6               	goto	u3160
  6860  17A5                     u3161:	
  6861  17A5  2FAE               	goto	l2407
  6862  17A6                     u3160:	
  6863  17A6                     l2405:	
  6864  17A6  3000               	movlw	0
  6865  17A7  00F9               	movwf	___flge@ff2+3
  6866  17A8  3000               	movlw	0
  6867  17A9  00F8               	movwf	___flge@ff2+2
  6868  17AA  3000               	movlw	0
  6869  17AB  00F7               	movwf	___flge@ff2+1
  6870  17AC  3000               	movlw	0
  6871  17AD  00F6               	movwf	___flge@ff2
  6872  17AE                     l2407:	
  6873  17AE  1FF5               	btfss	___flge@ff1+3,7
  6874  17AF  2FB1               	goto	u3171
  6875  17B0  2FB2               	goto	u3170
  6876  17B1                     u3171:	
  6877  17B1  2FCA               	goto	l2411
  6878  17B2                     u3170:	
  6879  17B2                     l2409:	
  6880  17B2  3000               	movlw	0
  6881  17B3  00A0               	movwf	??___flge
  6882  17B4  3000               	movlw	0
  6883  17B5  00A1               	movwf	??___flge+1
  6884  17B6  3000               	movlw	0
  6885  17B7  00A2               	movwf	??___flge+2
  6886  17B8  3080               	movlw	128
  6887  17B9  00A3               	movwf	??___flge+3
  6888  17BA  0872               	movf	___flge@ff1,w
  6889  17BB  02A0               	subwf	??___flge,f
  6890  17BC  0873               	movf	___flge@ff1+1,w
  6891  17BD  3BA1               	subwfb	??___flge+1,f
  6892  17BE  0874               	movf	___flge@ff1+2,w
  6893  17BF  3BA2               	subwfb	??___flge+2,f
  6894  17C0  0875               	movf	___flge@ff1+3,w
  6895  17C1  3BA3               	subwfb	??___flge+3,f
  6896  17C2  0823               	movf	??___flge+3,w
  6897  17C3  00F5               	movwf	___flge@ff1+3
  6898  17C4  0822               	movf	??___flge+2,w
  6899  17C5  00F4               	movwf	___flge@ff1+2
  6900  17C6  0821               	movf	??___flge+1,w
  6901  17C7  00F3               	movwf	___flge@ff1+1
  6902  17C8  0820               	movf	??___flge,w
  6903  17C9  00F2               	movwf	___flge@ff1
  6904  17CA                     l2411:	
  6905  17CA  1FF9               	btfss	___flge@ff2+3,7
  6906  17CB  2FCD               	goto	u3181
  6907  17CC  2FCE               	goto	u3180
  6908  17CD                     u3181:	
  6909  17CD  2FE6               	goto	l428
  6910  17CE                     u3180:	
  6911  17CE                     l2413:	
  6912  17CE  3000               	movlw	0
  6913  17CF  00A0               	movwf	??___flge
  6914  17D0  3000               	movlw	0
  6915  17D1  00A1               	movwf	??___flge+1
  6916  17D2  3000               	movlw	0
  6917  17D3  00A2               	movwf	??___flge+2
  6918  17D4  3080               	movlw	128
  6919  17D5  00A3               	movwf	??___flge+3
  6920  17D6  0876               	movf	___flge@ff2,w
  6921  17D7  02A0               	subwf	??___flge,f
  6922  17D8  0877               	movf	___flge@ff2+1,w
  6923  17D9  3BA1               	subwfb	??___flge+1,f
  6924  17DA  0878               	movf	___flge@ff2+2,w
  6925  17DB  3BA2               	subwfb	??___flge+2,f
  6926  17DC  0879               	movf	___flge@ff2+3,w
  6927  17DD  3BA3               	subwfb	??___flge+3,f
  6928  17DE  0823               	movf	??___flge+3,w
  6929  17DF  00F9               	movwf	___flge@ff2+3
  6930  17E0  0822               	movf	??___flge+2,w
  6931  17E1  00F8               	movwf	___flge@ff2+2
  6932  17E2  0821               	movf	??___flge+1,w
  6933  17E3  00F7               	movwf	___flge@ff2+1
  6934  17E4  0820               	movf	??___flge,w
  6935  17E5  00F6               	movwf	___flge@ff2
  6936  17E6                     l428:	
  6937  17E6  3080               	movlw	128
  6938  17E7  06F5               	xorwf	___flge@ff1+3,f
  6939  17E8  3080               	movlw	128
  6940  17E9  06F9               	xorwf	___flge@ff2+3,f
  6941  17EA  0879               	movf	___flge@ff2+3,w
  6942  17EB  0275               	subwf	___flge@ff1+3,w
  6943  17EC  1D03               	skipz
  6944  17ED  2FF8               	goto	u3195
  6945  17EE  0878               	movf	___flge@ff2+2,w
  6946  17EF  0274               	subwf	___flge@ff1+2,w
  6947  17F0  1D03               	skipz
  6948  17F1  2FF8               	goto	u3195
  6949  17F2  0877               	movf	___flge@ff2+1,w
  6950  17F3  0273               	subwf	___flge@ff1+1,w
  6951  17F4  1D03               	skipz
  6952  17F5  2FF8               	goto	u3195
  6953  17F6  0876               	movf	___flge@ff2,w
  6954  17F7  0272               	subwf	___flge@ff1,w
  6955  17F8                     u3195:	
  6956  17F8  1803               	skipnc
  6957  17F9  2FFB               	goto	u3191
  6958  17FA  2FFC               	goto	u3190
  6959  17FB                     u3191:	
  6960  17FB  2FFE               	goto	l2417
  6961  17FC                     u3190:	
  6962  17FC                     l2415:	
  6963  17FC  1003               	clrc
  6964  17FD  2FFF               	goto	l433
  6965  17FE                     l2417:	
  6966  17FE  1403               	setc
  6967  17FF                     l433:	
  6968  17FF  0008               	return
  6969  1800                     __end_of___flge:	
  6970                           
  6971                           	psect	intentry
  6972  0004                     __pintentry:	
  6973 ;; *************** function _ISR *****************
  6974 ;; Defined at:
  6975 ;;		line 283 in file "main.c"
  6976 ;; Parameters:    Size  Location     Type
  6977 ;;		None
  6978 ;; Auto vars:     Size  Location     Type
  6979 ;;		None
  6980 ;; Return value:  Size  Location     Type
  6981 ;;                  1    wreg      void 
  6982 ;; Registers used:
  6983 ;;		wreg, status,2, status,0, pclath, cstack
  6984 ;; Tracked objects:
  6985 ;;		On entry : 0/0
  6986 ;;		On exit  : 0/0
  6987 ;;		Unchanged: 0/0
  6988 ;; Data sizes:     COMMON   BANK0   BANK1   BANK2   BANK3   BANK4   BANK5   BANK6   BANK7   BANK8   BANK9  BANK10  BANK1
      +1  BANK12
  6989 ;;      Params:         0       0       0       0       0       0       0       0       0       0       0       0       
      +0       0
  6990 ;;      Locals:         0       0       0       0       0       0       0       0       0       0       0       0       
      +0       0
  6991 ;;      Temps:          0       0       0       0       0       0       0       0       0       0       0       0       
      +0       0
  6992 ;;      Totals:         0       0       0       0       0       0       0       0       0       0       0       0       
      +0       0
  6993 ;;Total ram usage:        0 bytes
  6994 ;; Hardware stack levels used:    1
  6995 ;; Hardware stack levels required when called:    1
  6996 ;; This function calls:
  6997 ;;		_uartReceiveISR
  6998 ;; This function is called by:
  6999 ;;		Interrupt level 1
  7000 ;; This function uses a non-reentrant model
  7001 ;;
  7002                           
  7003  0004                     _ISR:	
  7004                           
  7005                           ;incstack = 0
  7006  0004  147E               	bsf	int$flags,0	;set compiler interrupt flag (level 1)
  7007                           
  7008                           ; Regs used in _ISR: [wreg+status,2+status,0+pclath+cstack]
  7009  0005  3180               	pagesel	$
  7010  0006                     i1l2479:	
  7011                           
  7012                           ;main.c: 285:  if (INTCONbits.PEIE == 1 && PIE3bits.RC1IE == 1 && PIR3bits.RC1IF == 1) {
  7013  0006  1F0B               	btfss	11,6	;volatile
  7014  0007  2809               	goto	u328_21
  7015  0008  280A               	goto	u328_20
  7016  0009                     u328_21:	
  7017  0009  2818               	goto	i1l172
  7018  000A                     u328_20:	
  7019  000A                     i1l2481:	
  7020  000A  014E               	movlb	14	; select bank14
  7021  000B  1E99               	btfss	25,5	;volatile
  7022  000C  280E               	goto	u329_21
  7023  000D  280F               	goto	u329_20
  7024  000E                     u329_21:	
  7025  000E  2818               	goto	i1l172
  7026  000F                     u329_20:	
  7027  000F                     i1l2483:	
  7028  000F  1E8F               	btfss	15,5	;volatile
  7029  0010  2812               	goto	u330_21
  7030  0011  2813               	goto	u330_20
  7031  0012                     u330_21:	
  7032  0012  2818               	goto	i1l172
  7033  0013                     u330_20:	
  7034  0013                     i1l2485:	
  7035                           
  7036                           ;main.c: 286:   uartReceiveISR();
  7037  0013  3196  2673  3180   	fcall	_uartReceiveISR
  7038  0016                     i1l2487:	
  7039                           
  7040                           ;main.c: 287:   PIR3bits.RC1IF = 0;
  7041  0016  014E               	movlb	14	; select bank14
  7042  0017  128F               	bcf	15,5	;volatile
  7043  0018                     i1l172:	
  7044  0018  107E               	bcf	int$flags,0	;clear compiler interrupt flag (level 1)
  7045  0019  0009               	retfie
  7046  001A                     __end_of_ISR:	
  7047                           
  7048                           	psect	text18
  7049  1673                     __ptext18:	
  7050 ;; *************** function _uartReceiveISR *****************
  7051 ;; Defined at:
  7052 ;;		line 295 in file "main.c"
  7053 ;; Parameters:    Size  Location     Type
  7054 ;;		None
  7055 ;; Auto vars:     Size  Location     Type
  7056 ;;  rxByte          1    1[COMMON] unsigned char 
  7057 ;; Return value:  Size  Location     Type
  7058 ;;                  1    wreg      void 
  7059 ;; Registers used:
  7060 ;;		wreg, status,2, status,0
  7061 ;; Tracked objects:
  7062 ;;		On entry : 0/0
  7063 ;;		On exit  : 0/0
  7064 ;;		Unchanged: 0/0
  7065 ;; Data sizes:     COMMON   BANK0   BANK1   BANK2   BANK3   BANK4   BANK5   BANK6   BANK7   BANK8   BANK9  BANK10  BANK1
      +1  BANK12
  7066 ;;      Params:         0       0       0       0       0       0       0       0       0       0       0       0       
      +0       0
  7067 ;;      Locals:         1       0       0       0       0       0       0       0       0       0       0       0       
      +0       0
  7068 ;;      Temps:          1       0       0       0       0       0       0       0       0       0       0       0       
      +0       0
  7069 ;;      Totals:         2       0       0       0       0       0       0       0       0       0       0       0       
      +0       0
  7070 ;;Total ram usage:        2 bytes
  7071 ;; Hardware stack levels used:    1
  7072 ;; This function calls:
  7073 ;;		Nothing
  7074 ;; This function is called by:
  7075 ;;		_ISR
  7076 ;; This function uses a non-reentrant model
  7077 ;;
  7078                           
  7079                           
  7080                           ;psect for function _uartReceiveISR
  7081  1673                     _uartReceiveISR:	
  7082  1673                     i1l2381:	
  7083                           ;incstack = 0
  7084                           ; Regs used in _uartReceiveISR: [wreg+status,2+status,0]
  7085                           
  7086                           
  7087                           ;main.c: 297:  char rxByte;;main.c: 299:  if (RC1STAbits.OERR) {
  7088  1673  0142               	movlb	2	; select bank2
  7089  1674  1C9D               	btfss	29,1	;volatile
  7090  1675  2E77               	goto	u312_21
  7091  1676  2E78               	goto	u312_20
  7092  1677                     u312_21:	
  7093  1677  2E7E               	goto	i1l2387
  7094  1678                     u312_20:	
  7095  1678                     i1l2383:	
  7096                           
  7097                           ;main.c: 300:   RC1STAbits.CREN = 0;
  7098  1678  121D               	bcf	29,4	;volatile
  7099                           
  7100                           ;main.c: 301:   RC1STAbits.CREN = 1;
  7101  1679  161D               	bsf	29,4	;volatile
  7102  167A                     i1l2385:	
  7103                           
  7104                           ;main.c: 302:   g_rxOErrCount++;
  7105  167A  3001               	movlw	1
  7106  167B  00F0               	movwf	??_uartReceiveISR
  7107  167C  0870               	movf	??_uartReceiveISR,w
  7108  167D  07FA               	addwf	_g_rxOErrCount,f	;volatile
  7109  167E                     i1l2387:	
  7110                           
  7111                           ;main.c: 304:  if (RC1STAbits.FERR) {
  7112  167E  1D1D               	btfss	29,2	;volatile
  7113  167F  2E81               	goto	u313_21
  7114  1680  2E82               	goto	u313_20
  7115  1681                     u313_21:	
  7116  1681  2E88               	goto	i1l2393
  7117  1682                     u313_20:	
  7118  1682                     i1l2389:	
  7119                           
  7120                           ;main.c: 305:   RC1STAbits.SPEN = 0;
  7121  1682  139D               	bcf	29,7	;volatile
  7122                           
  7123                           ;main.c: 306:   RC1STAbits.SPEN = 1;
  7124  1683  179D               	bsf	29,7	;volatile
  7125  1684                     i1l2391:	
  7126                           
  7127                           ;main.c: 307:   g_rxFErrCount++;
  7128  1684  3001               	movlw	1
  7129  1685  00F0               	movwf	??_uartReceiveISR
  7130  1686  0870               	movf	??_uartReceiveISR,w
  7131  1687  07FB               	addwf	_g_rxFErrCount,f	;volatile
  7132  1688                     i1l2393:	
  7133                           
  7134                           ;main.c: 310:  rxByte = RC1REG;
  7135  1688  0819               	movf	25,w	;volatile
  7136  1689  00F0               	movwf	??_uartReceiveISR
  7137  168A  0870               	movf	??_uartReceiveISR,w
  7138  168B  00F1               	movwf	uartReceiveISR@rxByte
  7139  168C                     i1l2395:	
  7140                           
  7141                           ;main.c: 311:  if (rxByte == '?')
  7142  168C  303F               	movlw	63
  7143  168D  0671               	xorwf	uartReceiveISR@rxByte,w
  7144  168E  1D03               	btfss	3,2
  7145  168F  2E91               	goto	u314_21
  7146  1690  2E92               	goto	u314_20
  7147  1691                     u314_21:	
  7148  1691  2E98               	goto	i1l2399
  7149  1692                     u314_20:	
  7150  1692                     i1l2397:	
  7151                           
  7152                           ;main.c: 312:   g_command = GET_DATA;
  7153  1692  3001               	movlw	1
  7154  1693  00F0               	movwf	??_uartReceiveISR
  7155  1694  0870               	movf	??_uartReceiveISR,w
  7156  1695  0141               	movlb	1	; select bank1
  7157  1696  00E4               	movwf	_g_command^(0+128)	;volatile
  7158  1697  2E9D               	goto	i1l179
  7159  1698                     i1l2399:	
  7160                           
  7161                           ;main.c: 314:   g_command = UNKNOWN_COMMAND;
  7162  1698  3002               	movlw	2
  7163  1699  00F0               	movwf	??_uartReceiveISR
  7164  169A  0870               	movf	??_uartReceiveISR,w
  7165  169B  0141               	movlb	1	; select bank1
  7166  169C  00E4               	movwf	_g_command^(0+128)	;volatile
  7167  169D                     i1l179:	
  7168  169D  0008               	return
  7169  169E                     __end_of_uartReceiveISR:	
  7170  007E                     btemp	set	126	;btemp
  7171  007E                     int$flags	set	126
  7172  007E                     wtemp0	set	126


Data Sizes:
    Strings     0
    Constant    24
    Data        0
    BSS         7
    Persistent  32
    Stack       0

Auto Spaces:
    Space          Size  Autos    Used
    COMMON           14     10      12
    BANK0            80     80      80
    BANK1            80     64      69
    BANK2            80     66      66
    BANK3            80      0       0
    BANK4            80      0       0
    BANK5            80      0       0
    BANK6            80      0       0
    BANK7            80      0       0
    BANK8            80      0       0
    BANK9            80      0       0
    BANK10           80      0       0
    BANK11           80      0       0
    BANK12           48      0       0

Pointer List with Targets:

    i2cRead@readBuffer	PTR unsigned char  size(1) Largest target is 2
		 -> readSI7006@buffer(BANK1[2]), 

    i2cWrite@writeBuffer	PTR unsigned char  size(1) Largest target is 2
		 -> readSI7006@buffer(BANK1[2]), 

    readSI7006@DP	PTR float  size(1) Largest target is 15
		 -> main@dataPacket(BANK1[15]), 

    readSI7006@tempC	PTR float  size(1) Largest target is 15
		 -> main@dataPacket(BANK1[15]), 

    readSI7006@RH	PTR float  size(1) Largest target is 15
		 -> main@dataPacket(BANK1[15]), 

    main@s	PTR unsigned char  size(1) Largest target is 15
		 -> main@dataPacket(BANK1[15]), 


Critical Paths under _main in COMMON

    _main->___flge
    _readSI7006->___xxtofl
    _logf->___xxtofl
    ___fladd->___xxtofl
    ___flmul->___xxtofl
    ___fldiv->___xxtofl

Critical Paths under _ISR in COMMON

    _ISR->_uartReceiveISR

Critical Paths under _main in BANK0

    _main->_readSI7006
    _readSI7006->___fladd
    _logf->___fladd
    ___flsub->___fladd
    ___fladd->___fldiv
    ___flmul->___xxtofl
    ___fldiv->___flmul

Critical Paths under _ISR in BANK0

    None.

Critical Paths under _main in BANK1

    _main->_readSI7006
    _readSI7006->_logf
    _logf->___flsub

Critical Paths under _ISR in BANK1

    None.

Critical Paths under _main in BANK2

    _readSI7006->_logf

Critical Paths under _ISR in BANK2

    None.

Critical Paths under _main in BANK3

    None.

Critical Paths under _ISR in BANK3

    None.

Critical Paths under _main in BANK4

    None.

Critical Paths under _ISR in BANK4

    None.

Critical Paths under _main in BANK5

    None.

Critical Paths under _ISR in BANK5

    None.

Critical Paths under _main in BANK6

    None.

Critical Paths under _ISR in BANK6

    None.

Critical Paths under _main in BANK7

    None.

Critical Paths under _ISR in BANK7

    None.

Critical Paths under _main in BANK8

    None.

Critical Paths under _ISR in BANK8

    None.

Critical Paths under _main in BANK9

    None.

Critical Paths under _ISR in BANK9

    None.

Critical Paths under _main in BANK10

    None.

Critical Paths under _ISR in BANK10

    None.

Critical Paths under _main in BANK11

    None.

Critical Paths under _ISR in BANK11

    None.

Critical Paths under _main in BANK12

    None.

Critical Paths under _ISR in BANK12

    None.

Call Graph Tables:

 ---------------------------------------------------------------------------------
 (Depth) Function   	        Calls       Base Space   Used Autos Params    Refs
 ---------------------------------------------------------------------------------
 (0) _main                                                20    20      0   41004
                                             44 BANK1     20    20      0
                             ___flge
                         _initialize
                         _readSI7006
                       _uartSendByte
 ---------------------------------------------------------------------------------
 (1) _uartSendByte                                         1     1      0      22
                                              2 COMMON     1     1      0
 ---------------------------------------------------------------------------------
 (1) _readSI7006                                          26    24      2   39240
                                             78 BANK0      2     0      2
                                             20 BANK1     24    24      0
                            ___fladd
                            ___fldiv
                            ___flmul
                            ___flsub
                           ___xxtofl
                            _i2cRead
                          _i2cRepeat
                           _i2cStart
                            _i2cStop
                           _i2cWrite
                               _logf
 ---------------------------------------------------------------------------------
 (2) _logf                                                78    74      4   19572
                                              8 BANK1     12     8      4
                                              0 BANK2     66    66      0
                            ___fladd
                            ___fldiv
                            ___flmul
                            ___flsub
                           ___xxtofl
 ---------------------------------------------------------------------------------
 (3) ___xxtofl                                            14    10      4     550
                                              2 COMMON     8     4      4
                                              0 BANK0      6     6      0
 ---------------------------------------------------------------------------------
 (3) ___flsub                                              8     0      8    4613
                                              0 BANK1      8     0      8
                            ___fladd
                            ___fldiv (ARG)
                            ___flmul (ARG)
 ---------------------------------------------------------------------------------
 (4) ___fladd                                             20    12      8    4112
                                             58 BANK0     20    12      8
                            ___fldiv (ARG)
                            ___flmul (ARG)
                           ___xxtofl (ARG)
 ---------------------------------------------------------------------------------
 (3) ___flmul                                             26    18      8    6233
                                              6 BANK0     26    18      8
                          __Umul8_16
                           ___xxtofl (ARG)
 ---------------------------------------------------------------------------------
 (4) __Umul8_16                                            9     7      2     980
                                              2 COMMON     4     2      2
                                              0 BANK0      5     5      0
 ---------------------------------------------------------------------------------
 (3) ___fldiv                                             26    18      8    2337
                                             32 BANK0     26    18      8
                            ___flmul (ARG)
                           ___xxtofl (ARG)
 ---------------------------------------------------------------------------------
 (2) _i2cWrite                                             5     3      2     526
                                              2 COMMON     5     3      2
 ---------------------------------------------------------------------------------
 (2) _i2cStop                                              0     0      0       0
 ---------------------------------------------------------------------------------
 (2) _i2cStart                                             0     0      0       0
 ---------------------------------------------------------------------------------
 (2) _i2cRepeat                                            0     0      0       0
 ---------------------------------------------------------------------------------
 (2) _i2cRead                                              4     2      2     459
                                              2 COMMON     4     2      2
 ---------------------------------------------------------------------------------
 (1) _initialize                                           0     0      0       0
 ---------------------------------------------------------------------------------
 (1) ___flge                                              12     4      8    1094
                                              2 COMMON     8     0      8
                                              0 BANK0      4     4      0
 ---------------------------------------------------------------------------------
 Estimated maximum stack depth 4
 ---------------------------------------------------------------------------------
 (Depth) Function   	        Calls       Base Space   Used Autos Params    Refs
 ---------------------------------------------------------------------------------
 (5) _ISR                                                  0     0      0      23
                     _uartReceiveISR
 ---------------------------------------------------------------------------------
 (6) _uartReceiveISR                                       2     2      0      23
                                              0 COMMON     2     2      0
 ---------------------------------------------------------------------------------
 Estimated maximum stack depth 6
 ---------------------------------------------------------------------------------

 Call Graph Graphs:

 _main (ROOT)
   ___flge
   _initialize
   _readSI7006
     ___fladd
       ___fldiv (ARG)
         ___flmul (ARG)
           __Umul8_16
           ___xxtofl (ARG)
         ___xxtofl (ARG)
       ___flmul (ARG)
         __Umul8_16
         ___xxtofl (ARG)
       ___xxtofl (ARG)
     ___fldiv
       ___flmul (ARG)
         __Umul8_16
         ___xxtofl (ARG)
       ___xxtofl (ARG)
     ___flmul
       __Umul8_16
       ___xxtofl (ARG)
     ___flsub
       ___fladd
         ___fldiv (ARG)
           ___flmul (ARG)
             __Umul8_16
             ___xxtofl (ARG)
           ___xxtofl (ARG)
         ___flmul (ARG)
           __Umul8_16
           ___xxtofl (ARG)
         ___xxtofl (ARG)
       ___fldiv (ARG)
         ___flmul (ARG)
           __Umul8_16
           ___xxtofl (ARG)
         ___xxtofl (ARG)
       ___flmul (ARG)
         __Umul8_16
         ___xxtofl (ARG)
     ___xxtofl
     _i2cRead
     _i2cRepeat
     _i2cStart
     _i2cStop
     _i2cWrite
     _logf
       ___fladd
         ___fldiv (ARG)
           ___flmul (ARG)
             __Umul8_16
             ___xxtofl (ARG)
           ___xxtofl (ARG)
         ___flmul (ARG)
           __Umul8_16
           ___xxtofl (ARG)
         ___xxtofl (ARG)
       ___fldiv
         ___flmul (ARG)
           __Umul8_16
           ___xxtofl (ARG)
         ___xxtofl (ARG)
       ___flmul
         __Umul8_16
         ___xxtofl (ARG)
       ___flsub
         ___fladd
           ___fldiv (ARG)
             ___flmul (ARG)
               __Umul8_16
               ___xxtofl (ARG)
             ___xxtofl (ARG)
           ___flmul (ARG)
             __Umul8_16
             ___xxtofl (ARG)
           ___xxtofl (ARG)
         ___fldiv (ARG)
           ___flmul (ARG)
             __Umul8_16
             ___xxtofl (ARG)
           ___xxtofl (ARG)
         ___flmul (ARG)
           __Umul8_16
           ___xxtofl (ARG)
       ___xxtofl
   _uartSendByte

 _ISR (ROOT)
   _uartReceiveISR

 Address spaces:
Name               Size   Autos  Total    Cost      Usage
BIGRAM             3F0      0       0       0        0.0%
NULL                 0      0       0       0        0.0%
CODE                 0      0       0       0        0.0%
BITCOMMON            E      0       0       1        0.0%
BITSFR0              0      0       0       1        0.0%
SFR0                 0      0       0       1        0.0%
COMMON               E      A       C       2       85.7%
BITSFR1              0      0       0       2        0.0%
SFR1                 0      0       0       2        0.0%
BITSFR2              0      0       0       3        0.0%
SFR2                 0      0       0       3        0.0%
STACK                0      0       0       3        0.0%
BITSFR3              0      0       0       4        0.0%
SFR3                 0      0       0       4        0.0%
ABS                  0      0      E3       4        0.0%
BITBANK0            50      0       0       5        0.0%
BITSFR4              0      0       0       5        0.0%
SFR4                 0      0       0       5        0.0%
BANK0               50     50      50       6      100.0%
BITSFR5              0      0       0       6        0.0%
SFR5                 0      0       0       6        0.0%
BITBANK1            50      0       0       7        0.0%
BITSFR6              0      0       0       7        0.0%
SFR6                 0      0       0       7        0.0%
BANK1               50     40      45       8       86.3%
BITSFR7              0      0       0       8        0.0%
SFR7                 0      0       0       8        0.0%
BITBANK2            50      0       0       9        0.0%
BITSFR8              0      0       0       9        0.0%
SFR8                 0      0       0       9        0.0%
BANK2               50     42      42      10       82.5%
BITSFR9              0      0       0      10        0.0%
SFR9                 0      0       0      10        0.0%
BITBANK3            50      0       0      11        0.0%
BITSFR10             0      0       0      11        0.0%
SFR10                0      0       0      11        0.0%
BANK3               50      0       0      12        0.0%
BITSFR11             0      0       0      12        0.0%
SFR11                0      0       0      12        0.0%
BITBANK4            50      0       0      13        0.0%
BITSFR12             0      0       0      13        0.0%
SFR12                0      0       0      13        0.0%
BANK4               50      0       0      14        0.0%
BITSFR13             0      0       0      14        0.0%
SFR13                0      0       0      14        0.0%
BITBANK5            50      0       0      15        0.0%
BITSFR14             0      0       0      15        0.0%
SFR14                0      0       0      15        0.0%
BANK5               50      0       0      16        0.0%
BITSFR15             0      0       0      16        0.0%
SFR15                0      0       0      16        0.0%
BITBANK6            50      0       0      17        0.0%
BITSFR16             0      0       0      17        0.0%
SFR16                0      0       0      17        0.0%
BANK6               50      0       0      18        0.0%
BITSFR17             0      0       0      18        0.0%
SFR17                0      0       0      18        0.0%
BITBANK7            50      0       0      19        0.0%
BITSFR18             0      0       0      19        0.0%
SFR18                0      0       0      19        0.0%
BANK7               50      0       0      20        0.0%
BITSFR19             0      0       0      20        0.0%
SFR19                0      0       0      20        0.0%
BITBANK8            50      0       0      21        0.0%
BITSFR20             0      0       0      21        0.0%
SFR20                0      0       0      21        0.0%
BANK8               50      0       0      22        0.0%
BITSFR21             0      0       0      22        0.0%
SFR21                0      0       0      22        0.0%
BITBANK9            50      0       0      23        0.0%
BITSFR22             0      0       0      23        0.0%
SFR22                0      0       0      23        0.0%
BANK9               50      0       0      24        0.0%
BITSFR23             0      0       0      24        0.0%
SFR23                0      0       0      24        0.0%
BITBANK10           50      0       0      25        0.0%
BITSFR24             0      0       0      25        0.0%
SFR24                0      0       0      25        0.0%
BANK10              50      0       0      26        0.0%
BITSFR25             0      0       0      26        0.0%
SFR25                0      0       0      26        0.0%
BITBANK11           50      0       0      27        0.0%
BITSFR26             0      0       0      27        0.0%
SFR26                0      0       0      27        0.0%
BANK11              50      0       0      28        0.0%
BITSFR27             0      0       0      28        0.0%
SFR27                0      0       0      28        0.0%
BITBANK12           30      0       0      29        0.0%
BITSFR28             0      0       0      29        0.0%
SFR28                0      0       0      29        0.0%
BANK12              30      0       0      30        0.0%
BITSFR29             0      0       0      30        0.0%
SFR29                0      0       0      30        0.0%
BITSFR30             0      0       0      31        0.0%
SFR30                0      0       0      31        0.0%
DATA                 0      0      E3      31        0.0%
BITSFR31             0      0       0      32        0.0%
SFR31                0      0       0      32        0.0%
BITSFR32             0      0       0      33        0.0%
SFR32                0      0       0      33        0.0%
BITSFR33             0      0       0      34        0.0%
SFR33                0      0       0      34        0.0%
BITSFR34             0      0       0      35        0.0%
SFR34                0      0       0      35        0.0%
BITSFR35             0      0       0      36        0.0%
SFR35                0      0       0      36        0.0%
BITSFR36             0      0       0      37        0.0%
SFR36                0      0       0      37        0.0%
BITSFR37             0      0       0      38        0.0%
SFR37                0      0       0      38        0.0%
BITSFR38             0      0       0      39        0.0%
SFR38                0      0       0      39        0.0%
BITSFR39             0      0       0      40        0.0%
SFR39                0      0       0      40        0.0%
BITSFR40             0      0       0      41        0.0%
SFR40                0      0       0      41        0.0%
BITSFR41             0      0       0      42        0.0%
SFR41                0      0       0      42        0.0%
BITSFR42             0      0       0      43        0.0%
SFR42                0      0       0      43        0.0%
BITSFR43             0      0       0      44        0.0%
SFR43                0      0       0      44        0.0%
BITSFR44             0      0       0      45        0.0%
SFR44                0      0       0      45        0.0%
BITSFR45             0      0       0      46        0.0%
SFR45                0      0       0      46        0.0%
BITSFR46             0      0       0      47        0.0%
SFR46                0      0       0      47        0.0%
BITSFR47             0      0       0      48        0.0%
SFR47                0      0       0      48        0.0%
BITSFR48             0      0       0      49        0.0%
SFR48                0      0       0      49        0.0%
BITSFR49             0      0       0      50        0.0%
SFR49                0      0       0      50        0.0%
BITSFR50             0      0       0      51        0.0%
SFR50                0      0       0      51        0.0%
BITSFR51             0      0       0      52        0.0%
SFR51                0      0       0      52        0.0%
BITSFR52             0      0       0      53        0.0%
SFR52                0      0       0      53        0.0%
BITSFR53             0      0       0      54        0.0%
SFR53                0      0       0      54        0.0%
BITSFR54             0      0       0      55        0.0%
SFR54                0      0       0      55        0.0%
BITSFR55             0      0       0      56        0.0%
SFR55                0      0       0      56        0.0%
BITSFR56             0      0       0      57        0.0%
SFR56                0      0       0      57        0.0%
BITSFR57             0      0       0      58        0.0%
SFR57                0      0       0      58        0.0%
BITSFR58             0      0       0      59        0.0%
SFR58                0      0       0      59        0.0%
BITSFR59             0      0       0      60        0.0%
SFR59                0      0       0      60        0.0%
BITSFR60             0      0       0      61        0.0%
SFR60                0      0       0      61        0.0%
BITSFR61             0      0       0      62        0.0%
SFR61                0      0       0      62        0.0%
BITSFR62             0      0       0      63        0.0%
SFR62                0      0       0      63        0.0%
BITSFR63             0      0       0      64        0.0%
SFR63                0      0       0      64        0.0%


Microchip Technology PIC Macro Assembler V2.10 build 88905656 
Symbol Table                                                                                   Sun Feb 02 19:34:52 2020

           ___fldiv@aexp 0059             ___fldiv@bexp 0058             ___fldiv@sign 0051  
            __CFG_CP$OFF 0000                       l87 08B6          i2cRead@numBytes 0072  
    __Umul8_16@word_mpld 0022              __CFG_LVP$ON 0000        i2cRead@readBuffer 0075  
                    l111 1642                      l103 07FD                      l112 1643  
                    l121 1629                      l123 162E                      l115 1632  
                    l131 16FF                      l124 162F                      l141 173B  
                    l109 163D                      l117 1637                      l150 174F  
                    l118 1638                      l134 16E7                      l151 1766  
                    l143 1740                      l127 16D0                      l136 16EC  
                    l160 164E                      l153 176B                      l145 1774  
                    l129 16D5                      l163 16A3                      l147 1748  
                    l148 174A                      l157 1649                      l166 16CB  
                    l433 17FF                      l425 1792                      l428 17E6  
                    l620 0AF2                      l604 0A14                      l606 0B70  
                    l552 0C70                      l625 0B3E                      l561 0DA8  
                    l626 0B58                      l650 0F7B                      l554 0C4C  
                    l628 0B67                      l644 0FFF                      l548 0BCF  
                    l573 0D24                      l590 0D9F                      l582 0D7D  
                    l718 05C1                      l727 1662                      l591 0DA8  
                    l656 0FF3                      l729 1672                      l569 0D02  
                    l594 1735                      l682 0829                      l579 0D46  
                    l684 08B2                      l695 087E                      l696 088A  
                    l688 0864                      _ISR 0004                      _Lg1 180C  
                    _Lg2 1808                      _Lg3 1804                      _Lg4 1800  
           __CFG_BORV$LO 0000                      wreg 0009             ___flmul@aexp 0034  
           ___flmul@bexp 0039             ___flmul@sign 0033             ___flmul@temp 003E  
           ___flmul@prod 003A            __CFG_BBEN$OFF 0000                     ?_ISR 0070  
           __CFG_ZCD$OFF 0000                     l2121 0831                     l2113 0808  
                   l2203 1630                     l2131 0851                     l2115 080D  
                   l2301 16B6                     l2141 0878                     l2133 0855  
                   l2125 083A                     l2117 0811                     l2311 16C2  
                   l2303 16B8                     l2151 08A9                     l2143 0882  
                   l2135 085D                     l2127 083F                     l2119 0821  
                   l2401 1775                     l2313 16C4                     l2305 16BB  
                   l2161 16DB                     l2153 08AA                     l2145 088C  
                   l2137 086B                     l2129 084A                     l2411 17CA  
                   l2403 178A                     l2315 16C6                     l2307 16BD  
                   l2147 08A0                     l2139 0874                     l2413 17CE  
                   l2405 17A6                     l2317 16C9                     l2309 16C0  
                   l2181 1627                     l2157 1639                     l2173 16F4  
                   l2165 16DD                     l1701 0C31                     l1621 0B77  
                   l2149 08A5                     l2415 17FC                     l2407 17AE  
                   l2191 1758                     l2183 1737                     l2167 16DF  
                   l2175 16F8                     l2159 16CD                     l1711 0C5D  
                   l1703 0C50                     l1631 0B8A                     l1623 0B7B  
                   l2417 17FE                     l2409 17B2                     l2193 175C  
                   l2185 1746                     l2169 16F2                     l2521 1653  
                   l2601 0EB5                     l1801 0D94                     l1713 0C65  
                   l1705 0C56                     l1641 0BA2                     l1633 0B92  
                   l1625 0B7F                     l2291 169E                     l2195 1765  
                   l2523 165A                     l2611 0F05                     l2603 0EC9  
                   l1811 0DA7                     l1803 0D95                     l1731 0C98  
                   l1723 0C82                     l1707 0C58                     l1715 0C69  
                   l1651 0BB2                     l1643 0BA8                     l1635 0B93  
                   l1627 0B80                     l1619 0B71                     l2293 16A7  
                   l2189 1750                     l2197 176C                     l1901 0A80  
                   l2525 165E                     l2621 0F4B                     l2613 0F1A  
                   l2605 0ED0                     l2541 0DB8                     l2533 0DA9  
                   l1805 0D99                     l1733 0C9A                     l1725 0C8A  
                   l1717 0C74                     l1741 0CAC                     l1709 0C5C  
                   l1653 0BB7                     l1661 0BC7                     l1645 0BA9  
                   l1629 0B85                     l1637 0B95                     l2701 0188  
                   l2295 16B2                     l2199 1773                     l1911 0A9F  
                   l1903 0A84                     l2527 1669                     l2519 1651  
                   l2631 0F5F                     l2623 0F4F                     l2615 0F31  
                   l2607 0EE4                     l2551 0DD4                     l2543 0DBD  
                   l2535 0DAF                     l1807 0D9B                     l1743 0CC2  
                   l1751 0CFA                     l1735 0C9E                     l1727 0C8E  
                   l1719 0C79                     l1671 0BE5                     l1663 0BD5  
                   l1655 0BBC                     l1647 0BAD                     l1639 0B9D  
                   l2703 0191                     l2297 16B3                     l1921 0ABB  
                   l1913 0AA7                     l1905 0A85                     l1841 09CC  
                   l1833 09BD                     l2529 166E                     l2641 0F80  
                   l2633 0F60                     l2625 0F50                     l2617 0F38  
                   l2609 0EF1                     l2561 0DE7                     l2553 0DD9  
                   l2545 0DC2                     l2537 0DB3                     l1809 0DA3  
                   l1761 0D1F                     l1753 0D0A                     l1745 0CE6  
                   l1737 0C9F                     l1729 0C92                     l1681 0BF9  
                   l1673 0BE9                     l1665 0BD9                     l1657 0BC4  
                   l1649 0BB1                     l2721 020E                     l2713 01A7  
                   l2801 0687                     l2377 1645                     l2299 16B4  
                   l1923 0AC2                     l1931 0AD2                     l1907 0A8C  
                   l1915 0AAB                     l1843 09D1                     l1851 09E1  
                   l1835 09C3                     l2643 0F85                     l2651 0FAD  
                   l2635 0F64                     l2627 0F57                     l2619 0F44  
                   l2571 0E03                     l2563 0DEC                     l2555 0DDD  
                   l2547 0DCA                     l2539 0DB7                     l1771 0D32  
                   l1763 0D23                     l1755 0D0F                     l1747 0CEC  
                   l1739 0CA7                     l1691 0C0D                     l1683 0BFD  
                   l1675 0BED                     l1667 0BDD                     l1659 0BC5  
                   l1827 1700                     l2731 02F5                     l2723 021D  
                   l2715 01AF                     l2707 0192                     l2811 07A6  
                   l2803 06E6                     l2379 1648                     l1933 0AD6  
                   l1925 0AC6                     l1917 0AB1                     l1909 0A9E  
                   l1861 09F7                     l1853 09E9                     l1845 09D6  
                   l1837 09C7                     l2661 0FDD                     l2653 0FBA  
                   l2645 0F8D                     l2637 0F78                     l2629 0F5B  
                   l2581 0E2B                     l2573 0E08                     l2565 0DF4  
                   l2557 0DE1                     l2549 0DCC                     l1781 0D43  
                   l1765 0D28                     l1773 0D34                     l1749 0CF1  
                   l1693 0C11                     l1685 0C01                     l1677 0BF1  
                   l1669 0BE1                     l1829 1703                     l2741 040B  
                   l2733 0335                     l2725 0249                     l2717 01D2  
                   l2709 019D                     l2813 07FC                     l2805 070E  
                   l2821 08C0                     l1951 0B20                     l1943 0AF7  
                   l1935 0AD7                     l1927 0AC7                     l1919 0AB9  
                   l1863 09FC                     l1871 0A0C                     l1855 09EE  
                   l1847 09DE                     l1839 09CB                     l2663 0FEA  
                   l2655 0FC4                     l2647 0F91                     l2591 0E86  
                   l2583 0E45                     l2567 0DF6                     l2559 0DE2  
                   l1791 0D5C                     l1767 0D2B                     l1759 0D18  
                   l1775 0D38                     l1695 0C15                     l1687 0C05  
                   l1679 0BF5                     l2751 0515                     l2743 0437  
                   l2735 0367                     l2727 0291                     l2719 0206  
                   l2807 0760                     l2831 0926                     l2823 08C1  
                   l1961 0B57                     l1945 0AFC                     l1953 0B24  
                   l1937 0ADB                     l1929 0ACE                     l1873 0A1C  
                   l1881 0A35                     l1865 0A01                     l1857 09F2  
                   l1849 09DF                     l2665 0FEE                     l2657 0FD2  
                   l2649 0FA9                     l2593 0E8D                     l2585 0E52  
                   l2577 0E11                     l2569 0DFE                     l1793 0D79  
                   l1785 0D4B                     l1777 0D39                     l1769 0D2D  
                   l1689 0C09                     l1697 0C19                     l2753 0547  
                   l2745 0469                     l2737 03A7                     l2729 02C3  
                   l2681 0079                     l2673 0028                     l2809 0774  
                   l2761 05C7                     l2905 09B3                     l2841 097F  
                   l2833 0941                     l2825 08D5                     l2817 08B3  
                   l1963 0B5D                     l1955 0B31                     l1947 0B04  
                   l1939 0AEF                     l1891 0A5B                     l1883 0A3A  
                   l1875 0A28                     l1867 0A09                     l1859 09F6  
                   l2667 0FEF                     l2659 0FDB                     l2595 0E9A  
                   l2587 0E6C                     l2579 0E1E                     l1795 0D82  
                   l1787 0D50                     l1779 0D3D                     l1699 0C1A  
                   l2755 0579                     l2747 047F                     l2739 03D9  
                   l2683 0098                     l2675 0050                     l2771 05E0  
                   l2763 05CC                     l2851 098F                     l2843 0980  
                   l2835 095C                     l2827 08F0                     l2819 08B8  
                   l1965 0B61                     l1957 0B4C                     l1949 0B08  
                   l1893 0A63                     l1877 0A2C                     l1869 0A0A  
                   l2669 0FF7                     l2597 0EA1                     l2589 0E79  
                   l1797 0D87                     l1789 0D58                     l2749 04CD  
                   l2693 013F                     l2677 0052                     l2781 0656  
                   l2765 05DB                     l2861 09A5                     l2853 0994  
                   l2837 0977                     l2829 090B                     l1967 0B63  
                   l1959 0B4F                     l1895 0A6B                     l1887 0A43  
                   l2599 0EAE                     l1799 0D8F                     l2695 0144  
                   l2687 00DF                     l2679 005B                     l2791 066E  
                   l2783 0659                     l2759 05C4                     l2855 0998  
                   l2847 0981                     l2839 097A                     l1897 0A6D  
                   l1889 0A53                     l2697 0170                     l2689 00FE  
                   l2793 0671                     l2785 065E                     l2777 05F3  
                   l2769 05DD                     l2857 099E                     l2849 0988  
                   l1899 0A72                     l2699 017F                     l2779 05F6  
                   l2859 09A2                     l2867 09AA                     l2799 0684  
                   u2000 0D50                     u2001 0D4F                     u2010 0D5C  
                   u2011 0D5B                     u2020 0D6A                     u2030 0D79  
                   u2031 0D78                     u2200 0A72                     u2120 09CB  
                   u2040 0D82                     u2201 0A71                     u2121 09CA  
                   u2041 0D81                     u2025 0D66                     u2130 09D1  
                   u2050 0D87                     u2131 09D0                     u2051 0D86  
                   u2140 09D6                     u2060 0D94                     u2141 09D5  
                   u2061 0D93                     u2310 0AD6                     u2230 0A84  
                   u2150 09F6                     u2070 0D99                     u3110 164E  
                   u2311 0AD5                     u2231 0A83                     u2215 0A73  
                   u2151 09F5                     u2071 0D98                     u3111 164D  
                   u2400 0B61                     u2320 0ADB                     u2160 09FC  
                   u2080 0DA7                     u2401 0B60                     u2321 0ADA  
                   u2305 0AC8                     u2225 0A7A                     u2161 09FB  
                   u2081 0DA6                     u2330 0AEF                     u2250 0A9E  
                   u2170 0A01                     u2331 0AEE                     u2251 0A9D  
                   u2171 0A00                     u3060 16A7                     u2340 0AF6  
                   u2260 0AB1                     u2180 0A1C                     u1700 0BB1  
                   u3061 16A6                     u2341 0AF5                     u2261 0AB0  
                   u2245 0A86                     u2181 0A1B                     u1701 0BB0  
                   u3150 178A                     u2350 0AFC                     u2270 0AB9  
                   u2190 0A3A                     u3310 165E                     u1710 0BB7  
                   u3151 1789                     u2351 0AFB                     u2271 0AB8  
                   u2255 0A9A                     u2191 0A39                     u3311 165D  
                   u1711 0BB6                     u3160 17A6                     u2360 0B08  
                   u3400 0E03                     u1720 0BBC                     u3161 17A5  
                   u2361 0B07                     u3401 0E02                     u1721 0BBB  
                   u3170 17B2                     u2370 0B16                     u2290 0AC6  
                   u3330 166E                     u3410 0E08                     u1810 0C70  
                   u1730 0BD5                     u3171 17B1                     u2291 0AC5  
                   u3331 166D                     u3411 0E07                     u1811 0C6F  
                   u1731 0BD4                     u3180 17CE                     u2380 0B31  
                   u3500 0F5F                     u3340 0DB7                     u1900 0D0A  
                   u1820 0C74                     u1740 0BD9                     u1660 0B7F  
                   u3181 17CD                     u2381 0B30                     u2285 0ABC  
                   u3325 1663                     u3501 0F5E                     u3341 0DB6  
                   u1901 0D09                     u1821 0C73                     u1805 0C5F  
                   u1741 0BD8                     u1661 0B7E                     u3190 17FC  
                   u2390 0B4C                     u3510 0F64                     u3350 0DBD  
                   u1910 0D0F                     u1830 0C79                     u1750 0C31  
                   u1670 0B85                     u2710 0850                     u3191 17FB  
                   u2391 0B4B                     u2375 0B12                     u3511 0F63  
                   u3351 0DBC                     u1911 0D0E                     u1831 0C78  
                   u1751 0C30                     u1671 0B84                     u2711 084F  
                   u3520 0F78                     u3440 0F10                     u3360 0DC2  
                   u1840 0C8E                     u1760 0C3B                     u1680 0B8A  
                   u2800 08A9                     u3600 005B                     u2385 0B2D  
                   u3521 0F77                     u3425 0E87                     u3361 0DC1  
                   u1841 0C8D                     u1761 0C39                     u1681 0B89  
                   u2801 08A8                     u2705 0844                     u3601 005A  
                   _PIE3 0719                     u2810 1642                     u3530 0F7F  
                   u3450 0F27                     u3370 0DE1                     u1930 0D23  
                   u1850 0C92                     u1770 0C3C                     u1690 0BA8  
                   u2730 086A                     u3610 006F                     u3195 17F8  
                   u2811 1641                     u2395 0B48                     u3531 0F7E  
                   u3435 0EB6                     u3371 0DE0                     u1931 0D22  
                   u1851 0C91                     u1755 0C2D                     u1691 0BA7  
                   u2731 0869                     u2900 174F                     u2820 16D5  
                   u3540 0F85                     u3380 0DE7                     u1940 0D28  
                   u1860 0C9E                     u1780 0C50                     u3620 0079  
                   u3700 05DB                     u2901 174E                     u2821 16D4  
                   u3541 0F84                     u3445 0F0C                     u3381 0DE6  
                   u1941 0D27                     u1925 0D19                     u1861 0C9D  
                   u1781 0C4F                     u2725 085E                     u3621 0078  
                   u3701 05DA                     u2910 1763                     u2830 16DB  
                   u3550 0F91                     u3390 0DEC                     u1950 0D32  
                   u1790 0C5C                     u2750 0878                     u2670 080D  
                   u3630 008E                     u3710 05F2                     u2911 1760  
                   u2831 16DA                     u3551 0F90                     u3455 0F23  
                   u3391 0DEB                     u1951 0D31                     u1791 0C5B  
                   u2751 0877                     u2671 080C                     u3615 006B  
                   u3711 05F1                     u2840 16EC                     u3560 0F9F  
                   u3480 0F4F                     u1960 0D38                     u1880 0CC2  
                   u2760 087E                     u2680 0811                     u3640 0098  
                   u3720 066D                     u3800 0977                     u2841 16EB  
                   u3481 0F4E                     u3465 0F32                     u1961 0D37  
                   u1881 0CC1                     u2761 087D                     u2745 086E  
                   u2681 0810                     u3641 0097                     u3721 066C  
                   u3801 0976                     u2930 176B                     u2850 16F2  
                   u3570 0FBA                     u1970 0D3D                     u1890 0CF1  
                   u2770 0882                     u2690 0831                     u3650 00F4  
                   u3730 0683                     u3810 099E                     u2931 176A  
                   u2851 16F1                     u3571 0FB9                     u3475 0F45  
                   u1971 0D3C                     u1891 0CF0                     u1883 0CBE  
                   u1875 0CA1                     u2771 0881                     u2691 0830  
                   u3635 008A                     u3731 0682                     u3811 099D  
                   u2940 1773                     u2924 1765                     u2860 16FE  
                   u3580 0FD2                     u1980 0D43                     u2780 0896  
                   u3660 00FE                     u3740 08D5                     u2941 1772  
                   u2861 16FD                     u3581 0FD1                     u3565 0F9B  
                   u1981 0D42                     u3661 00FD                     u3741 08D4  
                   u2870 162E                     u2950 1637                     u3590 0FEE  
                   u1990 0D4A                     u2790 08A5                     u3670 0191  
                   u3750 08F0                     u2871 162D                     u2951 1636  
                   u3591 0FED                     u3575 0FB6                     u3495 0F51  
                   u1991 0D49                     u2791 08A4                     u3671 0190  
                   u3655 00F0                     u3751 08EF                     u2880 1740  
                   u3680 019D                     u3760 090B                     u2881 173F  
                   u3585 0FCE                     u2785 0892                     u3681 019C  
                   u3761 090A                     u2890 1746                     u3690 01C3  
                   u3770 0926                     u2891 1745                     u3771 0925  
                   u3780 0941                     u3781 0940                     u3790 095C  
                   u3695 01BF                     u3791 095B            __CFG_FCMEN$ON 0000  
                   _main 08B3                     _logf 0028                     fsr1h 0007  
                   indf1 0001                     fsr1l 0006                     btemp 007E  
          __CFG_BOREN$ON 0000                     start 001A          ___fldiv@new_exp 0052  
          __CFG_CSWEN$ON 0000          __end_of_i2cRead 1775          __end_of_i2cStop 1639  
           main@checksum 00CE                    ??_ISR 0072          __end_of___fladd 0DA9  
                  ?_main 0070                    ?_logf 00A8          __end_of___fldiv 0B71  
          __CFG_WDTE$OFF 0000          __end_of___flmul 1000          __end_of___flsub 1736  
                  i1l172 0018                    i1l179 169D                    _TRISA 0012  
                  _TRISC 0014            __CFG_WRTB$OFF 0000            __CFG_WRTC$OFF 0000  
        i2cWrite@address 0073                    main@n 00D0                    main@s 00CF  
                  logf@R 0120                    logf@f 015A                    logf@k 013C  
                  logf@s 0146                    logf@u 0156                    logf@w 014E  
                  logf@x 00A8                    logf@z 014A                    status 0003  
                  wtemp0 007E           __CFG_MCLRE$OFF 0000          __initialization 001C  
           __end_of_main 09BD             __end_of_logf 05C2         __end_of_i2cStart 1644  
       __end_of_i2cWrite 1700           __CFG_SAFEN$OFF 0000                   ??_main 00CC  
                 ??_logf 00AC       __size_of_i2cRepeat 0009                   _ANSELA 1F38  
                 _ANSELC 1F4E       __CFG_RSTOSC$HFINT1 0000                   _RC1REG 0119  
                 _RC0PPS 1F20                   _RC1PPS 1F21                   _RC1STA 011D  
                 _RC4PPS 1F24                   i1l2381 1673                   i1l2391 1684  
                 i1l2383 1678                   i1l2393 1688                   i1l2385 167A  
                 i1l2481 000A                   i1l2395 168C                   i1l2387 167E  
                 i1l2483 000F                   i1l2397 1692                   i1l2389 1682  
                 i1l2485 0013                   i1l2399 1698                   i1l2487 0016  
                 i1l2479 0006           __CFG_WDTCCS$SC 0000                   u312_20 1678  
                 u312_21 1677                   u313_20 1682                   _INTCON 000B  
                 u313_21 1681                   u314_20 1692                   u330_20 0013  
                 u314_21 1691                   u330_21 0012                   u328_20 000A  
                 u328_21 0009                   u329_20 000F                   u329_21 000E  
                 _OSCFRQ 0893                   _SPBRGL 011B                   _TX1REG 011A  
                 _TX1STA 011E         __end_of___xxtofl 08B3                ??_i2cRead 0074  
              ??_i2cStop 0072           __CFG_PWRTE$OFF 0000                   ___flge 1775  
              ??___fladd 0062                   _ln2_hi 1814                ??___fldiv 0048  
                 _ln2_lo 1810           __CFG_STVREN$ON 0000                ??___flmul 002E  
              ??___flsub 007A           _readSI7006$823 00B9           _readSI7006$824 00BD  
         _readSI7006$825 00C1                   logf@t1 0124                   logf@t2 0128  
                 logf@dk 0142                   logf@ix 015E       __size_of__Umul8_16 0024  
    i2cWrite@writeBuffer 0075             readSI7006@DP 006F             readSI7006@RH 00C9  
             ___flge@ff1 0072               ___flge@ff2 0076             ___xxtofl@arg 0022  
           ___xxtofl@exp 0021             ___xxtofl@val 0072  __end_of__initialization 0024  
       i2cWrite@numBytes 0072           __pcstackCOMMON 0070           main@dataPacket 00D1  
      __end_of_i2cRepeat 1630     uartReceiveISR@rxByte 0071               __pbssBANK1 00E0  
              ?_i2cStart 0070                ?_i2cWrite 0072  __size_of_uartReceiveISR 002B  
      __end_of__Umul8_16 1673               __pmaintext 08B3                  ?___flge 0072  
        __CFG_PPS1WAY$ON 0000               __pintentry 0004                ?___xxtofl 0072  
                _OSCCON1 088D                  _SSP1ADD 018D                  _SSP1BUF 018C  
             ??_i2cStart 0072               ??_i2cWrite 0074                  _i2cRead 1736  
             _readSI7006 05C2                  _i2cStop 1630          __size_of___flge 008B  
                ___fladd 0B71                  ___fldiv 09BD                  ___flmul 0DA9  
                ___flsub 1700            ?_uartSendByte 0070               _initialize 169E  
                __ptext1 1644                  __ptext2 05C2                  __ptext3 0028  
                __ptext4 0806                  __ptext5 1700                  __ptext6 0B71  
                __ptext7 0DA9                  __ptext8 164F                  __ptext9 09BD  
        __CFG_WRTAPP$OFF 0000             __size_of_ISR 0016               ??___xxtofl 0076  
        __CFG_WRTSAF$OFF 0000     end_of_initialization 0024           ??_uartSendByte 0072  
  __CFG_WDTCPS$WDTCPS_31 0000              ___fladd@grs 006D            ___xxtofl@sign 0020  
            ___fldiv@grs 0054              ___fldiv@rem 004D         __CFG_FEXTOSC$ECH 0000  
         _uartReceiveISR 1673              ___flmul@grs 0035                i2cWrite@n 0076  
            ?_readSI7006 006E           __end_of___flge 1800           __end_of_ln2_hi 1818  
         __end_of_ln2_lo 1814              ?_initialize 0070                _i2cRepeat 1627  
    start_initialization 001C              __end_of_ISR 001A              __end_of_Lg1 1810  
            __end_of_Lg2 180C              __end_of_Lg3 1808              __end_of_Lg4 1804  
 __end_of_uartReceiveISR 169E        __size_of_i2cStart 000B        __size_of_i2cWrite 0034  
       __CFG_LPBOREN$OFF 0000                 ??___flge 0020                __Umul8_16 164F  
              ___fladd@a 005E                ___fladd@b 005A               ?_i2cRepeat 0070  
              ___fldiv@a 0040                ___fldiv@b 0044      __size_of_readSI7006 023C  
              ___flmul@a 002A                ___flmul@b 0026              __pbssCOMMON 007A  
              ___flsub@a 00A0                ___flsub@b 00A4                ___latbits 0002  
          __pcstackBANK0 0020            __pcstackBANK1 00A0            __pcstackBANK2 0120  
      __size_of___xxtofl 00AD          ?_uartReceiveISR 0070     __end_of_uartSendByte 164F  
    __size_of_initialize 002E                 ?_i2cRead 0072                 ?_i2cStop 0070  
              _g_command 00E4            _g_rxFErrCount 007B                 ?___fladd 005A  
               ?___fldiv 0040                 ?___flmul 0026                 ?___flsub 00A0  
             ?__Umul8_16 0072                 _BAUD1CON 011F            _g_rxOErrCount 007A  
               _PIE3bits 0719                 _PIR3bits 070F        __CFG_BBSIZE$BB512 0000  
               _SSP1CON1 0190              ??_i2cRepeat 0072                 _i2cStart 1639  
               _i2cWrite 16CC             ??_readSI7006 00B4         __size_of_i2cRead 003F  
       __size_of_i2cStop 0009            uartSendByte@s 0072              ??__Umul8_16 0074  
       __size_of___fladd 0238         __size_of___fldiv 01B4         __size_of___flmul 0257  
       __size_of___flsub 0036             ??_initialize 0072                 ___xxtofl 0806  
     __end_of_readSI7006 07FE    __size_of_uartSendByte 000B                 __ptext10 16CC  
               __ptext11 1630                 __ptext12 1639                 __ptext13 1627  
               __ptext14 1736                 __ptext15 169E                 __ptext16 1775  
               __ptext18 1673             _SSP1CON2bits 0191                 _logf$830 0138  
               _logf$826 0152                 _logf$827 012C                 _logf$828 0130  
               _logf$829 0134              _OSCCON3bits 088F            __size_of_main 010A  
          __size_of_logf 059A       __end_of_initialize 16CC     __CFG_WDTCWS$WDTCWS_7 0000  
             _RC1STAbits 011D                 int$flags 007E             _uartSendByte 1644  
               logf@F469 00E0         ??_uartReceiveISR 0070               _INTCONbits 000B  
               logf@hfsq 013E                 intlevel1 0000        __CFG_CLKOUTEN$OFF 0000  
       readSI7006@buffer 00CA            __pstringtext1 1800            __pstringtext2 1804  
          __pstringtext3 1808            __pstringtext4 180C            __pstringtext5 1810  
          __pstringtext6 1814   __Umul8_16@multiplicand 0072               _SSP1DATPPS 1EC6  
          ___fladd@signs 006A          readSI7006@gamma 00C5          readSI7006@tempC 006E  
           ___fladd@aexp 006B             ___fladd@bexp 006C     __Umul8_16@multiplier 0024  
         i2cRead@address 0073        __Umul8_16@product 0020  
