

Microchip Technology PIC LITE Macro Assembler V2.00 build -1524193055 
                                                                                               Wed Jan 15 23:40:47 2020

Microchip Technology Omniscient Code Generator v2.00 (Free mode) build 20180527130849
     1  0000                     
      + 0000                     
     2                           ; Version 2.00
     3                           ; Generated 27/05/2018 GMT
     4                           
     5                           ; 
     6                           ; Copyright © 2018, Microchip Technology Inc. and its subsidiaries ("Microchip")
     7                           ; All rights reserved.
     8                           ; 
     9                           ; This software is developed by Microchip Technology Inc. and its subsidiaries ("Microch
                                 ip").
    10                           ; 
    11                           ; Redistribution and use in source and binary forms, with or without modification, are
    12                           ; permitted provided that the following conditions are met:
    13                           ; 
    14                           ;     1. Redistributions of source code must retain the above copyright notice, this lis
                                 t of
    15                           ;        conditions and the following disclaimer.
    16                           ; 
    17                           ;     2. Redistributions in binary form must reproduce the above copyright notice, this 
                                 list
    18                           ;        of conditions and the following disclaimer in the documentation and/or other
    19                           ;        materials provided with the distribution.
    20                           ; 
    21                           ;     3. Microchip's name may not be used to endorse or promote products derived from th
                                 is
    22                           ;        software without specific prior written permission.
    23                           ; 
    24                           ; THIS SOFTWARE IS PROVIDED BY MICROCHIP "AS IS" AND ANY EXPRESS OR IMPLIED WARRANTIES,

    25                           ; INCLUDING, BUT NOT LIMITED TO, THE IMPLIED WARRANTIES OF MERCHANTABILITY AND FITNESS F
                                 OR
    26                           ; PURPOSE ARE DISCLAIMED.  IN NO EVENT SHALL MICROCHIP BE LIABLE FOR ANY DIRECT, INDIREC
                                 T,
    27                           ; INCIDENTAL, SPECIAL, EXEMPLARY, OR CONSEQUENTIAL DAMAGES (INCLUDING BUT NOT LIMITED TO
                                 
    28                           ; PROCUREMENT OF SUBSTITUTE GOODS OR SERVICES; LOSS OF USE, DATA OR PROFITS; OR BUSINESS
                                 
    29                           ; INTERRUPTION) HOWSOEVER CAUSED AND ON ANY THEORY OF LIABILITY, WHETHER IN CONTRACT, ST
                                 RICT
    30                           ; LIABILITY, OR TORT (INCLUDING NEGLIGENCE OR OTHERWISE) ARISING IN ANY WAY OUT OF THE U
                                 SE OF
    31                           ; THIS SOFTWARE, EVEN IF ADVISED OF THE POSSIBILITY OF SUCH DAMAGE.
    32                           ; 
    33                           
    34                           
    35                           ; 
    36                           ; Code-generator required, PIC16F15325 Definitions
    37                           ; 
    38  0008                     fsr0h equ 05h
    39  0005                     fsr0l equ 04h
    40  0004                     fsr1h equ 07h
    41  0007                     fsr1l equ 06h
    42  0006                     indf equ 00h
    43  0000                     indf0 equ 00h
    44  0000                     indf1 equ 01h
    45  0001                     intcon equ 0Bh
    46  000B                     pc equ 02h
    47  0002                     pcl equ 02h
    48  0002                     pclath equ 0Ah
    49  000A                     status equ 03h
    50  0003                     wreg equ 09h
    51  0009                     
     2                           opt pagewidth 120
     3  0000                     byte0	macro	val
     4                           	(getbyte(val,0))
     5                           endm
     6  0000                     byte1	macro	val
     7                           	(getbyte(val,1))
     8                           endm
     9  0000                     byte2	macro	val
    10                           	(getbyte(val,2))
    11                           endm
    12  0000                     byte3	macro	val
    13                           	(getbyte(val,3))
    14                           endm
    15  0000                     byte4	macro	val
    16                           	(getbyte(val,4))
    17                           endm
    18  0000                     byte5	macro	val
    19                           	(getbyte(val,5))
    20                           endm
    21  0000                     byte6	macro	val
    22                           	(getbyte(val,6))
    23                           endm
    24  0000                     byte7	macro	val
    25                           	(getbyte(val,7))
    26                           endm
    27  0000                     getword	macro	val,pos
    28                           	(((val) >> (8 * pos)) and 0xffff)
    29                           endm
    30  0000                     word0	macro	val
    31                           	(getword(val,0))
    32                           endm
    33  0000                     word1	macro	val
    34                           	(getword(val,2))
    35                           endm
    36  0000                     word2	macro	val
    37                           	(getword(val,4))
    38                           endm
    39  0000                     word3	macro	val
    40                           	(getword(val,6))
    41                           endm
    42  0000                     gettword	macro	val,pos
    43                           	(((val) >> (8 * pos)) and 0xffffff)
    44                           endm
    45  0000                     tword0	macro	val
    46                           	(gettword(val,0))
    47                           endm
    48  0000                     tword1	macro	val
    49                           	(gettword(val,3))
    50                           endm
    51  0000                     tword2	macro	val
    52                           	(gettword(val,6))
    53                           endm
    54  0000                     getdword	macro	val,pos
    55                           	(((val) >> (8 * pos)) and 0xffffffff)
    56                           endm
    57  0000                     dword0	macro	val
    58                           	(getdword(val,0))
    59                           endm
    60  0000                     dword1	macro	val
    61                           	(getdword(val,4))
    62                           endm
    63  0000                     clrc	macro
    64                           	bcf	3,0
    65                           	endm
    66  0000                     clrz	macro
    67                           	bcf	3,2
    68                           	endm
    69  0000                     setc	macro
    70                           	bsf	3,0
    71                           	endm
    72  0000                     setz	macro
    73                           	bsf	3,2
    74                           	endm
    75  0000                     skipc	macro
    76                           	btfss	3,0
    77                           	endm
    78  0000                     skipz	macro
    79                           	btfss	3,2
    80                           	endm
    81  0000                     skipnc	macro
    82                           	btfsc	3,0
    83                           	endm
    84  0000                     skipnz	macro
    85                           	btfsc	3,2
    86                           	endm
    87  0000                     pushw	macro
    88                           	movwi fsr1++
    89                           	endm
    90  0000                     popw	macro
    91                           	moviw --fsr1
    92                           	endm
    93  0000                     # 110 "C:\Program Files (x86)\Microchip\xc8\v2.00\pic\include\pic16f15325.h"
    94                           INDF0 equ 00h ;# 
    95  0000                     # 130 "C:\Program Files (x86)\Microchip\xc8\v2.00\pic\include\pic16f15325.h"
    96                           INDF1 equ 01h ;# 
    97  0001                     # 150 "C:\Program Files (x86)\Microchip\xc8\v2.00\pic\include\pic16f15325.h"
    98                           PCL equ 02h ;# 
    99  0002                     # 170 "C:\Program Files (x86)\Microchip\xc8\v2.00\pic\include\pic16f15325.h"
   100                           STATUS equ 03h ;# 
   101  0003                     # 233 "C:\Program Files (x86)\Microchip\xc8\v2.00\pic\include\pic16f15325.h"
   102                           FSR0L equ 04h ;# 
   103  0004                     # 253 "C:\Program Files (x86)\Microchip\xc8\v2.00\pic\include\pic16f15325.h"
   104                           FSR0H equ 05h ;# 
   105  0005                     # 277 "C:\Program Files (x86)\Microchip\xc8\v2.00\pic\include\pic16f15325.h"
   106                           FSR1L equ 06h ;# 
   107  0006                     # 297 "C:\Program Files (x86)\Microchip\xc8\v2.00\pic\include\pic16f15325.h"
   108                           FSR1H equ 07h ;# 
   109  0007                     # 317 "C:\Program Files (x86)\Microchip\xc8\v2.00\pic\include\pic16f15325.h"
   110                           BSR equ 08h ;# 
   111  0008                     # 375 "C:\Program Files (x86)\Microchip\xc8\v2.00\pic\include\pic16f15325.h"
   112                           WREG equ 09h ;# 
   113  0009                     # 395 "C:\Program Files (x86)\Microchip\xc8\v2.00\pic\include\pic16f15325.h"
   114                           PCLATH equ 0Ah ;# 
   115  000A                     # 415 "C:\Program Files (x86)\Microchip\xc8\v2.00\pic\include\pic16f15325.h"
   116                           INTCON equ 0Bh ;# 
   117  000B                     # 448 "C:\Program Files (x86)\Microchip\xc8\v2.00\pic\include\pic16f15325.h"
   118                           PORTA equ 0Ch ;# 
   119  000C                     # 498 "C:\Program Files (x86)\Microchip\xc8\v2.00\pic\include\pic16f15325.h"
   120                           PORTC equ 0Eh ;# 
   121  000E                     # 548 "C:\Program Files (x86)\Microchip\xc8\v2.00\pic\include\pic16f15325.h"
   122                           TRISA equ 012h ;# 
   123  0012                     # 593 "C:\Program Files (x86)\Microchip\xc8\v2.00\pic\include\pic16f15325.h"
   124                           TRISC equ 014h ;# 
   125  0014                     # 643 "C:\Program Files (x86)\Microchip\xc8\v2.00\pic\include\pic16f15325.h"
   126                           LATA equ 018h ;# 
   127  0018                     # 688 "C:\Program Files (x86)\Microchip\xc8\v2.00\pic\include\pic16f15325.h"
   128                           LATC equ 01Ah ;# 
   129  001A                     # 738 "C:\Program Files (x86)\Microchip\xc8\v2.00\pic\include\pic16f15325.h"
   130                           ADRES equ 09Bh ;# 
   131  009B                     # 745 "C:\Program Files (x86)\Microchip\xc8\v2.00\pic\include\pic16f15325.h"
   132                           ADRESL equ 09Bh ;# 
   133  009B                     # 815 "C:\Program Files (x86)\Microchip\xc8\v2.00\pic\include\pic16f15325.h"
   134                           ADRESH equ 09Ch ;# 
   135  009C                     # 885 "C:\Program Files (x86)\Microchip\xc8\v2.00\pic\include\pic16f15325.h"
   136                           ADCON0 equ 09Dh ;# 
   137  009D                     # 956 "C:\Program Files (x86)\Microchip\xc8\v2.00\pic\include\pic16f15325.h"
   138                           ADCON1 equ 09Eh ;# 
   139  009E                     # 1022 "C:\Program Files (x86)\Microchip\xc8\v2.00\pic\include\pic16f15325.h"
   140                           ADACT equ 09Fh ;# 
   141  009F                     # 1074 "C:\Program Files (x86)\Microchip\xc8\v2.00\pic\include\pic16f15325.h"
   142                           RC1REG equ 0119h ;# 
   143  0119                     # 1079 "C:\Program Files (x86)\Microchip\xc8\v2.00\pic\include\pic16f15325.h"
   144                           RCREG equ 0119h ;# 
   145  0119                     # 1083 "C:\Program Files (x86)\Microchip\xc8\v2.00\pic\include\pic16f15325.h"
   146                           RCREG1 equ 0119h ;# 
   147  0119                     # 1128 "C:\Program Files (x86)\Microchip\xc8\v2.00\pic\include\pic16f15325.h"
   148                           TX1REG equ 011Ah ;# 
   149  011A                     # 1133 "C:\Program Files (x86)\Microchip\xc8\v2.00\pic\include\pic16f15325.h"
   150                           TXREG1 equ 011Ah ;# 
   151  011A                     # 1137 "C:\Program Files (x86)\Microchip\xc8\v2.00\pic\include\pic16f15325.h"
   152                           TXREG equ 011Ah ;# 
   153  011A                     # 1182 "C:\Program Files (x86)\Microchip\xc8\v2.00\pic\include\pic16f15325.h"
   154                           SP1BRG equ 011Bh ;# 
   155  011B                     # 1189 "C:\Program Files (x86)\Microchip\xc8\v2.00\pic\include\pic16f15325.h"
   156                           SP1BRGL equ 011Bh ;# 
   157  011B                     # 1194 "C:\Program Files (x86)\Microchip\xc8\v2.00\pic\include\pic16f15325.h"
   158                           SPBRG equ 011Bh ;# 
   159  011B                     # 1198 "C:\Program Files (x86)\Microchip\xc8\v2.00\pic\include\pic16f15325.h"
   160                           SPBRG1 equ 011Bh ;# 
   161  011B                     # 1202 "C:\Program Files (x86)\Microchip\xc8\v2.00\pic\include\pic16f15325.h"
   162                           SPBRGL equ 011Bh ;# 
   163  011B                     # 1259 "C:\Program Files (x86)\Microchip\xc8\v2.00\pic\include\pic16f15325.h"
   164                           SP1BRGH equ 011Ch ;# 
   165  011C                     # 1264 "C:\Program Files (x86)\Microchip\xc8\v2.00\pic\include\pic16f15325.h"
   166                           SPBRGH equ 011Ch ;# 
   167  011C                     # 1268 "C:\Program Files (x86)\Microchip\xc8\v2.00\pic\include\pic16f15325.h"
   168                           SPBRGH1 equ 011Ch ;# 
   169  011C                     # 1313 "C:\Program Files (x86)\Microchip\xc8\v2.00\pic\include\pic16f15325.h"
   170                           RC1STA equ 011Dh ;# 
   171  011D                     # 1318 "C:\Program Files (x86)\Microchip\xc8\v2.00\pic\include\pic16f15325.h"
   172                           RCSTA1 equ 011Dh ;# 
   173  011D                     # 1322 "C:\Program Files (x86)\Microchip\xc8\v2.00\pic\include\pic16f15325.h"
   174                           RCSTA equ 011Dh ;# 
   175  011D                     # 1493 "C:\Program Files (x86)\Microchip\xc8\v2.00\pic\include\pic16f15325.h"
   176                           TX1STA equ 011Eh ;# 
   177  011E                     # 1498 "C:\Program Files (x86)\Microchip\xc8\v2.00\pic\include\pic16f15325.h"
   178                           TXSTA1 equ 011Eh ;# 
   179  011E                     # 1502 "C:\Program Files (x86)\Microchip\xc8\v2.00\pic\include\pic16f15325.h"
   180                           TXSTA equ 011Eh ;# 
   181  011E                     # 1673 "C:\Program Files (x86)\Microchip\xc8\v2.00\pic\include\pic16f15325.h"
   182                           BAUD1CON equ 011Fh ;# 
   183  011F                     # 1678 "C:\Program Files (x86)\Microchip\xc8\v2.00\pic\include\pic16f15325.h"
   184                           BAUDCON1 equ 011Fh ;# 
   185  011F                     # 1682 "C:\Program Files (x86)\Microchip\xc8\v2.00\pic\include\pic16f15325.h"
   186                           BAUDCTL1 equ 011Fh ;# 
   187  011F                     # 1686 "C:\Program Files (x86)\Microchip\xc8\v2.00\pic\include\pic16f15325.h"
   188                           BAUDCON equ 011Fh ;# 
   189  011F                     # 1690 "C:\Program Files (x86)\Microchip\xc8\v2.00\pic\include\pic16f15325.h"
   190                           BAUDCTL equ 011Fh ;# 
   191  011F                     # 1919 "C:\Program Files (x86)\Microchip\xc8\v2.00\pic\include\pic16f15325.h"
   192                           SSP1BUF equ 018Ch ;# 
   193  018C                     # 1939 "C:\Program Files (x86)\Microchip\xc8\v2.00\pic\include\pic16f15325.h"
   194                           SSP1ADD equ 018Dh ;# 
   195  018D                     # 2059 "C:\Program Files (x86)\Microchip\xc8\v2.00\pic\include\pic16f15325.h"
   196                           SSP1MSK equ 018Eh ;# 
   197  018E                     # 2129 "C:\Program Files (x86)\Microchip\xc8\v2.00\pic\include\pic16f15325.h"
   198                           SSP1STAT equ 018Fh ;# 
   199  018F                     # 2493 "C:\Program Files (x86)\Microchip\xc8\v2.00\pic\include\pic16f15325.h"
   200                           SSP1CON1 equ 0190h ;# 
   201  0190                     # 2613 "C:\Program Files (x86)\Microchip\xc8\v2.00\pic\include\pic16f15325.h"
   202                           SSP1CON2 equ 0191h ;# 
   203  0191                     # 2800 "C:\Program Files (x86)\Microchip\xc8\v2.00\pic\include\pic16f15325.h"
   204                           SSP1CON3 equ 0192h ;# 
   205  0192                     # 2862 "C:\Program Files (x86)\Microchip\xc8\v2.00\pic\include\pic16f15325.h"
   206                           TMR1 equ 020Ch ;# 
   207  020C                     # 2869 "C:\Program Files (x86)\Microchip\xc8\v2.00\pic\include\pic16f15325.h"
   208                           TMR1L equ 020Ch ;# 
   209  020C                     # 3039 "C:\Program Files (x86)\Microchip\xc8\v2.00\pic\include\pic16f15325.h"
   210                           TMR1H equ 020Dh ;# 
   211  020D                     # 3159 "C:\Program Files (x86)\Microchip\xc8\v2.00\pic\include\pic16f15325.h"
   212                           T1CON equ 020Eh ;# 
   213  020E                     # 3255 "C:\Program Files (x86)\Microchip\xc8\v2.00\pic\include\pic16f15325.h"
   214                           T1GCON equ 020Fh ;# 
   215  020F                     # 3260 "C:\Program Files (x86)\Microchip\xc8\v2.00\pic\include\pic16f15325.h"
   216                           PR1 equ 020Fh ;# 
   217  020F                     # 3451 "C:\Program Files (x86)\Microchip\xc8\v2.00\pic\include\pic16f15325.h"
   218                           T1GATE equ 0210h ;# 
   219  0210                     # 3456 "C:\Program Files (x86)\Microchip\xc8\v2.00\pic\include\pic16f15325.h"
   220                           TMR1GATE equ 0210h ;# 
   221  0210                     # 3617 "C:\Program Files (x86)\Microchip\xc8\v2.00\pic\include\pic16f15325.h"
   222                           T1CLK equ 0211h ;# 
   223  0211                     # 3622 "C:\Program Files (x86)\Microchip\xc8\v2.00\pic\include\pic16f15325.h"
   224                           TMR1CLK equ 0211h ;# 
   225  0211                     # 3759 "C:\Program Files (x86)\Microchip\xc8\v2.00\pic\include\pic16f15325.h"
   226                           T2TMR equ 028Ch ;# 
   227  028C                     # 3764 "C:\Program Files (x86)\Microchip\xc8\v2.00\pic\include\pic16f15325.h"
   228                           TMR2 equ 028Ch ;# 
   229  028C                     # 3813 "C:\Program Files (x86)\Microchip\xc8\v2.00\pic\include\pic16f15325.h"
   230                           T2PR equ 028Dh ;# 
   231  028D                     # 3818 "C:\Program Files (x86)\Microchip\xc8\v2.00\pic\include\pic16f15325.h"
   232                           PR2 equ 028Dh ;# 
   233  028D                     # 3867 "C:\Program Files (x86)\Microchip\xc8\v2.00\pic\include\pic16f15325.h"
   234                           T2CON equ 028Eh ;# 
   235  028E                     # 4013 "C:\Program Files (x86)\Microchip\xc8\v2.00\pic\include\pic16f15325.h"
   236                           T2HLT equ 028Fh ;# 
   237  028F                     # 4141 "C:\Program Files (x86)\Microchip\xc8\v2.00\pic\include\pic16f15325.h"
   238                           T2CLKCON equ 0290h ;# 
   239  0290                     # 4221 "C:\Program Files (x86)\Microchip\xc8\v2.00\pic\include\pic16f15325.h"
   240                           T2RST equ 0291h ;# 
   241  0291                     # 4301 "C:\Program Files (x86)\Microchip\xc8\v2.00\pic\include\pic16f15325.h"
   242                           CCPR1 equ 030Ch ;# 
   243  030C                     # 4308 "C:\Program Files (x86)\Microchip\xc8\v2.00\pic\include\pic16f15325.h"
   244                           CCPR1L equ 030Ch ;# 
   245  030C                     # 4328 "C:\Program Files (x86)\Microchip\xc8\v2.00\pic\include\pic16f15325.h"
   246                           CCPR1H equ 030Dh ;# 
   247  030D                     # 4348 "C:\Program Files (x86)\Microchip\xc8\v2.00\pic\include\pic16f15325.h"
   248                           CCP1CON equ 030Eh ;# 
   249  030E                     # 4475 "C:\Program Files (x86)\Microchip\xc8\v2.00\pic\include\pic16f15325.h"
   250                           CCP1CAP equ 030Fh ;# 
   251  030F                     # 4543 "C:\Program Files (x86)\Microchip\xc8\v2.00\pic\include\pic16f15325.h"
   252                           CCPR2 equ 0310h ;# 
   253  0310                     # 4550 "C:\Program Files (x86)\Microchip\xc8\v2.00\pic\include\pic16f15325.h"
   254                           CCPR2L equ 0310h ;# 
   255  0310                     # 4570 "C:\Program Files (x86)\Microchip\xc8\v2.00\pic\include\pic16f15325.h"
   256                           CCPR2H equ 0311h ;# 
   257  0311                     # 4590 "C:\Program Files (x86)\Microchip\xc8\v2.00\pic\include\pic16f15325.h"
   258                           CCP2CON equ 0312h ;# 
   259  0312                     # 4717 "C:\Program Files (x86)\Microchip\xc8\v2.00\pic\include\pic16f15325.h"
   260                           CCP2CAP equ 0313h ;# 
   261  0313                     # 4785 "C:\Program Files (x86)\Microchip\xc8\v2.00\pic\include\pic16f15325.h"
   262                           PWM3DC equ 0314h ;# 
   263  0314                     # 4792 "C:\Program Files (x86)\Microchip\xc8\v2.00\pic\include\pic16f15325.h"
   264                           PWM3DCL equ 0314h ;# 
   265  0314                     # 4858 "C:\Program Files (x86)\Microchip\xc8\v2.00\pic\include\pic16f15325.h"
   266                           PWM3DCH equ 0315h ;# 
   267  0315                     # 5028 "C:\Program Files (x86)\Microchip\xc8\v2.00\pic\include\pic16f15325.h"
   268                           PWM3CON equ 0316h ;# 
   269  0316                     # 5084 "C:\Program Files (x86)\Microchip\xc8\v2.00\pic\include\pic16f15325.h"
   270                           PWM4DC equ 0318h ;# 
   271  0318                     # 5091 "C:\Program Files (x86)\Microchip\xc8\v2.00\pic\include\pic16f15325.h"
   272                           PWM4DCL equ 0318h ;# 
   273  0318                     # 5157 "C:\Program Files (x86)\Microchip\xc8\v2.00\pic\include\pic16f15325.h"
   274                           PWM4DCH equ 0319h ;# 
   275  0319                     # 5327 "C:\Program Files (x86)\Microchip\xc8\v2.00\pic\include\pic16f15325.h"
   276                           PWM4CON equ 031Ah ;# 
   277  031A                     # 5383 "C:\Program Files (x86)\Microchip\xc8\v2.00\pic\include\pic16f15325.h"
   278                           PWM5DC equ 031Ch ;# 
   279  031C                     # 5390 "C:\Program Files (x86)\Microchip\xc8\v2.00\pic\include\pic16f15325.h"
   280                           PWM5DCL equ 031Ch ;# 
   281  031C                     # 5456 "C:\Program Files (x86)\Microchip\xc8\v2.00\pic\include\pic16f15325.h"
   282                           PWM5DCH equ 031Dh ;# 
   283  031D                     # 5626 "C:\Program Files (x86)\Microchip\xc8\v2.00\pic\include\pic16f15325.h"
   284                           PWM5CON equ 031Eh ;# 
   285  031E                     # 5682 "C:\Program Files (x86)\Microchip\xc8\v2.00\pic\include\pic16f15325.h"
   286                           PWM6DC equ 038Ch ;# 
   287  038C                     # 5689 "C:\Program Files (x86)\Microchip\xc8\v2.00\pic\include\pic16f15325.h"
   288                           PWM6DCL equ 038Ch ;# 
   289  038C                     # 5755 "C:\Program Files (x86)\Microchip\xc8\v2.00\pic\include\pic16f15325.h"
   290                           PWM6DCH equ 038Dh ;# 
   291  038D                     # 5925 "C:\Program Files (x86)\Microchip\xc8\v2.00\pic\include\pic16f15325.h"
   292                           PWM6CON equ 038Eh ;# 
   293  038E                     # 5983 "C:\Program Files (x86)\Microchip\xc8\v2.00\pic\include\pic16f15325.h"
   294                           NCO1ACC equ 058Ch ;# 
   295  058C                     # 5990 "C:\Program Files (x86)\Microchip\xc8\v2.00\pic\include\pic16f15325.h"
   296                           NCO1ACCL equ 058Ch ;# 
   297  058C                     # 6060 "C:\Program Files (x86)\Microchip\xc8\v2.00\pic\include\pic16f15325.h"
   298                           NCO1ACCH equ 058Dh ;# 
   299  058D                     # 6130 "C:\Program Files (x86)\Microchip\xc8\v2.00\pic\include\pic16f15325.h"
   300                           NCO1ACCU equ 058Eh ;# 
   301  058E                     # 6178 "C:\Program Files (x86)\Microchip\xc8\v2.00\pic\include\pic16f15325.h"
   302                           NCO1INC equ 058Fh ;# 
   303  058F                     # 6185 "C:\Program Files (x86)\Microchip\xc8\v2.00\pic\include\pic16f15325.h"
   304                           NCO1INCL equ 058Fh ;# 
   305  058F                     # 6255 "C:\Program Files (x86)\Microchip\xc8\v2.00\pic\include\pic16f15325.h"
   306                           NCO1INCH equ 0590h ;# 
   307  0590                     # 6325 "C:\Program Files (x86)\Microchip\xc8\v2.00\pic\include\pic16f15325.h"
   308                           NCO1INCU equ 0591h ;# 
   309  0591                     # 6371 "C:\Program Files (x86)\Microchip\xc8\v2.00\pic\include\pic16f15325.h"
   310                           NCO1CON equ 0592h ;# 
   311  0592                     # 6411 "C:\Program Files (x86)\Microchip\xc8\v2.00\pic\include\pic16f15325.h"
   312                           NCO1CLK equ 0593h ;# 
   313  0593                     # 6483 "C:\Program Files (x86)\Microchip\xc8\v2.00\pic\include\pic16f15325.h"
   314                           TMR0L equ 059Ch ;# 
   315  059C                     # 6488 "C:\Program Files (x86)\Microchip\xc8\v2.00\pic\include\pic16f15325.h"
   316                           TMR0 equ 059Ch ;# 
   317  059C                     # 6621 "C:\Program Files (x86)\Microchip\xc8\v2.00\pic\include\pic16f15325.h"
   318                           TMR0H equ 059Dh ;# 
   319  059D                     # 6626 "C:\Program Files (x86)\Microchip\xc8\v2.00\pic\include\pic16f15325.h"
   320                           PR0 equ 059Dh ;# 
   321  059D                     # 6875 "C:\Program Files (x86)\Microchip\xc8\v2.00\pic\include\pic16f15325.h"
   322                           T0CON0 equ 059Eh ;# 
   323  059E                     # 6940 "C:\Program Files (x86)\Microchip\xc8\v2.00\pic\include\pic16f15325.h"
   324                           T0CON1 equ 059Fh ;# 
   325  059F                     # 7051 "C:\Program Files (x86)\Microchip\xc8\v2.00\pic\include\pic16f15325.h"
   326                           CWG1CLKCON equ 060Ch ;# 
   327  060C                     # 7079 "C:\Program Files (x86)\Microchip\xc8\v2.00\pic\include\pic16f15325.h"
   328                           CWG1DAT equ 060Dh ;# 
   329  060D                     # 7125 "C:\Program Files (x86)\Microchip\xc8\v2.00\pic\include\pic16f15325.h"
   330                           CWG1DBR equ 060Eh ;# 
   331  060E                     # 7229 "C:\Program Files (x86)\Microchip\xc8\v2.00\pic\include\pic16f15325.h"
   332                           CWG1DBF equ 060Fh ;# 
   333  060F                     # 7333 "C:\Program Files (x86)\Microchip\xc8\v2.00\pic\include\pic16f15325.h"
   334                           CWG1CON0 equ 0610h ;# 
   335  0610                     # 7434 "C:\Program Files (x86)\Microchip\xc8\v2.00\pic\include\pic16f15325.h"
   336                           CWG1CON1 equ 0611h ;# 
   337  0611                     # 7512 "C:\Program Files (x86)\Microchip\xc8\v2.00\pic\include\pic16f15325.h"
   338                           CWG1AS0 equ 0612h ;# 
   339  0612                     # 7632 "C:\Program Files (x86)\Microchip\xc8\v2.00\pic\include\pic16f15325.h"
   340                           CWG1AS1 equ 0613h ;# 
   341  0613                     # 7676 "C:\Program Files (x86)\Microchip\xc8\v2.00\pic\include\pic16f15325.h"
   342                           CWG1STR equ 0614h ;# 
   343  0614                     # 7788 "C:\Program Files (x86)\Microchip\xc8\v2.00\pic\include\pic16f15325.h"
   344                           PIR0 equ 070Ch ;# 
   345  070C                     # 7821 "C:\Program Files (x86)\Microchip\xc8\v2.00\pic\include\pic16f15325.h"
   346                           PIR1 equ 070Dh ;# 
   347  070D                     # 7860 "C:\Program Files (x86)\Microchip\xc8\v2.00\pic\include\pic16f15325.h"
   348                           PIR2 equ 070Eh ;# 
   349  070E                     # 7893 "C:\Program Files (x86)\Microchip\xc8\v2.00\pic\include\pic16f15325.h"
   350                           PIR3 equ 070Fh ;# 
   351  070F                     # 7944 "C:\Program Files (x86)\Microchip\xc8\v2.00\pic\include\pic16f15325.h"
   352                           PIR4 equ 0710h ;# 
   353  0710                     # 7970 "C:\Program Files (x86)\Microchip\xc8\v2.00\pic\include\pic16f15325.h"
   354                           PIR5 equ 0711h ;# 
   355  0711                     # 8015 "C:\Program Files (x86)\Microchip\xc8\v2.00\pic\include\pic16f15325.h"
   356                           PIR6 equ 0712h ;# 
   357  0712                     # 8041 "C:\Program Files (x86)\Microchip\xc8\v2.00\pic\include\pic16f15325.h"
   358                           PIR7 equ 0713h ;# 
   359  0713                     # 8083 "C:\Program Files (x86)\Microchip\xc8\v2.00\pic\include\pic16f15325.h"
   360                           PIE0 equ 0716h ;# 
   361  0716                     # 8116 "C:\Program Files (x86)\Microchip\xc8\v2.00\pic\include\pic16f15325.h"
   362                           PIE1 equ 0717h ;# 
   363  0717                     # 8149 "C:\Program Files (x86)\Microchip\xc8\v2.00\pic\include\pic16f15325.h"
   364                           PIE2 equ 0718h ;# 
   365  0718                     # 8182 "C:\Program Files (x86)\Microchip\xc8\v2.00\pic\include\pic16f15325.h"
   366                           PIE3 equ 0719h ;# 
   367  0719                     # 8233 "C:\Program Files (x86)\Microchip\xc8\v2.00\pic\include\pic16f15325.h"
   368                           PIE4 equ 071Ah ;# 
   369  071A                     # 8259 "C:\Program Files (x86)\Microchip\xc8\v2.00\pic\include\pic16f15325.h"
   370                           PIE5 equ 071Bh ;# 
   371  071B                     # 8304 "C:\Program Files (x86)\Microchip\xc8\v2.00\pic\include\pic16f15325.h"
   372                           PIE6 equ 071Ch ;# 
   373  071C                     # 8330 "C:\Program Files (x86)\Microchip\xc8\v2.00\pic\include\pic16f15325.h"
   374                           PIE7 equ 071Dh ;# 
   375  071D                     # 8372 "C:\Program Files (x86)\Microchip\xc8\v2.00\pic\include\pic16f15325.h"
   376                           PMD0 equ 0796h ;# 
   377  0796                     # 8417 "C:\Program Files (x86)\Microchip\xc8\v2.00\pic\include\pic16f15325.h"
   378                           PMD1 equ 0797h ;# 
   379  0797                     # 8465 "C:\Program Files (x86)\Microchip\xc8\v2.00\pic\include\pic16f15325.h"
   380                           PMD2 equ 0798h ;# 
   381  0798                     # 8510 "C:\Program Files (x86)\Microchip\xc8\v2.00\pic\include\pic16f15325.h"
   382                           PMD3 equ 0799h ;# 
   383  0799                     # 8560 "C:\Program Files (x86)\Microchip\xc8\v2.00\pic\include\pic16f15325.h"
   384                           PMD4 equ 079Ah ;# 
   385  079A                     # 8600 "C:\Program Files (x86)\Microchip\xc8\v2.00\pic\include\pic16f15325.h"
   386                           PMD5 equ 079Bh ;# 
   387  079B                     # 8639 "C:\Program Files (x86)\Microchip\xc8\v2.00\pic\include\pic16f15325.h"
   388                           WDTCON0 equ 080Ch ;# 
   389  080C                     # 8714 "C:\Program Files (x86)\Microchip\xc8\v2.00\pic\include\pic16f15325.h"
   390                           WDTCON1 equ 080Dh ;# 
   391  080D                     # 8808 "C:\Program Files (x86)\Microchip\xc8\v2.00\pic\include\pic16f15325.h"
   392                           WDTPSL equ 080Eh ;# 
   393  080E                     # 8936 "C:\Program Files (x86)\Microchip\xc8\v2.00\pic\include\pic16f15325.h"
   394                           WDTPSH equ 080Fh ;# 
   395  080F                     # 9064 "C:\Program Files (x86)\Microchip\xc8\v2.00\pic\include\pic16f15325.h"
   396                           WDTTMR equ 0810h ;# 
   397  0810                     # 9152 "C:\Program Files (x86)\Microchip\xc8\v2.00\pic\include\pic16f15325.h"
   398                           BORCON equ 0811h ;# 
   399  0811                     # 9179 "C:\Program Files (x86)\Microchip\xc8\v2.00\pic\include\pic16f15325.h"
   400                           VREGCON equ 0812h ;# 
   401  0812                     # 9200 "C:\Program Files (x86)\Microchip\xc8\v2.00\pic\include\pic16f15325.h"
   402                           PCON0 equ 0813h ;# 
   403  0813                     # 9262 "C:\Program Files (x86)\Microchip\xc8\v2.00\pic\include\pic16f15325.h"
   404                           PCON1 equ 0814h ;# 
   405  0814                     # 9283 "C:\Program Files (x86)\Microchip\xc8\v2.00\pic\include\pic16f15325.h"
   406                           NVMADR equ 081Ah ;# 
   407  081A                     # 9290 "C:\Program Files (x86)\Microchip\xc8\v2.00\pic\include\pic16f15325.h"
   408                           NVMADRL equ 081Ah ;# 
   409  081A                     # 9352 "C:\Program Files (x86)\Microchip\xc8\v2.00\pic\include\pic16f15325.h"
   410                           NVMADRH equ 081Bh ;# 
   411  081B                     # 9408 "C:\Program Files (x86)\Microchip\xc8\v2.00\pic\include\pic16f15325.h"
   412                           NVMDAT equ 081Ch ;# 
   413  081C                     # 9415 "C:\Program Files (x86)\Microchip\xc8\v2.00\pic\include\pic16f15325.h"
   414                           NVMDATL equ 081Ch ;# 
   415  081C                     # 9477 "C:\Program Files (x86)\Microchip\xc8\v2.00\pic\include\pic16f15325.h"
   416                           NVMDATH equ 081Dh ;# 
   417  081D                     # 9527 "C:\Program Files (x86)\Microchip\xc8\v2.00\pic\include\pic16f15325.h"
   418                           NVMCON1 equ 081Eh ;# 
   419  081E                     # 9583 "C:\Program Files (x86)\Microchip\xc8\v2.00\pic\include\pic16f15325.h"
   420                           NVMCON2 equ 081Fh ;# 
   421  081F                     # 9603 "C:\Program Files (x86)\Microchip\xc8\v2.00\pic\include\pic16f15325.h"
   422                           CPUDOZE equ 088Ch ;# 
   423  088C                     # 9668 "C:\Program Files (x86)\Microchip\xc8\v2.00\pic\include\pic16f15325.h"
   424                           OSCCON1 equ 088Dh ;# 
   425  088D                     # 9738 "C:\Program Files (x86)\Microchip\xc8\v2.00\pic\include\pic16f15325.h"
   426                           OSCCON2 equ 088Eh ;# 
   427  088E                     # 9808 "C:\Program Files (x86)\Microchip\xc8\v2.00\pic\include\pic16f15325.h"
   428                           OSCCON3 equ 088Fh ;# 
   429  088F                     # 9848 "C:\Program Files (x86)\Microchip\xc8\v2.00\pic\include\pic16f15325.h"
   430                           OSCSTAT equ 0890h ;# 
   431  0890                     # 9905 "C:\Program Files (x86)\Microchip\xc8\v2.00\pic\include\pic16f15325.h"
   432                           OSCEN equ 0891h ;# 
   433  0891                     # 9956 "C:\Program Files (x86)\Microchip\xc8\v2.00\pic\include\pic16f15325.h"
   434                           OSCTUNE equ 0892h ;# 
   435  0892                     # 10014 "C:\Program Files (x86)\Microchip\xc8\v2.00\pic\include\pic16f15325.h"
   436                           OSCFRQ equ 0893h ;# 
   437  0893                     # 10054 "C:\Program Files (x86)\Microchip\xc8\v2.00\pic\include\pic16f15325.h"
   438                           CLKRCON equ 0895h ;# 
   439  0895                     # 10119 "C:\Program Files (x86)\Microchip\xc8\v2.00\pic\include\pic16f15325.h"
   440                           CLKRCLK equ 0896h ;# 
   441  0896                     # 10165 "C:\Program Files (x86)\Microchip\xc8\v2.00\pic\include\pic16f15325.h"
   442                           FVRCON equ 090Ch ;# 
   443  090C                     # 10241 "C:\Program Files (x86)\Microchip\xc8\v2.00\pic\include\pic16f15325.h"
   444                           DAC1CON0 equ 090Eh ;# 
   445  090E                     # 10342 "C:\Program Files (x86)\Microchip\xc8\v2.00\pic\include\pic16f15325.h"
   446                           DAC1CON1 equ 090Fh ;# 
   447  090F                     # 10394 "C:\Program Files (x86)\Microchip\xc8\v2.00\pic\include\pic16f15325.h"
   448                           ZCDCON equ 091Fh ;# 
   449  091F                     # 10440 "C:\Program Files (x86)\Microchip\xc8\v2.00\pic\include\pic16f15325.h"
   450                           CMOUT equ 098Fh ;# 
   451  098F                     # 10445 "C:\Program Files (x86)\Microchip\xc8\v2.00\pic\include\pic16f15325.h"
   452                           CMSTAT equ 098Fh ;# 
   453  098F                     # 10518 "C:\Program Files (x86)\Microchip\xc8\v2.00\pic\include\pic16f15325.h"
   454                           CM1CON0 equ 0990h ;# 
   455  0990                     # 10598 "C:\Program Files (x86)\Microchip\xc8\v2.00\pic\include\pic16f15325.h"
   456                           CM1CON1 equ 0991h ;# 
   457  0991                     # 10638 "C:\Program Files (x86)\Microchip\xc8\v2.00\pic\include\pic16f15325.h"
   458                           CM1NCH equ 0992h ;# 
   459  0992                     # 10698 "C:\Program Files (x86)\Microchip\xc8\v2.00\pic\include\pic16f15325.h"
   460                           CM1PCH equ 0993h ;# 
   461  0993                     # 10758 "C:\Program Files (x86)\Microchip\xc8\v2.00\pic\include\pic16f15325.h"
   462                           CM2CON0 equ 0994h ;# 
   463  0994                     # 10838 "C:\Program Files (x86)\Microchip\xc8\v2.00\pic\include\pic16f15325.h"
   464                           CM2CON1 equ 0995h ;# 
   465  0995                     # 10878 "C:\Program Files (x86)\Microchip\xc8\v2.00\pic\include\pic16f15325.h"
   466                           CM2NCH equ 0996h ;# 
   467  0996                     # 10938 "C:\Program Files (x86)\Microchip\xc8\v2.00\pic\include\pic16f15325.h"
   468                           CM2PCH equ 0997h ;# 
   469  0997                     # 10998 "C:\Program Files (x86)\Microchip\xc8\v2.00\pic\include\pic16f15325.h"
   470                           RC2REG equ 0A19h ;# 
   471  0A19                     # 11003 "C:\Program Files (x86)\Microchip\xc8\v2.00\pic\include\pic16f15325.h"
   472                           RCREG2 equ 0A19h ;# 
   473  0A19                     # 11036 "C:\Program Files (x86)\Microchip\xc8\v2.00\pic\include\pic16f15325.h"
   474                           TX2REG equ 0A1Ah ;# 
   475  0A1A                     # 11041 "C:\Program Files (x86)\Microchip\xc8\v2.00\pic\include\pic16f15325.h"
   476                           TXREG2 equ 0A1Ah ;# 
   477  0A1A                     # 11074 "C:\Program Files (x86)\Microchip\xc8\v2.00\pic\include\pic16f15325.h"
   478                           SP2BRG equ 0A1Bh ;# 
   479  0A1B                     # 11081 "C:\Program Files (x86)\Microchip\xc8\v2.00\pic\include\pic16f15325.h"
   480                           SP2BRGL equ 0A1Bh ;# 
   481  0A1B                     # 11086 "C:\Program Files (x86)\Microchip\xc8\v2.00\pic\include\pic16f15325.h"
   482                           SPBRG2 equ 0A1Bh ;# 
   483  0A1B                     # 11119 "C:\Program Files (x86)\Microchip\xc8\v2.00\pic\include\pic16f15325.h"
   484                           SP2BRGH equ 0A1Ch ;# 
   485  0A1C                     # 11124 "C:\Program Files (x86)\Microchip\xc8\v2.00\pic\include\pic16f15325.h"
   486                           SPBRGH2 equ 0A1Ch ;# 
   487  0A1C                     # 11157 "C:\Program Files (x86)\Microchip\xc8\v2.00\pic\include\pic16f15325.h"
   488                           RC2STA equ 0A1Dh ;# 
   489  0A1D                     # 11162 "C:\Program Files (x86)\Microchip\xc8\v2.00\pic\include\pic16f15325.h"
   490                           RCSTA2 equ 0A1Dh ;# 
   491  0A1D                     # 11279 "C:\Program Files (x86)\Microchip\xc8\v2.00\pic\include\pic16f15325.h"
   492                           TX2STA equ 0A1Eh ;# 
   493  0A1E                     # 11284 "C:\Program Files (x86)\Microchip\xc8\v2.00\pic\include\pic16f15325.h"
   494                           TXSTA2 equ 0A1Eh ;# 
   495  0A1E                     # 11401 "C:\Program Files (x86)\Microchip\xc8\v2.00\pic\include\pic16f15325.h"
   496                           BAUD2CON equ 0A1Fh ;# 
   497  0A1F                     # 11406 "C:\Program Files (x86)\Microchip\xc8\v2.00\pic\include\pic16f15325.h"
   498                           BAUDCON2 equ 0A1Fh ;# 
   499  0A1F                     # 11410 "C:\Program Files (x86)\Microchip\xc8\v2.00\pic\include\pic16f15325.h"
   500                           BAUDCTL2 equ 0A1Fh ;# 
   501  0A1F                     # 11551 "C:\Program Files (x86)\Microchip\xc8\v2.00\pic\include\pic16f15325.h"
   502                           CLCDATA equ 01E0Fh ;# 
   503  1E0F                     # 11589 "C:\Program Files (x86)\Microchip\xc8\v2.00\pic\include\pic16f15325.h"
   504                           CLC1CON equ 01E10h ;# 
   505  1E10                     # 11707 "C:\Program Files (x86)\Microchip\xc8\v2.00\pic\include\pic16f15325.h"
   506                           CLC1POL equ 01E11h ;# 
   507  1E11                     # 11785 "C:\Program Files (x86)\Microchip\xc8\v2.00\pic\include\pic16f15325.h"
   508                           CLC1SEL0 equ 01E12h ;# 
   509  1E12                     # 11889 "C:\Program Files (x86)\Microchip\xc8\v2.00\pic\include\pic16f15325.h"
   510                           CLC1SEL1 equ 01E13h ;# 
   511  1E13                     # 11993 "C:\Program Files (x86)\Microchip\xc8\v2.00\pic\include\pic16f15325.h"
   512                           CLC1SEL2 equ 01E14h ;# 
   513  1E14                     # 12097 "C:\Program Files (x86)\Microchip\xc8\v2.00\pic\include\pic16f15325.h"
   514                           CLC1SEL3 equ 01E15h ;# 
   515  1E15                     # 12201 "C:\Program Files (x86)\Microchip\xc8\v2.00\pic\include\pic16f15325.h"
   516                           CLC1GLS0 equ 01E16h ;# 
   517  1E16                     # 12313 "C:\Program Files (x86)\Microchip\xc8\v2.00\pic\include\pic16f15325.h"
   518                           CLC1GLS1 equ 01E17h ;# 
   519  1E17                     # 12425 "C:\Program Files (x86)\Microchip\xc8\v2.00\pic\include\pic16f15325.h"
   520                           CLC1GLS2 equ 01E18h ;# 
   521  1E18                     # 12537 "C:\Program Files (x86)\Microchip\xc8\v2.00\pic\include\pic16f15325.h"
   522                           CLC1GLS3 equ 01E19h ;# 
   523  1E19                     # 12649 "C:\Program Files (x86)\Microchip\xc8\v2.00\pic\include\pic16f15325.h"
   524                           CLC2CON equ 01E1Ah ;# 
   525  1E1A                     # 12767 "C:\Program Files (x86)\Microchip\xc8\v2.00\pic\include\pic16f15325.h"
   526                           CLC2POL equ 01E1Bh ;# 
   527  1E1B                     # 12845 "C:\Program Files (x86)\Microchip\xc8\v2.00\pic\include\pic16f15325.h"
   528                           CLC2SEL0 equ 01E1Ch ;# 
   529  1E1C                     # 12949 "C:\Program Files (x86)\Microchip\xc8\v2.00\pic\include\pic16f15325.h"
   530                           CLC2SEL1 equ 01E1Dh ;# 
   531  1E1D                     # 13053 "C:\Program Files (x86)\Microchip\xc8\v2.00\pic\include\pic16f15325.h"
   532                           CLC2SEL2 equ 01E1Eh ;# 
   533  1E1E                     # 13157 "C:\Program Files (x86)\Microchip\xc8\v2.00\pic\include\pic16f15325.h"
   534                           CLC2SEL3 equ 01E1Fh ;# 
   535  1E1F                     # 13261 "C:\Program Files (x86)\Microchip\xc8\v2.00\pic\include\pic16f15325.h"
   536                           CLC2GLS0 equ 01E20h ;# 
   537  1E20                     # 13373 "C:\Program Files (x86)\Microchip\xc8\v2.00\pic\include\pic16f15325.h"
   538                           CLC2GLS1 equ 01E21h ;# 
   539  1E21                     # 13485 "C:\Program Files (x86)\Microchip\xc8\v2.00\pic\include\pic16f15325.h"
   540                           CLC2GLS2 equ 01E22h ;# 
   541  1E22                     # 13597 "C:\Program Files (x86)\Microchip\xc8\v2.00\pic\include\pic16f15325.h"
   542                           CLC2GLS3 equ 01E23h ;# 
   543  1E23                     # 13709 "C:\Program Files (x86)\Microchip\xc8\v2.00\pic\include\pic16f15325.h"
   544                           CLC3CON equ 01E24h ;# 
   545  1E24                     # 13827 "C:\Program Files (x86)\Microchip\xc8\v2.00\pic\include\pic16f15325.h"
   546                           CLC3POL equ 01E25h ;# 
   547  1E25                     # 13905 "C:\Program Files (x86)\Microchip\xc8\v2.00\pic\include\pic16f15325.h"
   548                           CLC3SEL0 equ 01E26h ;# 
   549  1E26                     # 14009 "C:\Program Files (x86)\Microchip\xc8\v2.00\pic\include\pic16f15325.h"
   550                           CLC3SEL1 equ 01E27h ;# 
   551  1E27                     # 14113 "C:\Program Files (x86)\Microchip\xc8\v2.00\pic\include\pic16f15325.h"
   552                           CLC3SEL2 equ 01E28h ;# 
   553  1E28                     # 14217 "C:\Program Files (x86)\Microchip\xc8\v2.00\pic\include\pic16f15325.h"
   554                           CLC3SEL3 equ 01E29h ;# 
   555  1E29                     # 14321 "C:\Program Files (x86)\Microchip\xc8\v2.00\pic\include\pic16f15325.h"
   556                           CLC3GLS0 equ 01E2Ah ;# 
   557  1E2A                     # 14433 "C:\Program Files (x86)\Microchip\xc8\v2.00\pic\include\pic16f15325.h"
   558                           CLC3GLS1 equ 01E2Bh ;# 
   559  1E2B                     # 14545 "C:\Program Files (x86)\Microchip\xc8\v2.00\pic\include\pic16f15325.h"
   560                           CLC3GLS2 equ 01E2Ch ;# 
   561  1E2C                     # 14657 "C:\Program Files (x86)\Microchip\xc8\v2.00\pic\include\pic16f15325.h"
   562                           CLC3GLS3 equ 01E2Dh ;# 
   563  1E2D                     # 14769 "C:\Program Files (x86)\Microchip\xc8\v2.00\pic\include\pic16f15325.h"
   564                           CLC4CON equ 01E2Eh ;# 
   565  1E2E                     # 14887 "C:\Program Files (x86)\Microchip\xc8\v2.00\pic\include\pic16f15325.h"
   566                           CLC4POL equ 01E2Fh ;# 
   567  1E2F                     # 14965 "C:\Program Files (x86)\Microchip\xc8\v2.00\pic\include\pic16f15325.h"
   568                           CLC4SEL0 equ 01E30h ;# 
   569  1E30                     # 15069 "C:\Program Files (x86)\Microchip\xc8\v2.00\pic\include\pic16f15325.h"
   570                           CLC4SEL1 equ 01E31h ;# 
   571  1E31                     # 15173 "C:\Program Files (x86)\Microchip\xc8\v2.00\pic\include\pic16f15325.h"
   572                           CLC4SEL2 equ 01E32h ;# 
   573  1E32                     # 15277 "C:\Program Files (x86)\Microchip\xc8\v2.00\pic\include\pic16f15325.h"
   574                           CLC4SEL3 equ 01E33h ;# 
   575  1E33                     # 15381 "C:\Program Files (x86)\Microchip\xc8\v2.00\pic\include\pic16f15325.h"
   576                           CLC4GLS0 equ 01E34h ;# 
   577  1E34                     # 15493 "C:\Program Files (x86)\Microchip\xc8\v2.00\pic\include\pic16f15325.h"
   578                           CLC4GLS1 equ 01E35h ;# 
   579  1E35                     # 15605 "C:\Program Files (x86)\Microchip\xc8\v2.00\pic\include\pic16f15325.h"
   580                           CLC4GLS2 equ 01E36h ;# 
   581  1E36                     # 15717 "C:\Program Files (x86)\Microchip\xc8\v2.00\pic\include\pic16f15325.h"
   582                           CLC4GLS3 equ 01E37h ;# 
   583  1E37                     # 15829 "C:\Program Files (x86)\Microchip\xc8\v2.00\pic\include\pic16f15325.h"
   584                           PPSLOCK equ 01E8Fh ;# 
   585  1E8F                     # 15849 "C:\Program Files (x86)\Microchip\xc8\v2.00\pic\include\pic16f15325.h"
   586                           INTPPS equ 01E90h ;# 
   587  1E90                     # 15907 "C:\Program Files (x86)\Microchip\xc8\v2.00\pic\include\pic16f15325.h"
   588                           T0CKIPPS equ 01E91h ;# 
   589  1E91                     # 15965 "C:\Program Files (x86)\Microchip\xc8\v2.00\pic\include\pic16f15325.h"
   590                           T1CKIPPS equ 01E92h ;# 
   591  1E92                     # 16023 "C:\Program Files (x86)\Microchip\xc8\v2.00\pic\include\pic16f15325.h"
   592                           T1GPPS equ 01E93h ;# 
   593  1E93                     # 16081 "C:\Program Files (x86)\Microchip\xc8\v2.00\pic\include\pic16f15325.h"
   594                           T2INPPS equ 01E9Ch ;# 
   595  1E9C                     # 16139 "C:\Program Files (x86)\Microchip\xc8\v2.00\pic\include\pic16f15325.h"
   596                           CCP1PPS equ 01EA1h ;# 
   597  1EA1                     # 16197 "C:\Program Files (x86)\Microchip\xc8\v2.00\pic\include\pic16f15325.h"
   598                           CCP2PPS equ 01EA2h ;# 
   599  1EA2                     # 16255 "C:\Program Files (x86)\Microchip\xc8\v2.00\pic\include\pic16f15325.h"
   600                           CWG1PPS equ 01EB1h ;# 
   601  1EB1                     # 16313 "C:\Program Files (x86)\Microchip\xc8\v2.00\pic\include\pic16f15325.h"
   602                           CLCIN0PPS equ 01EBBh ;# 
   603  1EBB                     # 16371 "C:\Program Files (x86)\Microchip\xc8\v2.00\pic\include\pic16f15325.h"
   604                           CLCIN1PPS equ 01EBCh ;# 
   605  1EBC                     # 16429 "C:\Program Files (x86)\Microchip\xc8\v2.00\pic\include\pic16f15325.h"
   606                           CLCIN2PPS equ 01EBDh ;# 
   607  1EBD                     # 16487 "C:\Program Files (x86)\Microchip\xc8\v2.00\pic\include\pic16f15325.h"
   608                           CLCIN3PPS equ 01EBEh ;# 
   609  1EBE                     # 16545 "C:\Program Files (x86)\Microchip\xc8\v2.00\pic\include\pic16f15325.h"
   610                           ADACTPPS equ 01EC3h ;# 
   611  1EC3                     # 16603 "C:\Program Files (x86)\Microchip\xc8\v2.00\pic\include\pic16f15325.h"
   612                           SSP1CLKPPS equ 01EC5h ;# 
   613  1EC5                     # 16661 "C:\Program Files (x86)\Microchip\xc8\v2.00\pic\include\pic16f15325.h"
   614                           SSP1DATPPS equ 01EC6h ;# 
   615  1EC6                     # 16719 "C:\Program Files (x86)\Microchip\xc8\v2.00\pic\include\pic16f15325.h"
   616                           SSP1SSPPS equ 01EC7h ;# 
   617  1EC7                     # 16777 "C:\Program Files (x86)\Microchip\xc8\v2.00\pic\include\pic16f15325.h"
   618                           RX1DTPPS equ 01ECBh ;# 
   619  1ECB                     # 16835 "C:\Program Files (x86)\Microchip\xc8\v2.00\pic\include\pic16f15325.h"
   620                           TX1CKPPS equ 01ECCh ;# 
   621  1ECC                     # 16893 "C:\Program Files (x86)\Microchip\xc8\v2.00\pic\include\pic16f15325.h"
   622                           RX2DTPPS equ 01ECDh ;# 
   623  1ECD                     # 16951 "C:\Program Files (x86)\Microchip\xc8\v2.00\pic\include\pic16f15325.h"
   624                           TX2CKPPS equ 01ECEh ;# 
   625  1ECE                     # 17009 "C:\Program Files (x86)\Microchip\xc8\v2.00\pic\include\pic16f15325.h"
   626                           RA0PPS equ 01F10h ;# 
   627  1F10                     # 17053 "C:\Program Files (x86)\Microchip\xc8\v2.00\pic\include\pic16f15325.h"
   628                           RA1PPS equ 01F11h ;# 
   629  1F11                     # 17097 "C:\Program Files (x86)\Microchip\xc8\v2.00\pic\include\pic16f15325.h"
   630                           RA2PPS equ 01F12h ;# 
   631  1F12                     # 17141 "C:\Program Files (x86)\Microchip\xc8\v2.00\pic\include\pic16f15325.h"
   632                           RA3PPS equ 01F13h ;# 
   633  1F13                     # 17185 "C:\Program Files (x86)\Microchip\xc8\v2.00\pic\include\pic16f15325.h"
   634                           RA4PPS equ 01F14h ;# 
   635  1F14                     # 17229 "C:\Program Files (x86)\Microchip\xc8\v2.00\pic\include\pic16f15325.h"
   636                           RA5PPS equ 01F15h ;# 
   637  1F15                     # 17273 "C:\Program Files (x86)\Microchip\xc8\v2.00\pic\include\pic16f15325.h"
   638                           RC0PPS equ 01F20h ;# 
   639  1F20                     # 17317 "C:\Program Files (x86)\Microchip\xc8\v2.00\pic\include\pic16f15325.h"
   640                           RC1PPS equ 01F21h ;# 
   641  1F21                     # 17361 "C:\Program Files (x86)\Microchip\xc8\v2.00\pic\include\pic16f15325.h"
   642                           RC2PPS equ 01F22h ;# 
   643  1F22                     # 17405 "C:\Program Files (x86)\Microchip\xc8\v2.00\pic\include\pic16f15325.h"
   644                           RC3PPS equ 01F23h ;# 
   645  1F23                     # 17449 "C:\Program Files (x86)\Microchip\xc8\v2.00\pic\include\pic16f15325.h"
   646                           RC4PPS equ 01F24h ;# 
   647  1F24                     # 17493 "C:\Program Files (x86)\Microchip\xc8\v2.00\pic\include\pic16f15325.h"
   648                           RC5PPS equ 01F25h ;# 
   649  1F25                     # 17537 "C:\Program Files (x86)\Microchip\xc8\v2.00\pic\include\pic16f15325.h"
   650                           ANSELA equ 01F38h ;# 
   651  1F38                     # 17582 "C:\Program Files (x86)\Microchip\xc8\v2.00\pic\include\pic16f15325.h"
   652                           WPUA equ 01F39h ;# 
   653  1F39                     # 17632 "C:\Program Files (x86)\Microchip\xc8\v2.00\pic\include\pic16f15325.h"
   654                           ODCONA equ 01F3Ah ;# 
   655  1F3A                     # 17677 "C:\Program Files (x86)\Microchip\xc8\v2.00\pic\include\pic16f15325.h"
   656                           SLRCONA equ 01F3Bh ;# 
   657  1F3B                     # 17722 "C:\Program Files (x86)\Microchip\xc8\v2.00\pic\include\pic16f15325.h"
   658                           INLVLA equ 01F3Ch ;# 
   659  1F3C                     # 17772 "C:\Program Files (x86)\Microchip\xc8\v2.00\pic\include\pic16f15325.h"
   660                           IOCAP equ 01F3Dh ;# 
   661  1F3D                     # 17822 "C:\Program Files (x86)\Microchip\xc8\v2.00\pic\include\pic16f15325.h"
   662                           IOCAN equ 01F3Eh ;# 
   663  1F3E                     # 17872 "C:\Program Files (x86)\Microchip\xc8\v2.00\pic\include\pic16f15325.h"
   664                           IOCAF equ 01F3Fh ;# 
   665  1F3F                     # 17922 "C:\Program Files (x86)\Microchip\xc8\v2.00\pic\include\pic16f15325.h"
   666                           ANSELC equ 01F4Eh ;# 
   667  1F4E                     # 17972 "C:\Program Files (x86)\Microchip\xc8\v2.00\pic\include\pic16f15325.h"
   668                           WPUC equ 01F4Fh ;# 
   669  1F4F                     # 18022 "C:\Program Files (x86)\Microchip\xc8\v2.00\pic\include\pic16f15325.h"
   670                           ODCONC equ 01F50h ;# 
   671  1F50                     # 18072 "C:\Program Files (x86)\Microchip\xc8\v2.00\pic\include\pic16f15325.h"
   672                           SLRCONC equ 01F51h ;# 
   673  1F51                     # 18122 "C:\Program Files (x86)\Microchip\xc8\v2.00\pic\include\pic16f15325.h"
   674                           INLVLC equ 01F52h ;# 
   675  1F52                     # 18172 "C:\Program Files (x86)\Microchip\xc8\v2.00\pic\include\pic16f15325.h"
   676                           IOCCP equ 01F53h ;# 
   677  1F53                     # 18222 "C:\Program Files (x86)\Microchip\xc8\v2.00\pic\include\pic16f15325.h"
   678                           IOCCN equ 01F54h ;# 
   679  1F54                     # 18272 "C:\Program Files (x86)\Microchip\xc8\v2.00\pic\include\pic16f15325.h"
   680                           IOCCF equ 01F55h ;# 
   681  1F55                     # 18322 "C:\Program Files (x86)\Microchip\xc8\v2.00\pic\include\pic16f15325.h"
   682                           STATUS_SHAD equ 01FE4h ;# 
   683  1FE4                     # 18362 "C:\Program Files (x86)\Microchip\xc8\v2.00\pic\include\pic16f15325.h"
   684                           WREG_SHAD equ 01FE5h ;# 
   685  1FE5                     # 18382 "C:\Program Files (x86)\Microchip\xc8\v2.00\pic\include\pic16f15325.h"
   686                           BSR_SHAD equ 01FE6h ;# 
   687  1FE6                     # 18402 "C:\Program Files (x86)\Microchip\xc8\v2.00\pic\include\pic16f15325.h"
   688                           PCLATH_SHAD equ 01FE7h ;# 
   689  1FE7                     # 18422 "C:\Program Files (x86)\Microchip\xc8\v2.00\pic\include\pic16f15325.h"
   690                           FSR0_SHAD equ 01FE8h ;# 
   691  1FE8                     # 18429 "C:\Program Files (x86)\Microchip\xc8\v2.00\pic\include\pic16f15325.h"
   692                           FSR0L_SHAD equ 01FE8h ;# 
   693  1FE8                     # 18449 "C:\Program Files (x86)\Microchip\xc8\v2.00\pic\include\pic16f15325.h"
   694                           FSR0H_SHAD equ 01FE9h ;# 
   695  1FE9                     # 18469 "C:\Program Files (x86)\Microchip\xc8\v2.00\pic\include\pic16f15325.h"
   696                           FSR1_SHAD equ 01FEAh ;# 
   697  1FEA                     # 18476 "C:\Program Files (x86)\Microchip\xc8\v2.00\pic\include\pic16f15325.h"
   698                           FSR1L_SHAD equ 01FEAh ;# 
   699  1FEA                     # 18496 "C:\Program Files (x86)\Microchip\xc8\v2.00\pic\include\pic16f15325.h"
   700                           FSR1H_SHAD equ 01FEBh ;# 
   701  1FEB                     # 18516 "C:\Program Files (x86)\Microchip\xc8\v2.00\pic\include\pic16f15325.h"
   702                           STKPTR equ 01FEDh ;# 
   703  1FED                     # 18560 "C:\Program Files (x86)\Microchip\xc8\v2.00\pic\include\pic16f15325.h"
   704                           TOSL equ 01FEEh ;# 
   705  1FEE                     # 18630 "C:\Program Files (x86)\Microchip\xc8\v2.00\pic\include\pic16f15325.h"
   706                           TOSH equ 01FEFh ;# 
   707  1FEF                     	FNCALL	_main,_initialize
   708                           	FNROOT	_main
   709                           	FNCALL	_ISR,_eusartRxIsr
   710                           	FNCALL	intlevel1,_ISR
   711                           	global	intlevel1
   712                           	FNROOT	intlevel1
   713                           	global	_g_command
   714                           	global	_g_rxOErrCount
   715                           	global	_g_rxFErrCount
   716                           	global	_g_dataPacket
   717                           	global	_INTCONbits
   718                           _INTCONbits	set	0xB
   719  000B                     	global	_INTCON
   720                           _INTCON	set	0xB
   721  000B                     	global	_TRISC
   722                           _TRISC	set	0x14
   723  0014                     	global	_TRISA
   724                           _TRISA	set	0x12
   725  0012                     	global	_RC1REG
   726                           _RC1REG	set	0x119
   727  0119                     	global	_RC1STAbits
   728                           _RC1STAbits	set	0x11D
   729  011D                     	global	_TX1STA
   730                           _TX1STA	set	0x11E
   731  011E                     	global	_RC1STA
   732                           _RC1STA	set	0x11D
   733  011D                     	global	_SPBRGL
   734                           _SPBRGL	set	0x11B
   735  011B                     	global	_BAUD1CON
   736                           _BAUD1CON	set	0x11F
   737  011F                     	global	_TX1REG
   738                           _TX1REG	set	0x11A
   739  011A                     	global	_TMR1
   740                           _TMR1	set	0x20C
   741  020C                     	global	_T1CLK
   742                           _T1CLK	set	0x211
   743  0211                     	global	_T1CON
   744                           _T1CON	set	0x20E
   745  020E                     	global	_TMR0
   746                           _TMR0	set	0x59C
   747  059C                     	global	_T0CON1
   748                           _T0CON1	set	0x59F
   749  059F                     	global	_T0CON0
   750                           _T0CON0	set	0x59E
   751  059E                     	global	_PIE3bits
   752                           _PIE3bits	set	0x719
   753  0719                     	global	_PIR4bits
   754                           _PIR4bits	set	0x710
   755  0710                     	global	_PIE4bits
   756                           _PIE4bits	set	0x71A
   757  071A                     	global	_PIR0bits
   758                           _PIR0bits	set	0x70C
   759  070C                     	global	_PIE0bits
   760                           _PIE0bits	set	0x716
   761  0716                     	global	_PIE4
   762                           _PIE4	set	0x71A
   763  071A                     	global	_PIE3
   764                           _PIE3	set	0x719
   765  0719                     	global	_PIE0
   766                           _PIE0	set	0x716
   767  0716                     	global	_PIR3bits
   768                           _PIR3bits	set	0x70F
   769  070F                     	global	_OSCCON3bits
   770                           _OSCCON3bits	set	0x88F
   771  088F                     	global	_OSCCON1
   772                           _OSCCON1	set	0x88D
   773  088D                     	global	_OSCFRQ
   774                           _OSCFRQ	set	0x893
   775  0893                     	global	_ANSELC
   776                           _ANSELC	set	0x1F4E
   777  1F4E                     	global	_ANSELA
   778                           _ANSELA	set	0x1F38
   779  1F38                     	global	_RC4PPS
   780                           _RC4PPS	set	0x1F24
   781  1F24                     ; #config settings
   782                           global __CFG_FEXTOSC$ECH
   783                           __CFG_FEXTOSC$ECH equ 0x0
   784  0000                     global __CFG_RSTOSC$HFINT1
   785                           __CFG_RSTOSC$HFINT1 equ 0x0
   786  0000                     global __CFG_CLKOUTEN$OFF
   787                           __CFG_CLKOUTEN$OFF equ 0x0
   788  0000                     global __CFG_CSWEN$ON
   789                           __CFG_CSWEN$ON equ 0x0
   790  0000                     global __CFG_FCMEN$ON
   791                           __CFG_FCMEN$ON equ 0x0
   792  0000                     global __CFG_MCLRE$ON
   793                           __CFG_MCLRE$ON equ 0x0
   794  0000                     global __CFG_PWRTE$OFF
   795                           __CFG_PWRTE$OFF equ 0x0
   796  0000                     global __CFG_LPBOREN$OFF
   797                           __CFG_LPBOREN$OFF equ 0x0
   798  0000                     global __CFG_BOREN$ON
   799                           __CFG_BOREN$ON equ 0x0
   800  0000                     global __CFG_BORV$LO
   801                           __CFG_BORV$LO equ 0x0
   802  0000                     global __CFG_ZCD$OFF
   803                           __CFG_ZCD$OFF equ 0x0
   804  0000                     global __CFG_PPS1WAY$ON
   805                           __CFG_PPS1WAY$ON equ 0x0
   806  0000                     global __CFG_STVREN$ON
   807                           __CFG_STVREN$ON equ 0x0
   808  0000                     global __CFG_WDTCPS$WDTCPS_31
   809                           __CFG_WDTCPS$WDTCPS_31 equ 0x0
   810  0000                     global __CFG_WDTE$OFF
   811                           __CFG_WDTE$OFF equ 0x0
   812  0000                     global __CFG_WDTCWS$WDTCWS_7
   813                           __CFG_WDTCWS$WDTCWS_7 equ 0x0
   814  0000                     global __CFG_WDTCCS$SC
   815                           __CFG_WDTCCS$SC equ 0x0
   816  0000                     global __CFG_BBSIZE$BB512
   817                           __CFG_BBSIZE$BB512 equ 0x0
   818  0000                     global __CFG_BBEN$OFF
   819                           __CFG_BBEN$OFF equ 0x0
   820  0000                     global __CFG_SAFEN$OFF
   821                           __CFG_SAFEN$OFF equ 0x0
   822  0000                     global __CFG_WRTAPP$OFF
   823                           __CFG_WRTAPP$OFF equ 0x0
   824  0000                     global __CFG_WRTB$OFF
   825                           __CFG_WRTB$OFF equ 0x0
   826  0000                     global __CFG_WRTC$OFF
   827                           __CFG_WRTC$OFF equ 0x0
   828  0000                     global __CFG_WRTSAF$OFF
   829                           __CFG_WRTSAF$OFF equ 0x0
   830  0000                     global __CFG_LVP$ON
   831                           __CFG_LVP$ON equ 0x0
   832  0000                     global __CFG_CP$OFF
   833                           __CFG_CP$OFF equ 0x0
   834  0000                     	file	"C:\Users\Ondre\AppData\Local\Temp\s1ag."
   835                           	line	#
   836                           psect cinit,class=CODE,delta=2
   837                           global start_initialization
   838                           start_initialization:
   839  0049                     
   840                           global __initialization
   841                           __initialization:
   842  0049                     psect	bssCOMMON,class=COMMON,space=1,noexec
   843                           global __pbssCOMMON
   844                           __pbssCOMMON:
   845  0077                     _g_command:
   846  0077                            ds      1
   847  0077                     
   848                           _g_rxOErrCount:
   849  0078                            ds      1
   850  0078                     
   851                           _g_rxFErrCount:
   852  0079                            ds      1
   853  0079                     
   854                           psect	bssBANK0,class=BANK0,space=1,noexec
   855                           global __pbssBANK0
   856                           __pbssBANK0:
   857  0020                     _g_dataPacket:
   858  0020                            ds      14
   859  0020                     
   860                           	file	"C:\Users\Ondre\AppData\Local\Temp\s1ag."
   861                           	line	#
   862                           psect clrtext,class=CODE,delta=2
   863                           global clear_ram0
   864                           ;	Called with FSR0 containing the base address, and
   865                           ;	WREG with the size to clear
   866                           clear_ram0:
   867  013F                     	clrwdt			;clear the watchdog before getting into this loop
   868  013F  0064               clrloop0:
   869  0140                     	clrf	indf0		;clear RAM location pointed to by FSR
   870  0140  0180               	addfsr	0,1
   871  0141  3101               	decfsz wreg		;Have we reached the end of clearing yet?
   872  0142  0B89               	goto clrloop0	;have we reached the end yet?
   873  0143  2940               	retlw	0		;all done for this memory range, return
   874  0144  3400               ; Clear objects allocated to COMMON
   875                           psect cinit,class=CODE,delta=2,merge=1
   876                           	global __pbssCOMMON
   877                           	clrf	((__pbssCOMMON)+0)&07Fh
   878  0049  01F7               	clrf	((__pbssCOMMON)+1)&07Fh
   879  004A  01F8               	clrf	((__pbssCOMMON)+2)&07Fh
   880  004B  01F9               ; Clear objects allocated to BANK0
   881                           psect cinit,class=CODE,delta=2,merge=1
   882                           	global __pbssBANK0
   883                           	movlw	low(__pbssBANK0)
   884  004C  3020               	movwf	fsr0l
   885  004D  0084               	movlw	high(__pbssBANK0)
   886  004E  3000               	movwf	fsr0h
   887  004F  0085               	movlw	0Eh
   888  0050  300E               	fcall	clear_ram0
   889  0051  3181  213F  3180   psect cinit,class=CODE,delta=2,merge=1
   890                           global end_of_initialization,__end_of__initialization
   891                           
   892                           ;End of C runtime variable initialization code
   893                           
   894                           end_of_initialization:
   895  0054                     __end_of__initialization:
   896  0054                     	bcf int$flags,0 ;clear compiler interrupt flag (level 1)
   897  0054  107E               movlb 0
   898  0055  0140               ljmp _main	;jump to C main() function
   899  0056  3180  2858         psect	cstackCOMMON,class=COMMON,space=1,noexec
   900                           global __pcstackCOMMON
   901                           __pcstackCOMMON:
   902  0070                     ?_initialize:	; 1 bytes @ 0x0
   903  0070                     ?_eusartRxIsr:	; 1 bytes @ 0x0
   904  0070                     ??_eusartRxIsr:	; 1 bytes @ 0x0
   905  0070                     ?_main:	; 1 bytes @ 0x0
   906  0070                     ?_ISR:	; 1 bytes @ 0x0
   907  0070                     	ds	1
   908  0070                     	global	eusartRxIsr@rx
   909                           eusartRxIsr@rx:	; 1 bytes @ 0x1
   910  0071                     	ds	1
   911  0071                     ??_initialize:	; 1 bytes @ 0x2
   912  0072                     ??_main:	; 1 bytes @ 0x2
   913  0072                     ??_ISR:	; 1 bytes @ 0x2
   914  0072                     	ds	2
   915  0072                     	global	main@checksum
   916                           main@checksum:	; 1 bytes @ 0x4
   917  0074                     	ds	1
   918  0074                     	global	main@s
   919                           main@s:	; 1 bytes @ 0x5
   920  0075                     	ds	1
   921  0075                     	global	main@n
   922                           main@n:	; 1 bytes @ 0x6
   923  0076                     	ds	1
   924  0076                     ;!
   925                           ;!Data Sizes:
   926                           ;!    Strings     0
   927                           ;!    Constant    0
   928                           ;!    Data        0
   929                           ;!    BSS         17
   930                           ;!    Persistent  0
   931                           ;!    Stack       0
   932                           ;!
   933                           ;!Auto Spaces:
   934                           ;!    Space          Size  Autos    Used
   935                           ;!    COMMON           14      7      10
   936                           ;!    BANK0            80      0      14
   937                           ;!    BANK1            80      0       0
   938                           ;!    BANK2            80      0       0
   939                           ;!    BANK3            80      0       0
   940                           ;!    BANK4            80      0       0
   941                           ;!    BANK5            80      0       0
   942                           ;!    BANK6            80      0       0
   943                           ;!    BANK7            80      0       0
   944                           ;!    BANK8            80      0       0
   945                           ;!    BANK9            80      0       0
   946                           ;!    BANK10           80      0       0
   947                           ;!    BANK11           80      0       0
   948                           ;!    BANK12           48      0       0
   949                           
   950                           ;!
   951                           ;!Pointer List with Targets:
   952                           ;!
   953                           ;!    main@s	PTR unsigned char  size(1) Largest target is 14
   954                           ;!		 -> g_dataPacket(BANK0[14]), 
   955                           ;!
   956                           
   957                           
   958                           ;!
   959                           ;!Critical Paths under _main in COMMON
   960                           ;!
   961                           ;!    None.
   962                           ;!
   963                           ;!Critical Paths under _ISR in COMMON
   964                           ;!
   965                           ;!    _ISR->_eusartRxIsr
   966                           ;!
   967                           ;!Critical Paths under _main in BANK0
   968                           ;!
   969                           ;!    None.
   970                           ;!
   971                           ;!Critical Paths under _ISR in BANK0
   972                           ;!
   973                           ;!    None.
   974                           ;!
   975                           ;!Critical Paths under _main in BANK1
   976                           ;!
   977                           ;!    None.
   978                           ;!
   979                           ;!Critical Paths under _ISR in BANK1
   980                           ;!
   981                           ;!    None.
   982                           ;!
   983                           ;!Critical Paths under _main in BANK2
   984                           ;!
   985                           ;!    None.
   986                           ;!
   987                           ;!Critical Paths under _ISR in BANK2
   988                           ;!
   989                           ;!    None.
   990                           ;!
   991                           ;!Critical Paths under _main in BANK3
   992                           ;!
   993                           ;!    None.
   994                           ;!
   995                           ;!Critical Paths under _ISR in BANK3
   996                           ;!
   997                           ;!    None.
   998                           ;!
   999                           ;!Critical Paths under _main in BANK4
  1000                           ;!
  1001                           ;!    None.
  1002                           ;!
  1003                           ;!Critical Paths under _ISR in BANK4
  1004                           ;!
  1005                           ;!    None.
  1006                           ;!
  1007                           ;!Critical Paths under _main in BANK5
  1008                           ;!
  1009                           ;!    None.
  1010                           ;!
  1011                           ;!Critical Paths under _ISR in BANK5
  1012                           ;!
  1013                           ;!    None.
  1014                           ;!
  1015                           ;!Critical Paths under _main in BANK6
  1016                           ;!
  1017                           ;!    None.
  1018                           ;!
  1019                           ;!Critical Paths under _ISR in BANK6
  1020                           ;!
  1021                           ;!    None.
  1022                           ;!
  1023                           ;!Critical Paths under _main in BANK7
  1024                           ;!
  1025                           ;!    None.
  1026                           ;!
  1027                           ;!Critical Paths under _ISR in BANK7
  1028                           ;!
  1029                           ;!    None.
  1030                           ;!
  1031                           ;!Critical Paths under _main in BANK8
  1032                           ;!
  1033                           ;!    None.
  1034                           ;!
  1035                           ;!Critical Paths under _ISR in BANK8
  1036                           ;!
  1037                           ;!    None.
  1038                           ;!
  1039                           ;!Critical Paths under _main in BANK9
  1040                           ;!
  1041                           ;!    None.
  1042                           ;!
  1043                           ;!Critical Paths under _ISR in BANK9
  1044                           ;!
  1045                           ;!    None.
  1046                           ;!
  1047                           ;!Critical Paths under _main in BANK10
  1048                           ;!
  1049                           ;!    None.
  1050                           ;!
  1051                           ;!Critical Paths under _ISR in BANK10
  1052                           ;!
  1053                           ;!    None.
  1054                           ;!
  1055                           ;!Critical Paths under _main in BANK11
  1056                           ;!
  1057                           ;!    None.
  1058                           ;!
  1059                           ;!Critical Paths under _ISR in BANK11
  1060                           ;!
  1061                           ;!    None.
  1062                           ;!
  1063                           ;!Critical Paths under _main in BANK12
  1064                           ;!
  1065                           ;!    None.
  1066                           ;!
  1067                           ;!Critical Paths under _ISR in BANK12
  1068                           ;!
  1069                           ;!    None.
  1070                           
  1071 ;;
  1072 ;;Main: autosize = 0, tempsize = 2, incstack = 0, save=0
  1073 ;;
  1074                           
  1075                           ;!
  1076                           ;!Call Graph Tables:
  1077                           ;!
  1078                           ;! ---------------------------------------------------------------------------------
  1079                           ;! (Depth) Function   	        Calls       Base Space   Used Autos Params    Refs
  1080                           ;! ---------------------------------------------------------------------------------
  1081                           ;! (0) _main                                                 6     6      0     116
  1082                           ;!                                              2 COMMON     5     5      0
  1083                           ;!                         _initialize
  1084                           ;! ---------------------------------------------------------------------------------
  1085                           ;! (1) _initialize                                           0     0      0       0
  1086                           ;! ---------------------------------------------------------------------------------
  1087                           ;! Estimated maximum stack depth 1
  1088                           ;! ---------------------------------------------------------------------------------
  1089                           ;! (Depth) Function   	        Calls       Base Space   Used Autos Params    Refs
  1090                           ;! ---------------------------------------------------------------------------------
  1091                           ;! (2) _ISR                                                  0     0      0      15
  1092                           ;!                        _eusartRxIsr
  1093                           ;! ---------------------------------------------------------------------------------
  1094                           ;! (3) _eusartRxIsr                                          2     2      0      15
  1095                           ;!                                              0 COMMON     2     2      0
  1096                           ;! ---------------------------------------------------------------------------------
  1097                           ;! Estimated maximum stack depth 3
  1098                           ;! ---------------------------------------------------------------------------------
  1099                           ;!
  1100                           ;! Call Graph Graphs:
  1101                           ;!
  1102                           ;! _main (ROOT)
  1103                           ;!   _initialize
  1104                           ;!
  1105                           ;! _ISR (ROOT)
  1106                           ;!   _eusartRxIsr
  1107                           ;!
  1108                           
  1109                           ;! Address spaces:
  1110                           
  1111                           ;!Name               Size   Autos  Total    Cost      Usage
  1112                           ;!BIGRAM             3F0      0       0       0        0.0%
  1113                           ;!NULL                 0      0       0       0        0.0%
  1114                           ;!CODE                 0      0       0       0        0.0%
  1115                           ;!BITCOMMON            E      0       0       1        0.0%
  1116                           ;!BITSFR0              0      0       0       1        0.0%
  1117                           ;!SFR0                 0      0       0       1        0.0%
  1118                           ;!COMMON               E      7       A       2       71.4%
  1119                           ;!BITSFR1              0      0       0       2        0.0%
  1120                           ;!SFR1                 0      0       0       2        0.0%
  1121                           ;!BITSFR2              0      0       0       3        0.0%
  1122                           ;!SFR2                 0      0       0       3        0.0%
  1123                           ;!STACK                0      0       0       3        0.0%
  1124                           ;!BITSFR3              0      0       0       4        0.0%
  1125                           ;!SFR3                 0      0       0       4        0.0%
  1126                           ;!ABS                  0      0      18       4        0.0%
  1127                           ;!BITBANK0            50      0       0       5        0.0%
  1128                           ;!BITSFR4              0      0       0       5        0.0%
  1129                           ;!SFR4                 0      0       0       5        0.0%
  1130                           ;!BANK0               50      0       E       6       17.5%
  1131                           ;!BITSFR5              0      0       0       6        0.0%
  1132                           ;!SFR5                 0      0       0       6        0.0%
  1133                           ;!BITBANK1            50      0       0       7        0.0%
  1134                           ;!BITSFR6              0      0       0       7        0.0%
  1135                           ;!SFR6                 0      0       0       7        0.0%
  1136                           ;!BANK1               50      0       0       8        0.0%
  1137                           ;!BITSFR7              0      0       0       8        0.0%
  1138                           ;!SFR7                 0      0       0       8        0.0%
  1139                           ;!BITBANK2            50      0       0       9        0.0%
  1140                           ;!BITSFR8              0      0       0       9        0.0%
  1141                           ;!SFR8                 0      0       0       9        0.0%
  1142                           ;!BANK2               50      0       0      10        0.0%
  1143                           ;!BITSFR9              0      0       0      10        0.0%
  1144                           ;!SFR9                 0      0       0      10        0.0%
  1145                           ;!BITBANK3            50      0       0      11        0.0%
  1146                           ;!BITSFR10             0      0       0      11        0.0%
  1147                           ;!SFR10                0      0       0      11        0.0%
  1148                           ;!BANK3               50      0       0      12        0.0%
  1149                           ;!BITSFR11             0      0       0      12        0.0%
  1150                           ;!SFR11                0      0       0      12        0.0%
  1151                           ;!BITBANK4            50      0       0      13        0.0%
  1152                           ;!BITSFR12             0      0       0      13        0.0%
  1153                           ;!SFR12                0      0       0      13        0.0%
  1154                           ;!BANK4               50      0       0      14        0.0%
  1155                           ;!BITSFR13             0      0       0      14        0.0%
  1156                           ;!SFR13                0      0       0      14        0.0%
  1157                           ;!BITBANK5            50      0       0      15        0.0%
  1158                           ;!BITSFR14             0      0       0      15        0.0%
  1159                           ;!SFR14                0      0       0      15        0.0%
  1160                           ;!BANK5               50      0       0      16        0.0%
  1161                           ;!BITSFR15             0      0       0      16        0.0%
  1162                           ;!SFR15                0      0       0      16        0.0%
  1163                           ;!BITBANK6            50      0       0      17        0.0%
  1164                           ;!BITSFR16             0      0       0      17        0.0%
  1165                           ;!SFR16                0      0       0      17        0.0%
  1166                           ;!BANK6               50      0       0      18        0.0%
  1167                           ;!BITSFR17             0      0       0      18        0.0%
  1168                           ;!SFR17                0      0       0      18        0.0%
  1169                           ;!BITBANK7            50      0       0      19        0.0%
  1170                           ;!BITSFR18             0      0       0      19        0.0%
  1171                           ;!SFR18                0      0       0      19        0.0%
  1172                           ;!BANK7               50      0       0      20        0.0%
  1173                           ;!BITSFR19             0      0       0      20        0.0%
  1174                           ;!SFR19                0      0       0      20        0.0%
  1175                           ;!BITBANK8            50      0       0      21        0.0%
  1176                           ;!BITSFR20             0      0       0      21        0.0%
  1177                           ;!SFR20                0      0       0      21        0.0%
  1178                           ;!BANK8               50      0       0      22        0.0%
  1179                           ;!BITSFR21             0      0       0      22        0.0%
  1180                           ;!SFR21                0      0       0      22        0.0%
  1181                           ;!BITBANK9            50      0       0      23        0.0%
  1182                           ;!BITSFR22             0      0       0      23        0.0%
  1183                           ;!SFR22                0      0       0      23        0.0%
  1184                           ;!BANK9               50      0       0      24        0.0%
  1185                           ;!BITSFR23             0      0       0      24        0.0%
  1186                           ;!SFR23                0      0       0      24        0.0%
  1187                           ;!BITBANK10           50      0       0      25        0.0%
  1188                           ;!BITSFR24             0      0       0      25        0.0%
  1189                           ;!SFR24                0      0       0      25        0.0%
  1190                           ;!BANK10              50      0       0      26        0.0%
  1191                           ;!BITSFR25             0      0       0      26        0.0%
  1192                           ;!SFR25                0      0       0      26        0.0%
  1193                           ;!BITBANK11           50      0       0      27        0.0%
  1194                           ;!BITSFR26             0      0       0      27        0.0%
  1195                           ;!SFR26                0      0       0      27        0.0%
  1196                           ;!BANK11              50      0       0      28        0.0%
  1197                           ;!BITSFR27             0      0       0      28        0.0%
  1198                           ;!SFR27                0      0       0      28        0.0%
  1199                           ;!BITBANK12           30      0       0      29        0.0%
  1200                           ;!BITSFR28             0      0       0      29        0.0%
  1201                           ;!SFR28                0      0       0      29        0.0%
  1202                           ;!BANK12              30      0       0      30        0.0%
  1203                           ;!BITSFR29             0      0       0      30        0.0%
  1204                           ;!SFR29                0      0       0      30        0.0%
  1205                           ;!BITSFR30             0      0       0      31        0.0%
  1206                           ;!SFR30                0      0       0      31        0.0%
  1207                           ;!DATA                 0      0      18      31        0.0%
  1208                           ;!BITSFR31             0      0       0      32        0.0%
  1209                           ;!SFR31                0      0       0      32        0.0%
  1210                           ;!BITSFR32             0      0       0      33        0.0%
  1211                           ;!SFR32                0      0       0      33        0.0%
  1212                           ;!BITSFR33             0      0       0      34        0.0%
  1213                           ;!SFR33                0      0       0      34        0.0%
  1214                           ;!BITSFR34             0      0       0      35        0.0%
  1215                           ;!SFR34                0      0       0      35        0.0%
  1216                           ;!BITSFR35             0      0       0      36        0.0%
  1217                           ;!SFR35                0      0       0      36        0.0%
  1218                           ;!BITSFR36             0      0       0      37        0.0%
  1219                           ;!SFR36                0      0       0      37        0.0%
  1220                           ;!BITSFR37             0      0       0      38        0.0%
  1221                           ;!SFR37                0      0       0      38        0.0%
  1222                           ;!BITSFR38             0      0       0      39        0.0%
  1223                           ;!SFR38                0      0       0      39        0.0%
  1224                           ;!BITSFR39             0      0       0      40        0.0%
  1225                           ;!SFR39                0      0       0      40        0.0%
  1226                           ;!BITSFR40             0      0       0      41        0.0%
  1227                           ;!SFR40                0      0       0      41        0.0%
  1228                           ;!BITSFR41             0      0       0      42        0.0%
  1229                           ;!SFR41                0      0       0      42        0.0%
  1230                           ;!BITSFR42             0      0       0      43        0.0%
  1231                           ;!SFR42                0      0       0      43        0.0%
  1232                           ;!BITSFR43             0      0       0      44        0.0%
  1233                           ;!SFR43                0      0       0      44        0.0%
  1234                           ;!BITSFR44             0      0       0      45        0.0%
  1235                           ;!SFR44                0      0       0      45        0.0%
  1236                           ;!BITSFR45             0      0       0      46        0.0%
  1237                           ;!SFR45                0      0       0      46        0.0%
  1238                           ;!BITSFR46             0      0       0      47        0.0%
  1239                           ;!SFR46                0      0       0      47        0.0%
  1240                           ;!BITSFR47             0      0       0      48        0.0%
  1241                           ;!SFR47                0      0       0      48        0.0%
  1242                           ;!BITSFR48             0      0       0      49        0.0%
  1243                           ;!SFR48                0      0       0      49        0.0%
  1244                           ;!BITSFR49             0      0       0      50        0.0%
  1245                           ;!SFR49                0      0       0      50        0.0%
  1246                           ;!BITSFR50             0      0       0      51        0.0%
  1247                           ;!SFR50                0      0       0      51        0.0%
  1248                           ;!BITSFR51             0      0       0      52        0.0%
  1249                           ;!SFR51                0      0       0      52        0.0%
  1250                           ;!BITSFR52             0      0       0      53        0.0%
  1251                           ;!SFR52                0      0       0      53        0.0%
  1252                           ;!BITSFR53             0      0       0      54        0.0%
  1253                           ;!SFR53                0      0       0      54        0.0%
  1254                           ;!BITSFR54             0      0       0      55        0.0%
  1255                           ;!SFR54                0      0       0      55        0.0%
  1256                           ;!BITSFR55             0      0       0      56        0.0%
  1257                           ;!SFR55                0      0       0      56        0.0%
  1258                           ;!BITSFR56             0      0       0      57        0.0%
  1259                           ;!SFR56                0      0       0      57        0.0%
  1260                           ;!BITSFR57             0      0       0      58        0.0%
  1261                           ;!SFR57                0      0       0      58        0.0%
  1262                           ;!BITSFR58             0      0       0      59        0.0%
  1263                           ;!SFR58                0      0       0      59        0.0%
  1264                           ;!BITSFR59             0      0       0      60        0.0%
  1265                           ;!SFR59                0      0       0      60        0.0%
  1266                           ;!BITSFR60             0      0       0      61        0.0%
  1267                           ;!SFR60                0      0       0      61        0.0%
  1268                           ;!BITSFR61             0      0       0      62        0.0%
  1269                           ;!SFR61                0      0       0      62        0.0%
  1270                           ;!BITSFR62             0      0       0      63        0.0%
  1271                           ;!SFR62                0      0       0      63        0.0%
  1272                           ;!BITSFR63             0      0       0      64        0.0%
  1273                           ;!SFR63                0      0       0      64        0.0%
  1274                           
  1275                           	global	_main
  1276                           
  1277 ;; *************** function _main *****************
  1278 ;; Defined at:
  1279 ;;		line 59 in file "main.c"
  1280 ;; Parameters:    Size  Location     Type
  1281 ;;		None
  1282 ;; Auto vars:     Size  Location     Type
  1283 ;;  n               1    6[COMMON] unsigned char 
  1284 ;;  s               1    5[COMMON] PTR unsigned char 
  1285 ;;		 -> g_dataPacket(14), 
  1286 ;;  checksum        1    4[COMMON] unsigned char 
  1287 ;;  len             1    0        unsigned char 
  1288 ;; Return value:  Size  Location     Type
  1289 ;;                  1    wreg      void 
  1290 ;; Registers used:
  1291 ;;		wreg, fsr0l, fsr0h, fsr1l, fsr1h, status,2, status,0, pclath, cstack
  1292 ;; Tracked objects:
  1293 ;;		On entry : B3F/0
  1294 ;;		On exit  : 0/0
  1295 ;;		Unchanged: 0/0
  1296 ;; Data sizes:     COMMON   BANK0   BANK1   BANK2   BANK3   BANK4   BANK5   BANK6   BANK7   BANK8   BANK9  BANK10  BANK1
       1  BANK12
  1297 ;;      Params:         0       0       0       0       0       0       0       0       0       0       0       0       
       0       0
  1298 ;;      Locals:         3       0       0       0       0       0       0       0       0       0       0       0       
       0       0
  1299 ;;      Temps:          2       0       0       0       0       0       0       0       0       0       0       0       
       0       0
  1300 ;;      Totals:         5       0       0       0       0       0       0       0       0       0       0       0       
       0       0
  1301 ;;Total ram usage:        5 bytes
  1302 ;; Hardware stack levels required when called:    3
  1303 ;; This function calls:
  1304 ;;		_initialize
  1305 ;; This function is called by:
  1306 ;;		Startup code after reset
  1307 ;; This function uses a non-reentrant model
  1308 ;;
  1309                           psect	maintext,global,class=CODE,delta=2,merge=1,split=1,group=0
  1310                           	file	"main.c"
  1311                           	line	59
  1312                           global __pmaintext
  1313                           __pmaintext:	;psect for function _main
  1314  0058                     psect	maintext
  1315                           	file	"main.c"
  1316                           	line	59
  1317                           	global	__size_of_main
  1318                           	__size_of_main	equ	__end_of_main-_main
  1319  0086                     	
  1320                           _main:	
  1321  0058                     ;incstack = 0
  1322                           	opt	stack 13
  1323                           ; Regs used in _main: [wreg-fsr1h+status,2+status,0+pclath+cstack]
  1324                           	line	65
  1325                           	
  1326                           l785:	
  1327  0058                     ;main.c: 61:     char *s;;main.c: 62:     char checksum;;main.c: 63:     uint8_t n, len;
                                 ;main.c: 65:     initialize();
  1328                           	fcall	_initialize
  1329  0058  3180  20DE  3180   	line	67
  1330                           	
  1331                           l787:	
  1332  005B                     ;main.c: 67:     g_dataPacket.header = 0xAA;
  1333                           	movlw	low(0AAh)
  1334  005B  30AA               	movwf	(??_main+0)+0
  1335  005C  00F2               	movf	(??_main+0)+0,w
  1336  005D  0872               	movlb 0	; select bank0
  1337  005E  0140               	movwf	(_g_dataPacket)
  1338  005F  00A0               	line	68
  1339                           	
  1340                           l789:	
  1341  0060                     ;main.c: 68:     g_dataPacket.version = 0x01;
  1342                           	clrf	0+(_g_dataPacket)+01h
  1343  0060  01A1               	incf	0+(_g_dataPacket)+01h,f
  1344  0061  0AA1               	line	69
  1345                           	
  1346                           l791:	
  1347  0062                     ;main.c: 69:     g_dataPacket.tempC = 8.6;
  1348                           	movlw	0x41
  1349  0062  3041               	movwf	3+(_g_dataPacket)+02h
  1350  0063  00A5               	movlw	0x9
  1351  0064  3009               	movwf	2+(_g_dataPacket)+02h
  1352  0065  00A4               	movlw	0x99
  1353  0066  3099               	movwf	1+(_g_dataPacket)+02h
  1354  0067  00A3               	movlw	0x9a
  1355  0068  309A               	movwf	0+(_g_dataPacket)+02h
  1356  0069  00A2               
  1357                           	line	70
  1358                           	
  1359                           l793:	
  1360  006A                     ;main.c: 70:     g_dataPacket.relHum = 86.6;
  1361                           	movlw	0x42
  1362  006A  3042               	movwf	3+(_g_dataPacket)+06h
  1363  006B  00A9               	movlw	0xad
  1364  006C  30AD               	movwf	2+(_g_dataPacket)+06h
  1365  006D  00A8               	movlw	0x33
  1366  006E  3033               	movwf	1+(_g_dataPacket)+06h
  1367  006F  00A7               	movlw	0x33
  1368  0070  3033               	movwf	0+(_g_dataPacket)+06h
  1369  0071  00A6               
  1370                           	line	71
  1371                           	
  1372                           l795:	
  1373  0072                     ;main.c: 71:     g_dataPacket.dewPointC = 7.2;
  1374                           	movlw	0x40
  1375  0072  3040               	movwf	3+(_g_dataPacket)+0Ah
  1376  0073  00AD               	movlw	0xe6
  1377  0074  30E6               	movwf	2+(_g_dataPacket)+0Ah
  1378  0075  00AC               	movlw	0x66
  1379  0076  3066               	movwf	1+(_g_dataPacket)+0Ah
  1380  0077  00AB               	movlw	0x66
  1381  0078  3066               	movwf	0+(_g_dataPacket)+0Ah
  1382  0079  00AA               
  1383                           	line	73
  1384                           ;main.c: 73:     while (1)
  1385                           	
  1386                           l83:	
  1387  007A                     	line	75
  1388                           # 75 "main.c"
  1389                           clrwdt ;# 
  1390  007A  0064               psect	maintext
  1391                           	line	76
  1392                           ;main.c: 76:         switch (g_command)
  1393                           	goto	l833
  1394  007B  28CA               	line	78
  1395                           ;main.c: 77:         {;main.c: 78:         case GET_DATA:
  1396                           	
  1397                           l85:	
  1398  007C                     	line	79
  1399                           	
  1400                           l797:	
  1401  007C                     ;main.c: 79:             g_command = NO_COMMAND;
  1402                           	clrf	(_g_command)
  1403  007C  01F7               	line	80
  1404                           	
  1405                           l799:	
  1406  007D                     ;main.c: 80:             s = (char *) &g_dataPacket;
  1407                           	movlw	(low(_g_dataPacket|((0x0)<<8)))&0ffh
  1408  007D  3020               	movwf	(??_main+0)+0
  1409  007E  00F2               	movf	(??_main+0)+0,w
  1410  007F  0872               	movwf	(main@s)
  1411  0080  00F5               	line	81
  1412                           	
  1413                           l801:	
  1414  0081                     ;main.c: 81:             checksum = 0;
  1415                           	clrf	(main@checksum)
  1416  0081  01F4               	line	82
  1417                           	
  1418                           l803:	
  1419  0082                     ;main.c: 82:             for (n = 0; n < sizeof (t_dataPacket); n++)
  1420                           	clrf	(main@n)
  1421  0082  01F6               	
  1422                           l805:	
  1423  0083                     	movlw	low(0Eh)
  1424  0083  300E               	subwf	(main@n),w
  1425  0084  0276               	skipc
  1426  0085  1C03               	goto	u221
  1427  0086  2888               	goto	u220
  1428  0087  2889               u221:
  1429  0088                     	goto	l809
  1430  0088  288B               u220:
  1431  0089                     	goto	l821
  1432  0089  28AF               	
  1433                           l807:	
  1434  008A                     	goto	l821
  1435  008A  28AF               	
  1436                           l86:	
  1437  008B                     	line	84
  1438                           	
  1439                           l809:	
  1440  008B                     ;main.c: 83:             {;main.c: 84:                 checksum ^= *s;
  1441                           	movf	(main@s),w
  1442  008B  0875               	movwf	fsr1l
  1443  008C  0086               	clrf fsr1h	
  1444  008D  0187               	
  1445                           	movf	indf1,w
  1446  008E  0801               	movwf	(??_main+0)+0
  1447  008F  00F2               	movf	(??_main+0)+0,w
  1448  0090  0872               	xorwf	(main@checksum),f
  1449  0091  06F4               	line	85
  1450                           	
  1451                           l811:	
  1452  0092                     ;main.c: 85:                 TX1REG = *(s++);
  1453                           	movf	(main@s),w
  1454  0092  0875               	movwf	fsr1l
  1455  0093  0086               	clrf fsr1h	
  1456  0094  0187               	
  1457                           	movf	indf1,w
  1458  0095  0801               	movlb 2	; select bank2
  1459  0096  0142               	movwf	(282)^0100h	;volatile
  1460  0097  009A               	
  1461                           l813:	
  1462  0098                     	movlw	low(01h)
  1463  0098  3001               	movwf	(??_main+0)+0
  1464  0099  00F2               	movf	(??_main+0)+0,w
  1465  009A  0872               	addwf	(main@s),f
  1466  009B  07F5               	line	86
  1467                           	
  1468                           l815:	
  1469  009C                     ;main.c: 86:                 __nop();
  1470                           	opt	asmopt_push
  1471                           	opt	asmopt_off
  1472                           	nop
  1473  009C  0000               	opt	asmopt_pop
  1474                           	line	87
  1475                           ;main.c: 87:                 while (!PIR3bits.TX1IF);
  1476                           	goto	l88
  1477  009D  289E               	
  1478                           l89:	
  1479  009E                     	
  1480                           l88:	
  1481  009E                     	movlb 14	; select bank14
  1482  009E  014E               	btfss	(1807)^0700h,4	;volatile
  1483  009F  1E0F               	goto	u231
  1484  00A0  28A2               	goto	u230
  1485  00A1  28A3               u231:
  1486  00A2                     	goto	l88
  1487  00A2  289E               u230:
  1488  00A3                     	goto	l817
  1489  00A3  28A4               	
  1490                           l90:	
  1491  00A4                     	line	88
  1492                           	
  1493                           l817:	
  1494  00A4                     ;main.c: 88:             }
  1495                           	movlw	low(01h)
  1496  00A4  3001               	movwf	(??_main+0)+0
  1497  00A5  00F2               	movf	(??_main+0)+0,w
  1498  00A6  0872               	addwf	(main@n),f
  1499  00A7  07F6               	
  1500                           l819:	
  1501  00A8                     	movlw	low(0Eh)
  1502  00A8  300E               	subwf	(main@n),w
  1503  00A9  0276               	skipc
  1504  00AA  1C03               	goto	u241
  1505  00AB  28AD               	goto	u240
  1506  00AC  28AE               u241:
  1507  00AD                     	goto	l809
  1508  00AD  288B               u240:
  1509  00AE                     	goto	l821
  1510  00AE  28AF               	
  1511                           l87:	
  1512  00AF                     	line	89
  1513                           	
  1514                           l821:	
  1515  00AF                     ;main.c: 89:             TX1REG = checksum;
  1516                           	movf	(main@checksum),w
  1517  00AF  0874               	movlb 2	; select bank2
  1518  00B0  0142               	movwf	(282)^0100h	;volatile
  1519  00B1  009A               	line	90
  1520                           	
  1521                           l823:	
  1522  00B2                     ;main.c: 90:             __nop();
  1523                           	opt	asmopt_push
  1524                           	opt	asmopt_off
  1525                           	nop
  1526  00B2  0000               	opt	asmopt_pop
  1527                           	line	91
  1528                           ;main.c: 91:             while (!PIR3bits.TX1IF);
  1529                           	goto	l91
  1530  00B3  28B4               	
  1531                           l92:	
  1532  00B4                     	
  1533                           l91:	
  1534  00B4                     	movlb 14	; select bank14
  1535  00B4  014E               	btfss	(1807)^0700h,4	;volatile
  1536  00B5  1E0F               	goto	u251
  1537  00B6  28B8               	goto	u250
  1538  00B7  28B9               u251:
  1539  00B8                     	goto	l91
  1540  00B8  28B4               u250:
  1541  00B9                     	goto	l83
  1542  00B9  287A               	
  1543                           l93:	
  1544  00BA                     	line	92
  1545                           ;main.c: 92:             break;
  1546                           	goto	l83
  1547  00BA  287A               	line	93
  1548                           ;main.c: 93:         case UNKNOWN_COMMAND:
  1549                           	
  1550                           l95:	
  1551  00BB                     	line	94
  1552                           	
  1553                           l825:	
  1554  00BB                     ;main.c: 94:             g_command = NO_COMMAND;
  1555                           	clrf	(_g_command)
  1556  00BB  01F7               	line	95
  1557                           	
  1558                           l827:	
  1559  00BC                     ;main.c: 95:             TX1REG = 0xFF;
  1560                           	movlw	low(0FFh)
  1561  00BC  30FF               	movlb 2	; select bank2
  1562  00BD  0142               	movwf	(282)^0100h	;volatile
  1563  00BE  009A               	line	96
  1564                           	
  1565                           l829:	
  1566  00BF                     ;main.c: 96:             __nop();
  1567                           	opt	asmopt_push
  1568                           	opt	asmopt_off
  1569                           	nop
  1570  00BF  0000               	opt	asmopt_pop
  1571                           	line	97
  1572                           ;main.c: 97:             while (!PIR3bits.TX1IF);
  1573                           	goto	l96
  1574  00C0  28C1               	
  1575                           l97:	
  1576  00C1                     	
  1577                           l96:	
  1578  00C1                     	movlb 14	; select bank14
  1579  00C1  014E               	btfss	(1807)^0700h,4	;volatile
  1580  00C2  1E0F               	goto	u261
  1581  00C3  28C5               	goto	u260
  1582  00C4  28C6               u261:
  1583  00C5                     	goto	l96
  1584  00C5  28C1               u260:
  1585  00C6                     	goto	l83
  1586  00C6  287A               	
  1587                           l98:	
  1588  00C7                     	line	98
  1589                           ;main.c: 98:             break;
  1590                           	goto	l83
  1591  00C7  287A               	line	99
  1592                           ;main.c: 99:         default:
  1593                           	
  1594                           l99:	
  1595  00C8                     	line	100
  1596                           ;main.c: 100:             break;
  1597                           	goto	l83
  1598  00C8  287A               	line	101
  1599                           	
  1600                           l831:	
  1601  00C9                     ;main.c: 101:         }
  1602                           	goto	l83
  1603  00C9  287A               	
  1604                           l84:	
  1605  00CA                     	
  1606                           l833:	
  1607  00CA                     	movf	(_g_command),w
  1608  00CA  0877               	movwf	(??_main+0)+0
  1609  00CB  00F2               	clrf	(??_main+0)+0+1
  1610  00CC  01F3               	; Switch on 2 bytes has been partitioned into a top level switch of size 1, and 1 sub-s
                                 witches
  1611                           ; Switch size 1, requested type "space"
  1612                           ; Number of cases is 1, Range of values is 0 to 0
  1613                           ; switch strategies available:
  1614                           ; Name         Instructions Cycles
  1615                           ; simple_byte            4     3 (average)
  1616                           ; direct_byte            8     6 (fixed)
  1617                           ; jumptable            260     6 (fixed)
  1618                           ;	Chosen strategy is simple_byte
  1619                           
  1620                           	movf 1+(??_main+0)+0,w
  1621  00CD  0873               	opt asmopt_push
  1622                           	opt asmopt_off
  1623                           	xorlw	0^0	; case 0
  1624  00CE  3A00               	skipnz
  1625  00CF  1903               	goto	l859
  1626  00D0  28D2               	goto	l83
  1627  00D1  287A               	opt asmopt_pop
  1628                           	
  1629                           l859:	
  1630  00D2                     ; Switch size 1, requested type "space"
  1631                           ; Number of cases is 2, Range of values is 1 to 2
  1632                           ; switch strategies available:
  1633                           ; Name         Instructions Cycles
  1634                           ; simple_byte            7     4 (average)
  1635                           ; direct_byte           13     9 (fixed)
  1636                           ; jumptable            263     9 (fixed)
  1637                           ;	Chosen strategy is simple_byte
  1638                           
  1639                           	movf 0+(??_main+0)+0,w
  1640  00D2  0872               	opt asmopt_push
  1641                           	opt asmopt_off
  1642                           	xorlw	1^0	; case 1
  1643  00D3  3A01               	skipnz
  1644  00D4  1903               	goto	l797
  1645  00D5  287C               	xorlw	2^1	; case 2
  1646  00D6  3A03               	skipnz
  1647  00D7  1903               	goto	l825
  1648  00D8  28BB               	goto	l83
  1649  00D9  287A               	opt asmopt_pop
  1650                           
  1651                           	
  1652                           l94:	
  1653  00DA                     	goto	l83
  1654  00DA  287A               	line	102
  1655                           ;main.c: 102:     }
  1656                           	
  1657                           l100:	
  1658  00DB                     	goto	l83
  1659  00DB  287A               	
  1660                           l101:	
  1661  00DC                     	line	103
  1662                           	
  1663                           l102:	
  1664  00DC                     	global	start
  1665                           	ljmp	start
  1666  00DC  3180  2847         	opt stack 0
  1667                           GLOBAL	__end_of_main
  1668                           	__end_of_main:
  1669  00DE                     	signat	_main,89
  1670                           	global	_initialize
  1671                           
  1672 ;; *************** function _initialize *****************
  1673 ;; Defined at:
  1674 ;;		line 124 in file "main.c"
  1675 ;; Parameters:    Size  Location     Type
  1676 ;;		None
  1677 ;; Auto vars:     Size  Location     Type
  1678 ;;		None
  1679 ;; Return value:  Size  Location     Type
  1680 ;;                  1    wreg      void 
  1681 ;; Registers used:
  1682 ;;		wreg, status,2
  1683 ;; Tracked objects:
  1684 ;;		On entry : 0/0
  1685 ;;		On exit  : 0/0
  1686 ;;		Unchanged: 0/0
  1687 ;; Data sizes:     COMMON   BANK0   BANK1   BANK2   BANK3   BANK4   BANK5   BANK6   BANK7   BANK8   BANK9  BANK10  BANK1
       1  BANK12
  1688 ;;      Params:         0       0       0       0       0       0       0       0       0       0       0       0       
       0       0
  1689 ;;      Locals:         0       0       0       0       0       0       0       0       0       0       0       0       
       0       0
  1690 ;;      Temps:          0       0       0       0       0       0       0       0       0       0       0       0       
       0       0
  1691 ;;      Totals:         0       0       0       0       0       0       0       0       0       0       0       0       
       0       0
  1692 ;;Total ram usage:        0 bytes
  1693 ;; Hardware stack levels used:    1
  1694 ;; Hardware stack levels required when called:    2
  1695 ;; This function calls:
  1696 ;;		Nothing
  1697 ;; This function is called by:
  1698 ;;		_main
  1699 ;; This function uses a non-reentrant model
  1700 ;;
  1701                           psect	text1,local,class=CODE,delta=2,merge=1,group=0
  1702                           	line	124
  1703                           global __ptext1
  1704                           __ptext1:	;psect for function _initialize
  1705  00DE                     psect	text1
  1706                           	file	"main.c"
  1707                           	line	124
  1708                           	global	__size_of_initialize
  1709                           	__size_of_initialize	equ	__end_of_initialize-_initialize
  1710  0037                     	
  1711                           _initialize:	
  1712  00DE                     ;incstack = 0
  1713                           	opt	stack 13
  1714                           ; Regs used in _initialize: [wreg+status,2]
  1715                           	line	126
  1716                           	
  1717                           l745:	
  1718  00DE                     ;main.c: 126:     OSCFRQ = 0b00000010;
  1719                           	movlw	low(02h)
  1720  00DE  3002               	movlb 17	; select bank17
  1721  00DF  0151               	movwf	(2195)^0880h	;volatile
  1722  00E0  0093               	line	127
  1723                           ;main.c: 127:     OSCCON1 = 0b01100000;
  1724                           	movlw	low(060h)
  1725  00E1  3060               	movwf	(2189)^0880h	;volatile
  1726  00E2  008D               	line	128
  1727                           ;main.c: 128:     while (!OSCCON3bits.ORDY);
  1728                           	goto	l113
  1729  00E3  28E4               	
  1730                           l114:	
  1731  00E4                     	
  1732                           l113:	
  1733  00E4                     	btfss	(2191)^0880h,4	;volatile
  1734  00E4  1E0F               	goto	u211
  1735  00E5  28E7               	goto	u210
  1736  00E6  28E8               u211:
  1737  00E7                     	goto	l113
  1738  00E7  28E4               u210:
  1739  00E8                     	goto	l747
  1740  00E8  28E9               	
  1741                           l115:	
  1742  00E9                     	line	131
  1743                           	
  1744                           l747:	
  1745  00E9                     ;main.c: 131:     RC4PPS = 0x0F;
  1746                           	movlw	low(0Fh)
  1747  00E9  300F               	movlb 62	; select bank62
  1748  00EA  017E               	movwf	(7972)^01F00h	;volatile
  1749  00EB  00A4               	line	134
  1750                           	
  1751                           l749:	
  1752  00EC                     ;main.c: 134:     ANSELA = 0;
  1753                           	clrf	(7992)^01F00h	;volatile
  1754  00EC  01B8               	line	135
  1755                           	
  1756                           l751:	
  1757  00ED                     ;main.c: 135:     ANSELC = 0;
  1758                           	clrf	(8014)^01F00h	;volatile
  1759  00ED  01CE               	line	138
  1760                           	
  1761                           l753:	
  1762  00EE                     ;main.c: 138:     TRISA = 0;
  1763                           	movlb 0	; select bank0
  1764  00EE  0140               	clrf	(18)	;volatile
  1765  00EF  0192               	line	139
  1766                           	
  1767                           l755:	
  1768  00F0                     ;main.c: 139:     TRISC = 0b00100000;
  1769                           	movlw	low(020h)
  1770  00F0  3020               	movwf	(20)	;volatile
  1771  00F1  0094               	line	142
  1772                           	
  1773                           l757:	
  1774  00F2                     ;main.c: 142:     T0CON0 = 0b10000000;
  1775                           	movlw	low(080h)
  1776  00F2  3080               	movlb 11	; select bank11
  1777  00F3  014B               	movwf	(1438)^0580h	;volatile
  1778  00F4  009E               	line	143
  1779                           	
  1780                           l759:	
  1781  00F5                     ;main.c: 143:     T0CON1 = 0b01000111;
  1782                           	movlw	low(047h)
  1783  00F5  3047               	movwf	(1439)^0580h	;volatile
  1784  00F6  009F               	line	144
  1785                           	
  1786                           l761:	
  1787  00F7                     ;main.c: 144:     TMR0 = 178;
  1788                           	movlw	low(0B2h)
  1789  00F7  30B2               	movwf	(1436)^0580h	;volatile
  1790  00F8  009C               	line	147
  1791                           	
  1792                           l763:	
  1793  00F9                     ;main.c: 147:     T1CON = 0b00110011;
  1794                           	movlw	low(033h)
  1795  00F9  3033               	movlb 4	; select bank4
  1796  00FA  0144               	movwf	(526)^0200h	;volatile
  1797  00FB  008E               	line	148
  1798                           	
  1799                           l765:	
  1800  00FC                     ;main.c: 148:     T1CLK = 0b00000001;
  1801                           	movlw	low(01h)
  1802  00FC  3001               	movwf	(529)^0200h	;volatile
  1803  00FD  0091               	line	149
  1804                           	
  1805                           l767:	
  1806  00FE                     ;main.c: 149:     TMR1 = 53035;
  1807                           	movlw	0CFh
  1808  00FE  30CF               	movwf	(524+1)^0200h	;volatile
  1809  00FF  008D               	movlw	02Bh
  1810  0100  302B               	movwf	(524)^0200h	;volatile
  1811  0101  008C               	line	152
  1812                           	
  1813                           l769:	
  1814  0102                     ;main.c: 152:     PIE0 = 0b00110000;
  1815                           	movlw	low(030h)
  1816  0102  3030               	movlb 14	; select bank14
  1817  0103  014E               	movwf	(1814)^0700h	;volatile
  1818  0104  0096               	line	153
  1819                           	
  1820                           l771:	
  1821  0105                     ;main.c: 153:     PIE3 = 0b00100000;
  1822                           	movlw	low(020h)
  1823  0105  3020               	movwf	(1817)^0700h	;volatile
  1824  0106  0099               	line	154
  1825                           	
  1826                           l773:	
  1827  0107                     ;main.c: 154:     PIE4 = 0b00000001;
  1828                           	movlw	low(01h)
  1829  0107  3001               	movwf	(1818)^0700h	;volatile
  1830  0108  009A               	line	155
  1831                           	
  1832                           l775:	
  1833  0109                     ;main.c: 155:     INTCON = 0b11000000;
  1834                           	movlw	low(0C0h)
  1835  0109  30C0               	movwf	(11)	;volatile
  1836  010A  008B               	line	159
  1837                           	
  1838                           l777:	
  1839  010B                     ;main.c: 159:     BAUD1CON = 0b00001000;
  1840                           	movlw	low(08h)
  1841  010B  3008               	movlb 2	; select bank2
  1842  010C  0142               	movwf	(287)^0100h	;volatile
  1843  010D  009F               	line	160
  1844                           	
  1845                           l779:	
  1846  010E                     ;main.c: 160:     SPBRGL = 25;
  1847                           	movlw	low(019h)
  1848  010E  3019               	movwf	(283)^0100h	;volatile
  1849  010F  009B               	line	161
  1850                           	
  1851                           l781:	
  1852  0110                     ;main.c: 161:     RC1STA = 0b10010000;
  1853                           	movlw	low(090h)
  1854  0110  3090               	movwf	(285)^0100h	;volatile
  1855  0111  009D               	line	162
  1856                           	
  1857                           l783:	
  1858  0112                     ;main.c: 162:     TX1STA = 0b00100000;
  1859                           	movlw	low(020h)
  1860  0112  3020               	movwf	(286)^0100h	;volatile
  1861  0113  009E               	line	166
  1862                           	
  1863                           l116:	
  1864  0114                     	return
  1865  0114  0008               	opt stack 0
  1866                           GLOBAL	__end_of_initialize
  1867                           	__end_of_initialize:
  1868  0115                     	signat	_initialize,89
  1869                           	global	_ISR
  1870                           
  1871 ;; *************** function _ISR *****************
  1872 ;; Defined at:
  1873 ;;		line 172 in file "main.c"
  1874 ;; Parameters:    Size  Location     Type
  1875 ;;		None
  1876 ;; Auto vars:     Size  Location     Type
  1877 ;;		None
  1878 ;; Return value:  Size  Location     Type
  1879 ;;                  1    wreg      void 
  1880 ;; Registers used:
  1881 ;;		wreg, status,2, status,0, pclath, cstack
  1882 ;; Tracked objects:
  1883 ;;		On entry : 0/0
  1884 ;;		On exit  : 0/0
  1885 ;;		Unchanged: 0/0
  1886 ;; Data sizes:     COMMON   BANK0   BANK1   BANK2   BANK3   BANK4   BANK5   BANK6   BANK7   BANK8   BANK9  BANK10  BANK1
       1  BANK12
  1887 ;;      Params:         0       0       0       0       0       0       0       0       0       0       0       0       
       0       0
  1888 ;;      Locals:         0       0       0       0       0       0       0       0       0       0       0       0       
       0       0
  1889 ;;      Temps:          0       0       0       0       0       0       0       0       0       0       0       0       
       0       0
  1890 ;;      Totals:         0       0       0       0       0       0       0       0       0       0       0       0       
       0       0
  1891 ;;Total ram usage:        0 bytes
  1892 ;; Hardware stack levels used:    1
  1893 ;; Hardware stack levels required when called:    1
  1894 ;; This function calls:
  1895 ;;		_eusartRxIsr
  1896 ;; This function is called by:
  1897 ;;		Interrupt level 1
  1898 ;; This function uses a non-reentrant model
  1899 ;;
  1900                           psect	intentry,class=CODE,delta=2
  1901                           global __pintentry
  1902                           __pintentry:
  1903  0004                     psect	intentry
  1904                           	file	"main.c"
  1905                           	line	172
  1906                           	global	__size_of_ISR
  1907                           	__size_of_ISR	equ	__end_of_ISR-_ISR
  1908  0043                     	
  1909                           _ISR:	
  1910  0004                     ;incstack = 0
  1911                           	opt	stack 13
  1912                           	bsf int$flags,0 ;set compiler interrupt flag (level 1)
  1913  0004  147E               ; Regs used in _ISR: [wreg+status,2+status,0+pclath+cstack]
  1914                           psect	intentry
  1915                           	pagesel	$
  1916  0005  3180               	line	174
  1917                           	
  1918                           i1l701:	
  1919  0006                     ;main.c: 174:     if (PIE0bits.TMR0IE == 1 && PIR0bits.TMR0IF == 1)
  1920                           	movlb 14	; select bank14
  1921  0006  014E               	btfss	(1814)^0700h,5	;volatile
  1922  0007  1E96               	goto	u12_21
  1923  0008  280A               	goto	u12_20
  1924  0009  280B               u12_21:
  1925  000A                     	goto	i1l121
  1926  000A  2815               u12_20:
  1927  000B                     	
  1928                           i1l703:	
  1929  000B                     	btfss	(1804)^0700h,5	;volatile
  1930  000B  1E8C               	goto	u13_21
  1931  000C  280E               	goto	u13_20
  1932  000D  280F               u13_21:
  1933  000E                     	goto	i1l121
  1934  000E  2815               u13_20:
  1935  000F                     	line	177
  1936                           	
  1937                           i1l705:	
  1938  000F                     ;main.c: 175:     {;main.c: 177:         TMR0 = 178;
  1939                           	movlw	low(0B2h)
  1940  000F  30B2               	movlb 11	; select bank11
  1941  0010  014B               	movwf	(1436)^0580h	;volatile
  1942  0011  009C               	line	178
  1943                           	
  1944                           i1l707:	
  1945  0012                     ;main.c: 178:         PIR0bits.TMR0IF = 0;
  1946                           	movlb 14	; select bank14
  1947  0012  014E               	bcf	(1804)^0700h,5	;volatile
  1948  0013  128C               	line	179
  1949                           ;main.c: 179:     }
  1950                           	goto	i1l129
  1951  0014  2845               	line	180
  1952                           ;main.c: 180:     else if (PIE0bits.IOCIE == 1 && PIR0bits.IOCIF == 1)
  1953                           	
  1954                           i1l121:	
  1955  0015                     	btfss	(1814)^0700h,4	;volatile
  1956  0015  1E16               	goto	u14_21
  1957  0016  2818               	goto	u14_20
  1958  0017  2819               u14_21:
  1959  0018                     	goto	i1l123
  1960  0018  281F               u14_20:
  1961  0019                     	
  1962                           i1l709:	
  1963  0019                     	btfss	(1804)^0700h,4	;volatile
  1964  0019  1E0C               	goto	u15_21
  1965  001A  281C               	goto	u15_20
  1966  001B  281D               u15_21:
  1967  001C                     	goto	i1l123
  1968  001C  281F               u15_20:
  1969  001D                     	goto	i1l129
  1970  001D  2845               	line	183
  1971                           	
  1972                           i1l711:	
  1973  001E                     ;main.c: 181:     {;main.c: 183:     }
  1974                           	goto	i1l129
  1975  001E  2845               	line	184
  1976                           ;main.c: 184:     else if (INTCONbits.PEIE == 1)
  1977                           	
  1978                           i1l123:	
  1979  001F                     	btfss	(11),6	;volatile
  1980  001F  1F0B               	goto	u16_21
  1981  0020  2822               	goto	u16_20
  1982  0021  2823               u16_21:
  1983  0022                     	goto	i1l129
  1984  0022  2845               u16_20:
  1985  0023                     	line	186
  1986                           	
  1987                           i1l713:	
  1988  0023                     ;main.c: 185:     {;main.c: 186:         if (PIE4bits.TMR1IE == 1 && PIR4bits.TMR1IF == 
                                 1)
  1989                           	btfss	(1818)^0700h,0	;volatile
  1990  0023  1C1A               	goto	u17_21
  1991  0024  2826               	goto	u17_20
  1992  0025  2827               u17_21:
  1993  0026                     	goto	i1l126
  1994  0026  2833               u17_20:
  1995  0027                     	
  1996                           i1l715:	
  1997  0027                     	btfss	(1808)^0700h,0	;volatile
  1998  0027  1C10               	goto	u18_21
  1999  0028  282A               	goto	u18_20
  2000  0029  282B               u18_21:
  2001  002A                     	goto	i1l126
  2002  002A  2833               u18_20:
  2003  002B                     	line	189
  2004                           	
  2005                           i1l717:	
  2006  002B                     ;main.c: 187:         {;main.c: 189:             TMR1 = 53035;
  2007                           	movlw	0CFh
  2008  002B  30CF               	movlb 4	; select bank4
  2009  002C  0144               	movwf	(524+1)^0200h	;volatile
  2010  002D  008D               	movlw	02Bh
  2011  002E  302B               	movwf	(524)^0200h	;volatile
  2012  002F  008C               	line	190
  2013                           ;main.c: 190:             PIR4bits.TMR1IF = 0;
  2014                           	movlb 14	; select bank14
  2015  0030  014E               	bcf	(1808)^0700h,0	;volatile
  2016  0031  1010               	line	191
  2017                           ;main.c: 191:         }
  2018                           	goto	i1l129
  2019  0032  2845               	line	192
  2020                           ;main.c: 192:         else if (PIE3bits.RC1IE == 1 && PIR3bits.RC1IF == 1)
  2021                           	
  2022                           i1l126:	
  2023  0033                     	btfss	(1817)^0700h,5	;volatile
  2024  0033  1E99               	goto	u19_21
  2025  0034  2836               	goto	u19_20
  2026  0035  2837               u19_21:
  2027  0036                     	goto	i1l129
  2028  0036  2845               u19_20:
  2029  0037                     	
  2030                           i1l719:	
  2031  0037                     	btfss	(1807)^0700h,5	;volatile
  2032  0037  1E8F               	goto	u20_21
  2033  0038  283A               	goto	u20_20
  2034  0039  283B               u20_21:
  2035  003A                     	goto	i1l129
  2036  003A  2845               u20_20:
  2037  003B                     	line	195
  2038                           	
  2039                           i1l721:	
  2040  003B                     ;main.c: 193:         {;main.c: 195:             eusartRxIsr();
  2041                           	fcall	_eusartRxIsr
  2042  003B  3181  2115  3180   	line	196
  2043                           	
  2044                           i1l723:	
  2045  003E                     ;main.c: 196:             PIR3bits.RC1IF = 0;
  2046                           	movlb 14	; select bank14
  2047  003E  014E               	bcf	(1807)^0700h,5	;volatile
  2048  003F  128F               	goto	i1l129
  2049  0040  2845               	line	197
  2050                           ;main.c: 197:         }
  2051                           	
  2052                           i1l128:	
  2053  0041                     	goto	i1l129
  2054  0041  2845               	
  2055                           i1l127:	
  2056  0042                     	goto	i1l129
  2057  0042  2845               	line	198
  2058                           ;main.c: 198:     }
  2059                           	
  2060                           i1l125:	
  2061  0043                     	goto	i1l129
  2062  0043  2845               	
  2063                           i1l124:	
  2064  0044                     	goto	i1l129
  2065  0044  2845               	
  2066                           i1l122:	
  2067  0045                     	line	199
  2068                           	
  2069                           i1l129:	
  2070  0045                     	bcf int$flags,0 ;clear compiler interrupt flag (level 1)
  2071  0045  107E               	retfie
  2072  0046  0009               	opt stack 0
  2073                           GLOBAL	__end_of_ISR
  2074                           	__end_of_ISR:
  2075  0047                     	signat	_ISR,89
  2076                           	global	_eusartRxIsr
  2077                           
  2078 ;; *************** function _eusartRxIsr *****************
  2079 ;; Defined at:
  2080 ;;		line 205 in file "main.c"
  2081 ;; Parameters:    Size  Location     Type
  2082 ;;		None
  2083 ;; Auto vars:     Size  Location     Type
  2084 ;;  rx              1    1[COMMON] unsigned char 
  2085 ;; Return value:  Size  Location     Type
  2086 ;;                  1    wreg      void 
  2087 ;; Registers used:
  2088 ;;		wreg, status,2, status,0
  2089 ;; Tracked objects:
  2090 ;;		On entry : 0/0
  2091 ;;		On exit  : 0/0
  2092 ;;		Unchanged: 0/0
  2093 ;; Data sizes:     COMMON   BANK0   BANK1   BANK2   BANK3   BANK4   BANK5   BANK6   BANK7   BANK8   BANK9  BANK10  BANK1
       1  BANK12
  2094 ;;      Params:         0       0       0       0       0       0       0       0       0       0       0       0       
       0       0
  2095 ;;      Locals:         1       0       0       0       0       0       0       0       0       0       0       0       
       0       0
  2096 ;;      Temps:          1       0       0       0       0       0       0       0       0       0       0       0       
       0       0
  2097 ;;      Totals:         2       0       0       0       0       0       0       0       0       0       0       0       
       0       0
  2098 ;;Total ram usage:        2 bytes
  2099 ;; Hardware stack levels used:    1
  2100 ;; This function calls:
  2101 ;;		Nothing
  2102 ;; This function is called by:
  2103 ;;		_ISR
  2104 ;; This function uses a non-reentrant model
  2105 ;;
  2106                           psect	text3,local,class=CODE,delta=2,merge=1,group=0
  2107                           	line	205
  2108                           global __ptext3
  2109                           __ptext3:	;psect for function _eusartRxIsr
  2110  0115                     psect	text3
  2111                           	file	"main.c"
  2112                           	line	205
  2113                           	global	__size_of_eusartRxIsr
  2114                           	__size_of_eusartRxIsr	equ	__end_of_eusartRxIsr-_eusartRxIsr
  2115  002A                     	
  2116                           _eusartRxIsr:	
  2117  0115                     ;incstack = 0
  2118                           	opt	stack 13
  2119                           ; Regs used in _eusartRxIsr: [wreg+status,2+status,0]
  2120                           	line	209
  2121                           	
  2122                           i1l619:	
  2123  0115                     ;main.c: 207:     char rx;;main.c: 209:     if (RC1STAbits.OERR)
  2124                           	movlb 2	; select bank2
  2125  0115  0142               	btfss	(285)^0100h,1	;volatile
  2126  0116  1C9D               	goto	u2_21
  2127  0117  2919               	goto	u2_20
  2128  0118  291A               u2_21:
  2129  0119                     	goto	i1l625
  2130  0119  2921               u2_20:
  2131  011A                     	line	211
  2132                           	
  2133                           i1l621:	
  2134  011A                     ;main.c: 210:     {;main.c: 211:         RC1STAbits.CREN = 0;
  2135                           	bcf	(285)^0100h,4	;volatile
  2136  011A  121D               	line	212
  2137                           ;main.c: 212:         RC1STAbits.CREN = 1;
  2138                           	bsf	(285)^0100h,4	;volatile
  2139  011B  161D               	line	213
  2140                           	
  2141                           i1l623:	
  2142  011C                     ;main.c: 213:         g_rxOErrCount++;
  2143                           	movlw	low(01h)
  2144  011C  3001               	movwf	(??_eusartRxIsr+0)+0
  2145  011D  00F0               	movf	(??_eusartRxIsr+0)+0,w
  2146  011E  0870               	addwf	(_g_rxOErrCount),f
  2147  011F  07F8               	goto	i1l625
  2148  0120  2921               	line	214
  2149                           ;main.c: 214:     }
  2150                           	
  2151                           i1l132:	
  2152  0121                     	line	215
  2153                           	
  2154                           i1l625:	
  2155  0121                     ;main.c: 215:     if (RC1STAbits.FERR)
  2156                           	btfss	(285)^0100h,2	;volatile
  2157  0121  1D1D               	goto	u3_21
  2158  0122  2924               	goto	u3_20
  2159  0123  2925               u3_21:
  2160  0124                     	goto	i1l631
  2161  0124  292C               u3_20:
  2162  0125                     	line	217
  2163                           	
  2164                           i1l627:	
  2165  0125                     ;main.c: 216:     {;main.c: 217:         RC1STAbits.SPEN = 0;
  2166                           	bcf	(285)^0100h,7	;volatile
  2167  0125  139D               	line	218
  2168                           ;main.c: 218:         RC1STAbits.SPEN = 1;
  2169                           	bsf	(285)^0100h,7	;volatile
  2170  0126  179D               	line	219
  2171                           	
  2172                           i1l629:	
  2173  0127                     ;main.c: 219:         g_rxFErrCount++;
  2174                           	movlw	low(01h)
  2175  0127  3001               	movwf	(??_eusartRxIsr+0)+0
  2176  0128  00F0               	movf	(??_eusartRxIsr+0)+0,w
  2177  0129  0870               	addwf	(_g_rxFErrCount),f
  2178  012A  07F9               	goto	i1l631
  2179  012B  292C               	line	220
  2180                           ;main.c: 220:     }
  2181                           	
  2182                           i1l133:	
  2183  012C                     	line	222
  2184                           	
  2185                           i1l631:	
  2186  012C                     ;main.c: 222:     rx = RC1REG;
  2187                           	movf	(281)^0100h,w	;volatile
  2188  012C  0819               	movwf	(??_eusartRxIsr+0)+0
  2189  012D  00F0               	movf	(??_eusartRxIsr+0)+0,w
  2190  012E  0870               	movwf	(eusartRxIsr@rx)
  2191  012F  00F1               	line	223
  2192                           	
  2193                           i1l633:	
  2194  0130                     ;main.c: 223:     if (rx == '?')
  2195                           		movlw	63
  2196  0130  303F               	xorwf	((eusartRxIsr@rx)),w
  2197  0131  0671               	btfss	status,2
  2198  0132  1D03               	goto	u4_21
  2199  0133  2935               	goto	u4_20
  2200  0134  2936               u4_21:
  2201  0135                     	goto	i1l637
  2202  0135  2939               u4_20:
  2203  0136                     	line	224
  2204                           	
  2205                           i1l635:	
  2206  0136                     ;main.c: 224:         g_command = GET_DATA;
  2207                           	clrf	(_g_command)
  2208  0136  01F7               	incf	(_g_command),f
  2209  0137  0AF7               	goto	i1l136
  2210  0138  293E               	line	225
  2211                           ;main.c: 225:     else
  2212                           	
  2213                           i1l134:	
  2214  0139                     	line	226
  2215                           	
  2216                           i1l637:	
  2217  0139                     ;main.c: 226:         g_command = UNKNOWN_COMMAND;
  2218                           	movlw	low(02h)
  2219  0139  3002               	movwf	(??_eusartRxIsr+0)+0
  2220  013A  00F0               	movf	(??_eusartRxIsr+0)+0,w
  2221  013B  0870               	movwf	(_g_command)
  2222  013C  00F7               	goto	i1l136
  2223  013D  293E               	
  2224                           i1l135:	
  2225  013E                     	line	227
  2226                           	
  2227                           i1l136:	
  2228  013E                     	return
  2229  013E  0008               	opt stack 0
  2230                           GLOBAL	__end_of_eusartRxIsr
  2231                           	__end_of_eusartRxIsr:
  2232  013F                     	signat	_eusartRxIsr,89
  2233                           global	___latbits
  2234                           ___latbits	equ	2
  2235  0002                     	global	btemp
  2236                           	btemp set 07Eh
  2237  007E                     
  2238                           	DABS	1,126,2	;btemp
  2239                           	global	int$flags
  2240                           	int$flags	set btemp
  2241  007E                     	global	wtemp0
  2242                           	wtemp0 set btemp+0
  2243  007E                     	end


Data Sizes:
    Strings     0
    Constant    0
    Data        0
    BSS         17
    Persistent  0
    Stack       0

Auto Spaces:
    Space          Size  Autos    Used
    COMMON           14      7      10
    BANK0            80      0      14
    BANK1            80      0       0
    BANK2            80      0       0
    BANK3            80      0       0
    BANK4            80      0       0
    BANK5            80      0       0
    BANK6            80      0       0
    BANK7            80      0       0
    BANK8            80      0       0
    BANK9            80      0       0
    BANK10           80      0       0
    BANK11           80      0       0
    BANK12           48      0       0

Pointer List with Targets:

    main@s	PTR unsigned char  size(1) Largest target is 14
		 -> g_dataPacket(BANK0[14]), 


Critical Paths under _main in COMMON

    None.

Critical Paths under _ISR in COMMON

    _ISR->_eusartRxIsr

Critical Paths under _main in BANK0

    None.

Critical Paths under _ISR in BANK0

    None.

Critical Paths under _main in BANK1

    None.

Critical Paths under _ISR in BANK1

    None.

Critical Paths under _main in BANK2

    None.

Critical Paths under _ISR in BANK2

    None.

Critical Paths under _main in BANK3

    None.

Critical Paths under _ISR in BANK3

    None.

Critical Paths under _main in BANK4

    None.

Critical Paths under _ISR in BANK4

    None.

Critical Paths under _main in BANK5

    None.

Critical Paths under _ISR in BANK5

    None.

Critical Paths under _main in BANK6

    None.

Critical Paths under _ISR in BANK6

    None.

Critical Paths under _main in BANK7

    None.

Critical Paths under _ISR in BANK7

    None.

Critical Paths under _main in BANK8

    None.

Critical Paths under _ISR in BANK8

    None.

Critical Paths under _main in BANK9

    None.

Critical Paths under _ISR in BANK9

    None.

Critical Paths under _main in BANK10

    None.

Critical Paths under _ISR in BANK10

    None.

Critical Paths under _main in BANK11

    None.

Critical Paths under _ISR in BANK11

    None.

Critical Paths under _main in BANK12

    None.

Critical Paths under _ISR in BANK12

    None.

Call Graph Tables:

 ---------------------------------------------------------------------------------
 (Depth) Function   	        Calls       Base Space   Used Autos Params    Refs
 ---------------------------------------------------------------------------------
 (0) _main                                                 6     6      0     116
                                              2 COMMON     5     5      0
                         _initialize
 ---------------------------------------------------------------------------------
 (1) _initialize                                           0     0      0       0
 ---------------------------------------------------------------------------------
 Estimated maximum stack depth 1
 ---------------------------------------------------------------------------------
 (Depth) Function   	        Calls       Base Space   Used Autos Params    Refs
 ---------------------------------------------------------------------------------
 (2) _ISR                                                  0     0      0      15
                        _eusartRxIsr
 ---------------------------------------------------------------------------------
 (3) _eusartRxIsr                                          2     2      0      15
                                              0 COMMON     2     2      0
 ---------------------------------------------------------------------------------
 Estimated maximum stack depth 3
 ---------------------------------------------------------------------------------

 Call Graph Graphs:

 _main (ROOT)
   _initialize

 _ISR (ROOT)
   _eusartRxIsr

 Address spaces:
Name               Size   Autos  Total    Cost      Usage
BIGRAM             3F0      0       0       0        0.0%
NULL                 0      0       0       0        0.0%
CODE                 0      0       0       0        0.0%
BITCOMMON            E      0       0       1        0.0%
BITSFR0              0      0       0       1        0.0%
SFR0                 0      0       0       1        0.0%
COMMON               E      7       A       2       71.4%
BITSFR1              0      0       0       2        0.0%
SFR1                 0      0       0       2        0.0%
BITSFR2              0      0       0       3        0.0%
SFR2                 0      0       0       3        0.0%
STACK                0      0       0       3        0.0%
BITSFR3              0      0       0       4        0.0%
SFR3                 0      0       0       4        0.0%
ABS                  0      0      18       4        0.0%
BITBANK0            50      0       0       5        0.0%
BITSFR4              0      0       0       5        0.0%
SFR4                 0      0       0       5        0.0%
BANK0               50      0       E       6       17.5%
BITSFR5              0      0       0       6        0.0%
SFR5                 0      0       0       6        0.0%
BITBANK1            50      0       0       7        0.0%
BITSFR6              0      0       0       7        0.0%
SFR6                 0      0       0       7        0.0%
BANK1               50      0       0       8        0.0%
BITSFR7              0      0       0       8        0.0%
SFR7                 0      0       0       8        0.0%
BITBANK2            50      0       0       9        0.0%
BITSFR8              0      0       0       9        0.0%
SFR8                 0      0       0       9        0.0%
BANK2               50      0       0      10        0.0%
BITSFR9              0      0       0      10        0.0%
SFR9                 0      0       0      10        0.0%
BITBANK3            50      0       0      11        0.0%
BITSFR10             0      0       0      11        0.0%
SFR10                0      0       0      11        0.0%
BANK3               50      0       0      12        0.0%
BITSFR11             0      0       0      12        0.0%
SFR11                0      0       0      12        0.0%
BITBANK4            50      0       0      13        0.0%
BITSFR12             0      0       0      13        0.0%
SFR12                0      0       0      13        0.0%
BANK4               50      0       0      14        0.0%
BITSFR13             0      0       0      14        0.0%
SFR13                0      0       0      14        0.0%
BITBANK5            50      0       0      15        0.0%
BITSFR14             0      0       0      15        0.0%
SFR14                0      0       0      15        0.0%
BANK5               50      0       0      16        0.0%
BITSFR15             0      0       0      16        0.0%
SFR15                0      0       0      16        0.0%
BITBANK6            50      0       0      17        0.0%
BITSFR16             0      0       0      17        0.0%
SFR16                0      0       0      17        0.0%
BANK6               50      0       0      18        0.0%
BITSFR17             0      0       0      18        0.0%
SFR17                0      0       0      18        0.0%
BITBANK7            50      0       0      19        0.0%
BITSFR18             0      0       0      19        0.0%
SFR18                0      0       0      19        0.0%
BANK7               50      0       0      20        0.0%
BITSFR19             0      0       0      20        0.0%
SFR19                0      0       0      20        0.0%
BITBANK8            50      0       0      21        0.0%
BITSFR20             0      0       0      21        0.0%
SFR20                0      0       0      21        0.0%
BANK8               50      0       0      22        0.0%
BITSFR21             0      0       0      22        0.0%
SFR21                0      0       0      22        0.0%
BITBANK9            50      0       0      23        0.0%
BITSFR22             0      0       0      23        0.0%
SFR22                0      0       0      23        0.0%
BANK9               50      0       0      24        0.0%
BITSFR23             0      0       0      24        0.0%
SFR23                0      0       0      24        0.0%
BITBANK10           50      0       0      25        0.0%
BITSFR24             0      0       0      25        0.0%
SFR24                0      0       0      25        0.0%
BANK10              50      0       0      26        0.0%
BITSFR25             0      0       0      26        0.0%
SFR25                0      0       0      26        0.0%
BITBANK11           50      0       0      27        0.0%
BITSFR26             0      0       0      27        0.0%
SFR26                0      0       0      27        0.0%
BANK11              50      0       0      28        0.0%
BITSFR27             0      0       0      28        0.0%
SFR27                0      0       0      28        0.0%
BITBANK12           30      0       0      29        0.0%
BITSFR28             0      0       0      29        0.0%
SFR28                0      0       0      29        0.0%
BANK12              30      0       0      30        0.0%
BITSFR29             0      0       0      30        0.0%
SFR29                0      0       0      30        0.0%
BITSFR30             0      0       0      31        0.0%
SFR30                0      0       0      31        0.0%
DATA                 0      0      18      31        0.0%
BITSFR31             0      0       0      32        0.0%
SFR31                0      0       0      32        0.0%
BITSFR32             0      0       0      33        0.0%
SFR32                0      0       0      33        0.0%
BITSFR33             0      0       0      34        0.0%
SFR33                0      0       0      34        0.0%
BITSFR34             0      0       0      35        0.0%
SFR34                0      0       0      35        0.0%
BITSFR35             0      0       0      36        0.0%
SFR35                0      0       0      36        0.0%
BITSFR36             0      0       0      37        0.0%
SFR36                0      0       0      37        0.0%
BITSFR37             0      0       0      38        0.0%
SFR37                0      0       0      38        0.0%
BITSFR38             0      0       0      39        0.0%
SFR38                0      0       0      39        0.0%
BITSFR39             0      0       0      40        0.0%
SFR39                0      0       0      40        0.0%
BITSFR40             0      0       0      41        0.0%
SFR40                0      0       0      41        0.0%
BITSFR41             0      0       0      42        0.0%
SFR41                0      0       0      42        0.0%
BITSFR42             0      0       0      43        0.0%
SFR42                0      0       0      43        0.0%
BITSFR43             0      0       0      44        0.0%
SFR43                0      0       0      44        0.0%
BITSFR44             0      0       0      45        0.0%
SFR44                0      0       0      45        0.0%
BITSFR45             0      0       0      46        0.0%
SFR45                0      0       0      46        0.0%
BITSFR46             0      0       0      47        0.0%
SFR46                0      0       0      47        0.0%
BITSFR47             0      0       0      48        0.0%
SFR47                0      0       0      48        0.0%
BITSFR48             0      0       0      49        0.0%
SFR48                0      0       0      49        0.0%
BITSFR49             0      0       0      50        0.0%
SFR49                0      0       0      50        0.0%
BITSFR50             0      0       0      51        0.0%
SFR50                0      0       0      51        0.0%
BITSFR51             0      0       0      52        0.0%
SFR51                0      0       0      52        0.0%
BITSFR52             0      0       0      53        0.0%
SFR52                0      0       0      53        0.0%
BITSFR53             0      0       0      54        0.0%
SFR53                0      0       0      54        0.0%
BITSFR54             0      0       0      55        0.0%
SFR54                0      0       0      55        0.0%
BITSFR55             0      0       0      56        0.0%
SFR55                0      0       0      56        0.0%
BITSFR56             0      0       0      57        0.0%
SFR56                0      0       0      57        0.0%
BITSFR57             0      0       0      58        0.0%
SFR57                0      0       0      58        0.0%
BITSFR58             0      0       0      59        0.0%
SFR58                0      0       0      59        0.0%
BITSFR59             0      0       0      60        0.0%
SFR59                0      0       0      60        0.0%
BITSFR60             0      0       0      61        0.0%
SFR60                0      0       0      61        0.0%
BITSFR61             0      0       0      62        0.0%
SFR61                0      0       0      62        0.0%
BITSFR62             0      0       0      63        0.0%
SFR62                0      0       0      63        0.0%
BITSFR63             0      0       0      64        0.0%
SFR63                0      0       0      64        0.0%


Microchip Technology PIC Macro Assembler V2.00 build -1524193055 
Symbol Table                                                                                   Wed Jan 15 23:40:47 2020

            __CFG_CP$OFF 0000                       l90 00A4                       l91 00B4  
                     l83 007A                       l84 00CA                       l92 00B4  
                     l93 00BA                       l85 007C                       l94 00DA  
                     l86 008B                       l95 00BB                       l87 00AF  
                     l96 00C1                       l88 009E                       l97 00C1  
                     l89 009E                       l98 00C7                       l99 00C8  
            __CFG_LVP$ON 0000                      l100 00DB                      l101 00DC  
                    l102 00DC                      l113 00E4                      l114 00E4  
                    l115 00E9                      l116 0114                      l801 0081  
                    l811 0092                      l803 0082                      l813 0098  
                    l821 00AF                      l805 0083                      l751 00ED  
                    l831 00C9                      l823 00B2                      l815 009C  
                    l807 008A                      l761 00F7                      l753 00EE  
                    l745 00DE                      l825 00BB                      l817 00A4  
                    l809 008B                      l833 00CA                      l771 0105  
                    l763 00F9                      l755 00F0                      l747 00E9  
                    l827 00BC                      l819 00A8                      l781 0110  
                    l773 0107                      l765 00FC                      l757 00F2  
                    l749 00EC                      l829 00BF                      l783 0112  
                    l775 0109                      l767 00FE                      l759 00F5  
                    l791 0062                      l777 010B                      l769 0102  
                    l793 006A                      l785 0058                      l779 010E  
                    l859 00D2                      l795 0072                      l787 005B  
                    l797 007C                      l789 0060                      l799 007D  
                    u210 00E8                      u211 00E7                      u220 0089  
                    u221 0088                      u230 00A3                      u231 00A2  
                    u240 00AE                      u241 00AD                      u250 00B9  
                    u251 00B8                      u260 00C6                      u261 00C5  
                    _ISR 0004             __CFG_BORV$LO 0000                      wreg 0009  
          __CFG_BBEN$OFF 0000                     ?_ISR 0070             __CFG_ZCD$OFF 0000  
                   _PIE0 0716                     _PIE3 0719                     _PIE4 071A  
                   _TMR0 059C                     _TMR1 020C                     u2_20 011A  
                   u2_21 0119                     u3_20 0125                     u3_21 0124  
                   u4_20 0136                     u4_21 0135            __CFG_FCMEN$ON 0000  
                   _main 0058                     fsr0h 0005                     fsr1h 0007  
                   indf0 0000                     fsr0l 0004                     indf1 0001  
                   fsr1l 0006                     btemp 007E            __CFG_BOREN$ON 0000  
                   start 0047            __CFG_CSWEN$ON 0000            __CFG_MCLRE$ON 0000  
           main@checksum 0074                    ??_ISR 0072                    ?_main 0070  
          __CFG_WDTE$OFF 0000                    _T1CLK 0211                    _T1CON 020E  
                  i1l121 0015                    i1l122 0045                    i1l123 001F  
                  i1l132 0121                    i1l124 0044                    i1l133 012C  
                  i1l125 0043                    i1l134 0139                    i1l126 0033  
                  i1l135 013E                    i1l127 0042                    i1l136 013E  
                  i1l128 0041                    i1l129 0045                    i1l621 011A  
                  i1l701 0006                    i1l631 012C                    i1l623 011C  
                  i1l711 001E                    i1l703 000B                    i1l633 0130  
                  i1l625 0121                    i1l721 003B                    i1l713 0023  
                  i1l705 000F                    i1l635 0136                    i1l627 0125  
                  i1l619 0115                    i1l723 003E                    i1l715 0027  
                  i1l707 0012                    i1l637 0139                    i1l629 0127  
                  i1l717 002B                    i1l709 0019                    i1l719 0037  
                  u20_20 003B                    u12_20 000B                    u20_21 003A  
                  u12_21 000A                    u13_20 000F                    u13_21 000E  
                  u14_20 0019                    u14_21 0018                    u15_20 001D  
                  u15_21 001C                    u16_20 0023                    u16_21 0022  
                  u17_20 0027                    u17_21 0026                    u18_20 002B  
                  u18_21 002A                    u19_20 0037                    u19_21 0036  
                  _TRISA 0012                    _TRISC 0014            __CFG_WRTB$OFF 0000  
          __CFG_WRTC$OFF 0000             ?_eusartRxIsr 0070                    main@n 0076  
                  main@s 0075                    status 0003                    wtemp0 007E  
        __initialization 0049             __end_of_main 00DE           __CFG_SAFEN$OFF 0000  
                 ??_main 0072                   _ANSELA 1F38                   _ANSELC 1F4E  
     __CFG_RSTOSC$HFINT1 0000                   _T0CON0 059E                   _T0CON1 059F  
                 _RC1REG 0119                   _RC1STA 011D                   _RC4PPS 1F24  
         __CFG_WDTCCS$SC 0000                   _INTCON 000B                   _OSCFRQ 0893  
                 _SPBRGL 011B                   _TX1REG 011A                   _TX1STA 011E  
         __CFG_PWRTE$OFF 0000           __CFG_STVREN$ON 0000             _g_dataPacket 0020  
__end_of__initialization 0054           __pcstackCOMMON 0070               __pbssBANK0 0020  
   __size_of_eusartRxIsr 002A               __pmaintext 0058          __CFG_PPS1WAY$ON 0000  
             __pintentry 0004                  _OSCCON1 088D               _initialize 00DE  
                __ptext1 00DE                  __ptext3 0115          __CFG_WRTAPP$OFF 0000  
           __size_of_ISR 0043          __CFG_WRTSAF$OFF 0000                  clrloop0 0140  
   end_of_initialization 0054    __CFG_WDTCPS$WDTCPS_31 0000         __CFG_FEXTOSC$ECH 0000  
            ?_initialize 0070      start_initialization 0049              __end_of_ISR 0047  
       __CFG_LPBOREN$OFF 0000              __pbssCOMMON 0077                ___latbits 0002  
          ??_eusartRxIsr 0070      __size_of_initialize 0037                _g_command 0077  
          _g_rxFErrCount 0079                 _BAUD1CON 011F            _g_rxOErrCount 0078  
    __end_of_eusartRxIsr 013F                clear_ram0 013F                 _PIE0bits 0716  
               _PIE3bits 0719                 _PIE4bits 071A                 _PIR0bits 070C  
               _PIR3bits 070F                 _PIR4bits 0710        __CFG_BBSIZE$BB512 0000  
           ??_initialize 0072              _eusartRxIsr 0115              _OSCCON3bits 088F  
          __size_of_main 0086       __end_of_initialize 0115     __CFG_WDTCWS$WDTCWS_7 0000  
             _RC1STAbits 011D                 int$flags 007E               _INTCONbits 000B  
               intlevel1 0000        __CFG_CLKOUTEN$OFF 0000            eusartRxIsr@rx 0071  
